Archive member included to satisfy reference by file (symbol)

../../../mesh/lib_51_MBTLE_PB_ADV_EE.a(prov_provisionee.c.obj)
                              CMakeFiles/51_light_control_server.dir/__/__/__/mesh/src/prov/nrf_mesh_prov.c.obj (prov_provisionee_init)
../../../mesh/lib_51_MBTLE_CORE.a(nrf_mesh_weak.c.obj)
                              CMakeFiles/51_light_control_server.dir/__/__/__/mesh/src/prov/nrf_mesh_prov.c.obj (prov_provisioner_oob_pubkey)
../../../mesh/lib_51_MBTLE_CORE.a(bearer_adv.c.obj)
                              CMakeFiles/51_light_control_server.dir/__/__/__/mesh/src/prov/prov_bearer_adv.c.obj (bearer_adv_advertiser_init)
../../../mesh/lib_51_MBTLE_CORE.a(fifo.c.obj)
                              ../../../mesh/lib_51_MBTLE_CORE.a(bearer_adv.c.obj) (fifo_init)
../../../mesh/lib_51_MBTLE_CORE.a(packet_mgr.c.obj)
                              CMakeFiles/51_light_control_server.dir/__/__/__/mesh/src/prov/prov_bearer_adv.c.obj (packet_mgr_alloc)
../../../mesh/lib_51_MBTLE_CORE.a(radio.c.obj)
                              ../../../mesh/lib_51_MBTLE_CORE.a(bearer_adv.c.obj) (radio_init)
../../../mesh/lib_51_MBTLE_CORE.a(timer.c.obj)
                              CMakeFiles/51_light_control_server.dir/__/__/__/mesh/src/prov/prov_bearer_adv.c.obj (timer_now)
../../../mesh/lib_51_MBTLE_CORE.a(timer_scheduler.c.obj)
                              CMakeFiles/51_light_control_server.dir/__/__/__/mesh/src/access/access_publish.c.obj (timer_sch_schedule)
../../../mesh/lib_51_MBTLE_CORE.a(beacon.c.obj)
                              CMakeFiles/51_light_control_server.dir/__/__/__/mesh/src/prov/prov_beacon.c.obj (beacon_create)
../../../mesh/lib_51_MBTLE_CORE.a(bearer.c.obj)
                              ../../../mesh/lib_51_MBTLE_CORE.a(bearer_adv.c.obj) (bearer_adtype_filtering_set)
../../../mesh/lib_51_MBTLE_CORE.a(bearer_event.c.obj)
                              ../../../mesh/lib_51_MBTLE_CORE.a(bearer_adv.c.obj) (bearer_event_generic_post)
../../../mesh/lib_51_MBTLE_CORE.a(nrf_mesh_configure.c.obj)
                              CMakeFiles/51_light_control_server.dir/__/__/__/mesh/src/prov/prov_bearer_adv.c.obj (nrf_mesh_configure_device_uuid_get)
../../../mesh/lib_51_MBTLE_CORE.a(enc.c.obj)
                              CMakeFiles/51_light_control_server.dir/__/__/__/mesh/src/prov/prov_utils.c.obj (enc_aes_cmac)
../../../mesh/lib_51_MBTLE_CORE.a(event.c.obj)
                              CMakeFiles/51_light_control_server.dir/__/__/__/mesh/src/prov/prov_beacon.c.obj (event_handle)
../../../mesh/lib_51_MBTLE_CORE.a(log.c.obj)
                              CMakeFiles/51_light_control_server.dir/src/main.c.obj (log_callback_rtt)
../../../mesh/lib_51_MBTLE_CORE.a(net_beacon.c.obj)
                              CMakeFiles/51_light_control_server.dir/__/__/__/mesh/models/config/src/config_server.c.obj (net_beacon_state_set)
../../../mesh/lib_51_MBTLE_CORE.a(net_state.c.obj)
                              CMakeFiles/51_light_control_server.dir/__/__/__/mesh/src/access/nrf_mesh_node_config.c.obj (net_state_reset)
../../../mesh/lib_51_MBTLE_CORE.a(nrf_mesh.c.obj)
                              CMakeFiles/51_light_control_server.dir/__/__/__/mesh/src/access/nrf_mesh_node_config.c.obj (nrf_mesh_init)
../../../mesh/lib_51_MBTLE_CORE.a(nrf_mesh_keygen.c.obj)
                              CMakeFiles/51_light_control_server.dir/__/__/__/mesh/src/access/device_state_manager.c.obj (nrf_mesh_keygen_aid)
../../../mesh/lib_51_MBTLE_CORE.a(nrf_mesh_utils.c.obj)
                              CMakeFiles/51_light_control_server.dir/__/__/__/mesh/src/prov/nrf_mesh_prov.c.obj (nrf_mesh_address_type_get)
../../../mesh/lib_51_MBTLE_CORE.a(nrf_mesh_opt.c.obj)
                              CMakeFiles/51_light_control_server.dir/__/__/__/mesh/models/config/src/config_server.c.obj (nrf_mesh_opt_set)
../../../mesh/lib_51_MBTLE_CORE.a(radio_config.c.obj)
                              ../../../mesh/lib_51_MBTLE_CORE.a(radio.c.obj) (radio_config_reset)
../../../mesh/lib_51_MBTLE_CORE.a(rand.c.obj)
                              ../../../mesh/lib_51_MBTLE_CORE.a(bearer_adv.c.obj) (rand_prng_get)
../../../mesh/lib_51_MBTLE_CORE.a(ticker.c.obj)
                              ../../../mesh/lib_51_MBTLE_CORE.a(nrf_mesh.c.obj) (ticker_init)
../../../mesh/lib_51_MBTLE_CORE.a(transport.c.obj)
                              ../../../mesh/lib_51_MBTLE_CORE.a(nrf_mesh.c.obj) (transport_init)
../../../mesh/lib_51_MBTLE_CORE.a(internal_event.c.obj)
                              ../../../mesh/lib_51_MBTLE_CORE.a(bearer.c.obj) (internal_event_push)
../../../mesh/lib_51_MBTLE_CORE.a(flash_manager.c.obj)
                              ../../../mesh/lib_51_MBTLE_CORE.a(nrf_mesh.c.obj) (flash_manager_init)
../../../mesh/lib_51_MBTLE_CORE.a(flash_manager_defrag.c.obj)
                              ../../../mesh/lib_51_MBTLE_CORE.a(flash_manager.c.obj) (flash_manager_defrag_init)
../../../mesh/lib_51_MBTLE_CORE.a(flash_manager_internal.c.obj)
                              ../../../mesh/lib_51_MBTLE_CORE.a(flash_manager.c.obj) (entry_get)
../../../mesh/lib_51_MBTLE_CORE.a(aes.c.obj)
                              ../../../mesh/lib_51_MBTLE_CORE.a(enc.c.obj) (aes_encrypt)
../../../mesh/lib_51_MBTLE_CORE.a(queue.c.obj)
                              ../../../mesh/lib_51_MBTLE_CORE.a(flash_manager.c.obj) (queue_init)
../../../mesh/lib_51_MBTLE_CORE.a(timeslot.c.obj)
                              ../../../mesh/lib_51_MBTLE_CORE.a(nrf_mesh.c.obj) (timeslot_sd_event_handler)
../../../mesh/lib_51_MBTLE_CORE.a(aes_cmac.c.obj)
                              ../../../mesh/lib_51_MBTLE_CORE.a(enc.c.obj) (aes_cmac)
../../../mesh/lib_51_MBTLE_CORE.a(ccm_soft.c.obj)
                              ../../../mesh/lib_51_MBTLE_CORE.a(enc.c.obj) (ccm_soft_encrypt)
../../../mesh/lib_51_MBTLE_CORE.a(msg_cache.c.obj)
                              ../../../mesh/lib_51_MBTLE_CORE.a(nrf_mesh.c.obj) (msg_cache_init)
../../../mesh/lib_51_MBTLE_CORE.a(network.c.obj)
                              ../../../mesh/lib_51_MBTLE_CORE.a(transport.c.obj) (network_pkt_relay)
../../../mesh/lib_51_MBTLE_CORE.a(packet.c.obj)
                              ../../../mesh/lib_51_MBTLE_CORE.a(network.c.obj) (packet_type_packet_get)
../../../mesh/lib_51_MBTLE_CORE.a(packet_buffer.c.obj)
                              ../../../mesh/lib_51_MBTLE_CORE.a(flash_manager.c.obj) (packet_buffer_init)
../../../mesh/lib_51_MBTLE_CORE.a(replay_cache.c.obj)
                              ../../../mesh/lib_51_MBTLE_CORE.a(transport.c.obj) (replay_cache_add)
../../../mesh/lib_51_MBTLE_CORE.a(mesh_flash.c.obj)
                              ../../../mesh/lib_51_MBTLE_CORE.a(flash_manager.c.obj) (mesh_flash_user_callback_set)
../../../mesh/lib_51_MBTLE_CORE.a(nrf_flash.c.obj)
                              ../../../mesh/lib_51_MBTLE_CORE.a(mesh_flash.c.obj) (nrf_flash_erase)
../../../mesh/lib_51_MBTLE_CORE.a(msqueue.c.obj)
                              ../../../mesh/lib_51_MBTLE_CORE.a(mesh_flash.c.obj) (msq_get)
../../../lib/micro-ecc/lib_51_UECC_LIB.a(uECC.c.obj)
                              CMakeFiles/51_light_control_server.dir/__/__/__/mesh/src/prov/prov_utils.c.obj (uECC_secp256r1)
../../../lib/rtt/lib_51_RTT_LIB.a(SEGGER_RTT.c.obj)
                              ../../../mesh/lib_51_MBTLE_CORE.a(log.c.obj) (SEGGER_RTT_Write)
../../../lib/rtt/lib_51_RTT_LIB.a(SEGGER_RTT_printf.c.obj)
                              ../../../mesh/lib_51_MBTLE_CORE.a(log.c.obj) (SEGGER_RTT_vprintf)
/usr/bin/../lib/gcc/arm-none-eabi/6.3.1/thumb/v6-m/libgcc.a(_udivsi3.o)
                              CMakeFiles/51_light_control_server.dir/__/__/__/mesh/src/prov/prov_bearer_adv.c.obj (__aeabi_uidiv)
/usr/bin/../lib/gcc/arm-none-eabi/6.3.1/thumb/v6-m/libgcc.a(_divsi3.o)
                              CMakeFiles/51_light_control_server.dir/__/__/__/mesh/src/access/access_reliable.c.obj (__aeabi_idiv)
/usr/bin/../lib/gcc/arm-none-eabi/6.3.1/thumb/v6-m/libgcc.a(_dvmd_tls.o)
                              /usr/bin/../lib/gcc/arm-none-eabi/6.3.1/thumb/v6-m/libgcc.a(_udivsi3.o) (__aeabi_idiv0)
/usr/bin/../lib/gcc/arm-none-eabi/6.3.1/thumb/v6-m/libgcc.a(_muldi3.o)
                              ../../../mesh/lib_51_MBTLE_CORE.a(timeslot.c.obj) (__aeabi_lmul)
/usr/bin/../lib/gcc/arm-none-eabi/6.3.1/../../../../arm-none-eabi/lib/thumb/v6-m/libg_nano.a(lib_a-exit.o)
                              /usr/bin/../lib/gcc/arm-none-eabi/6.3.1/../../../../arm-none-eabi/lib/thumb/v6-m/crt0.o (exit)
/usr/bin/../lib/gcc/arm-none-eabi/6.3.1/../../../../arm-none-eabi/lib/thumb/v6-m/libg_nano.a(lib_a-impure.o)
                              /usr/bin/../lib/gcc/arm-none-eabi/6.3.1/../../../../arm-none-eabi/lib/thumb/v6-m/libg_nano.a(lib_a-exit.o) (_global_impure_ptr)
/usr/bin/../lib/gcc/arm-none-eabi/6.3.1/../../../../arm-none-eabi/lib/thumb/v6-m/libg_nano.a(lib_a-init.o)
                              /usr/bin/../lib/gcc/arm-none-eabi/6.3.1/../../../../arm-none-eabi/lib/thumb/v6-m/crt0.o (__libc_init_array)
/usr/bin/../lib/gcc/arm-none-eabi/6.3.1/../../../../arm-none-eabi/lib/thumb/v6-m/libg_nano.a(lib_a-malloc.o)
                              ../../../mesh/lib_51_MBTLE_CORE.a(transport.c.obj) (malloc)
/usr/bin/../lib/gcc/arm-none-eabi/6.3.1/../../../../arm-none-eabi/lib/thumb/v6-m/libg_nano.a(lib_a-memcmp.o)
                              CMakeFiles/51_light_control_server.dir/__/__/__/mesh/src/prov/prov_bearer_adv.c.obj (memcmp)
/usr/bin/../lib/gcc/arm-none-eabi/6.3.1/../../../../arm-none-eabi/lib/thumb/v6-m/libg_nano.a(lib_a-memcpy-stub.o)
                              CMakeFiles/51_light_control_server.dir/__/__/__/mesh/src/prov/provisioning.c.obj (memcpy)
/usr/bin/../lib/gcc/arm-none-eabi/6.3.1/../../../../arm-none-eabi/lib/thumb/v6-m/libg_nano.a(lib_a-memset.o)
                              /usr/bin/../lib/gcc/arm-none-eabi/6.3.1/../../../../arm-none-eabi/lib/thumb/v6-m/crt0.o (memset)
/usr/bin/../lib/gcc/arm-none-eabi/6.3.1/../../../../arm-none-eabi/lib/thumb/v6-m/libg_nano.a(lib_a-nano-freer.o)
                              /usr/bin/../lib/gcc/arm-none-eabi/6.3.1/../../../../arm-none-eabi/lib/thumb/v6-m/libg_nano.a(lib_a-malloc.o) (_free_r)
/usr/bin/../lib/gcc/arm-none-eabi/6.3.1/../../../../arm-none-eabi/lib/thumb/v6-m/libg_nano.a(lib_a-nano-mallocr.o)
                              /usr/bin/../lib/gcc/arm-none-eabi/6.3.1/../../../../arm-none-eabi/lib/thumb/v6-m/libg_nano.a(lib_a-malloc.o) (_malloc_r)
/usr/bin/../lib/gcc/arm-none-eabi/6.3.1/../../../../arm-none-eabi/lib/thumb/v6-m/libg_nano.a(lib_a-sbrkr.o)
                              /usr/bin/../lib/gcc/arm-none-eabi/6.3.1/../../../../arm-none-eabi/lib/thumb/v6-m/libg_nano.a(lib_a-nano-mallocr.o) (_sbrk_r)
/usr/bin/../lib/gcc/arm-none-eabi/6.3.1/../../../../arm-none-eabi/lib/thumb/v6-m/libg_nano.a(lib_a-strcpy.o)
                              ../../../lib/rtt/lib_51_RTT_LIB.a(SEGGER_RTT.c.obj) (strcpy)
/usr/bin/../lib/gcc/arm-none-eabi/6.3.1/../../../../arm-none-eabi/lib/thumb/v6-m/libg_nano.a(lib_a-strlen.o)
                              CMakeFiles/51_light_control_server.dir/__/__/__/mesh/src/prov/prov_beacon.c.obj (strlen)
/usr/bin/../lib/gcc/arm-none-eabi/6.3.1/../../../../arm-none-eabi/lib/thumb/v6-m/libg_nano.a(lib_a-strrchr.o)
                              CMakeFiles/51_light_control_server.dir/src/main.c.obj (strrchr)
/usr/bin/../lib/gcc/arm-none-eabi/6.3.1/../../../../arm-none-eabi/lib/thumb/v6-m/libg_nano.a(lib_a-mlock.o)
                              /usr/bin/../lib/gcc/arm-none-eabi/6.3.1/../../../../arm-none-eabi/lib/thumb/v6-m/libg_nano.a(lib_a-nano-freer.o) (__malloc_lock)
/usr/bin/../lib/gcc/arm-none-eabi/6.3.1/../../../../arm-none-eabi/lib/thumb/v6-m/libg_nano.a(lib_a-reent.o)
                              /usr/bin/../lib/gcc/arm-none-eabi/6.3.1/../../../../arm-none-eabi/lib/thumb/v6-m/libg_nano.a(lib_a-sbrkr.o) (errno)
/usr/bin/../lib/gcc/arm-none-eabi/6.3.1/../../../../arm-none-eabi/lib/thumb/v6-m/libg_nano.a(lib_a-strchr.o)
                              /usr/bin/../lib/gcc/arm-none-eabi/6.3.1/../../../../arm-none-eabi/lib/thumb/v6-m/libg_nano.a(lib_a-strrchr.o) (strchr)
/usr/bin/../lib/gcc/arm-none-eabi/6.3.1/../../../../arm-none-eabi/lib/thumb/v6-m/libnosys.a(sbrk.o)
                              /usr/bin/../lib/gcc/arm-none-eabi/6.3.1/../../../../arm-none-eabi/lib/thumb/v6-m/libg_nano.a(lib_a-sbrkr.o) (_sbrk)
/usr/bin/../lib/gcc/arm-none-eabi/6.3.1/../../../../arm-none-eabi/lib/thumb/v6-m/libnosys.a(_exit.o)
                              /usr/bin/../lib/gcc/arm-none-eabi/6.3.1/../../../../arm-none-eabi/lib/thumb/v6-m/libg_nano.a(lib_a-exit.o) (_exit)

Allocating common symbols
Common symbol       size              file

nrf_nvic_state      0x8               CMakeFiles/51_light_control_server.dir/__/__/nrf_mesh_sdk.c.obj
errno               0x4               /usr/bin/../lib/gcc/arm-none-eabi/6.3.1/../../../../arm-none-eabi/lib/thumb/v6-m/libg_nano.a(lib_a-reent.o)
m_assertion_handler
                    0x4               ../../../mesh/lib_51_MBTLE_CORE.a(nrf_mesh.c.obj)
_SEGGER_RTT         0x78              ../../../lib/rtt/lib_51_RTT_LIB.a(SEGGER_RTT.c.obj)

Discarded input sections

 .text          0x0000000000000000        0x0 /usr/bin/../lib/gcc/arm-none-eabi/6.3.1/thumb/v6-m/crti.o
 .data          0x0000000000000000        0x0 /usr/bin/../lib/gcc/arm-none-eabi/6.3.1/thumb/v6-m/crti.o
 .bss           0x0000000000000000        0x0 /usr/bin/../lib/gcc/arm-none-eabi/6.3.1/thumb/v6-m/crti.o
 .data          0x0000000000000000        0x4 /usr/bin/../lib/gcc/arm-none-eabi/6.3.1/thumb/v6-m/crtbegin.o
 .data          0x0000000000000000        0x0 /usr/bin/../lib/gcc/arm-none-eabi/6.3.1/../../../../arm-none-eabi/lib/thumb/v6-m/crt0.o
 .bss           0x0000000000000000        0x0 /usr/bin/../lib/gcc/arm-none-eabi/6.3.1/../../../../arm-none-eabi/lib/thumb/v6-m/crt0.o
 .ARM.extab     0x0000000000000000        0x0 /usr/bin/../lib/gcc/arm-none-eabi/6.3.1/../../../../arm-none-eabi/lib/thumb/v6-m/crt0.o
 .text          0x0000000000000000        0x0 CMakeFiles/51_light_control_server.dir/src/main.c.obj
 .data          0x0000000000000000        0x0 CMakeFiles/51_light_control_server.dir/src/main.c.obj
 .bss           0x0000000000000000        0x0 CMakeFiles/51_light_control_server.dir/src/main.c.obj
 .text          0x0000000000000000        0x0 CMakeFiles/51_light_control_server.dir/__/__/__/mesh/src/prov/provisioning.c.obj
 .data          0x0000000000000000        0x0 CMakeFiles/51_light_control_server.dir/__/__/__/mesh/src/prov/provisioning.c.obj
 .bss           0x0000000000000000        0x0 CMakeFiles/51_light_control_server.dir/__/__/__/mesh/src/prov/provisioning.c.obj
 .text.prov_listen_stop
                0x0000000000000000        0xe CMakeFiles/51_light_control_server.dir/__/__/__/mesh/src/prov/provisioning.c.obj
 .text.prov_link_open
                0x0000000000000000       0x12 CMakeFiles/51_light_control_server.dir/__/__/__/mesh/src/prov/provisioning.c.obj
 .text.prov_tx_invite
                0x0000000000000000       0x28 CMakeFiles/51_light_control_server.dir/__/__/__/mesh/src/prov/provisioning.c.obj
 .text.prov_tx_start
                0x0000000000000000       0x1e CMakeFiles/51_light_control_server.dir/__/__/__/mesh/src/prov/provisioning.c.obj
 .text.prov_tx_data
                0x0000000000000000        0xa CMakeFiles/51_light_control_server.dir/__/__/__/mesh/src/prov/provisioning.c.obj
 .text.prov_tx  0x0000000000000000        0x8 CMakeFiles/51_light_control_server.dir/__/__/__/mesh/src/prov/provisioning.c.obj
 .text          0x0000000000000000        0x0 CMakeFiles/51_light_control_server.dir/__/__/__/mesh/src/prov/nrf_mesh_prov.c.obj
 .data          0x0000000000000000        0x0 CMakeFiles/51_light_control_server.dir/__/__/__/mesh/src/prov/nrf_mesh_prov.c.obj
 .bss           0x0000000000000000        0x0 CMakeFiles/51_light_control_server.dir/__/__/__/mesh/src/prov/nrf_mesh_prov.c.obj
 .text.nrf_mesh_prov_provision
                0x0000000000000000       0x6c CMakeFiles/51_light_control_server.dir/__/__/__/mesh/src/prov/nrf_mesh_prov.c.obj
 .text.nrf_mesh_prov_oob_use
                0x0000000000000000       0x1c CMakeFiles/51_light_control_server.dir/__/__/__/mesh/src/prov/nrf_mesh_prov.c.obj
 .text.nrf_mesh_prov_shared_secret_provide
                0x0000000000000000       0x1c CMakeFiles/51_light_control_server.dir/__/__/__/mesh/src/prov/nrf_mesh_prov.c.obj
 .text.nrf_mesh_prov_pubkey_provide
                0x0000000000000000       0x1c CMakeFiles/51_light_control_server.dir/__/__/__/mesh/src/prov/nrf_mesh_prov.c.obj
 .text          0x0000000000000000        0x0 CMakeFiles/51_light_control_server.dir/__/__/__/mesh/src/prov/prov_bearer_adv.c.obj
 .data          0x0000000000000000        0x0 CMakeFiles/51_light_control_server.dir/__/__/__/mesh/src/prov/prov_bearer_adv.c.obj
 .bss           0x0000000000000000        0x0 CMakeFiles/51_light_control_server.dir/__/__/__/mesh/src/prov/prov_bearer_adv.c.obj
 .text          0x0000000000000000        0x0 CMakeFiles/51_light_control_server.dir/__/__/__/mesh/src/prov/prov_utils.c.obj
 .data          0x0000000000000000        0x0 CMakeFiles/51_light_control_server.dir/__/__/__/mesh/src/prov/prov_utils.c.obj
 .bss           0x0000000000000000        0x0 CMakeFiles/51_light_control_server.dir/__/__/__/mesh/src/prov/prov_utils.c.obj
 .text          0x0000000000000000        0x0 CMakeFiles/51_light_control_server.dir/__/__/__/mesh/src/prov/prov_beacon.c.obj
 .data          0x0000000000000000        0x0 CMakeFiles/51_light_control_server.dir/__/__/__/mesh/src/prov/prov_beacon.c.obj
 .bss           0x0000000000000000        0x0 CMakeFiles/51_light_control_server.dir/__/__/__/mesh/src/prov/prov_beacon.c.obj
 .text.prov_beacon_unprov_report
                0x0000000000000000        0xc CMakeFiles/51_light_control_server.dir/__/__/__/mesh/src/prov/prov_beacon.c.obj
 .text          0x0000000000000000        0x0 CMakeFiles/51_light_control_server.dir/__/__/__/mesh/src/access/access.c.obj
 .data          0x0000000000000000        0x0 CMakeFiles/51_light_control_server.dir/__/__/__/mesh/src/access/access.c.obj
 .bss           0x0000000000000000        0x0 CMakeFiles/51_light_control_server.dir/__/__/__/mesh/src/access/access.c.obj
 .text.access_clear
                0x0000000000000000       0x10 CMakeFiles/51_light_control_server.dir/__/__/__/mesh/src/access/access.c.obj
 .text.access_model_subscription_lists_share
                0x0000000000000000       0x80 CMakeFiles/51_light_control_server.dir/__/__/__/mesh/src/access/access.c.obj
 .text.access_element_location_set
                0x0000000000000000       0x2c CMakeFiles/51_light_control_server.dir/__/__/__/mesh/src/access/access.c.obj
 .text          0x0000000000000000        0x0 CMakeFiles/51_light_control_server.dir/__/__/__/mesh/src/access/access_publish.c.obj
 .data          0x0000000000000000        0x0 CMakeFiles/51_light_control_server.dir/__/__/__/mesh/src/access/access_publish.c.obj
 .bss           0x0000000000000000        0x0 CMakeFiles/51_light_control_server.dir/__/__/__/mesh/src/access/access_publish.c.obj
 .text.publish_timer_tick
                0x0000000000000000       0xe0 CMakeFiles/51_light_control_server.dir/__/__/__/mesh/src/access/access_publish.c.obj
 .text.access_publish_init
                0x0000000000000000       0x38 CMakeFiles/51_light_control_server.dir/__/__/__/mesh/src/access/access_publish.c.obj
 .text          0x0000000000000000        0x0 CMakeFiles/51_light_control_server.dir/__/__/__/mesh/src/access/access_reliable.c.obj
 .data          0x0000000000000000        0x0 CMakeFiles/51_light_control_server.dir/__/__/__/mesh/src/access/access_reliable.c.obj
 .bss           0x0000000000000000        0x0 CMakeFiles/51_light_control_server.dir/__/__/__/mesh/src/access/access_reliable.c.obj
 .text.access_reliable_cancel_all
                0x0000000000000000       0x34 CMakeFiles/51_light_control_server.dir/__/__/__/mesh/src/access/access_reliable.c.obj
 .text.access_model_reliable_cancel
                0x0000000000000000       0x50 CMakeFiles/51_light_control_server.dir/__/__/__/mesh/src/access/access_reliable.c.obj
 .text.access_model_reliable_publish
                0x0000000000000000      0x20c CMakeFiles/51_light_control_server.dir/__/__/__/mesh/src/access/access_reliable.c.obj
 .text          0x0000000000000000        0x0 CMakeFiles/51_light_control_server.dir/__/__/__/mesh/src/access/device_state_manager.c.obj
 .data          0x0000000000000000        0x0 CMakeFiles/51_light_control_server.dir/__/__/__/mesh/src/access/device_state_manager.c.obj
 .bss           0x0000000000000000        0x0 CMakeFiles/51_light_control_server.dir/__/__/__/mesh/src/access/device_state_manager.c.obj
 .text.dsm_has_unflashed_data
                0x0000000000000000       0x5c CMakeFiles/51_light_control_server.dir/__/__/__/mesh/src/access/device_state_manager.c.obj
 .text.dsm_clear
                0x0000000000000000       0x64 CMakeFiles/51_light_control_server.dir/__/__/__/mesh/src/access/device_state_manager.c.obj
 .text.dsm_address_publish_remove
                0x0000000000000000       0x64 CMakeFiles/51_light_control_server.dir/__/__/__/mesh/src/access/device_state_manager.c.obj
 .text.dsm_address_subscription_count_get
                0x0000000000000000       0x88 CMakeFiles/51_light_control_server.dir/__/__/__/mesh/src/access/device_state_manager.c.obj
 .text.dsm_address_get_all
                0x0000000000000000       0x70 CMakeFiles/51_light_control_server.dir/__/__/__/mesh/src/access/device_state_manager.c.obj
 .text.dsm_subnet_handle_get
                0x0000000000000000       0x14 CMakeFiles/51_light_control_server.dir/__/__/__/mesh/src/access/device_state_manager.c.obj
 .text.dsm_subnet_handle_to_netkey_index
                0x0000000000000000       0x30 CMakeFiles/51_light_control_server.dir/__/__/__/mesh/src/access/device_state_manager.c.obj
 .text.dsm_devkey_handle_get
                0x0000000000000000       0x3a CMakeFiles/51_light_control_server.dir/__/__/__/mesh/src/access/device_state_manager.c.obj
 .text.dsm_beacon_secmat_get
                0x0000000000000000       0x30 CMakeFiles/51_light_control_server.dir/__/__/__/mesh/src/access/device_state_manager.c.obj
 .text.dsm_proxy_identity_get
                0x0000000000000000        0x4 CMakeFiles/51_light_control_server.dir/__/__/__/mesh/src/access/device_state_manager.c.obj
 .text          0x0000000000000000        0x0 CMakeFiles/51_light_control_server.dir/__/__/__/mesh/src/access/nrf_mesh_node_config.c.obj
 .data          0x0000000000000000        0x0 CMakeFiles/51_light_control_server.dir/__/__/__/mesh/src/access/nrf_mesh_node_config.c.obj
 .bss           0x0000000000000000        0x0 CMakeFiles/51_light_control_server.dir/__/__/__/mesh/src/access/nrf_mesh_node_config.c.obj
 .text.nrf_mesh_node_config_clear
                0x0000000000000000       0x1c CMakeFiles/51_light_control_server.dir/__/__/__/mesh/src/access/nrf_mesh_node_config.c.obj
 .text          0x0000000000000000        0x0 CMakeFiles/51_light_control_server.dir/__/__/__/mesh/models/config/src/config_server.c.obj
 .data          0x0000000000000000        0x0 CMakeFiles/51_light_control_server.dir/__/__/__/mesh/models/config/src/config_server.c.obj
 .bss           0x0000000000000000        0x0 CMakeFiles/51_light_control_server.dir/__/__/__/mesh/models/config/src/config_server.c.obj
 .text          0x0000000000000000        0x0 CMakeFiles/51_light_control_server.dir/__/__/__/mesh/models/config/src/packed_index_list.c.obj
 .data          0x0000000000000000        0x0 CMakeFiles/51_light_control_server.dir/__/__/__/mesh/models/config/src/packed_index_list.c.obj
 .bss           0x0000000000000000        0x0 CMakeFiles/51_light_control_server.dir/__/__/__/mesh/models/config/src/packed_index_list.c.obj
 .text          0x0000000000000000        0x0 CMakeFiles/51_light_control_server.dir/__/__/__/mesh/models/config/src/composition_data.c.obj
 .data          0x0000000000000000        0x0 CMakeFiles/51_light_control_server.dir/__/__/__/mesh/models/config/src/composition_data.c.obj
 .bss           0x0000000000000000        0x0 CMakeFiles/51_light_control_server.dir/__/__/__/mesh/models/config/src/composition_data.c.obj
 .text          0x0000000000000000        0x0 CMakeFiles/51_light_control_server.dir/__/__/nrf_mesh_sdk.c.obj
 .data          0x0000000000000000        0x0 CMakeFiles/51_light_control_server.dir/__/__/nrf_mesh_sdk.c.obj
 .bss           0x0000000000000000        0x0 CMakeFiles/51_light_control_server.dir/__/__/nrf_mesh_sdk.c.obj
 .text.sd_softdevice_enable
                0x0000000000000000        0x4 CMakeFiles/51_light_control_server.dir/__/__/nrf_mesh_sdk.c.obj
 .text.sd_ble_enable
                0x0000000000000000        0x4 CMakeFiles/51_light_control_server.dir/__/__/nrf_mesh_sdk.c.obj
 .text.softdevice_assert_handler
                0x0000000000000000       0x88 CMakeFiles/51_light_control_server.dir/__/__/nrf_mesh_sdk.c.obj
 .text.mesh_assert_handler
                0x0000000000000000       0x80 CMakeFiles/51_light_control_server.dir/__/__/nrf_mesh_sdk.c.obj
 .text.mesh_softdevice_enable
                0x0000000000000000      0x154 CMakeFiles/51_light_control_server.dir/__/__/nrf_mesh_sdk.c.obj
 .text.mesh_softdevice_setup
                0x0000000000000000       0x94 CMakeFiles/51_light_control_server.dir/__/__/nrf_mesh_sdk.c.obj
 .rodata.mesh_assert_handler.str1.4
                0x0000000000000000       0x19 CMakeFiles/51_light_control_server.dir/__/__/nrf_mesh_sdk.c.obj
 .rodata.mesh_softdevice_enable.str1.4
                0x0000000000000000       0x65 CMakeFiles/51_light_control_server.dir/__/__/nrf_mesh_sdk.c.obj
 .text          0x0000000000000000        0x0 CMakeFiles/51_light_control_server.dir/__/__/hal/src/simple_hal.c.obj
 .data          0x0000000000000000        0x0 CMakeFiles/51_light_control_server.dir/__/__/hal/src/simple_hal.c.obj
 .bss           0x0000000000000000        0x0 CMakeFiles/51_light_control_server.dir/__/__/hal/src/simple_hal.c.obj
 .text.hal_led_mask_set
                0x0000000000000000       0x20 CMakeFiles/51_light_control_server.dir/__/__/hal/src/simple_hal.c.obj
 .text.hal_buttons_init
                0x0000000000000000        0x4 CMakeFiles/51_light_control_server.dir/__/__/hal/src/simple_hal.c.obj
 .text          0x0000000000000000        0x0 CMakeFiles/51_light_control_server.dir/__/__/models/simple_on_off/src/simple_on_off_server.c.obj
 .data          0x0000000000000000        0x0 CMakeFiles/51_light_control_server.dir/__/__/models/simple_on_off/src/simple_on_off_server.c.obj
 .bss           0x0000000000000000        0x0 CMakeFiles/51_light_control_server.dir/__/__/models/simple_on_off/src/simple_on_off_server.c.obj
 .data          0x0000000000000000        0x0 CMakeFiles/51_light_control_server.dir/__/__/__/toolchain/gcc/gcc_startup_nrf51.S.obj
 .bss           0x0000000000000000        0x0 CMakeFiles/51_light_control_server.dir/__/__/__/toolchain/gcc/gcc_startup_nrf51.S.obj
 .text          0x0000000000000000        0x0 CMakeFiles/51_light_control_server.dir/__/__/__/toolchain/system_nrf51.c.obj
 .data          0x0000000000000000        0x0 CMakeFiles/51_light_control_server.dir/__/__/__/toolchain/system_nrf51.c.obj
 .bss           0x0000000000000000        0x0 CMakeFiles/51_light_control_server.dir/__/__/__/toolchain/system_nrf51.c.obj
 .text.SystemCoreClockUpdate
                0x0000000000000000       0x10 CMakeFiles/51_light_control_server.dir/__/__/__/toolchain/system_nrf51.c.obj
 .text          0x0000000000000000        0x0 ../../../mesh/lib_51_MBTLE_PB_ADV_EE.a(prov_provisionee.c.obj)
 .data          0x0000000000000000        0x0 ../../../mesh/lib_51_MBTLE_PB_ADV_EE.a(prov_provisionee.c.obj)
 .bss           0x0000000000000000        0x0 ../../../mesh/lib_51_MBTLE_PB_ADV_EE.a(prov_provisionee.c.obj)
 .text.prov_provisionee_shared_secret
                0x0000000000000000       0x30 ../../../mesh/lib_51_MBTLE_PB_ADV_EE.a(prov_provisionee.c.obj)
 .text          0x0000000000000000        0x0 ../../../mesh/lib_51_MBTLE_CORE.a(nrf_mesh_weak.c.obj)
 .data          0x0000000000000000        0x0 ../../../mesh/lib_51_MBTLE_CORE.a(nrf_mesh_weak.c.obj)
 .bss           0x0000000000000000        0x0 ../../../mesh/lib_51_MBTLE_CORE.a(nrf_mesh_weak.c.obj)
 .text._weak_handler_ptr
                0x0000000000000000        0x4 ../../../mesh/lib_51_MBTLE_CORE.a(nrf_mesh_weak.c.obj)
 .text          0x0000000000000000        0x0 ../../../mesh/lib_51_MBTLE_CORE.a(bearer_adv.c.obj)
 .data          0x0000000000000000        0x0 ../../../mesh/lib_51_MBTLE_CORE.a(bearer_adv.c.obj)
 .bss           0x0000000000000000        0x0 ../../../mesh/lib_51_MBTLE_CORE.a(bearer_adv.c.obj)
 .text.bearer_adv_available
                0x0000000000000000       0x10 ../../../mesh/lib_51_MBTLE_CORE.a(bearer_adv.c.obj)
 .text.bearer_adv_tx_raw
                0x0000000000000000       0x30 ../../../mesh/lib_51_MBTLE_CORE.a(bearer_adv.c.obj)
 .text.bearer_adv_scan_stop
                0x0000000000000000       0x28 ../../../mesh/lib_51_MBTLE_CORE.a(bearer_adv.c.obj)
 .text.bearer_adv_addr_set
                0x0000000000000000       0x3c ../../../mesh/lib_51_MBTLE_CORE.a(bearer_adv.c.obj)
 .text          0x0000000000000000        0x0 ../../../mesh/lib_51_MBTLE_CORE.a(fifo.c.obj)
 .data          0x0000000000000000        0x0 ../../../mesh/lib_51_MBTLE_CORE.a(fifo.c.obj)
 .bss           0x0000000000000000        0x0 ../../../mesh/lib_51_MBTLE_CORE.a(fifo.c.obj)
 .text.fifo_flush
                0x0000000000000000        0x6 ../../../mesh/lib_51_MBTLE_CORE.a(fifo.c.obj)
 .text.fifo_is_full
                0x0000000000000000       0x14 ../../../mesh/lib_51_MBTLE_CORE.a(fifo.c.obj)
 .text          0x0000000000000000        0x0 ../../../mesh/lib_51_MBTLE_CORE.a(packet_mgr.c.obj)
 .data          0x0000000000000000        0x0 ../../../mesh/lib_51_MBTLE_CORE.a(packet_mgr.c.obj)
 .bss           0x0000000000000000        0x0 ../../../mesh/lib_51_MBTLE_CORE.a(packet_mgr.c.obj)
 .text.packet_mgr_get_free_space
                0x0000000000000000       0x1c ../../../mesh/lib_51_MBTLE_CORE.a(packet_mgr.c.obj)
 .text.packet_mgr_refcount_get
                0x0000000000000000        0x6 ../../../mesh/lib_51_MBTLE_CORE.a(packet_mgr.c.obj)
 .text.packet_mgr_size_get
                0x0000000000000000        0x6 ../../../mesh/lib_51_MBTLE_CORE.a(packet_mgr.c.obj)
 .text          0x0000000000000000        0x0 ../../../mesh/lib_51_MBTLE_CORE.a(radio.c.obj)
 .data          0x0000000000000000        0x0 ../../../mesh/lib_51_MBTLE_CORE.a(radio.c.obj)
 .bss           0x0000000000000000        0x0 ../../../mesh/lib_51_MBTLE_CORE.a(radio.c.obj)
 .text.radio_resume
                0x0000000000000000       0x40 ../../../mesh/lib_51_MBTLE_CORE.a(radio.c.obj)
 .text          0x0000000000000000        0x0 ../../../mesh/lib_51_MBTLE_CORE.a(timer.c.obj)
 .data          0x0000000000000000        0x0 ../../../mesh/lib_51_MBTLE_CORE.a(timer.c.obj)
 .bss           0x0000000000000000        0x0 ../../../mesh/lib_51_MBTLE_CORE.a(timer.c.obj)
 .text.timer_order_cb_ppi
                0x0000000000000000       0xd0 ../../../mesh/lib_51_MBTLE_CORE.a(timer.c.obj)
 .text.timer_order_ppi
                0x0000000000000000       0x90 ../../../mesh/lib_51_MBTLE_CORE.a(timer.c.obj)
 .text          0x0000000000000000        0x0 ../../../mesh/lib_51_MBTLE_CORE.a(timer_scheduler.c.obj)
 .data          0x0000000000000000        0x0 ../../../mesh/lib_51_MBTLE_CORE.a(timer_scheduler.c.obj)
 .bss           0x0000000000000000        0x0 ../../../mesh/lib_51_MBTLE_CORE.a(timer_scheduler.c.obj)
 .text          0x0000000000000000        0x0 ../../../mesh/lib_51_MBTLE_CORE.a(beacon.c.obj)
 .data          0x0000000000000000        0x0 ../../../mesh/lib_51_MBTLE_CORE.a(beacon.c.obj)
 .bss           0x0000000000000000        0x0 ../../../mesh/lib_51_MBTLE_CORE.a(beacon.c.obj)
 .text          0x0000000000000000        0x0 ../../../mesh/lib_51_MBTLE_CORE.a(bearer.c.obj)
 .data          0x0000000000000000        0x0 ../../../mesh/lib_51_MBTLE_CORE.a(bearer.c.obj)
 .bss           0x0000000000000000        0x0 ../../../mesh/lib_51_MBTLE_CORE.a(bearer.c.obj)
 .text.gap_addr_filter_set
                0x0000000000000000       0x40 ../../../mesh/lib_51_MBTLE_CORE.a(bearer.c.obj)
 .text.bearer_filter_gap_addr_whitelist_set
                0x0000000000000000        0xa ../../../mesh/lib_51_MBTLE_CORE.a(bearer.c.obj)
 .text.bearer_filter_gap_addr_blacklist_set
                0x0000000000000000        0xa ../../../mesh/lib_51_MBTLE_CORE.a(bearer.c.obj)
 .text.bearer_filter_gap_addr_range_set
                0x0000000000000000       0x36 ../../../mesh/lib_51_MBTLE_CORE.a(bearer.c.obj)
 .text.bearer_filter_gap_addr_clear
                0x0000000000000000       0x28 ../../../mesh/lib_51_MBTLE_CORE.a(bearer.c.obj)
 .text.bearer_disable
                0x0000000000000000       0x14 ../../../mesh/lib_51_MBTLE_CORE.a(bearer.c.obj)
 .text.bearer_stats_get
                0x0000000000000000       0x2c ../../../mesh/lib_51_MBTLE_CORE.a(bearer.c.obj)
 .text          0x0000000000000000        0x0 ../../../mesh/lib_51_MBTLE_CORE.a(bearer_event.c.obj)
 .data          0x0000000000000000        0x0 ../../../mesh/lib_51_MBTLE_CORE.a(bearer_event.c.obj)
 .bss           0x0000000000000000        0x0 ../../../mesh/lib_51_MBTLE_CORE.a(bearer_event.c.obj)
 .text.bearer_event_timer_sch_post
                0x0000000000000000       0x3c ../../../mesh/lib_51_MBTLE_CORE.a(bearer_event.c.obj)
 .text.bearer_event_in_progress
                0x0000000000000000       0x18 ../../../mesh/lib_51_MBTLE_CORE.a(bearer_event.c.obj)
 .text          0x0000000000000000        0x0 ../../../mesh/lib_51_MBTLE_CORE.a(nrf_mesh_configure.c.obj)
 .data          0x0000000000000000        0x0 ../../../mesh/lib_51_MBTLE_CORE.a(nrf_mesh_configure.c.obj)
 .bss           0x0000000000000000        0x0 ../../../mesh/lib_51_MBTLE_CORE.a(nrf_mesh_configure.c.obj)
 .text.nrf_mesh_configure_device_uuid_set
                0x0000000000000000       0x14 ../../../mesh/lib_51_MBTLE_CORE.a(nrf_mesh_configure.c.obj)
 .text          0x0000000000000000        0x0 ../../../mesh/lib_51_MBTLE_CORE.a(enc.c.obj)
 .data          0x0000000000000000        0x0 ../../../mesh/lib_51_MBTLE_CORE.a(enc.c.obj)
 .bss           0x0000000000000000        0x0 ../../../mesh/lib_51_MBTLE_CORE.a(enc.c.obj)
 .text.enc_key_generate
                0x0000000000000000        0xa ../../../mesh/lib_51_MBTLE_CORE.a(enc.c.obj)
 .text          0x0000000000000000        0x0 ../../../mesh/lib_51_MBTLE_CORE.a(event.c.obj)
 .data          0x0000000000000000        0x0 ../../../mesh/lib_51_MBTLE_CORE.a(event.c.obj)
 .bss           0x0000000000000000        0x0 ../../../mesh/lib_51_MBTLE_CORE.a(event.c.obj)
 .text          0x0000000000000000        0x0 ../../../mesh/lib_51_MBTLE_CORE.a(log.c.obj)
 .data          0x0000000000000000        0x0 ../../../mesh/lib_51_MBTLE_CORE.a(log.c.obj)
 .bss           0x0000000000000000        0x0 ../../../mesh/lib_51_MBTLE_CORE.a(log.c.obj)
 .text.log_callback_logview
                0x0000000000000000       0x38 ../../../mesh/lib_51_MBTLE_CORE.a(log.c.obj)
 .text.log_set_callback
                0x0000000000000000        0xc ../../../mesh/lib_51_MBTLE_CORE.a(log.c.obj)
 .rodata.log_callback_logview.str1.4
                0x0000000000000000       0x12 ../../../mesh/lib_51_MBTLE_CORE.a(log.c.obj)
 .text          0x0000000000000000        0x0 ../../../mesh/lib_51_MBTLE_CORE.a(net_beacon.c.obj)
 .data          0x0000000000000000        0x0 ../../../mesh/lib_51_MBTLE_CORE.a(net_beacon.c.obj)
 .bss           0x0000000000000000        0x0 ../../../mesh/lib_51_MBTLE_CORE.a(net_beacon.c.obj)
 .text          0x0000000000000000        0x0 ../../../mesh/lib_51_MBTLE_CORE.a(net_state.c.obj)
 .data          0x0000000000000000        0x0 ../../../mesh/lib_51_MBTLE_CORE.a(net_state.c.obj)
 .bss           0x0000000000000000        0x0 ../../../mesh/lib_51_MBTLE_CORE.a(net_state.c.obj)
 .text.net_state_reset
                0x0000000000000000       0x3c ../../../mesh/lib_51_MBTLE_CORE.a(net_state.c.obj)
 .text.net_state_iv_update_test_mode_set
                0x0000000000000000        0xc ../../../mesh/lib_51_MBTLE_CORE.a(net_state.c.obj)
 .data.mem_listener.7451
                0x0000000000000000       0x10 ../../../mesh/lib_51_MBTLE_CORE.a(net_state.c.obj)
 .text          0x0000000000000000        0x0 ../../../mesh/lib_51_MBTLE_CORE.a(nrf_mesh.c.obj)
 .data          0x0000000000000000        0x0 ../../../mesh/lib_51_MBTLE_CORE.a(nrf_mesh.c.obj)
 .bss           0x0000000000000000        0x0 ../../../mesh/lib_51_MBTLE_CORE.a(nrf_mesh.c.obj)
 .text.nrf_mesh_disable
                0x0000000000000000       0x28 ../../../mesh/lib_51_MBTLE_CORE.a(nrf_mesh.c.obj)
 .text.nrf_mesh_adv_send
                0x0000000000000000       0xbc ../../../mesh/lib_51_MBTLE_CORE.a(nrf_mesh.c.obj)
 .text.nrf_mesh_rx_cb_set
                0x0000000000000000        0xc ../../../mesh/lib_51_MBTLE_CORE.a(nrf_mesh.c.obj)
 .text.nrf_mesh_rx_cb_clear
                0x0000000000000000        0xc ../../../mesh/lib_51_MBTLE_CORE.a(nrf_mesh.c.obj)
 .text          0x0000000000000000        0x0 ../../../mesh/lib_51_MBTLE_CORE.a(nrf_mesh_keygen.c.obj)
 .data          0x0000000000000000        0x0 ../../../mesh/lib_51_MBTLE_CORE.a(nrf_mesh_keygen.c.obj)
 .bss           0x0000000000000000        0x0 ../../../mesh/lib_51_MBTLE_CORE.a(nrf_mesh_keygen.c.obj)
 .text.nrf_mesh_keygen_identitykey
                0x0000000000000000       0x50 ../../../mesh/lib_51_MBTLE_CORE.a(nrf_mesh_keygen.c.obj)
 .text          0x0000000000000000        0x0 ../../../mesh/lib_51_MBTLE_CORE.a(nrf_mesh_utils.c.obj)
 .data          0x0000000000000000        0x0 ../../../mesh/lib_51_MBTLE_CORE.a(nrf_mesh_utils.c.obj)
 .bss           0x0000000000000000        0x0 ../../../mesh/lib_51_MBTLE_CORE.a(nrf_mesh_utils.c.obj)
 .text.nrf_mesh_rand_get
                0x0000000000000000       0x14 ../../../mesh/lib_51_MBTLE_CORE.a(nrf_mesh_utils.c.obj)
 .text          0x0000000000000000        0x0 ../../../mesh/lib_51_MBTLE_CORE.a(nrf_mesh_opt.c.obj)
 .data          0x0000000000000000        0x0 ../../../mesh/lib_51_MBTLE_CORE.a(nrf_mesh_opt.c.obj)
 .bss           0x0000000000000000        0x0 ../../../mesh/lib_51_MBTLE_CORE.a(nrf_mesh_opt.c.obj)
 .text          0x0000000000000000        0x0 ../../../mesh/lib_51_MBTLE_CORE.a(radio_config.c.obj)
 .data          0x0000000000000000        0x0 ../../../mesh/lib_51_MBTLE_CORE.a(radio_config.c.obj)
 .bss           0x0000000000000000        0x0 ../../../mesh/lib_51_MBTLE_CORE.a(radio_config.c.obj)
 .text.radio_config_access_addr_set
                0x0000000000000000       0x78 ../../../mesh/lib_51_MBTLE_CORE.a(radio_config.c.obj)
 .text.radio_config_access_addr_get
                0x0000000000000000       0x7c ../../../mesh/lib_51_MBTLE_CORE.a(radio_config.c.obj)
 .text          0x0000000000000000        0x0 ../../../mesh/lib_51_MBTLE_CORE.a(rand.c.obj)
 .data          0x0000000000000000        0x0 ../../../mesh/lib_51_MBTLE_CORE.a(rand.c.obj)
 .bss           0x0000000000000000        0x0 ../../../mesh/lib_51_MBTLE_CORE.a(rand.c.obj)
 .text          0x0000000000000000        0x0 ../../../mesh/lib_51_MBTLE_CORE.a(ticker.c.obj)
 .data          0x0000000000000000        0x0 ../../../mesh/lib_51_MBTLE_CORE.a(ticker.c.obj)
 .bss           0x0000000000000000        0x0 ../../../mesh/lib_51_MBTLE_CORE.a(ticker.c.obj)
 .text.ticker_get
                0x0000000000000000        0xc ../../../mesh/lib_51_MBTLE_CORE.a(ticker.c.obj)
 .text          0x0000000000000000        0x0 ../../../mesh/lib_51_MBTLE_CORE.a(transport.c.obj)
 .data          0x0000000000000000        0x0 ../../../mesh/lib_51_MBTLE_CORE.a(transport.c.obj)
 .bss           0x0000000000000000        0x0 ../../../mesh/lib_51_MBTLE_CORE.a(transport.c.obj)
 .text          0x0000000000000000        0x0 ../../../mesh/lib_51_MBTLE_CORE.a(internal_event.c.obj)
 .data          0x0000000000000000        0x0 ../../../mesh/lib_51_MBTLE_CORE.a(internal_event.c.obj)
 .bss           0x0000000000000000        0x0 ../../../mesh/lib_51_MBTLE_CORE.a(internal_event.c.obj)
 .text.internal_event_init
                0x0000000000000000       0x44 ../../../mesh/lib_51_MBTLE_CORE.a(internal_event.c.obj)
 .text.internal_event_pop
                0x0000000000000000       0x20 ../../../mesh/lib_51_MBTLE_CORE.a(internal_event.c.obj)
 .bss.m_internal_event_fifo_buffer
                0x0000000000000000      0x100 ../../../mesh/lib_51_MBTLE_CORE.a(internal_event.c.obj)
 .text          0x0000000000000000        0x0 ../../../mesh/lib_51_MBTLE_CORE.a(flash_manager.c.obj)
 .data          0x0000000000000000        0x0 ../../../mesh/lib_51_MBTLE_CORE.a(flash_manager.c.obj)
 .bss           0x0000000000000000        0x0 ../../../mesh/lib_51_MBTLE_CORE.a(flash_manager.c.obj)
 .text.flash_manager_entry_count_get
                0x0000000000000000       0xc4 ../../../mesh/lib_51_MBTLE_CORE.a(flash_manager.c.obj)
 .text.flash_manager_entry_release
                0x0000000000000000       0x58 ../../../mesh/lib_51_MBTLE_CORE.a(flash_manager.c.obj)
 .text          0x0000000000000000        0x0 ../../../mesh/lib_51_MBTLE_CORE.a(flash_manager_defrag.c.obj)
 .data          0x0000000000000000        0x0 ../../../mesh/lib_51_MBTLE_CORE.a(flash_manager_defrag.c.obj)
 .bss           0x0000000000000000        0x0 ../../../mesh/lib_51_MBTLE_CORE.a(flash_manager_defrag.c.obj)
 .text.flash_manager_defragging
                0x0000000000000000       0x54 ../../../mesh/lib_51_MBTLE_CORE.a(flash_manager_defrag.c.obj)
 .text          0x0000000000000000        0x0 ../../../mesh/lib_51_MBTLE_CORE.a(flash_manager_internal.c.obj)
 .data          0x0000000000000000        0x0 ../../../mesh/lib_51_MBTLE_CORE.a(flash_manager_internal.c.obj)
 .bss           0x0000000000000000        0x0 ../../../mesh/lib_51_MBTLE_CORE.a(flash_manager_internal.c.obj)
 .text          0x0000000000000000        0x0 ../../../mesh/lib_51_MBTLE_CORE.a(aes.c.obj)
 .data          0x0000000000000000        0x0 ../../../mesh/lib_51_MBTLE_CORE.a(aes.c.obj)
 .bss           0x0000000000000000        0x0 ../../../mesh/lib_51_MBTLE_CORE.a(aes.c.obj)
 .text          0x0000000000000000        0x0 ../../../mesh/lib_51_MBTLE_CORE.a(queue.c.obj)
 .data          0x0000000000000000        0x0 ../../../mesh/lib_51_MBTLE_CORE.a(queue.c.obj)
 .bss           0x0000000000000000        0x0 ../../../mesh/lib_51_MBTLE_CORE.a(queue.c.obj)
 .text.queue_peek
                0x0000000000000000       0x20 ../../../mesh/lib_51_MBTLE_CORE.a(queue.c.obj)
 .text          0x0000000000000000        0x0 ../../../mesh/lib_51_MBTLE_CORE.a(timeslot.c.obj)
 .data          0x0000000000000000        0x0 ../../../mesh/lib_51_MBTLE_CORE.a(timeslot.c.obj)
 .bss           0x0000000000000000        0x0 ../../../mesh/lib_51_MBTLE_CORE.a(timeslot.c.obj)
 .text.sd_radio_session_close
                0x0000000000000000        0x4 ../../../mesh/lib_51_MBTLE_CORE.a(timeslot.c.obj)
 .text.timeslot_stop
                0x0000000000000000       0x50 ../../../mesh/lib_51_MBTLE_CORE.a(timeslot.c.obj)
 .text.timeslot_restart
                0x0000000000000000       0x34 ../../../mesh/lib_51_MBTLE_CORE.a(timeslot.c.obj)
 .text.timeslot_start_time_get
                0x0000000000000000        0xc ../../../mesh/lib_51_MBTLE_CORE.a(timeslot.c.obj)
 .text.timeslot_is_in_ts
                0x0000000000000000        0xc ../../../mesh/lib_51_MBTLE_CORE.a(timeslot.c.obj)
 .text          0x0000000000000000        0x0 ../../../mesh/lib_51_MBTLE_CORE.a(aes_cmac.c.obj)
 .data          0x0000000000000000        0x0 ../../../mesh/lib_51_MBTLE_CORE.a(aes_cmac.c.obj)
 .bss           0x0000000000000000        0x0 ../../../mesh/lib_51_MBTLE_CORE.a(aes_cmac.c.obj)
 .text          0x0000000000000000        0x0 ../../../mesh/lib_51_MBTLE_CORE.a(ccm_soft.c.obj)
 .data          0x0000000000000000        0x0 ../../../mesh/lib_51_MBTLE_CORE.a(ccm_soft.c.obj)
 .bss           0x0000000000000000        0x0 ../../../mesh/lib_51_MBTLE_CORE.a(ccm_soft.c.obj)
 .text          0x0000000000000000        0x0 ../../../mesh/lib_51_MBTLE_CORE.a(msg_cache.c.obj)
 .data          0x0000000000000000        0x0 ../../../mesh/lib_51_MBTLE_CORE.a(msg_cache.c.obj)
 .bss           0x0000000000000000        0x0 ../../../mesh/lib_51_MBTLE_CORE.a(msg_cache.c.obj)
 .text.msg_cache_clear
                0x0000000000000000       0x20 ../../../mesh/lib_51_MBTLE_CORE.a(msg_cache.c.obj)
 .text          0x0000000000000000        0x0 ../../../mesh/lib_51_MBTLE_CORE.a(network.c.obj)
 .data          0x0000000000000000        0x0 ../../../mesh/lib_51_MBTLE_CORE.a(network.c.obj)
 .bss           0x0000000000000000        0x0 ../../../mesh/lib_51_MBTLE_CORE.a(network.c.obj)
 .text          0x0000000000000000        0x0 ../../../mesh/lib_51_MBTLE_CORE.a(packet.c.obj)
 .data          0x0000000000000000        0x0 ../../../mesh/lib_51_MBTLE_CORE.a(packet.c.obj)
 .bss           0x0000000000000000        0x0 ../../../mesh/lib_51_MBTLE_CORE.a(packet.c.obj)
 .text          0x0000000000000000        0x0 ../../../mesh/lib_51_MBTLE_CORE.a(packet_buffer.c.obj)
 .data          0x0000000000000000        0x0 ../../../mesh/lib_51_MBTLE_CORE.a(packet_buffer.c.obj)
 .bss           0x0000000000000000        0x0 ../../../mesh/lib_51_MBTLE_CORE.a(packet_buffer.c.obj)
 .text.packet_buffer_max_packet_len_get
                0x0000000000000000       0x3c ../../../mesh/lib_51_MBTLE_CORE.a(packet_buffer.c.obj)
 .text          0x0000000000000000        0x0 ../../../mesh/lib_51_MBTLE_CORE.a(replay_cache.c.obj)
 .data          0x0000000000000000        0x0 ../../../mesh/lib_51_MBTLE_CORE.a(replay_cache.c.obj)
 .bss           0x0000000000000000        0x0 ../../../mesh/lib_51_MBTLE_CORE.a(replay_cache.c.obj)
 .text.replay_cache_on_iv_update
                0x0000000000000000       0x28 ../../../mesh/lib_51_MBTLE_CORE.a(replay_cache.c.obj)
 .text          0x0000000000000000        0x0 ../../../mesh/lib_51_MBTLE_CORE.a(mesh_flash.c.obj)
 .data          0x0000000000000000        0x0 ../../../mesh/lib_51_MBTLE_CORE.a(mesh_flash.c.obj)
 .bss           0x0000000000000000        0x0 ../../../mesh/lib_51_MBTLE_CORE.a(mesh_flash.c.obj)
 .text.mesh_flash_op_available_slots
                0x0000000000000000       0x30 ../../../mesh/lib_51_MBTLE_CORE.a(mesh_flash.c.obj)
 .text.mesh_flash_in_progress
                0x0000000000000000       0x3c ../../../mesh/lib_51_MBTLE_CORE.a(mesh_flash.c.obj)
 .text.mesh_flash_set_suspended
                0x0000000000000000       0x58 ../../../mesh/lib_51_MBTLE_CORE.a(mesh_flash.c.obj)
 .bss.suspend_count.7574
                0x0000000000000000        0x4 ../../../mesh/lib_51_MBTLE_CORE.a(mesh_flash.c.obj)
 .text          0x0000000000000000        0x0 ../../../mesh/lib_51_MBTLE_CORE.a(nrf_flash.c.obj)
 .data          0x0000000000000000        0x0 ../../../mesh/lib_51_MBTLE_CORE.a(nrf_flash.c.obj)
 .bss           0x0000000000000000        0x0 ../../../mesh/lib_51_MBTLE_CORE.a(nrf_flash.c.obj)
 .text          0x0000000000000000        0x0 ../../../mesh/lib_51_MBTLE_CORE.a(msqueue.c.obj)
 .data          0x0000000000000000        0x0 ../../../mesh/lib_51_MBTLE_CORE.a(msqueue.c.obj)
 .bss           0x0000000000000000        0x0 ../../../mesh/lib_51_MBTLE_CORE.a(msqueue.c.obj)
 .text          0x0000000000000000        0x0 ../../../lib/micro-ecc/lib_51_UECC_LIB.a(uECC.c.obj)
 .data          0x0000000000000000        0x0 ../../../lib/micro-ecc/lib_51_UECC_LIB.a(uECC.c.obj)
 .bss           0x0000000000000000        0x0 ../../../lib/micro-ecc/lib_51_UECC_LIB.a(uECC.c.obj)
 .text.uECC_vli_modMult
                0x0000000000000000      0x180 ../../../lib/micro-ecc/lib_51_UECC_LIB.a(uECC.c.obj)
 .text.bits2int
                0x0000000000000000       0xa8 ../../../lib/micro-ecc/lib_51_UECC_LIB.a(uECC.c.obj)
 .text.uECC_sign_with_k
                0x0000000000000000      0x184 ../../../lib/micro-ecc/lib_51_UECC_LIB.a(uECC.c.obj)
 .text.HMAC_init
                0x0000000000000000       0x48 ../../../lib/micro-ecc/lib_51_UECC_LIB.a(uECC.c.obj)
 .text.HMAC_update
                0x0000000000000000        0x8 ../../../lib/micro-ecc/lib_51_UECC_LIB.a(uECC.c.obj)
 .text.HMAC_finish
                0x0000000000000000       0x64 ../../../lib/micro-ecc/lib_51_UECC_LIB.a(uECC.c.obj)
 .text.update_V
                0x0000000000000000       0x22 ../../../lib/micro-ecc/lib_51_UECC_LIB.a(uECC.c.obj)
 .text.uECC_set_rng
                0x0000000000000000        0xc ../../../lib/micro-ecc/lib_51_UECC_LIB.a(uECC.c.obj)
 .text.uECC_get_rng
                0x0000000000000000        0xc ../../../lib/micro-ecc/lib_51_UECC_LIB.a(uECC.c.obj)
 .text.uECC_curve_private_key_size
                0x0000000000000000       0x12 ../../../lib/micro-ecc/lib_51_UECC_LIB.a(uECC.c.obj)
 .text.uECC_curve_public_key_size
                0x0000000000000000        0x8 ../../../lib/micro-ecc/lib_51_UECC_LIB.a(uECC.c.obj)
 .text.uECC_compute_public_key
                0x0000000000000000       0x8a ../../../lib/micro-ecc/lib_51_UECC_LIB.a(uECC.c.obj)
 .text.uECC_sign
                0x0000000000000000       0x5a ../../../lib/micro-ecc/lib_51_UECC_LIB.a(uECC.c.obj)
 .text.uECC_sign_deterministic
                0x0000000000000000      0x1d6 ../../../lib/micro-ecc/lib_51_UECC_LIB.a(uECC.c.obj)
 .text.uECC_verify
                0x0000000000000000      0x310 ../../../lib/micro-ecc/lib_51_UECC_LIB.a(uECC.c.obj)
 .text          0x0000000000000000        0x0 ../../../lib/rtt/lib_51_RTT_LIB.a(SEGGER_RTT.c.obj)
 .data          0x0000000000000000        0x0 ../../../lib/rtt/lib_51_RTT_LIB.a(SEGGER_RTT.c.obj)
 .bss           0x0000000000000000        0x0 ../../../lib/rtt/lib_51_RTT_LIB.a(SEGGER_RTT.c.obj)
 .text._PostTerminalSwitch
                0x0000000000000000       0x20 ../../../lib/rtt/lib_51_RTT_LIB.a(SEGGER_RTT.c.obj)
 .text.SEGGER_RTT_ReadNoLock
                0x0000000000000000       0xd8 ../../../lib/rtt/lib_51_RTT_LIB.a(SEGGER_RTT.c.obj)
 .text.SEGGER_RTT_Read
                0x0000000000000000       0x1a ../../../lib/rtt/lib_51_RTT_LIB.a(SEGGER_RTT.c.obj)
 .text.SEGGER_RTT_WriteSkipNoLock
                0x0000000000000000      0x124 ../../../lib/rtt/lib_51_RTT_LIB.a(SEGGER_RTT.c.obj)
 .text.SEGGER_RTT_WriteString
                0x0000000000000000       0x18 ../../../lib/rtt/lib_51_RTT_LIB.a(SEGGER_RTT.c.obj)
 .text.SEGGER_RTT_GetKey
                0x0000000000000000       0x22 ../../../lib/rtt/lib_51_RTT_LIB.a(SEGGER_RTT.c.obj)
 .text.SEGGER_RTT_WaitKey
                0x0000000000000000        0xc ../../../lib/rtt/lib_51_RTT_LIB.a(SEGGER_RTT.c.obj)
 .text.SEGGER_RTT_HasKey
                0x0000000000000000       0x24 ../../../lib/rtt/lib_51_RTT_LIB.a(SEGGER_RTT.c.obj)
 .text.SEGGER_RTT_HasData
                0x0000000000000000       0x1c ../../../lib/rtt/lib_51_RTT_LIB.a(SEGGER_RTT.c.obj)
 .text.SEGGER_RTT_AllocDownBuffer
                0x0000000000000000       0x78 ../../../lib/rtt/lib_51_RTT_LIB.a(SEGGER_RTT.c.obj)
 .text.SEGGER_RTT_AllocUpBuffer
                0x0000000000000000       0x98 ../../../lib/rtt/lib_51_RTT_LIB.a(SEGGER_RTT.c.obj)
 .text.SEGGER_RTT_ConfigUpBuffer
                0x0000000000000000       0x80 ../../../lib/rtt/lib_51_RTT_LIB.a(SEGGER_RTT.c.obj)
 .text.SEGGER_RTT_ConfigDownBuffer
                0x0000000000000000       0x64 ../../../lib/rtt/lib_51_RTT_LIB.a(SEGGER_RTT.c.obj)
 .text.SEGGER_RTT_SetNameUpBuffer
                0x0000000000000000       0x44 ../../../lib/rtt/lib_51_RTT_LIB.a(SEGGER_RTT.c.obj)
 .text.SEGGER_RTT_SetNameDownBuffer
                0x0000000000000000       0x44 ../../../lib/rtt/lib_51_RTT_LIB.a(SEGGER_RTT.c.obj)
 .text.SEGGER_RTT_Init
                0x0000000000000000       0x18 ../../../lib/rtt/lib_51_RTT_LIB.a(SEGGER_RTT.c.obj)
 .text.SEGGER_RTT_SetTerminal
                0x0000000000000000       0x8c ../../../lib/rtt/lib_51_RTT_LIB.a(SEGGER_RTT.c.obj)
 .text.SEGGER_RTT_TerminalOut
                0x0000000000000000       0xf0 ../../../lib/rtt/lib_51_RTT_LIB.a(SEGGER_RTT.c.obj)
 .bss._ActiveTerminal
                0x0000000000000000        0x1 ../../../lib/rtt/lib_51_RTT_LIB.a(SEGGER_RTT.c.obj)
 .rodata._aTerminalId
                0x0000000000000000       0x10 ../../../lib/rtt/lib_51_RTT_LIB.a(SEGGER_RTT.c.obj)
 .text          0x0000000000000000        0x0 ../../../lib/rtt/lib_51_RTT_LIB.a(SEGGER_RTT_printf.c.obj)
 .data          0x0000000000000000        0x0 ../../../lib/rtt/lib_51_RTT_LIB.a(SEGGER_RTT_printf.c.obj)
 .bss           0x0000000000000000        0x0 ../../../lib/rtt/lib_51_RTT_LIB.a(SEGGER_RTT_printf.c.obj)
 .data          0x0000000000000000        0x0 /usr/bin/../lib/gcc/arm-none-eabi/6.3.1/thumb/v6-m/libgcc.a(_udivsi3.o)
 .bss           0x0000000000000000        0x0 /usr/bin/../lib/gcc/arm-none-eabi/6.3.1/thumb/v6-m/libgcc.a(_udivsi3.o)
 .data          0x0000000000000000        0x0 /usr/bin/../lib/gcc/arm-none-eabi/6.3.1/thumb/v6-m/libgcc.a(_divsi3.o)
 .bss           0x0000000000000000        0x0 /usr/bin/../lib/gcc/arm-none-eabi/6.3.1/thumb/v6-m/libgcc.a(_divsi3.o)
 .data          0x0000000000000000        0x0 /usr/bin/../lib/gcc/arm-none-eabi/6.3.1/thumb/v6-m/libgcc.a(_dvmd_tls.o)
 .bss           0x0000000000000000        0x0 /usr/bin/../lib/gcc/arm-none-eabi/6.3.1/thumb/v6-m/libgcc.a(_dvmd_tls.o)
 .data          0x0000000000000000        0x0 /usr/bin/../lib/gcc/arm-none-eabi/6.3.1/thumb/v6-m/libgcc.a(_muldi3.o)
 .bss           0x0000000000000000        0x0 /usr/bin/../lib/gcc/arm-none-eabi/6.3.1/thumb/v6-m/libgcc.a(_muldi3.o)
 .text          0x0000000000000000        0x0 /usr/bin/../lib/gcc/arm-none-eabi/6.3.1/../../../../arm-none-eabi/lib/thumb/v6-m/libg_nano.a(lib_a-exit.o)
 .data          0x0000000000000000        0x0 /usr/bin/../lib/gcc/arm-none-eabi/6.3.1/../../../../arm-none-eabi/lib/thumb/v6-m/libg_nano.a(lib_a-exit.o)
 .bss           0x0000000000000000        0x0 /usr/bin/../lib/gcc/arm-none-eabi/6.3.1/../../../../arm-none-eabi/lib/thumb/v6-m/libg_nano.a(lib_a-exit.o)
 .text          0x0000000000000000        0x0 /usr/bin/../lib/gcc/arm-none-eabi/6.3.1/../../../../arm-none-eabi/lib/thumb/v6-m/libg_nano.a(lib_a-impure.o)
 .data          0x0000000000000000        0x0 /usr/bin/../lib/gcc/arm-none-eabi/6.3.1/../../../../arm-none-eabi/lib/thumb/v6-m/libg_nano.a(lib_a-impure.o)
 .bss           0x0000000000000000        0x0 /usr/bin/../lib/gcc/arm-none-eabi/6.3.1/../../../../arm-none-eabi/lib/thumb/v6-m/libg_nano.a(lib_a-impure.o)
 .text          0x0000000000000000        0x0 /usr/bin/../lib/gcc/arm-none-eabi/6.3.1/../../../../arm-none-eabi/lib/thumb/v6-m/libg_nano.a(lib_a-init.o)
 .data          0x0000000000000000        0x0 /usr/bin/../lib/gcc/arm-none-eabi/6.3.1/../../../../arm-none-eabi/lib/thumb/v6-m/libg_nano.a(lib_a-init.o)
 .bss           0x0000000000000000        0x0 /usr/bin/../lib/gcc/arm-none-eabi/6.3.1/../../../../arm-none-eabi/lib/thumb/v6-m/libg_nano.a(lib_a-init.o)
 .text          0x0000000000000000        0x0 /usr/bin/../lib/gcc/arm-none-eabi/6.3.1/../../../../arm-none-eabi/lib/thumb/v6-m/libg_nano.a(lib_a-malloc.o)
 .data          0x0000000000000000        0x0 /usr/bin/../lib/gcc/arm-none-eabi/6.3.1/../../../../arm-none-eabi/lib/thumb/v6-m/libg_nano.a(lib_a-malloc.o)
 .bss           0x0000000000000000        0x0 /usr/bin/../lib/gcc/arm-none-eabi/6.3.1/../../../../arm-none-eabi/lib/thumb/v6-m/libg_nano.a(lib_a-malloc.o)
 .text          0x0000000000000000        0x0 /usr/bin/../lib/gcc/arm-none-eabi/6.3.1/../../../../arm-none-eabi/lib/thumb/v6-m/libg_nano.a(lib_a-memcmp.o)
 .data          0x0000000000000000        0x0 /usr/bin/../lib/gcc/arm-none-eabi/6.3.1/../../../../arm-none-eabi/lib/thumb/v6-m/libg_nano.a(lib_a-memcmp.o)
 .bss           0x0000000000000000        0x0 /usr/bin/../lib/gcc/arm-none-eabi/6.3.1/../../../../arm-none-eabi/lib/thumb/v6-m/libg_nano.a(lib_a-memcmp.o)
 .text          0x0000000000000000        0x0 /usr/bin/../lib/gcc/arm-none-eabi/6.3.1/../../../../arm-none-eabi/lib/thumb/v6-m/libg_nano.a(lib_a-memcpy-stub.o)
 .data          0x0000000000000000        0x0 /usr/bin/../lib/gcc/arm-none-eabi/6.3.1/../../../../arm-none-eabi/lib/thumb/v6-m/libg_nano.a(lib_a-memcpy-stub.o)
 .bss           0x0000000000000000        0x0 /usr/bin/../lib/gcc/arm-none-eabi/6.3.1/../../../../arm-none-eabi/lib/thumb/v6-m/libg_nano.a(lib_a-memcpy-stub.o)
 .text          0x0000000000000000        0x0 /usr/bin/../lib/gcc/arm-none-eabi/6.3.1/../../../../arm-none-eabi/lib/thumb/v6-m/libg_nano.a(lib_a-memset.o)
 .data          0x0000000000000000        0x0 /usr/bin/../lib/gcc/arm-none-eabi/6.3.1/../../../../arm-none-eabi/lib/thumb/v6-m/libg_nano.a(lib_a-memset.o)
 .bss           0x0000000000000000        0x0 /usr/bin/../lib/gcc/arm-none-eabi/6.3.1/../../../../arm-none-eabi/lib/thumb/v6-m/libg_nano.a(lib_a-memset.o)
 .text          0x0000000000000000        0x0 /usr/bin/../lib/gcc/arm-none-eabi/6.3.1/../../../../arm-none-eabi/lib/thumb/v6-m/libg_nano.a(lib_a-nano-freer.o)
 .data          0x0000000000000000        0x0 /usr/bin/../lib/gcc/arm-none-eabi/6.3.1/../../../../arm-none-eabi/lib/thumb/v6-m/libg_nano.a(lib_a-nano-freer.o)
 .bss           0x0000000000000000        0x0 /usr/bin/../lib/gcc/arm-none-eabi/6.3.1/../../../../arm-none-eabi/lib/thumb/v6-m/libg_nano.a(lib_a-nano-freer.o)
 .text          0x0000000000000000        0x0 /usr/bin/../lib/gcc/arm-none-eabi/6.3.1/../../../../arm-none-eabi/lib/thumb/v6-m/libg_nano.a(lib_a-nano-mallocr.o)
 .data          0x0000000000000000        0x0 /usr/bin/../lib/gcc/arm-none-eabi/6.3.1/../../../../arm-none-eabi/lib/thumb/v6-m/libg_nano.a(lib_a-nano-mallocr.o)
 .bss           0x0000000000000000        0x0 /usr/bin/../lib/gcc/arm-none-eabi/6.3.1/../../../../arm-none-eabi/lib/thumb/v6-m/libg_nano.a(lib_a-nano-mallocr.o)
 .text          0x0000000000000000        0x0 /usr/bin/../lib/gcc/arm-none-eabi/6.3.1/../../../../arm-none-eabi/lib/thumb/v6-m/libg_nano.a(lib_a-sbrkr.o)
 .data          0x0000000000000000        0x0 /usr/bin/../lib/gcc/arm-none-eabi/6.3.1/../../../../arm-none-eabi/lib/thumb/v6-m/libg_nano.a(lib_a-sbrkr.o)
 .bss           0x0000000000000000        0x0 /usr/bin/../lib/gcc/arm-none-eabi/6.3.1/../../../../arm-none-eabi/lib/thumb/v6-m/libg_nano.a(lib_a-sbrkr.o)
 .text          0x0000000000000000        0x0 /usr/bin/../lib/gcc/arm-none-eabi/6.3.1/../../../../arm-none-eabi/lib/thumb/v6-m/libg_nano.a(lib_a-strcpy.o)
 .data          0x0000000000000000        0x0 /usr/bin/../lib/gcc/arm-none-eabi/6.3.1/../../../../arm-none-eabi/lib/thumb/v6-m/libg_nano.a(lib_a-strcpy.o)
 .bss           0x0000000000000000        0x0 /usr/bin/../lib/gcc/arm-none-eabi/6.3.1/../../../../arm-none-eabi/lib/thumb/v6-m/libg_nano.a(lib_a-strcpy.o)
 .data          0x0000000000000000        0x0 /usr/bin/../lib/gcc/arm-none-eabi/6.3.1/../../../../arm-none-eabi/lib/thumb/v6-m/libg_nano.a(lib_a-strlen.o)
 .bss           0x0000000000000000        0x0 /usr/bin/../lib/gcc/arm-none-eabi/6.3.1/../../../../arm-none-eabi/lib/thumb/v6-m/libg_nano.a(lib_a-strlen.o)
 .text          0x0000000000000000        0x0 /usr/bin/../lib/gcc/arm-none-eabi/6.3.1/../../../../arm-none-eabi/lib/thumb/v6-m/libg_nano.a(lib_a-strrchr.o)
 .data          0x0000000000000000        0x0 /usr/bin/../lib/gcc/arm-none-eabi/6.3.1/../../../../arm-none-eabi/lib/thumb/v6-m/libg_nano.a(lib_a-strrchr.o)
 .bss           0x0000000000000000        0x0 /usr/bin/../lib/gcc/arm-none-eabi/6.3.1/../../../../arm-none-eabi/lib/thumb/v6-m/libg_nano.a(lib_a-strrchr.o)
 .text          0x0000000000000000        0x0 /usr/bin/../lib/gcc/arm-none-eabi/6.3.1/../../../../arm-none-eabi/lib/thumb/v6-m/libg_nano.a(lib_a-mlock.o)
 .data          0x0000000000000000        0x0 /usr/bin/../lib/gcc/arm-none-eabi/6.3.1/../../../../arm-none-eabi/lib/thumb/v6-m/libg_nano.a(lib_a-mlock.o)
 .bss           0x0000000000000000        0x0 /usr/bin/../lib/gcc/arm-none-eabi/6.3.1/../../../../arm-none-eabi/lib/thumb/v6-m/libg_nano.a(lib_a-mlock.o)
 .text          0x0000000000000000        0x0 /usr/bin/../lib/gcc/arm-none-eabi/6.3.1/../../../../arm-none-eabi/lib/thumb/v6-m/libg_nano.a(lib_a-reent.o)
 .data          0x0000000000000000        0x0 /usr/bin/../lib/gcc/arm-none-eabi/6.3.1/../../../../arm-none-eabi/lib/thumb/v6-m/libg_nano.a(lib_a-reent.o)
 .bss           0x0000000000000000        0x0 /usr/bin/../lib/gcc/arm-none-eabi/6.3.1/../../../../arm-none-eabi/lib/thumb/v6-m/libg_nano.a(lib_a-reent.o)
 .text.cleanup_glue
                0x0000000000000000       0x1a /usr/bin/../lib/gcc/arm-none-eabi/6.3.1/../../../../arm-none-eabi/lib/thumb/v6-m/libg_nano.a(lib_a-reent.o)
 .text._reclaim_reent
                0x0000000000000000       0xcc /usr/bin/../lib/gcc/arm-none-eabi/6.3.1/../../../../arm-none-eabi/lib/thumb/v6-m/libg_nano.a(lib_a-reent.o)
 .text          0x0000000000000000        0x0 /usr/bin/../lib/gcc/arm-none-eabi/6.3.1/../../../../arm-none-eabi/lib/thumb/v6-m/libg_nano.a(lib_a-strchr.o)
 .data          0x0000000000000000        0x0 /usr/bin/../lib/gcc/arm-none-eabi/6.3.1/../../../../arm-none-eabi/lib/thumb/v6-m/libg_nano.a(lib_a-strchr.o)
 .bss           0x0000000000000000        0x0 /usr/bin/../lib/gcc/arm-none-eabi/6.3.1/../../../../arm-none-eabi/lib/thumb/v6-m/libg_nano.a(lib_a-strchr.o)
 .text          0x0000000000000000        0x0 /usr/bin/../lib/gcc/arm-none-eabi/6.3.1/thumb/v6-m/crtend.o
 .data          0x0000000000000000        0x0 /usr/bin/../lib/gcc/arm-none-eabi/6.3.1/thumb/v6-m/crtend.o
 .bss           0x0000000000000000        0x0 /usr/bin/../lib/gcc/arm-none-eabi/6.3.1/thumb/v6-m/crtend.o
 .text          0x0000000000000000        0x0 /usr/bin/../lib/gcc/arm-none-eabi/6.3.1/thumb/v6-m/crtn.o
 .data          0x0000000000000000        0x0 /usr/bin/../lib/gcc/arm-none-eabi/6.3.1/thumb/v6-m/crtn.o
 .bss           0x0000000000000000        0x0 /usr/bin/../lib/gcc/arm-none-eabi/6.3.1/thumb/v6-m/crtn.o
 .text          0x0000000000000000        0x0 /usr/bin/../lib/gcc/arm-none-eabi/6.3.1/../../../../arm-none-eabi/lib/thumb/v6-m/libnosys.a(sbrk.o)
 .data          0x0000000000000000        0x0 /usr/bin/../lib/gcc/arm-none-eabi/6.3.1/../../../../arm-none-eabi/lib/thumb/v6-m/libnosys.a(sbrk.o)
 .bss           0x0000000000000000        0x0 /usr/bin/../lib/gcc/arm-none-eabi/6.3.1/../../../../arm-none-eabi/lib/thumb/v6-m/libnosys.a(sbrk.o)
 .text          0x0000000000000000        0x0 /usr/bin/../lib/gcc/arm-none-eabi/6.3.1/../../../../arm-none-eabi/lib/thumb/v6-m/libnosys.a(_exit.o)
 .data          0x0000000000000000        0x0 /usr/bin/../lib/gcc/arm-none-eabi/6.3.1/../../../../arm-none-eabi/lib/thumb/v6-m/libnosys.a(_exit.o)
 .bss           0x0000000000000000        0x0 /usr/bin/../lib/gcc/arm-none-eabi/6.3.1/../../../../arm-none-eabi/lib/thumb/v6-m/libnosys.a(_exit.o)

Memory Configuration

Name             Origin             Length             Attributes
FLASH            0x000000000001b000 0x000000000001f000 xr
RAM              0x00000000200022d8 0x0000000000005a28 xrw
*default*        0x0000000000000000 0xffffffffffffffff

Linker script and memory map

LOAD /usr/bin/../lib/gcc/arm-none-eabi/6.3.1/thumb/v6-m/crti.o
LOAD /usr/bin/../lib/gcc/arm-none-eabi/6.3.1/thumb/v6-m/crtbegin.o
LOAD /usr/bin/../lib/gcc/arm-none-eabi/6.3.1/../../../../arm-none-eabi/lib/thumb/v6-m/crt0.o
LOAD CMakeFiles/51_light_control_server.dir/src/main.c.obj
LOAD CMakeFiles/51_light_control_server.dir/__/__/__/mesh/src/prov/provisioning.c.obj
LOAD CMakeFiles/51_light_control_server.dir/__/__/__/mesh/src/prov/nrf_mesh_prov.c.obj
LOAD CMakeFiles/51_light_control_server.dir/__/__/__/mesh/src/prov/prov_bearer_adv.c.obj
LOAD CMakeFiles/51_light_control_server.dir/__/__/__/mesh/src/prov/prov_utils.c.obj
LOAD CMakeFiles/51_light_control_server.dir/__/__/__/mesh/src/prov/prov_beacon.c.obj
LOAD CMakeFiles/51_light_control_server.dir/__/__/__/mesh/src/access/access.c.obj
LOAD CMakeFiles/51_light_control_server.dir/__/__/__/mesh/src/access/access_publish.c.obj
LOAD CMakeFiles/51_light_control_server.dir/__/__/__/mesh/src/access/access_reliable.c.obj
LOAD CMakeFiles/51_light_control_server.dir/__/__/__/mesh/src/access/device_state_manager.c.obj
LOAD CMakeFiles/51_light_control_server.dir/__/__/__/mesh/src/access/nrf_mesh_node_config.c.obj
LOAD CMakeFiles/51_light_control_server.dir/__/__/__/mesh/models/config/src/config_server.c.obj
LOAD CMakeFiles/51_light_control_server.dir/__/__/__/mesh/models/config/src/packed_index_list.c.obj
LOAD CMakeFiles/51_light_control_server.dir/__/__/__/mesh/models/config/src/composition_data.c.obj
LOAD CMakeFiles/51_light_control_server.dir/__/__/nrf_mesh_sdk.c.obj
LOAD CMakeFiles/51_light_control_server.dir/__/__/hal/src/simple_hal.c.obj
LOAD CMakeFiles/51_light_control_server.dir/__/__/models/simple_on_off/src/simple_on_off_server.c.obj
LOAD CMakeFiles/51_light_control_server.dir/__/__/__/toolchain/gcc/gcc_startup_nrf51.S.obj
LOAD CMakeFiles/51_light_control_server.dir/__/__/__/toolchain/system_nrf51.c.obj
LOAD ../../../mesh/lib_51_MBTLE_PB_ADV_EE.a
LOAD ../../../mesh/lib_51_MBTLE_CORE.a
LOAD ../../../lib/micro-ecc/lib_51_UECC_LIB.a
LOAD ../../../lib/rtt/lib_51_RTT_LIB.a
START GROUP
LOAD /usr/bin/../lib/gcc/arm-none-eabi/6.3.1/thumb/v6-m/libgcc.a
LOAD /usr/bin/../lib/gcc/arm-none-eabi/6.3.1/../../../../arm-none-eabi/lib/thumb/v6-m/libg_nano.a
LOAD /usr/bin/../lib/gcc/arm-none-eabi/6.3.1/../../../../arm-none-eabi/lib/thumb/v6-m/libc_nano.a
END GROUP
START GROUP
LOAD /usr/bin/../lib/gcc/arm-none-eabi/6.3.1/thumb/v6-m/libgcc.a
LOAD /usr/bin/../lib/gcc/arm-none-eabi/6.3.1/../../../../arm-none-eabi/lib/thumb/v6-m/libc_nano.a
END GROUP
LOAD /usr/bin/../lib/gcc/arm-none-eabi/6.3.1/thumb/v6-m/crtend.o
LOAD /usr/bin/../lib/gcc/arm-none-eabi/6.3.1/thumb/v6-m/crtn.o
START GROUP
LOAD /usr/bin/../lib/gcc/arm-none-eabi/6.3.1/thumb/v6-m/libgcc.a
LOAD /usr/bin/../lib/gcc/arm-none-eabi/6.3.1/../../../../arm-none-eabi/lib/thumb/v6-m/libc.a
LOAD /usr/bin/../lib/gcc/arm-none-eabi/6.3.1/../../../../arm-none-eabi/lib/thumb/v6-m/libnosys.a
END GROUP

.text           0x000000000001b000    0x160f8
 *(.isr_vector)
 .isr_vector    0x000000000001b000       0xc0 CMakeFiles/51_light_control_server.dir/__/__/__/toolchain/gcc/gcc_startup_nrf51.S.obj
                0x000000000001b000                __isr_vector
 *(.text*)
 .text          0x000000000001b0c0       0x60 /usr/bin/../lib/gcc/arm-none-eabi/6.3.1/thumb/v6-m/crtbegin.o
 .text          0x000000000001b120       0x78 /usr/bin/../lib/gcc/arm-none-eabi/6.3.1/../../../../arm-none-eabi/lib/thumb/v6-m/crt0.o
                0x000000000001b120                _mainCRTStartup
                0x000000000001b120                _start
 .text.configuration_setup
                0x000000000001b198       0xb8 CMakeFiles/51_light_control_server.dir/src/main.c.obj
 .text.generic_set_cb
                0x000000000001b250       0x84 CMakeFiles/51_light_control_server.dir/src/main.c.obj
 .text.generic_get_cb
                0x000000000001b2d4        0xa CMakeFiles/51_light_control_server.dir/src/main.c.obj
 *fill*         0x000000000001b2de        0x2 
 .text.configuration_complete
                0x000000000001b2e0       0x84 CMakeFiles/51_light_control_server.dir/src/main.c.obj
 .text.main     0x000000000001b364       0xd0 CMakeFiles/51_light_control_server.dir/src/main.c.obj
                0x000000000001b364                main
 .text.send_data
                0x000000000001b434       0x4c CMakeFiles/51_light_control_server.dir/__/__/__/mesh/src/prov/provisioning.c.obj
 .text.prov_packet_length_valid
                0x000000000001b480       0x24 CMakeFiles/51_light_control_server.dir/__/__/__/mesh/src/prov/provisioning.c.obj
                0x000000000001b480                prov_packet_length_valid
 .text.prov_init
                0x000000000001b4a4       0x40 CMakeFiles/51_light_control_server.dir/__/__/__/mesh/src/prov/provisioning.c.obj
                0x000000000001b4a4                prov_init
 .text.prov_listen_start
                0x000000000001b4e4       0x14 CMakeFiles/51_light_control_server.dir/__/__/__/mesh/src/prov/provisioning.c.obj
                0x000000000001b4e4                prov_listen_start
 .text.prov_link_close
                0x000000000001b4f8        0xe CMakeFiles/51_light_control_server.dir/__/__/__/mesh/src/prov/provisioning.c.obj
                0x000000000001b4f8                prov_link_close
 .text.prov_tx_capabilities
                0x000000000001b506       0x1c CMakeFiles/51_light_control_server.dir/__/__/__/mesh/src/prov/provisioning.c.obj
                0x000000000001b506                prov_tx_capabilities
 .text.prov_tx_public_key
                0x000000000001b522       0x24 CMakeFiles/51_light_control_server.dir/__/__/__/mesh/src/prov/provisioning.c.obj
                0x000000000001b522                prov_tx_public_key
 .text.prov_tx_input_complete
                0x000000000001b546       0x14 CMakeFiles/51_light_control_server.dir/__/__/__/mesh/src/prov/provisioning.c.obj
                0x000000000001b546                prov_tx_input_complete
 .text.prov_tx_confirmation
                0x000000000001b55a       0x24 CMakeFiles/51_light_control_server.dir/__/__/__/mesh/src/prov/provisioning.c.obj
                0x000000000001b55a                prov_tx_confirmation
 .text.prov_tx_random
                0x000000000001b57e       0x24 CMakeFiles/51_light_control_server.dir/__/__/__/mesh/src/prov/provisioning.c.obj
                0x000000000001b57e                prov_tx_random
 .text.prov_tx_complete
                0x000000000001b5a2       0x14 CMakeFiles/51_light_control_server.dir/__/__/__/mesh/src/prov/provisioning.c.obj
                0x000000000001b5a2                prov_tx_complete
 .text.prov_tx_failed
                0x000000000001b5b6       0x18 CMakeFiles/51_light_control_server.dir/__/__/__/mesh/src/prov/provisioning.c.obj
                0x000000000001b5b6                prov_tx_failed
 .text.prov_cb_link_opened
                0x000000000001b5ce        0xe CMakeFiles/51_light_control_server.dir/__/__/__/mesh/src/prov/provisioning.c.obj
                0x000000000001b5ce                prov_cb_link_opened
 .text.prov_cb_link_closed
                0x000000000001b5dc        0xe CMakeFiles/51_light_control_server.dir/__/__/__/mesh/src/prov/provisioning.c.obj
                0x000000000001b5dc                prov_cb_link_closed
 *fill*         0x000000000001b5ea        0x2 
 .text.prov_cb_pkt_in
                0x000000000001b5ec       0x90 CMakeFiles/51_light_control_server.dir/__/__/__/mesh/src/prov/provisioning.c.obj
                0x000000000001b5ec                prov_cb_pkt_in
 .text.prov_cb_ack_in
                0x000000000001b67c        0xe CMakeFiles/51_light_control_server.dir/__/__/__/mesh/src/prov/provisioning.c.obj
                0x000000000001b67c                prov_cb_ack_in
 *fill*         0x000000000001b68a        0x2 
 .text.nrf_mesh_prov_init
                0x000000000001b68c       0x38 CMakeFiles/51_light_control_server.dir/__/__/__/mesh/src/prov/nrf_mesh_prov.c.obj
                0x000000000001b68c                nrf_mesh_prov_init
 .text.nrf_mesh_prov_generate_keys
                0x000000000001b6c4        0x8 CMakeFiles/51_light_control_server.dir/__/__/__/mesh/src/prov/nrf_mesh_prov.c.obj
                0x000000000001b6c4                nrf_mesh_prov_generate_keys
 .text.nrf_mesh_prov_listen
                0x000000000001b6cc       0x28 CMakeFiles/51_light_control_server.dir/__/__/__/mesh/src/prov/nrf_mesh_prov.c.obj
                0x000000000001b6cc                nrf_mesh_prov_listen
 .text.nrf_mesh_prov_auth_data_provide
                0x000000000001b6f4       0x1c CMakeFiles/51_light_control_server.dir/__/__/__/mesh/src/prov/nrf_mesh_prov.c.obj
                0x000000000001b6f4                nrf_mesh_prov_auth_data_provide
 .text.remove_active_bearer
                0x000000000001b710       0x88 CMakeFiles/51_light_control_server.dir/__/__/__/mesh/src/prov/prov_bearer_adv.c.obj
 .text.send_packet
                0x000000000001b798       0x64 CMakeFiles/51_light_control_server.dir/__/__/__/mesh/src/prov/prov_bearer_adv.c.obj
 .text.send_link_close
                0x000000000001b7fc       0x3e CMakeFiles/51_light_control_server.dir/__/__/__/mesh/src/prov/prov_bearer_adv.c.obj
 *fill*         0x000000000001b83a        0x2 
 .text.prov_buffer_tx
                0x000000000001b83c      0x1f0 CMakeFiles/51_light_control_server.dir/__/__/__/mesh/src/prov/prov_bearer_adv.c.obj
 .text.send_transaction_ack
                0x000000000001ba2c       0x48 CMakeFiles/51_light_control_server.dir/__/__/__/mesh/src/prov/prov_bearer_adv.c.obj
 .text.send_link_ack
                0x000000000001ba74       0x3c CMakeFiles/51_light_control_server.dir/__/__/__/mesh/src/prov/prov_bearer_adv.c.obj
 .text.prov_bearer_adv_listen_stop
                0x000000000001bab0       0x40 CMakeFiles/51_light_control_server.dir/__/__/__/mesh/src/prov/prov_bearer_adv.c.obj
 .text.close_link
                0x000000000001baf0       0x68 CMakeFiles/51_light_control_server.dir/__/__/__/mesh/src/prov/prov_bearer_adv.c.obj
 .text.prov_bearer_adv_link_close
                0x000000000001bb58       0x78 CMakeFiles/51_light_control_server.dir/__/__/__/mesh/src/prov/prov_bearer_adv.c.obj
 .text.adv_queue_empty_cb
                0x000000000001bbd0       0x3c CMakeFiles/51_light_control_server.dir/__/__/__/mesh/src/prov/prov_bearer_adv.c.obj
 .text.link_timeout_cb
                0x000000000001bc0c        0xc CMakeFiles/51_light_control_server.dir/__/__/__/mesh/src/prov/prov_bearer_adv.c.obj
 .text.tx_retry_cb
                0x000000000001bc18       0xe8 CMakeFiles/51_light_control_server.dir/__/__/__/mesh/src/prov/prov_bearer_adv.c.obj
 .text.add_active_bearer
                0x000000000001bd00       0x98 CMakeFiles/51_light_control_server.dir/__/__/__/mesh/src/prov/prov_bearer_adv.c.obj
 .text.prov_bearer_adv_link_open
                0x000000000001bd98      0x11c CMakeFiles/51_light_control_server.dir/__/__/__/mesh/src/prov/prov_bearer_adv.c.obj
 .text.prov_bearer_adv_listen
                0x000000000001beb4       0xe8 CMakeFiles/51_light_control_server.dir/__/__/__/mesh/src/prov/prov_bearer_adv.c.obj
 .text.calculate_3GPP_CRC
                0x000000000001bf9c       0x28 CMakeFiles/51_light_control_server.dir/__/__/__/mesh/src/prov/prov_bearer_adv.c.obj
                0x000000000001bf9c                calculate_3GPP_CRC
 .text.prov_bearer_adv_tx
                0x000000000001bfc4       0xc8 CMakeFiles/51_light_control_server.dir/__/__/__/mesh/src/prov/prov_bearer_adv.c.obj
 .text.prov_buffer_rx
                0x000000000001c08c       0x90 CMakeFiles/51_light_control_server.dir/__/__/__/mesh/src/prov/prov_bearer_adv.c.obj
 .text.prov_bearer_adv_interface_get
                0x000000000001c11c        0x8 CMakeFiles/51_light_control_server.dir/__/__/__/mesh/src/prov/prov_bearer_adv.c.obj
                0x000000000001c11c                prov_bearer_adv_interface_get
 .text.prov_bearer_adv_pkt_in
                0x000000000001c124      0xa24 CMakeFiles/51_light_control_server.dir/__/__/__/mesh/src/prov/prov_bearer_adv.c.obj
                0x000000000001c124                prov_bearer_adv_pkt_in
 .text.oob_gen_alphanumeric
                0x000000000001cb48       0x38 CMakeFiles/51_light_control_server.dir/__/__/__/mesh/src/prov/prov_utils.c.obj
 .text.oob_gen_numeric
                0x000000000001cb80       0x4c CMakeFiles/51_light_control_server.dir/__/__/__/mesh/src/prov/prov_utils.c.obj
 .text.prov_utils_opt_set
                0x000000000001cbcc       0x28 CMakeFiles/51_light_control_server.dir/__/__/__/mesh/src/prov/prov_utils.c.obj
                0x000000000001cbcc                prov_utils_opt_set
 .text.prov_utils_opt_get
                0x000000000001cbf4       0x1c CMakeFiles/51_light_control_server.dir/__/__/__/mesh/src/prov/prov_utils.c.obj
                0x000000000001cbf4                prov_utils_opt_get
 .text.prov_utils_use_ecdh_offloading
                0x000000000001cc10        0xc CMakeFiles/51_light_control_server.dir/__/__/__/mesh/src/prov/prov_utils.c.obj
                0x000000000001cc10                prov_utils_use_ecdh_offloading
 .text.prov_utils_authentication_values_derive
                0x000000000001cc1c       0xd4 CMakeFiles/51_light_control_server.dir/__/__/__/mesh/src/prov/prov_utils.c.obj
                0x000000000001cc1c                prov_utils_authentication_values_derive
 .text.prov_utils_keys_generate
                0x000000000001ccf0       0x20 CMakeFiles/51_light_control_server.dir/__/__/__/mesh/src/prov/prov_utils.c.obj
                0x000000000001ccf0                prov_utils_keys_generate
 .text.prov_utils_derive_keys
                0x000000000001cd10       0xc0 CMakeFiles/51_light_control_server.dir/__/__/__/mesh/src/prov/prov_utils.c.obj
                0x000000000001cd10                prov_utils_derive_keys
 .text.prov_utils_calculate_shared_secret
                0x000000000001cdd0       0x44 CMakeFiles/51_light_control_server.dir/__/__/__/mesh/src/prov/prov_utils.c.obj
                0x000000000001cdd0                prov_utils_calculate_shared_secret
 .text.prov_utils_generate_oob_data
                0x000000000001ce14       0xe0 CMakeFiles/51_light_control_server.dir/__/__/__/mesh/src/prov/prov_utils.c.obj
                0x000000000001ce14                prov_utils_generate_oob_data
 .text.prov_utils_confirmation_check
                0x000000000001cef4       0x6c CMakeFiles/51_light_control_server.dir/__/__/__/mesh/src/prov/prov_utils.c.obj
                0x000000000001cef4                prov_utils_confirmation_check
 .text.prov_beacon_unprov_build
                0x000000000001cf60       0x52 CMakeFiles/51_light_control_server.dir/__/__/__/mesh/src/prov/prov_beacon.c.obj
                0x000000000001cf60                prov_beacon_unprov_build
 *fill*         0x000000000001cfb2        0x2 
 .text.prov_beacon_unprov_pkt_in
                0x000000000001cfb4       0xd4 CMakeFiles/51_light_control_server.dir/__/__/__/mesh/src/prov/prov_beacon.c.obj
                0x000000000001cfb4                prov_beacon_unprov_pkt_in
 .text.is_valid_opcode
                0x000000000001d088       0x58 CMakeFiles/51_light_control_server.dir/__/__/__/mesh/src/access/access.c.obj
 .text.flash_invalidate_complete
                0x000000000001d0e0       0x18 CMakeFiles/51_light_control_server.dir/__/__/__/mesh/src/access/access.c.obj
 .text.flash_manager_mem_available
                0x000000000001d0f8        0x6 CMakeFiles/51_light_control_server.dir/__/__/__/mesh/src/access/access.c.obj
 *fill*         0x000000000001d0fe        0x2 
 .text.restore_acquired_subscription
                0x000000000001d100       0x24 CMakeFiles/51_light_control_server.dir/__/__/__/mesh/src/access/access.c.obj
 .text.restore_acquired_element
                0x000000000001d124       0x1c CMakeFiles/51_light_control_server.dir/__/__/__/mesh/src/access/access.c.obj
 .text.restore_flash_data
                0x000000000001d140       0x64 CMakeFiles/51_light_control_server.dir/__/__/__/mesh/src/access/access.c.obj
 .text.restore_acquired_model
                0x000000000001d1a4       0x98 CMakeFiles/51_light_control_server.dir/__/__/__/mesh/src/access/access.c.obj
 .text.access_flash_config_clear
                0x000000000001d23c       0x28 CMakeFiles/51_light_control_server.dir/__/__/__/mesh/src/access/access.c.obj
 .text.access_flash_config_store
                0x000000000001d264      0x148 CMakeFiles/51_light_control_server.dir/__/__/__/mesh/src/access/access.c.obj
                0x000000000001d264                access_flash_config_store
 .text.access_state_clear
                0x000000000001d3ac       0x4c CMakeFiles/51_light_control_server.dir/__/__/__/mesh/src/access/access.c.obj
 .text.add_flash_manager
                0x000000000001d3f8       0x64 CMakeFiles/51_light_control_server.dir/__/__/__/mesh/src/access/access.c.obj
 .text.flash_remove_complete
                0x000000000001d45c       0x60 CMakeFiles/51_light_control_server.dir/__/__/__/mesh/src/access/access.c.obj
 .text.flash_write_complete
                0x000000000001d4bc       0x68 CMakeFiles/51_light_control_server.dir/__/__/__/mesh/src/access/access.c.obj
 .text.packet_tx
                0x000000000001d524      0x288 CMakeFiles/51_light_control_server.dir/__/__/__/mesh/src/access/access.c.obj
 .text.mesh_evt_cb
                0x000000000001d7ac      0x30c CMakeFiles/51_light_control_server.dir/__/__/__/mesh/src/access/access.c.obj
 .text.access_flash_config_load
                0x000000000001dab8      0x188 CMakeFiles/51_light_control_server.dir/__/__/__/mesh/src/access/access.c.obj
                0x000000000001dab8                access_flash_config_load
 .text.access_init
                0x000000000001dc40       0x24 CMakeFiles/51_light_control_server.dir/__/__/__/mesh/src/access/access.c.obj
                0x000000000001dc40                access_init
 .text.access_model_add
                0x000000000001dc64      0x1c8 CMakeFiles/51_light_control_server.dir/__/__/__/mesh/src/access/access.c.obj
                0x000000000001dc64                access_model_add
 .text.access_model_publish
                0x000000000001de2c       0x14 CMakeFiles/51_light_control_server.dir/__/__/__/mesh/src/access/access.c.obj
                0x000000000001de2c                access_model_publish
 .text.access_model_reply
                0x000000000001de40       0x20 CMakeFiles/51_light_control_server.dir/__/__/__/mesh/src/access/access.c.obj
                0x000000000001de40                access_model_reply
 .text.access_model_publish_address_set
                0x000000000001de60       0x50 CMakeFiles/51_light_control_server.dir/__/__/__/mesh/src/access/access.c.obj
                0x000000000001de60                access_model_publish_address_set
 .text.access_model_publish_address_get
                0x000000000001deb0       0x3c CMakeFiles/51_light_control_server.dir/__/__/__/mesh/src/access/access.c.obj
                0x000000000001deb0                access_model_publish_address_get
 .text.access_model_publish_period_set
                0x000000000001deec       0xa4 CMakeFiles/51_light_control_server.dir/__/__/__/mesh/src/access/access.c.obj
                0x000000000001deec                access_model_publish_period_set
 .text.access_model_publish_period_get
                0x000000000001df90       0x58 CMakeFiles/51_light_control_server.dir/__/__/__/mesh/src/access/access.c.obj
                0x000000000001df90                access_model_publish_period_get
 .text.access_model_subscription_list_alloc
                0x000000000001dfe8       0x58 CMakeFiles/51_light_control_server.dir/__/__/__/mesh/src/access/access.c.obj
                0x000000000001dfe8                access_model_subscription_list_alloc
 .text.access_model_subscription_add
                0x000000000001e040       0x70 CMakeFiles/51_light_control_server.dir/__/__/__/mesh/src/access/access.c.obj
                0x000000000001e040                access_model_subscription_add
 .text.access_model_subscription_remove
                0x000000000001e0b0       0x70 CMakeFiles/51_light_control_server.dir/__/__/__/mesh/src/access/access.c.obj
                0x000000000001e0b0                access_model_subscription_remove
 .text.access_model_subscriptions_get
                0x000000000001e120       0xb4 CMakeFiles/51_light_control_server.dir/__/__/__/mesh/src/access/access.c.obj
                0x000000000001e120                access_model_subscriptions_get
 .text.access_model_application_bind
                0x000000000001e1d4       0x64 CMakeFiles/51_light_control_server.dir/__/__/__/mesh/src/access/access.c.obj
                0x000000000001e1d4                access_model_application_bind
 .text.access_model_application_unbind
                0x000000000001e238       0x64 CMakeFiles/51_light_control_server.dir/__/__/__/mesh/src/access/access.c.obj
                0x000000000001e238                access_model_application_unbind
 .text.access_model_applications_get
                0x000000000001e29c       0x60 CMakeFiles/51_light_control_server.dir/__/__/__/mesh/src/access/access.c.obj
                0x000000000001e29c                access_model_applications_get
 .text.access_model_publish_application_set
                0x000000000001e2fc       0x50 CMakeFiles/51_light_control_server.dir/__/__/__/mesh/src/access/access.c.obj
                0x000000000001e2fc                access_model_publish_application_set
 .text.access_model_publish_application_get
                0x000000000001e34c       0x3c CMakeFiles/51_light_control_server.dir/__/__/__/mesh/src/access/access.c.obj
                0x000000000001e34c                access_model_publish_application_get
 .text.access_default_ttl_set
                0x000000000001e388       0x10 CMakeFiles/51_light_control_server.dir/__/__/__/mesh/src/access/access.c.obj
                0x000000000001e388                access_default_ttl_set
 .text.access_default_ttl_get
                0x000000000001e398        0xc CMakeFiles/51_light_control_server.dir/__/__/__/mesh/src/access/access.c.obj
                0x000000000001e398                access_default_ttl_get
 .text.access_model_publish_ttl_set
                0x000000000001e3a4       0x54 CMakeFiles/51_light_control_server.dir/__/__/__/mesh/src/access/access.c.obj
                0x000000000001e3a4                access_model_publish_ttl_set
 .text.access_model_publish_ttl_get
                0x000000000001e3f8       0x3c CMakeFiles/51_light_control_server.dir/__/__/__/mesh/src/access/access.c.obj
                0x000000000001e3f8                access_model_publish_ttl_get
 .text.access_element_location_get
                0x000000000001e434       0x20 CMakeFiles/51_light_control_server.dir/__/__/__/mesh/src/access/access.c.obj
                0x000000000001e434                access_element_location_get
 .text.access_element_sig_model_count_get
                0x000000000001e454       0x20 CMakeFiles/51_light_control_server.dir/__/__/__/mesh/src/access/access.c.obj
                0x000000000001e454                access_element_sig_model_count_get
 .text.access_element_vendor_model_count_get
                0x000000000001e474       0x20 CMakeFiles/51_light_control_server.dir/__/__/__/mesh/src/access/access.c.obj
                0x000000000001e474                access_element_vendor_model_count_get
 .text.access_model_id_get
                0x000000000001e494       0x48 CMakeFiles/51_light_control_server.dir/__/__/__/mesh/src/access/access.c.obj
                0x000000000001e494                access_model_id_get
 .text.access_handle_get
                0x000000000001e4dc       0x6c CMakeFiles/51_light_control_server.dir/__/__/__/mesh/src/access/access.c.obj
                0x000000000001e4dc                access_handle_get
 .text.access_element_models_get
                0x000000000001e548       0x74 CMakeFiles/51_light_control_server.dir/__/__/__/mesh/src/access/access.c.obj
                0x000000000001e548                access_element_models_get
 .text.access_model_p_args_get
                0x000000000001e5bc       0x3c CMakeFiles/51_light_control_server.dir/__/__/__/mesh/src/access/access.c.obj
                0x000000000001e5bc                access_model_p_args_get
 .text.add_to_publication_list
                0x000000000001e5f8       0xb0 CMakeFiles/51_light_control_server.dir/__/__/__/mesh/src/access/access_publish.c.obj
 .text.schedule_publication_timer
                0x000000000001e6a8      0x308 CMakeFiles/51_light_control_server.dir/__/__/__/mesh/src/access/access_publish.c.obj
 .text.access_publish_period_set
                0x000000000001e9b0       0xe4 CMakeFiles/51_light_control_server.dir/__/__/__/mesh/src/access/access_publish.c.obj
                0x000000000001e9b0                access_publish_period_set
 .text.access_publish_period_get
                0x000000000001ea94       0x34 CMakeFiles/51_light_control_server.dir/__/__/__/mesh/src/access/access_publish.c.obj
                0x000000000001ea94                access_publish_period_get
 .text.remove_and_reschedule
                0x000000000001eac8       0xfc CMakeFiles/51_light_control_server.dir/__/__/__/mesh/src/access/access_reliable.c.obj
 .text.reliable_timer_cb
                0x000000000001ebc4      0x170 CMakeFiles/51_light_control_server.dir/__/__/__/mesh/src/access/access_reliable.c.obj
 .text.access_reliable_message_rx_cb
                0x000000000001ed34       0x98 CMakeFiles/51_light_control_server.dir/__/__/__/mesh/src/access/access_reliable.c.obj
                0x000000000001ed34                access_reliable_message_rx_cb
 .text.access_reliable_init
                0x000000000001edcc       0x1c CMakeFiles/51_light_control_server.dir/__/__/__/mesh/src/access/access_reliable.c.obj
                0x000000000001edcc                access_reliable_init
 .text.dev_key_handle_get
                0x000000000001ede8       0x30 CMakeFiles/51_light_control_server.dir/__/__/__/mesh/src/access/device_state_manager.c.obj
 .text.app_key_handle_get
                0x000000000001ee18       0x30 CMakeFiles/51_light_control_server.dir/__/__/__/mesh/src/access/device_state_manager.c.obj
 .text.get_subnet_handle
                0x000000000001ee48       0x38 CMakeFiles/51_light_control_server.dir/__/__/__/mesh/src/access/device_state_manager.c.obj
 .text.get_app_handle
                0x000000000001ee80       0x48 CMakeFiles/51_light_control_server.dir/__/__/__/mesh/src/access/device_state_manager.c.obj
 .text.nonvirtual_address_set
                0x000000000001eec8       0x3c CMakeFiles/51_light_control_server.dir/__/__/__/mesh/src/access/device_state_manager.c.obj
 .text.addr_nonvirtual_to_dsm_entry
                0x000000000001ef04        0xe CMakeFiles/51_light_control_server.dir/__/__/__/mesh/src/access/device_state_manager.c.obj
 *fill*         0x000000000001ef12        0x2 
 .text.addr_nonvirtual_to_flash_entry
                0x000000000001ef14       0x10 CMakeFiles/51_light_control_server.dir/__/__/__/mesh/src/access/device_state_manager.c.obj
 .text.flash_mem_listener_callback
                0x000000000001ef24       0x20 CMakeFiles/51_light_control_server.dir/__/__/__/mesh/src/access/device_state_manager.c.obj
 .text.devkey_set
                0x000000000001ef44       0x60 CMakeFiles/51_light_control_server.dir/__/__/__/mesh/src/access/device_state_manager.c.obj
 .text.devkey_to_dsm_entry
                0x000000000001efa4       0x14 CMakeFiles/51_light_control_server.dir/__/__/__/mesh/src/access/device_state_manager.c.obj
 .text.devkey_to_flash_entry
                0x000000000001efb8       0x28 CMakeFiles/51_light_control_server.dir/__/__/__/mesh/src/access/device_state_manager.c.obj
 .text.appkey_to_flash_entry
                0x000000000001efe0       0x28 CMakeFiles/51_light_control_server.dir/__/__/__/mesh/src/access/device_state_manager.c.obj
 .text.subnet_to_flash_entry
                0x000000000001f008       0x20 CMakeFiles/51_light_control_server.dir/__/__/__/mesh/src/access/device_state_manager.c.obj
 .text.addr_virtual_to_flash_entry
                0x000000000001f028       0x20 CMakeFiles/51_light_control_server.dir/__/__/__/mesh/src/access/device_state_manager.c.obj
 .text.addr_unicast_to_dsm_entry
                0x000000000001f048       0x10 CMakeFiles/51_light_control_server.dir/__/__/__/mesh/src/access/device_state_manager.c.obj
 .text.addr_unicast_to_flash_entry
                0x000000000001f058       0x14 CMakeFiles/51_light_control_server.dir/__/__/__/mesh/src/access/device_state_manager.c.obj
 .text.appkey_set
                0x000000000001f06c       0x8c CMakeFiles/51_light_control_server.dir/__/__/__/mesh/src/access/device_state_manager.c.obj
 .text.appkey_to_dsm_entry
                0x000000000001f0f8       0x12 CMakeFiles/51_light_control_server.dir/__/__/__/mesh/src/access/device_state_manager.c.obj
 *fill*         0x000000000001f10a        0x2 
 .text.subnet_set
                0x000000000001f10c       0xb4 CMakeFiles/51_light_control_server.dir/__/__/__/mesh/src/access/device_state_manager.c.obj
 .text.subnet_to_dsm_entry
                0x000000000001f1c0       0x10 CMakeFiles/51_light_control_server.dir/__/__/__/mesh/src/access/device_state_manager.c.obj
 .text.virtual_address_set
                0x000000000001f1d0       0x68 CMakeFiles/51_light_control_server.dir/__/__/__/mesh/src/access/device_state_manager.c.obj
 .text.addr_virtual_to_dsm_entry
                0x000000000001f238       0x10 CMakeFiles/51_light_control_server.dir/__/__/__/mesh/src/access/device_state_manager.c.obj
 .text.flash_save
                0x000000000001f248       0x94 CMakeFiles/51_light_control_server.dir/__/__/__/mesh/src/access/device_state_manager.c.obj
 .text.flash_invalidate
                0x000000000001f2dc       0x80 CMakeFiles/51_light_control_server.dir/__/__/__/mesh/src/access/device_state_manager.c.obj
 .text.flash_update_all
                0x000000000001f35c       0xd4 CMakeFiles/51_light_control_server.dir/__/__/__/mesh/src/access/device_state_manager.c.obj
 .text.address_delete_if_unused
                0x000000000001f430       0x94 CMakeFiles/51_light_control_server.dir/__/__/__/mesh/src/access/device_state_manager.c.obj
 .text.flash_operation_complete
                0x000000000001f4c4       0x6c CMakeFiles/51_light_control_server.dir/__/__/__/mesh/src/access/device_state_manager.c.obj
 .text.flash_invalidate_complete
                0x000000000001f530        0xc CMakeFiles/51_light_control_server.dir/__/__/__/mesh/src/access/device_state_manager.c.obj
 .text.flash_write_complete
                0x000000000001f53c        0xc CMakeFiles/51_light_control_server.dir/__/__/__/mesh/src/access/device_state_manager.c.obj
 .text.reset_flash_area
                0x000000000001f548       0x28 CMakeFiles/51_light_control_server.dir/__/__/__/mesh/src/access/device_state_manager.c.obj
 .text.add_address
                0x000000000001f570       0xfc CMakeFiles/51_light_control_server.dir/__/__/__/mesh/src/access/device_state_manager.c.obj
 .text.virtual_address_uuid_index_get
                0x000000000001f66c       0x3c CMakeFiles/51_light_control_server.dir/__/__/__/mesh/src/access/device_state_manager.c.obj
 .text.add_address_virtual
                0x000000000001f6a8       0x90 CMakeFiles/51_light_control_server.dir/__/__/__/mesh/src/access/device_state_manager.c.obj
 .text.dsm_flash_config_load
                0x000000000001f738      0x140 CMakeFiles/51_light_control_server.dir/__/__/__/mesh/src/access/device_state_manager.c.obj
                0x000000000001f738                dsm_flash_config_load
 .text.dsm_flash_area_get
                0x000000000001f878       0x14 CMakeFiles/51_light_control_server.dir/__/__/__/mesh/src/access/device_state_manager.c.obj
                0x000000000001f878                dsm_flash_area_get
 .text.build_flash_area
                0x000000000001f88c       0x8c CMakeFiles/51_light_control_server.dir/__/__/__/mesh/src/access/device_state_manager.c.obj
 .text.dsm_init
                0x000000000001f918       0x28 CMakeFiles/51_light_control_server.dir/__/__/__/mesh/src/access/device_state_manager.c.obj
                0x000000000001f918                dsm_init
 .text.flash_remove_complete
                0x000000000001f940        0x8 CMakeFiles/51_light_control_server.dir/__/__/__/mesh/src/access/device_state_manager.c.obj
 .text.dsm_local_unicast_addresses_set
                0x000000000001f948       0x84 CMakeFiles/51_light_control_server.dir/__/__/__/mesh/src/access/device_state_manager.c.obj
                0x000000000001f948                dsm_local_unicast_addresses_set
 .text.dsm_local_unicast_addresses_get
                0x000000000001f9cc       0x2c CMakeFiles/51_light_control_server.dir/__/__/__/mesh/src/access/device_state_manager.c.obj
                0x000000000001f9cc                dsm_local_unicast_addresses_get
 .text.dsm_address_publish_add
                0x000000000001f9f8        0xa CMakeFiles/51_light_control_server.dir/__/__/__/mesh/src/access/device_state_manager.c.obj
                0x000000000001f9f8                dsm_address_publish_add
 *fill*         0x000000000001fa02        0x2 
 .text.dsm_address_publish_add_handle
                0x000000000001fa04       0x64 CMakeFiles/51_light_control_server.dir/__/__/__/mesh/src/access/device_state_manager.c.obj
                0x000000000001fa04                dsm_address_publish_add_handle
 .text.dsm_address_publish_virtual_add
                0x000000000001fa68        0xa CMakeFiles/51_light_control_server.dir/__/__/__/mesh/src/access/device_state_manager.c.obj
                0x000000000001fa68                dsm_address_publish_virtual_add
 .text.dsm_address_subscription_add
                0x000000000001fa72        0xa CMakeFiles/51_light_control_server.dir/__/__/__/mesh/src/access/device_state_manager.c.obj
                0x000000000001fa72                dsm_address_subscription_add
 .text.dsm_address_subscription_virtual_add
                0x000000000001fa7c        0xa CMakeFiles/51_light_control_server.dir/__/__/__/mesh/src/access/device_state_manager.c.obj
                0x000000000001fa7c                dsm_address_subscription_virtual_add
 *fill*         0x000000000001fa86        0x2 
 .text.dsm_address_subscription_add_handle
                0x000000000001fa88       0x64 CMakeFiles/51_light_control_server.dir/__/__/__/mesh/src/access/device_state_manager.c.obj
                0x000000000001fa88                dsm_address_subscription_add_handle
 .text.dsm_address_subscription_get
                0x000000000001faec       0x64 CMakeFiles/51_light_control_server.dir/__/__/__/mesh/src/access/device_state_manager.c.obj
                0x000000000001faec                dsm_address_subscription_get
 .text.dsm_address_get
                0x000000000001fb50       0x70 CMakeFiles/51_light_control_server.dir/__/__/__/mesh/src/access/device_state_manager.c.obj
                0x000000000001fb50                dsm_address_get
 .text.dsm_address_subscription_remove
                0x000000000001fbc0       0xa8 CMakeFiles/51_light_control_server.dir/__/__/__/mesh/src/access/device_state_manager.c.obj
                0x000000000001fbc0                dsm_address_subscription_remove
 .text.dsm_address_handle_get
                0x000000000001fc68       0xb4 CMakeFiles/51_light_control_server.dir/__/__/__/mesh/src/access/device_state_manager.c.obj
                0x000000000001fc68                dsm_address_handle_get
 .text.dsm_net_key_index_to_subnet_handle
                0x000000000001fd1c       0x28 CMakeFiles/51_light_control_server.dir/__/__/__/mesh/src/access/device_state_manager.c.obj
                0x000000000001fd1c                dsm_net_key_index_to_subnet_handle
 .text.dsm_app_key_index_to_appkey_handle
                0x000000000001fd44       0x20 CMakeFiles/51_light_control_server.dir/__/__/__/mesh/src/access/device_state_manager.c.obj
                0x000000000001fd44                dsm_app_key_index_to_appkey_handle
 .text.dsm_appkey_handle_get
                0x000000000001fd64       0x14 CMakeFiles/51_light_control_server.dir/__/__/__/mesh/src/access/device_state_manager.c.obj
                0x000000000001fd64                dsm_appkey_handle_get
 .text.dsm_appkey_handle_to_appkey_index
                0x000000000001fd78       0x30 CMakeFiles/51_light_control_server.dir/__/__/__/mesh/src/access/device_state_manager.c.obj
                0x000000000001fd78                dsm_appkey_handle_to_appkey_index
 .text.dsm_subnet_add
                0x000000000001fda8       0x58 CMakeFiles/51_light_control_server.dir/__/__/__/mesh/src/access/device_state_manager.c.obj
                0x000000000001fda8                dsm_subnet_add
 .text.dsm_subnet_update
                0x000000000001fe00       0x3c CMakeFiles/51_light_control_server.dir/__/__/__/mesh/src/access/device_state_manager.c.obj
                0x000000000001fe00                dsm_subnet_update
 .text.dsm_subnet_get_all
                0x000000000001fe3c       0x40 CMakeFiles/51_light_control_server.dir/__/__/__/mesh/src/access/device_state_manager.c.obj
                0x000000000001fe3c                dsm_subnet_get_all
 .text.dsm_devkey_add
                0x000000000001fe7c       0x84 CMakeFiles/51_light_control_server.dir/__/__/__/mesh/src/access/device_state_manager.c.obj
                0x000000000001fe7c                dsm_devkey_add
 .text.dsm_devkey_delete
                0x000000000001ff00       0x38 CMakeFiles/51_light_control_server.dir/__/__/__/mesh/src/access/device_state_manager.c.obj
                0x000000000001ff00                dsm_devkey_delete
 .text.dsm_appkey_add
                0x000000000001ff38       0x80 CMakeFiles/51_light_control_server.dir/__/__/__/mesh/src/access/device_state_manager.c.obj
                0x000000000001ff38                dsm_appkey_add
 .text.dsm_appkey_update
                0x000000000001ffb8       0x44 CMakeFiles/51_light_control_server.dir/__/__/__/mesh/src/access/device_state_manager.c.obj
                0x000000000001ffb8                dsm_appkey_update
 .text.dsm_appkey_delete
                0x000000000001fffc       0x30 CMakeFiles/51_light_control_server.dir/__/__/__/mesh/src/access/device_state_manager.c.obj
                0x000000000001fffc                dsm_appkey_delete
 .text.dsm_subnet_delete
                0x000000000002002c       0x98 CMakeFiles/51_light_control_server.dir/__/__/__/mesh/src/access/device_state_manager.c.obj
                0x000000000002002c                dsm_subnet_delete
 .text.dsm_appkey_get_all
                0x00000000000200c4       0x60 CMakeFiles/51_light_control_server.dir/__/__/__/mesh/src/access/device_state_manager.c.obj
                0x00000000000200c4                dsm_appkey_get_all
 .text.dsm_tx_secmat_get
                0x0000000000020124      0x124 CMakeFiles/51_light_control_server.dir/__/__/__/mesh/src/access/device_state_manager.c.obj
                0x0000000000020124                dsm_tx_secmat_get
 .text.nrf_mesh_net_secmat_next_get
                0x0000000000020248       0x54 CMakeFiles/51_light_control_server.dir/__/__/__/mesh/src/access/device_state_manager.c.obj
                0x0000000000020248                nrf_mesh_net_secmat_next_get
 .text.nrf_mesh_app_secmat_next_get
                0x000000000002029c       0x8c CMakeFiles/51_light_control_server.dir/__/__/__/mesh/src/access/device_state_manager.c.obj
                0x000000000002029c                nrf_mesh_app_secmat_next_get
 .text.nrf_mesh_devkey_secmat_get
                0x0000000000020328       0x40 CMakeFiles/51_light_control_server.dir/__/__/__/mesh/src/access/device_state_manager.c.obj
                0x0000000000020328                nrf_mesh_devkey_secmat_get
 .text.nrf_mesh_beacon_info_next_get
                0x0000000000020368       0x74 CMakeFiles/51_light_control_server.dir/__/__/__/mesh/src/access/device_state_manager.c.obj
                0x0000000000020368                nrf_mesh_beacon_info_next_get
 .text.nrf_mesh_rx_address_get
                0x00000000000203dc       0xec CMakeFiles/51_light_control_server.dir/__/__/__/mesh/src/access/device_state_manager.c.obj
                0x00000000000203dc                nrf_mesh_rx_address_get
 .text.sd_softdevice_enable
                0x00000000000204c8        0x4 CMakeFiles/51_light_control_server.dir/__/__/__/mesh/src/access/nrf_mesh_node_config.c.obj
 .text.default_mesh_assertion_handler
                0x00000000000204cc       0x88 CMakeFiles/51_light_control_server.dir/__/__/__/mesh/src/access/nrf_mesh_node_config.c.obj
                0x00000000000204cc                default_mesh_assertion_handler
 .text.start_provisionee
                0x0000000000020554       0x1c CMakeFiles/51_light_control_server.dir/__/__/__/mesh/src/access/nrf_mesh_node_config.c.obj
 .text.mesh_evt_handler
                0x0000000000020570      0x10c CMakeFiles/51_light_control_server.dir/__/__/__/mesh/src/access/nrf_mesh_node_config.c.obj
 .text.default_softdevice_assertion_handler
                0x000000000002067c       0x90 CMakeFiles/51_light_control_server.dir/__/__/__/mesh/src/access/nrf_mesh_node_config.c.obj
 .text.softdevice_setup
                0x000000000002070c       0x74 CMakeFiles/51_light_control_server.dir/__/__/__/mesh/src/access/nrf_mesh_node_config.c.obj
                0x000000000002070c                softdevice_setup
 .text.nrf_mesh_node_config
                0x0000000000020780       0xf8 CMakeFiles/51_light_control_server.dir/__/__/__/mesh/src/access/nrf_mesh_node_config.c.obj
                0x0000000000020780                nrf_mesh_node_config
 .text.get_element_index
                0x0000000000020878       0x2c CMakeFiles/51_light_control_server.dir/__/__/__/mesh/models/config/src/config_server.c.obj
 .text.send_reply
                0x00000000000208a4       0x20 CMakeFiles/51_light_control_server.dir/__/__/__/mesh/models/config/src/config_server.c.obj
 .text.send_generic_error_reply
                0x00000000000208c4       0x3e CMakeFiles/51_light_control_server.dir/__/__/__/mesh/models/config/src/config_server.c.obj
 *fill*         0x0000000000020902        0x2 
 .text.handle_model_app_get
                0x0000000000020904      0x200 CMakeFiles/51_light_control_server.dir/__/__/__/mesh/models/config/src/config_server.c.obj
 .text.handle_node_reset
                0x0000000000020b04       0x20 CMakeFiles/51_light_control_server.dir/__/__/__/mesh/models/config/src/config_server.c.obj
 .text.handle_node_identity_set
                0x0000000000020b24       0x38 CMakeFiles/51_light_control_server.dir/__/__/__/mesh/models/config/src/config_server.c.obj
 .text.handle_node_identity_get
                0x0000000000020b5c       0x38 CMakeFiles/51_light_control_server.dir/__/__/__/mesh/models/config/src/config_server.c.obj
 .text.handle_heartbeat_subscription_set
                0x0000000000020b94       0x30 CMakeFiles/51_light_control_server.dir/__/__/__/mesh/models/config/src/config_server.c.obj
 .text.handle_heartbeat_subscription_get
                0x0000000000020bc4       0x30 CMakeFiles/51_light_control_server.dir/__/__/__/mesh/models/config/src/config_server.c.obj
 .text.handle_heartbeat_publication_set
                0x0000000000020bf4       0x2a CMakeFiles/51_light_control_server.dir/__/__/__/mesh/models/config/src/config_server.c.obj
 .text.handle_heartbeat_publication_get
                0x0000000000020c1e       0x2a CMakeFiles/51_light_control_server.dir/__/__/__/mesh/models/config/src/config_server.c.obj
 .text.send_subscription_status
                0x0000000000020c48       0x50 CMakeFiles/51_light_control_server.dir/__/__/__/mesh/models/config/src/config_server.c.obj
 .text.handle_config_gatt_proxy_set
                0x0000000000020c98       0x24 CMakeFiles/51_light_control_server.dir/__/__/__/mesh/models/config/src/config_server.c.obj
 .text.handle_config_gatt_proxy_get
                0x0000000000020cbc       0x24 CMakeFiles/51_light_control_server.dir/__/__/__/mesh/models/config/src/config_server.c.obj
 .text.handle_config_friend_set
                0x0000000000020ce0       0x24 CMakeFiles/51_light_control_server.dir/__/__/__/mesh/models/config/src/config_server.c.obj
 .text.handle_config_friend_get
                0x0000000000020d04       0x24 CMakeFiles/51_light_control_server.dir/__/__/__/mesh/models/config/src/config_server.c.obj
 .text.handle_netkey_get
                0x0000000000020d28       0x6c CMakeFiles/51_light_control_server.dir/__/__/__/mesh/models/config/src/config_server.c.obj
 .text.handle_netkey_delete
                0x0000000000020d94       0x7c CMakeFiles/51_light_control_server.dir/__/__/__/mesh/models/config/src/config_server.c.obj
 .text.handle_model_app_bind_unbind
                0x0000000000020e10      0x16c CMakeFiles/51_light_control_server.dir/__/__/__/mesh/models/config/src/config_server.c.obj
 .text.handle_config_vendor_model_subscription_get
                0x0000000000020f7c      0x124 CMakeFiles/51_light_control_server.dir/__/__/__/mesh/models/config/src/config_server.c.obj
 .text.send_relay_status
                0x00000000000210a0       0x8c CMakeFiles/51_light_control_server.dir/__/__/__/mesh/models/config/src/config_server.c.obj
 .text.handle_config_relay_set
                0x000000000002112c       0xa0 CMakeFiles/51_light_control_server.dir/__/__/__/mesh/models/config/src/config_server.c.obj
 .text.handle_config_relay_get
                0x00000000000211cc       0x10 CMakeFiles/51_light_control_server.dir/__/__/__/mesh/models/config/src/config_server.c.obj
 .text.handle_config_model_subscription_virtual_address_add
                0x00000000000211dc      0x190 CMakeFiles/51_light_control_server.dir/__/__/__/mesh/models/config/src/config_server.c.obj
 .text.delete_all_subscriptions
                0x000000000002136c       0xa0 CMakeFiles/51_light_control_server.dir/__/__/__/mesh/models/config/src/config_server.c.obj
 .text.handle_config_model_subscription_virtual_address_overwrite
                0x000000000002140c      0x1c4 CMakeFiles/51_light_control_server.dir/__/__/__/mesh/models/config/src/config_server.c.obj
 .text.handle_config_model_subscription_delete_all
                0x00000000000215d0       0xfc CMakeFiles/51_light_control_server.dir/__/__/__/mesh/models/config/src/config_server.c.obj
 .text.handle_config_model_subscription_virtual_address_delete
                0x00000000000216cc      0x190 CMakeFiles/51_light_control_server.dir/__/__/__/mesh/models/config/src/config_server.c.obj
 .text.handle_config_model_subscription_delete
                0x000000000002185c      0x204 CMakeFiles/51_light_control_server.dir/__/__/__/mesh/models/config/src/config_server.c.obj
 .text.handle_config_model_subscription_overwrite
                0x0000000000021a60      0x1f0 CMakeFiles/51_light_control_server.dir/__/__/__/mesh/models/config/src/config_server.c.obj
 .text.handle_config_model_subscription_add
                0x0000000000021c50      0x1bc CMakeFiles/51_light_control_server.dir/__/__/__/mesh/models/config/src/config_server.c.obj
 .text.send_publication_status
                0x0000000000021e0c      0x1b0 CMakeFiles/51_light_control_server.dir/__/__/__/mesh/models/config/src/config_server.c.obj
 .text.handle_config_model_publication_get
                0x0000000000021fbc       0xa8 CMakeFiles/51_light_control_server.dir/__/__/__/mesh/models/config/src/config_server.c.obj
 .text.handle_config_default_ttl_getset
                0x0000000000022064       0x58 CMakeFiles/51_light_control_server.dir/__/__/__/mesh/models/config/src/config_server.c.obj
 .text.send_net_beacon_state
                0x00000000000220bc       0x2c CMakeFiles/51_light_control_server.dir/__/__/__/mesh/models/config/src/config_server.c.obj
 .text.handle_config_beacon_set
                0x00000000000220e8       0x2a CMakeFiles/51_light_control_server.dir/__/__/__/mesh/models/config/src/config_server.c.obj
 .text.handle_config_beacon_get
                0x0000000000022112       0x10 CMakeFiles/51_light_control_server.dir/__/__/__/mesh/models/config/src/config_server.c.obj
 *fill*         0x0000000000022122        0x2 
 .text.handle_composition_data_get
                0x0000000000022124       0x54 CMakeFiles/51_light_control_server.dir/__/__/__/mesh/models/config/src/config_server.c.obj
 .text.handle_appkey_get
                0x0000000000022178       0xc8 CMakeFiles/51_light_control_server.dir/__/__/__/mesh/models/config/src/config_server.c.obj
 .text.handle_appkey_delete
                0x0000000000022240       0x80 CMakeFiles/51_light_control_server.dir/__/__/__/mesh/models/config/src/config_server.c.obj
 .text.handle_config_model_publication_set
                0x00000000000222c0      0x2b8 CMakeFiles/51_light_control_server.dir/__/__/__/mesh/models/config/src/config_server.c.obj
 .text.handle_config_sig_model_subscription_get
                0x0000000000022578       0xfc CMakeFiles/51_light_control_server.dir/__/__/__/mesh/models/config/src/config_server.c.obj
 .text.handle_netkey_add_update
                0x0000000000022674       0xa0 CMakeFiles/51_light_control_server.dir/__/__/__/mesh/models/config/src/config_server.c.obj
 .text.handle_appkey_add_update
                0x0000000000022714       0xbc CMakeFiles/51_light_control_server.dir/__/__/__/mesh/models/config/src/config_server.c.obj
 .text.config_server_init
                0x00000000000227d0       0x54 CMakeFiles/51_light_control_server.dir/__/__/__/mesh/models/config/src/config_server.c.obj
                0x00000000000227d0                config_server_init
 .text.config_server_bind
                0x0000000000022824       0x14 CMakeFiles/51_light_control_server.dir/__/__/__/mesh/models/config/src/config_server.c.obj
                0x0000000000022824                config_server_bind
 .text.packed_index_list_size
                0x0000000000022838       0x12 CMakeFiles/51_light_control_server.dir/__/__/__/mesh/models/config/src/packed_index_list.c.obj
                0x0000000000022838                packed_index_list_size
 .text.packed_index_list_create
                0x000000000002284a       0x36 CMakeFiles/51_light_control_server.dir/__/__/__/mesh/models/config/src/packed_index_list.c.obj
                0x000000000002284a                packed_index_list_create
 .text.config_composition_data_get
                0x0000000000022880      0x1d8 CMakeFiles/51_light_control_server.dir/__/__/__/mesh/models/config/src/composition_data.c.obj
                0x0000000000022880                config_composition_data_get
 .text.sd_evt_get
                0x0000000000022a58        0x4 CMakeFiles/51_light_control_server.dir/__/__/nrf_mesh_sdk.c.obj
 .text.sd_ble_evt_get
                0x0000000000022a5c        0x4 CMakeFiles/51_light_control_server.dir/__/__/nrf_mesh_sdk.c.obj
 .text.sleep_forever
                0x0000000000022a60       0x24 CMakeFiles/51_light_control_server.dir/__/__/nrf_mesh_sdk.c.obj
 .text.app_error_handler
                0x0000000000022a84       0x88 CMakeFiles/51_light_control_server.dir/__/__/nrf_mesh_sdk.c.obj
                0x0000000000022a84                app_error_handler
 .text.HardFault_Handler
                0x0000000000022b0c       0x7c CMakeFiles/51_light_control_server.dir/__/__/nrf_mesh_sdk.c.obj
                0x0000000000022b0c                HardFault_Handler
 .text.SWI2_IRQHandler
                0x0000000000022b88       0x44 CMakeFiles/51_light_control_server.dir/__/__/nrf_mesh_sdk.c.obj
                0x0000000000022b88                SWI2_IRQHandler
 .text.hal_led_pin_get
                0x0000000000022bcc       0x1c CMakeFiles/51_light_control_server.dir/__/__/hal/src/simple_hal.c.obj
                0x0000000000022bcc                hal_led_pin_get
 .text.hal_led_pin_set
                0x0000000000022be8       0x28 CMakeFiles/51_light_control_server.dir/__/__/hal/src/simple_hal.c.obj
                0x0000000000022be8                hal_led_pin_set
 .text.hal_led_blink_ms
                0x0000000000022c10       0x5c CMakeFiles/51_light_control_server.dir/__/__/hal/src/simple_hal.c.obj
                0x0000000000022c10                hal_led_blink_ms
 .text.hal_leds_init
                0x0000000000022c6c       0x3c CMakeFiles/51_light_control_server.dir/__/__/hal/src/simple_hal.c.obj
                0x0000000000022c6c                hal_leds_init
 .text.rx_set_unreliable_cb
                0x0000000000022ca8       0x54 CMakeFiles/51_light_control_server.dir/__/__/models/simple_on_off/src/simple_on_off_server.c.obj
 .text.rx_get_cb
                0x0000000000022cfc       0x4c CMakeFiles/51_light_control_server.dir/__/__/models/simple_on_off/src/simple_on_off_server.c.obj
 .text.rx_set_cb
                0x0000000000022d48       0x88 CMakeFiles/51_light_control_server.dir/__/__/models/simple_on_off/src/simple_on_off_server.c.obj
 .text.simple_on_off_server_init
                0x0000000000022dd0       0x50 CMakeFiles/51_light_control_server.dir/__/__/models/simple_on_off/src/simple_on_off_server.c.obj
                0x0000000000022dd0                simple_on_off_server_init
 .text          0x0000000000022e20       0x4c CMakeFiles/51_light_control_server.dir/__/__/__/toolchain/gcc/gcc_startup_nrf51.S.obj
                0x0000000000022e20                Reset_Handler
                0x0000000000022e60                NMI_Handler
                0x0000000000022e64                SVC_Handler
                0x0000000000022e66                PendSV_Handler
                0x0000000000022e68                SysTick_Handler
                0x0000000000022e6a                TIMER2_IRQHandler
                0x0000000000022e6a                SPI0_TWI0_IRQHandler
                0x0000000000022e6a                RTC0_IRQHandler
                0x0000000000022e6a                GPIOTE_IRQHandler
                0x0000000000022e6a                POWER_CLOCK_IRQHandler
                0x0000000000022e6a                RADIO_IRQHandler
                0x0000000000022e6a                LPCOMP_IRQHandler
                0x0000000000022e6a                SWI4_IRQHandler
                0x0000000000022e6a                TEMP_IRQHandler
                0x0000000000022e6a                UART0_IRQHandler
                0x0000000000022e6a                SWI5_IRQHandler
                0x0000000000022e6a                TIMER0_IRQHandler
                0x0000000000022e6a                SWI0_IRQHandler
                0x0000000000022e6a                TIMER1_IRQHandler
                0x0000000000022e6a                ECB_IRQHandler
                0x0000000000022e6a                Default_Handler
                0x0000000000022e6a                ADC_IRQHandler
                0x0000000000022e6a                SWI3_IRQHandler
                0x0000000000022e6a                CCM_AAR_IRQHandler
                0x0000000000022e6a                WDT_IRQHandler
                0x0000000000022e6a                RNG_IRQHandler
                0x0000000000022e6a                SPI1_TWI1_IRQHandler
                0x0000000000022e6a                RTC1_IRQHandler
                0x0000000000022e6a                SWI1_IRQHandler
 .text.SystemInit
                0x0000000000022e6c      0x104 CMakeFiles/51_light_control_server.dir/__/__/__/toolchain/system_nrf51.c.obj
                0x0000000000022e6c                SystemInit
 .text.complete_provisioning
                0x0000000000022f70       0x74 ../../../mesh/lib_51_MBTLE_PB_ADV_EE.a(prov_provisionee.c.obj)
 .text.prov_provisionee_cb_link_closed
                0x0000000000022fe4       0x38 ../../../mesh/lib_51_MBTLE_PB_ADV_EE.a(prov_provisionee.c.obj)
 .text.prov_provisionee_cb_link_established
                0x000000000002301c       0x20 ../../../mesh/lib_51_MBTLE_PB_ADV_EE.a(prov_provisionee.c.obj)
 .text.request_authentication
                0x000000000002303c       0xb4 ../../../mesh/lib_51_MBTLE_PB_ADV_EE.a(prov_provisionee.c.obj)
 .text.send_failed
                0x00000000000230f0       0x4c ../../../mesh/lib_51_MBTLE_PB_ADV_EE.a(prov_provisionee.c.obj)
 .text.start_authentication
                0x000000000002313c       0x6c ../../../mesh/lib_51_MBTLE_PB_ADV_EE.a(prov_provisionee.c.obj)
 .text.prov_provisionee_cb_ack_received
                0x00000000000231a8       0xcc ../../../mesh/lib_51_MBTLE_PB_ADV_EE.a(prov_provisionee.c.obj)
 .text.prov_provisionee_pkt_in
                0x0000000000023274      0x3b0 ../../../mesh/lib_51_MBTLE_PB_ADV_EE.a(prov_provisionee.c.obj)
 .text.prov_provisionee_init
                0x0000000000023624       0x4c ../../../mesh/lib_51_MBTLE_PB_ADV_EE.a(prov_provisionee.c.obj)
                0x0000000000023624                prov_provisionee_init
 .text.prov_provisionee_auth_data
                0x0000000000023670       0x90 ../../../mesh/lib_51_MBTLE_PB_ADV_EE.a(prov_provisionee.c.obj)
                0x0000000000023670                prov_provisionee_auth_data
 .text._weak_handler
                0x0000000000023700        0x4 ../../../mesh/lib_51_MBTLE_CORE.a(nrf_mesh_weak.c.obj)
                0x0000000000023700                nrf_mesh_dfu_init
                0x0000000000023700                nrf_mesh_dfu_jump_to_bootloader
                0x0000000000023700                prov_provisioner_cb_link_established
                0x0000000000023700                nrf_mesh_dfu_rx
                0x0000000000023700                prov_provisionee_pkt_in
                0x0000000000023700                prov_provisioner_provision
                0x0000000000023700                prov_provisioner_cb_ack_received
                0x0000000000023700                nrf_mesh_dfu_bank_info_get
                0x0000000000023700                prov_provisionee_cb_ack_received
                0x0000000000023700                prov_provisioner_oob_pubkey
                0x0000000000023700                nrf_mesh_dfu_request
                0x0000000000023700                nrf_mesh_dfu_bank_flash
                0x0000000000023700                _weak_handler
                0x0000000000023700                prov_provisioner_pkt_in
                0x0000000000023700                prov_provisioner_init
                0x0000000000023700                nrf_mesh_dfu_relay
                0x0000000000023700                prov_provisionee_accept
                0x0000000000023700                nrf_mesh_dfu_abort
                0x0000000000023700                nrf_mesh_dfu_state_get
                0x0000000000023700                prov_provisioner_shared_secret
                0x0000000000023700                prov_provisioner_auth_data
                0x0000000000023700                prov_provisioner_oob_use
 .text.is_valid_gap_addr
                0x0000000000023704       0x7c ../../../mesh/lib_51_MBTLE_CORE.a(bearer_adv.c.obj)
 .text.packet_tx
                0x0000000000023780       0xaa ../../../mesh/lib_51_MBTLE_CORE.a(bearer_adv.c.obj)
 *fill*         0x000000000002382a        0x2 
 .text.scan_order
                0x000000000002382c       0xb0 ../../../mesh/lib_51_MBTLE_CORE.a(bearer_adv.c.obj)
 .text.radio_idle_cb
                0x00000000000238dc       0x18 ../../../mesh/lib_51_MBTLE_CORE.a(bearer_adv.c.obj)
 .text.scan_begin_timer_cb
                0x00000000000238f4       0x44 ../../../mesh/lib_51_MBTLE_CORE.a(bearer_adv.c.obj)
 .text.radio_tx_cb
                0x0000000000023938       0x34 ../../../mesh/lib_51_MBTLE_CORE.a(bearer_adv.c.obj)
 .text.tx_event_send
                0x000000000002396c       0x22 ../../../mesh/lib_51_MBTLE_CORE.a(bearer_adv.c.obj)
 *fill*         0x000000000002398e        0x2 
 .text.radio_rx_cb
                0x0000000000023990       0x44 ../../../mesh/lib_51_MBTLE_CORE.a(bearer_adv.c.obj)
 .text.adv_evt_timeout
                0x00000000000239d4      0x168 ../../../mesh/lib_51_MBTLE_CORE.a(bearer_adv.c.obj)
 .text.next_adv_schedule
                0x0000000000023b3c       0x80 ../../../mesh/lib_51_MBTLE_CORE.a(bearer_adv.c.obj)
 .text.scan_end_timer_cb
                0x0000000000023bbc       0x14 ../../../mesh/lib_51_MBTLE_CORE.a(bearer_adv.c.obj)
 .text.bearer_adv_advertiser_init
                0x0000000000023bd0      0x13c ../../../mesh/lib_51_MBTLE_CORE.a(bearer_adv.c.obj)
                0x0000000000023bd0                bearer_adv_advertiser_init
 .text.bearer_adv_reconfig
                0x0000000000023d0c       0x50 ../../../mesh/lib_51_MBTLE_CORE.a(bearer_adv.c.obj)
                0x0000000000023d0c                bearer_adv_reconfig
 .text.bearer_adv_opt_get
                0x0000000000023d5c       0xd8 ../../../mesh/lib_51_MBTLE_CORE.a(bearer_adv.c.obj)
                0x0000000000023d5c                bearer_adv_opt_get
 .text.bearer_adv_tx
                0x0000000000023e34       0x58 ../../../mesh/lib_51_MBTLE_CORE.a(bearer_adv.c.obj)
                0x0000000000023e34                bearer_adv_tx
 .text.bearer_adv_adv_stop
                0x0000000000023e8c       0x1a ../../../mesh/lib_51_MBTLE_CORE.a(bearer_adv.c.obj)
                0x0000000000023e8c                bearer_adv_adv_stop
 .text.bearer_adv_adv_start
                0x0000000000023ea6       0x26 ../../../mesh/lib_51_MBTLE_CORE.a(bearer_adv.c.obj)
                0x0000000000023ea6                bearer_adv_adv_start
 .text.bearer_adv_flush_tx
                0x0000000000023ecc       0x56 ../../../mesh/lib_51_MBTLE_CORE.a(bearer_adv.c.obj)
                0x0000000000023ecc                bearer_adv_flush_tx
 .text.bearer_adv_interval_reset
                0x0000000000023f22       0x30 ../../../mesh/lib_51_MBTLE_CORE.a(bearer_adv.c.obj)
                0x0000000000023f22                bearer_adv_interval_reset
 *fill*         0x0000000000023f52        0x2 
 .text.bearer_adv_scan_start
                0x0000000000023f54       0x60 ../../../mesh/lib_51_MBTLE_CORE.a(bearer_adv.c.obj)
                0x0000000000023f54                bearer_adv_scan_start
 .text.bearer_adv_opt_set
                0x0000000000023fb4      0x124 ../../../mesh/lib_51_MBTLE_CORE.a(bearer_adv.c.obj)
                0x0000000000023fb4                bearer_adv_opt_set
 .text.bearer_adv_gap_type_set
                0x00000000000240d8       0x60 ../../../mesh/lib_51_MBTLE_CORE.a(bearer_adv.c.obj)
                0x00000000000240d8                bearer_adv_gap_type_set
 .text.bearer_adv_addr_get
                0x0000000000024138       0x28 ../../../mesh/lib_51_MBTLE_CORE.a(bearer_adv.c.obj)
                0x0000000000024138                bearer_adv_addr_get
 .text.bearer_adv_addr_default_set
                0x0000000000024160       0x30 ../../../mesh/lib_51_MBTLE_CORE.a(bearer_adv.c.obj)
                0x0000000000024160                bearer_adv_addr_default_set
 .text.bearer_adv_init
                0x0000000000024190       0xf4 ../../../mesh/lib_51_MBTLE_CORE.a(bearer_adv.c.obj)
                0x0000000000024190                bearer_adv_init
 .text.fifo_init
                0x0000000000024284       0x60 ../../../mesh/lib_51_MBTLE_CORE.a(fifo.c.obj)
                0x0000000000024284                fifo_init
 .text.fifo_push
                0x00000000000242e4       0x64 ../../../mesh/lib_51_MBTLE_CORE.a(fifo.c.obj)
                0x00000000000242e4                fifo_push
 .text.fifo_pop
                0x0000000000024348       0x62 ../../../mesh/lib_51_MBTLE_CORE.a(fifo.c.obj)
                0x0000000000024348                fifo_pop
 .text.fifo_peek_at
                0x00000000000243aa       0x62 ../../../mesh/lib_51_MBTLE_CORE.a(fifo.c.obj)
                0x00000000000243aa                fifo_peek_at
 .text.fifo_peek
                0x000000000002440c        0xa ../../../mesh/lib_51_MBTLE_CORE.a(fifo.c.obj)
                0x000000000002440c                fifo_peek
 .text.fifo_get_len
                0x0000000000024416        0x8 ../../../mesh/lib_51_MBTLE_CORE.a(fifo.c.obj)
                0x0000000000024416                fifo_get_len
 .text.fifo_is_empty
                0x000000000002441e        0xe ../../../mesh/lib_51_MBTLE_CORE.a(fifo.c.obj)
                0x000000000002441e                fifo_is_empty
 .text.packet_mgr_init
                0x000000000002442c       0x5c ../../../mesh/lib_51_MBTLE_CORE.a(packet_mgr.c.obj)
                0x000000000002442c                packet_mgr_init
 .text.packet_mgr_alloc
                0x0000000000024488      0x1f4 ../../../mesh/lib_51_MBTLE_CORE.a(packet_mgr.c.obj)
                0x0000000000024488                packet_mgr_alloc
 .text.packet_mgr_free
                0x000000000002467c       0x74 ../../../mesh/lib_51_MBTLE_CORE.a(packet_mgr.c.obj)
                0x000000000002467c                packet_mgr_free
 .text.radio_init
                0x00000000000246f0       0x60 ../../../mesh/lib_51_MBTLE_CORE.a(radio.c.obj)
                0x00000000000246f0                radio_init
 .text.radio_mode_set
                0x0000000000024750       0x14 ../../../mesh/lib_51_MBTLE_CORE.a(radio.c.obj)
                0x0000000000024750                radio_mode_set
 .text.radio_access_addr_set
                0x0000000000024764        0xc ../../../mesh/lib_51_MBTLE_CORE.a(radio.c.obj)
                0x0000000000024764                radio_access_addr_set
 .text.radio_tx_power_set
                0x0000000000024770        0xc ../../../mesh/lib_51_MBTLE_CORE.a(radio.c.obj)
                0x0000000000024770                radio_tx_power_set
 .text.radio_mode_get
                0x000000000002477c        0xc ../../../mesh/lib_51_MBTLE_CORE.a(radio.c.obj)
                0x000000000002477c                radio_mode_get
 .text.radio_access_addr_get
                0x0000000000024788        0xc ../../../mesh/lib_51_MBTLE_CORE.a(radio.c.obj)
                0x0000000000024788                radio_access_addr_get
 .text.radio_tx_power_get
                0x0000000000024794        0xc ../../../mesh/lib_51_MBTLE_CORE.a(radio.c.obj)
                0x0000000000024794                radio_tx_power_get
 .text.radio_order
                0x00000000000247a0      0x13c ../../../mesh/lib_51_MBTLE_CORE.a(radio.c.obj)
                0x00000000000247a0                radio_order
 .text.radio_invoke
                0x00000000000248dc       0x28 ../../../mesh/lib_51_MBTLE_CORE.a(radio.c.obj)
                0x00000000000248dc                radio_invoke
 .text.radio_stop
                0x0000000000024904       0x28 ../../../mesh/lib_51_MBTLE_CORE.a(radio.c.obj)
                0x0000000000024904                radio_stop
 .text.purge_preemptable
                0x000000000002492c       0x7c ../../../mesh/lib_51_MBTLE_CORE.a(radio.c.obj)
 .text.radio_preemptable_cancel
                0x00000000000249a8       0x2c ../../../mesh/lib_51_MBTLE_CORE.a(radio.c.obj)
                0x00000000000249a8                radio_preemptable_cancel
 .text.radio_event_handler
                0x00000000000249d4      0x134 ../../../mesh/lib_51_MBTLE_CORE.a(radio.c.obj)
                0x00000000000249d4                radio_event_handler
 .text.radio_on_ts_begin
                0x0000000000024b08       0x50 ../../../mesh/lib_51_MBTLE_CORE.a(radio.c.obj)
                0x0000000000024b08                radio_on_ts_begin
 .text.radio_on_ts_end
                0x0000000000024b58        0x8 ../../../mesh/lib_51_MBTLE_CORE.a(radio.c.obj)
                0x0000000000024b58                radio_on_ts_end
 .text.timer_order_cb
                0x0000000000024b60       0x9c ../../../mesh/lib_51_MBTLE_CORE.a(timer.c.obj)
                0x0000000000024b60                timer_order_cb
 .text.timer_abort
                0x0000000000024bfc       0x8c ../../../mesh/lib_51_MBTLE_CORE.a(timer.c.obj)
                0x0000000000024bfc                timer_abort
 .text.timer_now
                0x0000000000024c88       0x58 ../../../mesh/lib_51_MBTLE_CORE.a(timer.c.obj)
                0x0000000000024c88                timer_now
 .text.timer_event_handler
                0x0000000000024ce0       0xa0 ../../../mesh/lib_51_MBTLE_CORE.a(timer.c.obj)
                0x0000000000024ce0                timer_event_handler
 .text.timer_on_ts_begin
                0x0000000000024d80      0x138 ../../../mesh/lib_51_MBTLE_CORE.a(timer.c.obj)
                0x0000000000024d80                timer_on_ts_begin
 .text.timer_on_ts_end
                0x0000000000024eb8       0x48 ../../../mesh/lib_51_MBTLE_CORE.a(timer.c.obj)
                0x0000000000024eb8                timer_on_ts_end
 .text.add_evt  0x0000000000024f00       0x90 ../../../mesh/lib_51_MBTLE_CORE.a(timer_scheduler.c.obj)
 .text.process_add_list
                0x0000000000024f90       0x50 ../../../mesh/lib_51_MBTLE_CORE.a(timer_scheduler.c.obj)
 .text.process_dirty_events
                0x0000000000024fe0       0xb8 ../../../mesh/lib_51_MBTLE_CORE.a(timer_scheduler.c.obj)
 .text.flag_event_cb
                0x0000000000025098      0x138 ../../../mesh/lib_51_MBTLE_CORE.a(timer_scheduler.c.obj)
 .text.timer_cb
                0x00000000000251d0       0x10 ../../../mesh/lib_51_MBTLE_CORE.a(timer_scheduler.c.obj)
 .text.timer_sch_init
                0x00000000000251e0       0x24 ../../../mesh/lib_51_MBTLE_CORE.a(timer_scheduler.c.obj)
                0x00000000000251e0                timer_sch_init
 .text.timer_sch_schedule
                0x0000000000025204       0x94 ../../../mesh/lib_51_MBTLE_CORE.a(timer_scheduler.c.obj)
                0x0000000000025204                timer_sch_schedule
 .text.timer_sch_abort
                0x0000000000025298       0x6c ../../../mesh/lib_51_MBTLE_CORE.a(timer_scheduler.c.obj)
                0x0000000000025298                timer_sch_abort
 .text.timer_sch_reschedule
                0x0000000000025304       0xb4 ../../../mesh/lib_51_MBTLE_CORE.a(timer_scheduler.c.obj)
                0x0000000000025304                timer_sch_reschedule
 .text.beacon_init
                0x00000000000253b8       0x44 ../../../mesh/lib_51_MBTLE_CORE.a(beacon.c.obj)
                0x00000000000253b8                beacon_init
 .text.beacon_create
                0x00000000000253fc       0x5e ../../../mesh/lib_51_MBTLE_CORE.a(beacon.c.obj)
                0x00000000000253fc                beacon_create
 *fill*         0x000000000002545a        0x2 
 .text.beacon_tx
                0x000000000002545c       0x48 ../../../mesh/lib_51_MBTLE_CORE.a(beacon.c.obj)
                0x000000000002545c                beacon_tx
 .text.beacon_pkt_in
                0x00000000000254a4      0x19c ../../../mesh/lib_51_MBTLE_CORE.a(beacon.c.obj)
                0x00000000000254a4                beacon_pkt_in
 .text.bearer_rx_cb
                0x0000000000025640      0x3a0 ../../../mesh/lib_51_MBTLE_CORE.a(bearer.c.obj)
 .text.bearer_init
                0x00000000000259e0       0x68 ../../../mesh/lib_51_MBTLE_CORE.a(bearer.c.obj)
                0x00000000000259e0                bearer_init
 .text.bearer_adtype_filtering_set
                0x0000000000025a48        0xc ../../../mesh/lib_51_MBTLE_CORE.a(bearer.c.obj)
                0x0000000000025a48                bearer_adtype_filtering_set
 .text.bearer_adtype_add
                0x0000000000025a54       0x1c ../../../mesh/lib_51_MBTLE_CORE.a(bearer.c.obj)
                0x0000000000025a54                bearer_adtype_add
 .text.bearer_adtype_remove
                0x0000000000025a70       0x1c ../../../mesh/lib_51_MBTLE_CORE.a(bearer.c.obj)
                0x0000000000025a70                bearer_adtype_remove
 .text.bearer_enable
                0x0000000000025a8c        0xa ../../../mesh/lib_51_MBTLE_CORE.a(bearer.c.obj)
                0x0000000000025a8c                bearer_enable
 *fill*         0x0000000000025a96        0x2 
 .text.bearer_tx
                0x0000000000025a98       0x50 ../../../mesh/lib_51_MBTLE_CORE.a(bearer.c.obj)
                0x0000000000025a98                bearer_tx
 .text.bearer_rx
                0x0000000000025ae8       0x3c ../../../mesh/lib_51_MBTLE_CORE.a(bearer.c.obj)
                0x0000000000025ae8                bearer_rx
 .text.evt_push
                0x0000000000025b24       0x28 ../../../mesh/lib_51_MBTLE_CORE.a(bearer_event.c.obj)
 .text.QDEC_IRQHandler
                0x0000000000025b4c       0xb4 ../../../mesh/lib_51_MBTLE_CORE.a(bearer_event.c.obj)
                0x0000000000025b4c                QDEC_IRQHandler
 .text.bearer_event_init
                0x0000000000025c00       0x40 ../../../mesh/lib_51_MBTLE_CORE.a(bearer_event.c.obj)
                0x0000000000025c00                bearer_event_init
 .text.bearer_event_generic_post
                0x0000000000025c40       0x38 ../../../mesh/lib_51_MBTLE_CORE.a(bearer_event.c.obj)
                0x0000000000025c40                bearer_event_generic_post
 .text.bearer_event_timer_post
                0x0000000000025c78       0x38 ../../../mesh/lib_51_MBTLE_CORE.a(bearer_event.c.obj)
                0x0000000000025c78                bearer_event_timer_post
 .text.bearer_event_critical_section_begin
                0x0000000000025cb0       0x48 ../../../mesh/lib_51_MBTLE_CORE.a(bearer_event.c.obj)
                0x0000000000025cb0                bearer_event_critical_section_begin
 .text.bearer_event_critical_section_end
                0x0000000000025cf8       0x50 ../../../mesh/lib_51_MBTLE_CORE.a(bearer_event.c.obj)
                0x0000000000025cf8                bearer_event_critical_section_end
 .text.bearer_event_flag_add
                0x0000000000025d48       0x58 ../../../mesh/lib_51_MBTLE_CORE.a(bearer_event.c.obj)
                0x0000000000025d48                bearer_event_flag_add
 .text.bearer_event_flag_set
                0x0000000000025da0       0x5c ../../../mesh/lib_51_MBTLE_CORE.a(bearer_event.c.obj)
                0x0000000000025da0                bearer_event_flag_set
 .text.nrf_mesh_configure_device_uuid_reset
                0x0000000000025dfc       0x28 ../../../mesh/lib_51_MBTLE_CORE.a(nrf_mesh_configure.c.obj)
                0x0000000000025dfc                nrf_mesh_configure_device_uuid_reset
 .text.nrf_mesh_configure_device_uuid_get
                0x0000000000025e24        0x8 ../../../mesh/lib_51_MBTLE_CORE.a(nrf_mesh_configure.c.obj)
                0x0000000000025e24                nrf_mesh_configure_device_uuid_get
 .text.enc_aes_encrypt
                0x0000000000025e2c        0x8 ../../../mesh/lib_51_MBTLE_CORE.a(enc.c.obj)
                0x0000000000025e2c                enc_aes_encrypt
 .text.enc_aes_cmac
                0x0000000000025e34        0x8 ../../../mesh/lib_51_MBTLE_CORE.a(enc.c.obj)
                0x0000000000025e34                enc_aes_cmac
 .text.enc_aes_ccm_encrypt
                0x0000000000025e3c        0x8 ../../../mesh/lib_51_MBTLE_CORE.a(enc.c.obj)
                0x0000000000025e3c                enc_aes_ccm_encrypt
 .text.enc_aes_ccm_decrypt
                0x0000000000025e44        0x8 ../../../mesh/lib_51_MBTLE_CORE.a(enc.c.obj)
                0x0000000000025e44                enc_aes_ccm_decrypt
 .text.enc_nonce_generate
                0x0000000000025e4c       0xcc ../../../mesh/lib_51_MBTLE_CORE.a(enc.c.obj)
                0x0000000000025e4c                enc_nonce_generate
 .text.enc_s1   0x0000000000025f18       0x44 ../../../mesh/lib_51_MBTLE_CORE.a(enc.c.obj)
                0x0000000000025f18                enc_s1
 .text.enc_k1   0x0000000000025f5c       0x58 ../../../mesh/lib_51_MBTLE_CORE.a(enc.c.obj)
                0x0000000000025f5c                enc_k1
 .text.enc_k2   0x0000000000025fb4       0xfc ../../../mesh/lib_51_MBTLE_CORE.a(enc.c.obj)
                0x0000000000025fb4                enc_k2
 .text.enc_k3   0x00000000000260b0       0x68 ../../../mesh/lib_51_MBTLE_CORE.a(enc.c.obj)
                0x00000000000260b0                enc_k3
 .text.enc_k4   0x0000000000026118       0x64 ../../../mesh/lib_51_MBTLE_CORE.a(enc.c.obj)
                0x0000000000026118                enc_k4
 .text.event_handle
                0x000000000002617c       0x38 ../../../mesh/lib_51_MBTLE_CORE.a(event.c.obj)
                0x000000000002617c                event_handle
 .text.event_handler_add
                0x00000000000261b4       0x98 ../../../mesh/lib_51_MBTLE_CORE.a(event.c.obj)
                0x00000000000261b4                event_handler_add
 .text.event_handler_remove
                0x000000000002624c       0x7c ../../../mesh/lib_51_MBTLE_CORE.a(event.c.obj)
                0x000000000002624c                event_handler_remove
 .text.log_callback_rtt
                0x00000000000262c8       0x2c ../../../mesh/lib_51_MBTLE_CORE.a(log.c.obj)
                0x00000000000262c8                log_callback_rtt
 .text.log_init
                0x00000000000262f4       0x1c ../../../mesh/lib_51_MBTLE_CORE.a(log.c.obj)
                0x00000000000262f4                log_init
 .text.log_vprintf
                0x0000000000026310       0x20 ../../../mesh/lib_51_MBTLE_CORE.a(log.c.obj)
                0x0000000000026310                log_vprintf
 .text.log_printf
                0x0000000000026330       0x16 ../../../mesh/lib_51_MBTLE_CORE.a(log.c.obj)
                0x0000000000026330                log_printf
 *fill*         0x0000000000026346        0x2 
 .text.network_beacon_tx_cb
                0x0000000000026348      0x124 ../../../mesh/lib_51_MBTLE_CORE.a(net_beacon.c.obj)
 .text.net_beacon_init
                0x000000000002646c       0x60 ../../../mesh/lib_51_MBTLE_CORE.a(net_beacon.c.obj)
                0x000000000002646c                net_beacon_init
 .text.net_beacon_state_set
                0x00000000000264cc       0x40 ../../../mesh/lib_51_MBTLE_CORE.a(net_beacon.c.obj)
                0x00000000000264cc                net_beacon_state_set
 .text.net_beacon_state_get
                0x000000000002650c        0xc ../../../mesh/lib_51_MBTLE_CORE.a(net_beacon.c.obj)
                0x000000000002650c                net_beacon_state_get
 .text.net_beacon_pkt_in
                0x0000000000026518       0xe8 ../../../mesh/lib_51_MBTLE_CORE.a(net_beacon.c.obj)
                0x0000000000026518                net_beacon_pkt_in
 .text.flash_mem_available
                0x0000000000026600       0x20 ../../../mesh/lib_51_MBTLE_CORE.a(net_state.c.obj)
 .text.flash_store_iv_index
                0x0000000000026620       0x34 ../../../mesh/lib_51_MBTLE_CORE.a(net_state.c.obj)
 .text.seqnum_block_allocate
                0x0000000000026654       0x54 ../../../mesh/lib_51_MBTLE_CORE.a(net_state.c.obj)
 .text.flash_write_complete
                0x00000000000266a8       0x84 ../../../mesh/lib_51_MBTLE_CORE.a(net_state.c.obj)
 .text.net_state_recover_from_flash
                0x000000000002672c       0x98 ../../../mesh/lib_51_MBTLE_CORE.a(net_state.c.obj)
                0x000000000002672c                net_state_recover_from_flash
 .text.net_state_flash_area_get
                0x00000000000267c4       0x14 ../../../mesh/lib_51_MBTLE_CORE.a(net_state.c.obj)
                0x00000000000267c4                net_state_flash_area_get
 .text.init_flash_storage
                0x00000000000267d8       0x44 ../../../mesh/lib_51_MBTLE_CORE.a(net_state.c.obj)
 .text.net_state_init
                0x000000000002681c       0x48 ../../../mesh/lib_51_MBTLE_CORE.a(net_state.c.obj)
                0x000000000002681c                net_state_init
 .text.net_state_iv_update_start
                0x0000000000026864       0x70 ../../../mesh/lib_51_MBTLE_CORE.a(net_state.c.obj)
                0x0000000000026864                net_state_iv_update_start
 .text.iv_update_trigger_if_pending
                0x00000000000268d4       0x98 ../../../mesh/lib_51_MBTLE_CORE.a(net_state.c.obj)
 .text.iv_update_timer_handler
                0x000000000002696c       0x8c ../../../mesh/lib_51_MBTLE_CORE.a(net_state.c.obj)
 .text.net_state_seqnum_alloc
                0x00000000000269f8       0x74 ../../../mesh/lib_51_MBTLE_CORE.a(net_state.c.obj)
                0x00000000000269f8                net_state_seqnum_alloc
 .text.net_state_iv_index_lock
                0x0000000000026a6c       0x5c ../../../mesh/lib_51_MBTLE_CORE.a(net_state.c.obj)
                0x0000000000026a6c                net_state_iv_index_lock
 .text.net_state_beacon_received
                0x0000000000026ac8       0xc0 ../../../mesh/lib_51_MBTLE_CORE.a(net_state.c.obj)
                0x0000000000026ac8                net_state_beacon_received
 .text.net_state_beacon_iv_index_get
                0x0000000000026b88        0xc ../../../mesh/lib_51_MBTLE_CORE.a(net_state.c.obj)
                0x0000000000026b88                net_state_beacon_iv_index_get
 .text.net_state_tx_iv_index_get
                0x0000000000026b94       0x1c ../../../mesh/lib_51_MBTLE_CORE.a(net_state.c.obj)
                0x0000000000026b94                net_state_tx_iv_index_get
 .text.net_state_rx_iv_index_get
                0x0000000000026bb0       0x18 ../../../mesh/lib_51_MBTLE_CORE.a(net_state.c.obj)
                0x0000000000026bb0                net_state_rx_iv_index_get
 .text.net_state_iv_update_get
                0x0000000000026bc8        0xc ../../../mesh/lib_51_MBTLE_CORE.a(net_state.c.obj)
                0x0000000000026bc8                net_state_iv_update_get
 .text.sd_softdevice_is_enabled
                0x0000000000026bd4        0x4 ../../../mesh/lib_51_MBTLE_CORE.a(nrf_mesh.c.obj)
 .text.nrf_mesh_init
                0x0000000000026bd8       0xb0 ../../../mesh/lib_51_MBTLE_CORE.a(nrf_mesh.c.obj)
                0x0000000000026bd8                nrf_mesh_init
 .text.nrf_mesh_enable
                0x0000000000026c88       0x4c ../../../mesh/lib_51_MBTLE_CORE.a(nrf_mesh.c.obj)
                0x0000000000026c88                nrf_mesh_enable
 .text.nrf_mesh_packet_send
                0x0000000000026cd4       0x54 ../../../mesh/lib_51_MBTLE_CORE.a(nrf_mesh.c.obj)
                0x0000000000026cd4                nrf_mesh_packet_send
 .text.nrf_mesh_process
                0x0000000000026d28      0x23c ../../../mesh/lib_51_MBTLE_CORE.a(nrf_mesh.c.obj)
                0x0000000000026d28                nrf_mesh_process
 .text.nrf_mesh_on_ble_evt
                0x0000000000026f64        0x4 ../../../mesh/lib_51_MBTLE_CORE.a(nrf_mesh.c.obj)
                0x0000000000026f64                nrf_mesh_on_ble_evt
 .text.nrf_mesh_on_sd_evt
                0x0000000000026f68        0xa ../../../mesh/lib_51_MBTLE_CORE.a(nrf_mesh.c.obj)
                0x0000000000026f68                nrf_mesh_on_sd_evt
 .text.nrf_mesh_evt_handler_add
                0x0000000000026f72        0x8 ../../../mesh/lib_51_MBTLE_CORE.a(nrf_mesh.c.obj)
                0x0000000000026f72                nrf_mesh_evt_handler_add
 .text.nrf_mesh_evt_handler_remove
                0x0000000000026f7a        0x8 ../../../mesh/lib_51_MBTLE_CORE.a(nrf_mesh.c.obj)
                0x0000000000026f7a                nrf_mesh_evt_handler_remove
 .text.nrf_mesh_keygen_aid
                0x0000000000026f82       0x1a ../../../mesh/lib_51_MBTLE_CORE.a(nrf_mesh_keygen.c.obj)
                0x0000000000026f82                nrf_mesh_keygen_aid
 .text.nrf_mesh_keygen_network_secmat
                0x0000000000026f9c       0x2a ../../../mesh/lib_51_MBTLE_CORE.a(nrf_mesh_keygen.c.obj)
                0x0000000000026f9c                nrf_mesh_keygen_network_secmat
 *fill*         0x0000000000026fc6        0x2 
 .text.nrf_mesh_keygen_beacon_secmat
                0x0000000000026fc8       0x58 ../../../mesh/lib_51_MBTLE_CORE.a(nrf_mesh_keygen.c.obj)
                0x0000000000026fc8                nrf_mesh_keygen_beacon_secmat
 .text.nrf_mesh_keygen_virtual_address
                0x0000000000027020       0x54 ../../../mesh/lib_51_MBTLE_CORE.a(nrf_mesh_keygen.c.obj)
                0x0000000000027020                nrf_mesh_keygen_virtual_address
 .text.nrf_mesh_address_type_get
                0x0000000000027074       0x14 ../../../mesh/lib_51_MBTLE_CORE.a(nrf_mesh_utils.c.obj)
                0x0000000000027074                nrf_mesh_address_type_get
 .text.nrf_mesh_gap_address_type_get
                0x0000000000027088       0x48 ../../../mesh/lib_51_MBTLE_CORE.a(nrf_mesh_utils.c.obj)
                0x0000000000027088                nrf_mesh_gap_address_type_get
 .text.nrf_mesh_opt_set
                0x00000000000270d0       0x4e ../../../mesh/lib_51_MBTLE_CORE.a(nrf_mesh_opt.c.obj)
                0x00000000000270d0                nrf_mesh_opt_set
 .text.nrf_mesh_opt_get
                0x000000000002711e       0x4e ../../../mesh/lib_51_MBTLE_CORE.a(nrf_mesh_opt.c.obj)
                0x000000000002711e                nrf_mesh_opt_get
 .text.radio_config_reset
                0x000000000002716c       0x48 ../../../mesh/lib_51_MBTLE_CORE.a(radio_config.c.obj)
                0x000000000002716c                radio_config_reset
 .text.radio_config_channel_set
                0x00000000000271b4       0x40 ../../../mesh/lib_51_MBTLE_CORE.a(radio_config.c.obj)
                0x00000000000271b4                radio_config_channel_set
 .text.radio_config_config
                0x00000000000271f4       0xd8 ../../../mesh/lib_51_MBTLE_CORE.a(radio_config.c.obj)
                0x00000000000271f4                radio_config_config
 .text.sd_rand_application_bytes_available_get
                0x00000000000272cc        0x4 ../../../mesh/lib_51_MBTLE_CORE.a(rand.c.obj)
 .text.sd_rand_application_vector_get
                0x00000000000272d0        0x4 ../../../mesh/lib_51_MBTLE_CORE.a(rand.c.obj)
 .text.rand_prng_get
                0x00000000000272d4       0x2e ../../../mesh/lib_51_MBTLE_CORE.a(rand.c.obj)
                0x00000000000272d4                rand_prng_get
 *fill*         0x0000000000027302        0x2 
 .text.rand_hw_rng_get
                0x0000000000027304       0x64 ../../../mesh/lib_51_MBTLE_CORE.a(rand.c.obj)
                0x0000000000027304                rand_hw_rng_get
 .text.rand_prng_seed
                0x0000000000027368       0x34 ../../../mesh/lib_51_MBTLE_CORE.a(rand.c.obj)
                0x0000000000027368                rand_prng_seed
 .text.timer_cb
                0x000000000002739c       0x10 ../../../mesh/lib_51_MBTLE_CORE.a(ticker.c.obj)
 .text.ticker_init
                0x00000000000273ac       0x38 ../../../mesh/lib_51_MBTLE_CORE.a(ticker.c.obj)
                0x00000000000273ac                ticker_init
 .text.packet_mesh_trs_seq_auth_get
                0x00000000000273e4       0x40 ../../../mesh/lib_51_MBTLE_CORE.a(transport.c.obj)
 .text.trs_sar_ack_timeout_cb
                0x0000000000027424       0x18 ../../../mesh/lib_51_MBTLE_CORE.a(transport.c.obj)
 .text.trs_sar_tx_timeout_cb
                0x000000000002743c        0xc ../../../mesh/lib_51_MBTLE_CORE.a(transport.c.obj)
 .text.trs_sar_session_next_timeout_get
                0x0000000000027448       0x6c ../../../mesh/lib_51_MBTLE_CORE.a(transport.c.obj)
 .text.m_send_sar_cancel_event
                0x00000000000274b4       0x26 ../../../mesh/lib_51_MBTLE_CORE.a(transport.c.obj)
 .text.m_send_replay_cache_full_event
                0x00000000000274da       0x2e ../../../mesh/lib_51_MBTLE_CORE.a(transport.c.obj)
 .text.test_transport_decrypt
                0x0000000000027508       0xa8 ../../../mesh/lib_51_MBTLE_CORE.a(transport.c.obj)
 .text.trs_sar_drop_session
                0x00000000000275b0      0x12c ../../../mesh/lib_51_MBTLE_CORE.a(transport.c.obj)
 .text.trs_sar_session_cb
                0x00000000000276dc       0xa8 ../../../mesh/lib_51_MBTLE_CORE.a(transport.c.obj)
 .text.trs_sar_pkt_ack
                0x0000000000027784      0x154 ../../../mesh/lib_51_MBTLE_CORE.a(transport.c.obj)
 .text.sar_segment_send
                0x00000000000278d8      0x19c ../../../mesh/lib_51_MBTLE_CORE.a(transport.c.obj)
 .text.trs_sar_session_timer_order
                0x0000000000027a74       0x34 ../../../mesh/lib_51_MBTLE_CORE.a(transport.c.obj)
 .text.trs_sar_pkt_decrypt
                0x0000000000027aa8      0x4c4 ../../../mesh/lib_51_MBTLE_CORE.a(transport.c.obj)
                0x0000000000027aa8                trs_sar_pkt_decrypt
 .text.transport_sar_mem_funcs_reset
                0x0000000000027f6c       0x2c ../../../mesh/lib_51_MBTLE_CORE.a(transport.c.obj)
                0x0000000000027f6c                transport_sar_mem_funcs_reset
 .text.transport_init
                0x0000000000027f98       0xb8 ../../../mesh/lib_51_MBTLE_CORE.a(transport.c.obj)
                0x0000000000027f98                transport_init
 .text.transport_sar_mem_funcs_set
                0x0000000000028050       0x44 ../../../mesh/lib_51_MBTLE_CORE.a(transport.c.obj)
                0x0000000000028050                transport_sar_mem_funcs_set
 .text.transport_pkt_in
                0x0000000000028094     0x1168 ../../../mesh/lib_51_MBTLE_CORE.a(transport.c.obj)
                0x0000000000028094                transport_pkt_in
 .text.transport_sar_process
                0x00000000000291fc      0x510 ../../../mesh/lib_51_MBTLE_CORE.a(transport.c.obj)
                0x00000000000291fc                transport_sar_process
 .text.transport_tx
                0x000000000002970c      0x234 ../../../mesh/lib_51_MBTLE_CORE.a(transport.c.obj)
                0x000000000002970c                transport_tx
 .text.transport_opt_set
                0x0000000000029940       0xdc ../../../mesh/lib_51_MBTLE_CORE.a(transport.c.obj)
                0x0000000000029940                transport_opt_set
 .text.transport_opt_get
                0x0000000000029a1c       0x80 ../../../mesh/lib_51_MBTLE_CORE.a(transport.c.obj)
                0x0000000000029a1c                transport_opt_get
 .text.transport_seg_maxlen_get
                0x0000000000029a9c       0x14 ../../../mesh/lib_51_MBTLE_CORE.a(transport.c.obj)
                0x0000000000029a9c                transport_seg_maxlen_get
 .text.transport_tx_sar
                0x0000000000029ab0      0x558 ../../../mesh/lib_51_MBTLE_CORE.a(transport.c.obj)
                0x0000000000029ab0                transport_tx_sar
 .text.transport_unseg_maxlen_get
                0x000000000002a008        0x4 ../../../mesh/lib_51_MBTLE_CORE.a(transport.c.obj)
                0x000000000002a008                transport_unseg_maxlen_get
 .text.internal_event_push
                0x000000000002a00c       0x34 ../../../mesh/lib_51_MBTLE_CORE.a(internal_event.c.obj)
                0x000000000002a00c                internal_event_push
 .text.flash_area_is_blank
                0x000000000002a040       0x60 ../../../mesh/lib_51_MBTLE_CORE.a(flash_manager.c.obj)
 .text.free_packet_buffer
                0x000000000002a0a0       0x58 ../../../mesh/lib_51_MBTLE_CORE.a(flash_manager.c.obj)
 .text.reserve_action_buffer
                0x000000000002a0f8       0x28 ../../../mesh/lib_51_MBTLE_CORE.a(flash_manager.c.obj)
 .text.get_last_entry
                0x000000000002a120       0x7c ../../../mesh/lib_51_MBTLE_CORE.a(flash_manager.c.obj)
 .text.process_action_queue
                0x000000000002a19c      0x740 ../../../mesh/lib_51_MBTLE_CORE.a(flash_manager.c.obj)
 .text.flash_op_ended_callback
                0x000000000002a8dc       0x28 ../../../mesh/lib_51_MBTLE_CORE.a(flash_manager.c.obj)
 .text.flash_manager_init
                0x000000000002a904       0x6c ../../../mesh/lib_51_MBTLE_CORE.a(flash_manager.c.obj)
                0x000000000002a904                flash_manager_init
 .text.flash_manager_remove
                0x000000000002a970       0x60 ../../../mesh/lib_51_MBTLE_CORE.a(flash_manager.c.obj)
                0x000000000002a970                flash_manager_remove
 .text.flash_manager_entry_get
                0x000000000002a9d0       0x54 ../../../mesh/lib_51_MBTLE_CORE.a(flash_manager.c.obj)
                0x000000000002a9d0                flash_manager_entry_get
 .text.flash_manager_entry_next_get
                0x000000000002aa24      0x140 ../../../mesh/lib_51_MBTLE_CORE.a(flash_manager.c.obj)
                0x000000000002aa24                flash_manager_entry_next_get
 .text.flash_manager_entry_alloc
                0x000000000002ab64       0x8c ../../../mesh/lib_51_MBTLE_CORE.a(flash_manager.c.obj)
                0x000000000002ab64                flash_manager_entry_alloc
 .text.flash_manager_entry_commit
                0x000000000002abf0       0x6c ../../../mesh/lib_51_MBTLE_CORE.a(flash_manager.c.obj)
                0x000000000002abf0                flash_manager_entry_commit
 .text.flash_manager_entry_invalidate
                0x000000000002ac5c       0xa4 ../../../mesh/lib_51_MBTLE_CORE.a(flash_manager.c.obj)
                0x000000000002ac5c                flash_manager_entry_invalidate
 .text.flash_manager_add
                0x000000000002ad00      0x3b8 ../../../mesh/lib_51_MBTLE_CORE.a(flash_manager.c.obj)
                0x000000000002ad00                flash_manager_add
 .text.flash_manager_mem_listener_register
                0x000000000002b0b8       0x4c ../../../mesh/lib_51_MBTLE_CORE.a(flash_manager.c.obj)
                0x000000000002b0b8                flash_manager_mem_listener_register
 .text.flash_manager_is_stable
                0x000000000002b104       0x24 ../../../mesh/lib_51_MBTLE_CORE.a(flash_manager.c.obj)
                0x000000000002b104                flash_manager_is_stable
 .text.flash_manager_on_defrag_end
                0x000000000002b128       0x68 ../../../mesh/lib_51_MBTLE_CORE.a(flash_manager.c.obj)
                0x000000000002b128                flash_manager_on_defrag_end
 .text.flash_manager_recovery_page_get
                0x000000000002b190        0x8 ../../../mesh/lib_51_MBTLE_CORE.a(flash_manager.c.obj)
                0x000000000002b190                flash_manager_recovery_page_get
 .text.defrag_on_end
                0x000000000002b198       0x1c ../../../mesh/lib_51_MBTLE_CORE.a(flash_manager_defrag.c.obj)
 .text.execute_procedure_step
                0x000000000002b1b4       0xc0 ../../../mesh/lib_51_MBTLE_CORE.a(flash_manager_defrag.c.obj)
 .text.on_flash_op_end
                0x000000000002b274       0x40 ../../../mesh/lib_51_MBTLE_CORE.a(flash_manager_defrag.c.obj)
 .text.erase_source
                0x000000000002b2b4       0x30 ../../../mesh/lib_51_MBTLE_CORE.a(flash_manager_defrag.c.obj)
 .text.erase_recovery_area
                0x000000000002b2e4       0x30 ../../../mesh/lib_51_MBTLE_CORE.a(flash_manager_defrag.c.obj)
 .text.post_process
                0x000000000002b314       0x6c ../../../mesh/lib_51_MBTLE_CORE.a(flash_manager_defrag.c.obj)
 .text.write_back
                0x000000000002b380       0x48 ../../../mesh/lib_51_MBTLE_CORE.a(flash_manager_defrag.c.obj)
 .text.write_defrag_start_pointer
                0x000000000002b3c8       0x38 ../../../mesh/lib_51_MBTLE_CORE.a(flash_manager_defrag.c.obj)
 .text.copy_metadata
                0x000000000002b400       0x5c ../../../mesh/lib_51_MBTLE_CORE.a(flash_manager_defrag.c.obj)
 .text.seal_storage_page
                0x000000000002b45c       0x7c ../../../mesh/lib_51_MBTLE_CORE.a(flash_manager_defrag.c.obj)
 .text.check_for_invalid_entries
                0x000000000002b4d8       0x50 ../../../mesh/lib_51_MBTLE_CORE.a(flash_manager_defrag.c.obj)
 .text.invalidate_duplicate_entries
                0x000000000002b528      0x174 ../../../mesh/lib_51_MBTLE_CORE.a(flash_manager_defrag.c.obj)
 .text.backup_entries
                0x000000000002b69c      0x214 ../../../mesh/lib_51_MBTLE_CORE.a(flash_manager_defrag.c.obj)
 .text.flash_manager_defrag_init
                0x000000000002b8b0       0xa8 ../../../mesh/lib_51_MBTLE_CORE.a(flash_manager_defrag.c.obj)
                0x000000000002b8b0                flash_manager_defrag_init
 .text.flash_manager_defrag_is_running
                0x000000000002b958       0x10 ../../../mesh/lib_51_MBTLE_CORE.a(flash_manager_defrag.c.obj)
                0x000000000002b958                flash_manager_defrag_is_running
 .text.flash_manager_defrag
                0x000000000002b968       0xec ../../../mesh/lib_51_MBTLE_CORE.a(flash_manager_defrag.c.obj)
                0x000000000002b968                flash_manager_defrag
 .text.flash_manager_defrag_recovery_page_get
                0x000000000002ba54        0xc ../../../mesh/lib_51_MBTLE_CORE.a(flash_manager_defrag.c.obj)
                0x000000000002ba54                flash_manager_defrag_recovery_page_get
 .text.entry_get
                0x000000000002ba60       0x9c ../../../mesh/lib_51_MBTLE_CORE.a(flash_manager_internal.c.obj)
                0x000000000002ba60                entry_get
 .text.sd_ecb_block_encrypt
                0x000000000002bafc        0x4 ../../../mesh/lib_51_MBTLE_CORE.a(aes.c.obj)
 .text.aes_encrypt
                0x000000000002bb00       0x78 ../../../mesh/lib_51_MBTLE_CORE.a(aes.c.obj)
                0x000000000002bb00                aes_encrypt
 .text.queue_init
                0x000000000002bb78       0x24 ../../../mesh/lib_51_MBTLE_CORE.a(queue.c.obj)
                0x000000000002bb78                queue_init
 .text.queue_push
                0x000000000002bb9c       0x58 ../../../mesh/lib_51_MBTLE_CORE.a(queue.c.obj)
                0x000000000002bb9c                queue_push
 .text.queue_pop
                0x000000000002bbf4       0x40 ../../../mesh/lib_51_MBTLE_CORE.a(queue.c.obj)
                0x000000000002bbf4                queue_pop
 .text.sd_radio_session_open
                0x000000000002bc34        0x4 ../../../mesh/lib_51_MBTLE_CORE.a(timeslot.c.obj)
 .text.sd_radio_request
                0x000000000002bc38        0x4 ../../../mesh/lib_51_MBTLE_CORE.a(timeslot.c.obj)
 .text.ts_order_earliest
                0x000000000002bc3c       0x38 ../../../mesh/lib_51_MBTLE_CORE.a(timeslot.c.obj)
 .text.ts_extend
                0x000000000002bc74       0x30 ../../../mesh/lib_51_MBTLE_CORE.a(timeslot.c.obj)
 .text.end_timer_handler
                0x000000000002bca4        0xc ../../../mesh/lib_51_MBTLE_CORE.a(timeslot.c.obj)
 .text.start_time_update
                0x000000000002bcb0       0x84 ../../../mesh/lib_51_MBTLE_CORE.a(timeslot.c.obj)
                0x000000000002bcb0                start_time_update
 .text.timeslot_sd_event_handler
                0x000000000002bd34       0x58 ../../../mesh/lib_51_MBTLE_CORE.a(timeslot.c.obj)
                0x000000000002bd34                timeslot_sd_event_handler
 .text.timeslot_init
                0x000000000002bd8c       0x94 ../../../mesh/lib_51_MBTLE_CORE.a(timeslot.c.obj)
                0x000000000002bd8c                timeslot_init
 .text.timeslot_resume
                0x000000000002be20       0x4c ../../../mesh/lib_51_MBTLE_CORE.a(timeslot.c.obj)
                0x000000000002be20                timeslot_resume
 .text.timeslot_end_time_get
                0x000000000002be6c       0x24 ../../../mesh/lib_51_MBTLE_CORE.a(timeslot.c.obj)
                0x000000000002be6c                timeslot_end_time_get
 .text.timeslot_end
                0x000000000002be90       0x80 ../../../mesh/lib_51_MBTLE_CORE.a(timeslot.c.obj)
 .text.timeslot_remaining_time_get
                0x000000000002bf10       0x34 ../../../mesh/lib_51_MBTLE_CORE.a(timeslot.c.obj)
                0x000000000002bf10                timeslot_remaining_time_get
 .text.radio_signal_callback
                0x000000000002bf44      0x1f0 ../../../mesh/lib_51_MBTLE_CORE.a(timeslot.c.obj)
 .text.aes_cmac_subkey_generate
                0x000000000002c134       0xac ../../../mesh/lib_51_MBTLE_CORE.a(aes_cmac.c.obj)
                0x000000000002c134                aes_cmac_subkey_generate
 .text.aes_cmac
                0x000000000002c1e0       0xf4 ../../../mesh/lib_51_MBTLE_CORE.a(aes_cmac.c.obj)
                0x000000000002c1e0                aes_cmac
 .text.ccm_soft_crypt
                0x000000000002c2d4       0xa2 ../../../mesh/lib_51_MBTLE_CORE.a(ccm_soft.c.obj)
 .text.ccm_soft_authenticate_blocks
                0x000000000002c376       0x86 ../../../mesh/lib_51_MBTLE_CORE.a(ccm_soft.c.obj)
 .text.ccm_soft_authenticate
                0x000000000002c3fc       0x8c ../../../mesh/lib_51_MBTLE_CORE.a(ccm_soft.c.obj)
 .text.ccm_soft_encrypt
                0x000000000002c488       0x8a ../../../mesh/lib_51_MBTLE_CORE.a(ccm_soft.c.obj)
                0x000000000002c488                ccm_soft_encrypt
 .text.ccm_soft_decrypt
                0x000000000002c512      0x166 ../../../mesh/lib_51_MBTLE_CORE.a(ccm_soft.c.obj)
                0x000000000002c512                ccm_soft_decrypt
 .text.msg_cache_init
                0x000000000002c678       0x38 ../../../mesh/lib_51_MBTLE_CORE.a(msg_cache.c.obj)
                0x000000000002c678                msg_cache_init
 .text.msg_cache_entry_exists
                0x000000000002c6b0       0xa8 ../../../mesh/lib_51_MBTLE_CORE.a(msg_cache.c.obj)
                0x000000000002c6b0                msg_cache_entry_exists
 .text.msg_cache_entry_add
                0x000000000002c758       0x40 ../../../mesh/lib_51_MBTLE_CORE.a(msg_cache.c.obj)
                0x000000000002c758                msg_cache_entry_add
 .text.header_transfuscate
                0x000000000002c798       0x58 ../../../mesh/lib_51_MBTLE_CORE.a(network.c.obj)
 .text.network_pkt_encrypt
                0x000000000002c7f0       0x7a ../../../mesh/lib_51_MBTLE_CORE.a(network.c.obj)
 *fill*         0x000000000002c86a        0x2 
 .text.network_pkt_relay
                0x000000000002c86c      0x1e0 ../../../mesh/lib_51_MBTLE_CORE.a(network.c.obj)
                0x000000000002c86c                network_pkt_relay
 .text.network_init
                0x000000000002ca4c       0x3c ../../../mesh/lib_51_MBTLE_CORE.a(network.c.obj)
                0x000000000002ca4c                network_init
 .text.network_opt_set
                0x000000000002ca88       0x4c ../../../mesh/lib_51_MBTLE_CORE.a(network.c.obj)
                0x000000000002ca88                network_opt_set
 .text.network_opt_get
                0x000000000002cad4       0x48 ../../../mesh/lib_51_MBTLE_CORE.a(network.c.obj)
                0x000000000002cad4                network_opt_get
 .text.network_pkt_out
                0x000000000002cb1c      0x170 ../../../mesh/lib_51_MBTLE_CORE.a(network.c.obj)
                0x000000000002cb1c                network_pkt_out
 .text.network_pkt_in
                0x000000000002cc8c      0x3d4 ../../../mesh/lib_51_MBTLE_CORE.a(network.c.obj)
                0x000000000002cc8c                network_pkt_in
 .text.packet_type_packet_get
                0x000000000002d060       0x60 ../../../mesh/lib_51_MBTLE_CORE.a(packet.c.obj)
                0x000000000002d060                packet_type_packet_get
 .text.m_index_increment
                0x000000000002d0c0       0x2c ../../../mesh/lib_51_MBTLE_CORE.a(packet_buffer.c.obj)
 .text.m_free_popped_packet
                0x000000000002d0ec       0x58 ../../../mesh/lib_51_MBTLE_CORE.a(packet_buffer.c.obj)
 .text.m_adjust_desired_packet_length
                0x000000000002d144       0x34 ../../../mesh/lib_51_MBTLE_CORE.a(packet_buffer.c.obj)
 .text.packet_buffer_init
                0x000000000002d178       0xe0 ../../../mesh/lib_51_MBTLE_CORE.a(packet_buffer.c.obj)
                0x000000000002d178                packet_buffer_init
 .text.packet_buffer_reserve
                0x000000000002d258      0x110 ../../../mesh/lib_51_MBTLE_CORE.a(packet_buffer.c.obj)
                0x000000000002d258                packet_buffer_reserve
 .text.packet_buffer_commit
                0x000000000002d368      0x128 ../../../mesh/lib_51_MBTLE_CORE.a(packet_buffer.c.obj)
                0x000000000002d368                packet_buffer_commit
 .text.packet_buffer_pop
                0x000000000002d490       0x84 ../../../mesh/lib_51_MBTLE_CORE.a(packet_buffer.c.obj)
                0x000000000002d490                packet_buffer_pop
 .text.packet_buffer_can_pop
                0x000000000002d514       0x48 ../../../mesh/lib_51_MBTLE_CORE.a(packet_buffer.c.obj)
                0x000000000002d514                packet_buffer_can_pop
 .text.packet_buffer_free
                0x000000000002d55c       0x9c ../../../mesh/lib_51_MBTLE_CORE.a(packet_buffer.c.obj)
                0x000000000002d55c                packet_buffer_free
 .text.replay_cache_add
                0x000000000002d5f8       0x98 ../../../mesh/lib_51_MBTLE_CORE.a(replay_cache.c.obj)
                0x000000000002d5f8                replay_cache_add
 .text.replay_cache_has_room
                0x000000000002d690       0x44 ../../../mesh/lib_51_MBTLE_CORE.a(replay_cache.c.obj)
                0x000000000002d690                replay_cache_has_room
 .text.replay_cache_has_elem
                0x000000000002d6d4       0x48 ../../../mesh/lib_51_MBTLE_CORE.a(replay_cache.c.obj)
                0x000000000002d6d4                replay_cache_has_elem
 .text.replay_cache_clear
                0x000000000002d71c       0x28 ../../../mesh/lib_51_MBTLE_CORE.a(replay_cache.c.obj)
                0x000000000002d71c                replay_cache_clear
 .text.replay_cache_init
                0x000000000002d744        0x8 ../../../mesh/lib_51_MBTLE_CORE.a(replay_cache.c.obj)
                0x000000000002d744                replay_cache_init
 .text.send_end_events
                0x000000000002d74c       0x88 ../../../mesh/lib_51_MBTLE_CORE.a(mesh_flash.c.obj)
 .text.mesh_flash_init
                0x000000000002d7d4       0x90 ../../../mesh/lib_51_MBTLE_CORE.a(mesh_flash.c.obj)
                0x000000000002d7d4                mesh_flash_init
 .text.mesh_flash_user_callback_set
                0x000000000002d864       0x30 ../../../mesh/lib_51_MBTLE_CORE.a(mesh_flash.c.obj)
                0x000000000002d864                mesh_flash_user_callback_set
 .text.mesh_flash_op_push
                0x000000000002d894      0x168 ../../../mesh/lib_51_MBTLE_CORE.a(mesh_flash.c.obj)
                0x000000000002d894                mesh_flash_op_push
 .text.mesh_flash_op_execute
                0x000000000002d9fc      0x1d0 ../../../mesh/lib_51_MBTLE_CORE.a(mesh_flash.c.obj)
                0x000000000002d9fc                mesh_flash_op_execute
 .text.nrf_flash_erase
                0x000000000002dbcc       0x78 ../../../mesh/lib_51_MBTLE_CORE.a(nrf_flash.c.obj)
                0x000000000002dbcc                nrf_flash_erase
 .text.nrf_flash_write
                0x000000000002dc44       0x78 ../../../mesh/lib_51_MBTLE_CORE.a(nrf_flash.c.obj)
                0x000000000002dc44                nrf_flash_write
 .text.msq_get  0x000000000002dcbc       0x7c ../../../mesh/lib_51_MBTLE_CORE.a(msqueue.c.obj)
                0x000000000002dcbc                msq_get
 .text.msq_move
                0x000000000002dd38       0x70 ../../../mesh/lib_51_MBTLE_CORE.a(msqueue.c.obj)
                0x000000000002dd38                msq_move
 .text.msq_reset
                0x000000000002dda8       0x34 ../../../mesh/lib_51_MBTLE_CORE.a(msqueue.c.obj)
                0x000000000002dda8                msq_reset
 .text.msq_init
                0x000000000002dddc       0x8c ../../../mesh/lib_51_MBTLE_CORE.a(msqueue.c.obj)
                0x000000000002dddc                msq_init
 .text.msq_available
                0x000000000002de68       0x60 ../../../mesh/lib_51_MBTLE_CORE.a(msqueue.c.obj)
                0x000000000002de68                msq_available
 .text.uECC_vli_add
                0x000000000002dec8       0x4a ../../../lib/micro-ecc/lib_51_UECC_LIB.a(uECC.c.obj)
 .text.uECC_vli_sub
                0x000000000002df12       0x4c ../../../lib/micro-ecc/lib_51_UECC_LIB.a(uECC.c.obj)
 .text.uECC_vli_mult
                0x000000000002df5e       0x90 ../../../lib/micro-ecc/lib_51_UECC_LIB.a(uECC.c.obj)
 .text.uECC_vli_clear
                0x000000000002dfee       0x1a ../../../lib/micro-ecc/lib_51_UECC_LIB.a(uECC.c.obj)
 .text.uECC_vli_isZero
                0x000000000002e008       0x24 ../../../lib/micro-ecc/lib_51_UECC_LIB.a(uECC.c.obj)
 .text.uECC_vli_testBit
                0x000000000002e02c       0x12 ../../../lib/micro-ecc/lib_51_UECC_LIB.a(uECC.c.obj)
 *fill*         0x000000000002e03e        0x2 
 .text.uECC_vli_numBits
                0x000000000002e040       0x54 ../../../lib/micro-ecc/lib_51_UECC_LIB.a(uECC.c.obj)
 .text.uECC_vli_set
                0x000000000002e094       0x1c ../../../lib/micro-ecc/lib_51_UECC_LIB.a(uECC.c.obj)
 .text.uECC_vli_cmp_unsafe
                0x000000000002e0b0       0x46 ../../../lib/micro-ecc/lib_51_UECC_LIB.a(uECC.c.obj)
 .text.uECC_vli_cmp
                0x000000000002e0f6       0x2c ../../../lib/micro-ecc/lib_51_UECC_LIB.a(uECC.c.obj)
 .text.uECC_vli_rshift1
                0x000000000002e122       0x2c ../../../lib/micro-ecc/lib_51_UECC_LIB.a(uECC.c.obj)
 .text.uECC_vli_modAdd
                0x000000000002e14e       0x32 ../../../lib/micro-ecc/lib_51_UECC_LIB.a(uECC.c.obj)
 .text.uECC_vli_modSub
                0x000000000002e180       0x26 ../../../lib/micro-ecc/lib_51_UECC_LIB.a(uECC.c.obj)
 .text.uECC_vli_modMult_fast
                0x000000000002e1a6       0x20 ../../../lib/micro-ecc/lib_51_UECC_LIB.a(uECC.c.obj)
 .text.uECC_vli_modSquare_fast
                0x000000000002e1c6        0xc ../../../lib/micro-ecc/lib_51_UECC_LIB.a(uECC.c.obj)
 *fill*         0x000000000002e1d2        0x2 
 .text.vli_modInv_update
                0x000000000002e1d4       0x48 ../../../lib/micro-ecc/lib_51_UECC_LIB.a(uECC.c.obj)
 .text.uECC_vli_modInv
                0x000000000002e21c      0x134 ../../../lib/micro-ecc/lib_51_UECC_LIB.a(uECC.c.obj)
 .text.double_jacobian_default
                0x000000000002e350      0x168 ../../../lib/micro-ecc/lib_51_UECC_LIB.a(uECC.c.obj)
 .text.x_side_default
                0x000000000002e4b8       0x58 ../../../lib/micro-ecc/lib_51_UECC_LIB.a(uECC.c.obj)
 .text.vli_mmod_fast_secp256r1
                0x000000000002e510      0x1bc ../../../lib/micro-ecc/lib_51_UECC_LIB.a(uECC.c.obj)
 .text.apply_z  0x000000000002e6cc       0x3e ../../../lib/micro-ecc/lib_51_UECC_LIB.a(uECC.c.obj)
 .text.XYcZ_add
                0x000000000002e70a       0xcc ../../../lib/micro-ecc/lib_51_UECC_LIB.a(uECC.c.obj)
 .text.XYcZ_addC
                0x000000000002e7d6      0x11c ../../../lib/micro-ecc/lib_51_UECC_LIB.a(uECC.c.obj)
 .text.EccPoint_mult
                0x000000000002e8f2      0x1cc ../../../lib/micro-ecc/lib_51_UECC_LIB.a(uECC.c.obj)
 .text.regularize_k
                0x000000000002eabe       0x60 ../../../lib/micro-ecc/lib_51_UECC_LIB.a(uECC.c.obj)
 .text.EccPoint_compute_public_key
                0x000000000002eb1e       0x4c ../../../lib/micro-ecc/lib_51_UECC_LIB.a(uECC.c.obj)
 .text.uECC_vli_nativeToBytes
                0x000000000002eb6a       0x2a ../../../lib/micro-ecc/lib_51_UECC_LIB.a(uECC.c.obj)
 .text.uECC_vli_bytesToNative
                0x000000000002eb94       0x56 ../../../lib/micro-ecc/lib_51_UECC_LIB.a(uECC.c.obj)
 *fill*         0x000000000002ebea        0x2 
 .text.uECC_generate_random_int
                0x000000000002ebec       0x84 ../../../lib/micro-ecc/lib_51_UECC_LIB.a(uECC.c.obj)
 .text.default_RNG
                0x000000000002ec70        0xc ../../../lib/micro-ecc/lib_51_UECC_LIB.a(uECC.c.obj)
 .text.uECC_secp256r1
                0x000000000002ec7c        0x8 ../../../lib/micro-ecc/lib_51_UECC_LIB.a(uECC.c.obj)
                0x000000000002ec7c                uECC_secp256r1
 .text.uECC_make_key
                0x000000000002ec84       0x88 ../../../lib/micro-ecc/lib_51_UECC_LIB.a(uECC.c.obj)
                0x000000000002ec84                uECC_make_key
 .text.uECC_shared_secret
                0x000000000002ed0c       0xc8 ../../../lib/micro-ecc/lib_51_UECC_LIB.a(uECC.c.obj)
                0x000000000002ed0c                uECC_shared_secret
 .text.uECC_valid_point
                0x000000000002edd4       0x92 ../../../lib/micro-ecc/lib_51_UECC_LIB.a(uECC.c.obj)
                0x000000000002edd4                uECC_valid_point
 .text.uECC_valid_public_key
                0x000000000002ee66       0x32 ../../../lib/micro-ecc/lib_51_UECC_LIB.a(uECC.c.obj)
                0x000000000002ee66                uECC_valid_public_key
 .text._GetAvailWriteSpace
                0x000000000002ee98       0x18 ../../../lib/rtt/lib_51_RTT_LIB.a(SEGGER_RTT.c.obj)
 .text._WriteNoCheck
                0x000000000002eeb0       0x3a ../../../lib/rtt/lib_51_RTT_LIB.a(SEGGER_RTT.c.obj)
 .text._WriteBlocking
                0x000000000002eeea       0x6c ../../../lib/rtt/lib_51_RTT_LIB.a(SEGGER_RTT.c.obj)
 *fill*         0x000000000002ef56        0x2 
 .text._DoInit  0x000000000002ef58       0x60 ../../../lib/rtt/lib_51_RTT_LIB.a(SEGGER_RTT.c.obj)
 .text.SEGGER_RTT_WriteNoLock
                0x000000000002efb8       0x70 ../../../lib/rtt/lib_51_RTT_LIB.a(SEGGER_RTT.c.obj)
                0x000000000002efb8                SEGGER_RTT_WriteNoLock
 .text.SEGGER_RTT_Write
                0x000000000002f028       0x34 ../../../lib/rtt/lib_51_RTT_LIB.a(SEGGER_RTT.c.obj)
                0x000000000002f028                SEGGER_RTT_Write
 .text._StoreChar
                0x000000000002f05c       0x40 ../../../lib/rtt/lib_51_RTT_LIB.a(SEGGER_RTT_printf.c.obj)
 .text._PrintUnsigned
                0x000000000002f09c      0x114 ../../../lib/rtt/lib_51_RTT_LIB.a(SEGGER_RTT_printf.c.obj)
 .text.SEGGER_RTT_vprintf
                0x000000000002f1b0      0x2ee ../../../lib/rtt/lib_51_RTT_LIB.a(SEGGER_RTT_printf.c.obj)
                0x000000000002f1b0                SEGGER_RTT_vprintf
 .text.SEGGER_RTT_printf
                0x000000000002f49e       0x1a ../../../lib/rtt/lib_51_RTT_LIB.a(SEGGER_RTT_printf.c.obj)
                0x000000000002f49e                SEGGER_RTT_printf
 .text          0x000000000002f4b8      0x114 /usr/bin/../lib/gcc/arm-none-eabi/6.3.1/thumb/v6-m/libgcc.a(_udivsi3.o)
                0x000000000002f4b8                __udivsi3
                0x000000000002f4b8                __aeabi_uidiv
                0x000000000002f5c4                __aeabi_uidivmod
 .text          0x000000000002f5cc      0x1d4 /usr/bin/../lib/gcc/arm-none-eabi/6.3.1/thumb/v6-m/libgcc.a(_divsi3.o)
                0x000000000002f5cc                __aeabi_idiv
                0x000000000002f5cc                __divsi3
                0x000000000002f798                __aeabi_idivmod
 .text          0x000000000002f7a0        0x4 /usr/bin/../lib/gcc/arm-none-eabi/6.3.1/thumb/v6-m/libgcc.a(_dvmd_tls.o)
                0x000000000002f7a0                __aeabi_ldiv0
                0x000000000002f7a0                __aeabi_idiv0
 .text          0x000000000002f7a4       0x54 /usr/bin/../lib/gcc/arm-none-eabi/6.3.1/thumb/v6-m/libgcc.a(_muldi3.o)
                0x000000000002f7a4                __aeabi_lmul
                0x000000000002f7a4                __muldi3
 .text.exit     0x000000000002f7f8       0x2c /usr/bin/../lib/gcc/arm-none-eabi/6.3.1/../../../../arm-none-eabi/lib/thumb/v6-m/libg_nano.a(lib_a-exit.o)
                0x000000000002f7f8                exit
 .text.__libc_init_array
                0x000000000002f824       0x48 /usr/bin/../lib/gcc/arm-none-eabi/6.3.1/../../../../arm-none-eabi/lib/thumb/v6-m/libg_nano.a(lib_a-init.o)
                0x000000000002f824                __libc_init_array
 .text.malloc   0x000000000002f86c       0x14 /usr/bin/../lib/gcc/arm-none-eabi/6.3.1/../../../../arm-none-eabi/lib/thumb/v6-m/libg_nano.a(lib_a-malloc.o)
                0x000000000002f86c                malloc
 .text.free     0x000000000002f880       0x14 /usr/bin/../lib/gcc/arm-none-eabi/6.3.1/../../../../arm-none-eabi/lib/thumb/v6-m/libg_nano.a(lib_a-malloc.o)
                0x000000000002f880                free
 .text.memcmp   0x000000000002f894       0x1e /usr/bin/../lib/gcc/arm-none-eabi/6.3.1/../../../../arm-none-eabi/lib/thumb/v6-m/libg_nano.a(lib_a-memcmp.o)
                0x000000000002f894                memcmp
 .text.memcpy   0x000000000002f8b2       0x12 /usr/bin/../lib/gcc/arm-none-eabi/6.3.1/../../../../arm-none-eabi/lib/thumb/v6-m/libg_nano.a(lib_a-memcpy-stub.o)
                0x000000000002f8b2                memcpy
 .text.memset   0x000000000002f8c4       0x10 /usr/bin/../lib/gcc/arm-none-eabi/6.3.1/../../../../arm-none-eabi/lib/thumb/v6-m/libg_nano.a(lib_a-memset.o)
                0x000000000002f8c4                memset
 .text._free_r  0x000000000002f8d4       0x94 /usr/bin/../lib/gcc/arm-none-eabi/6.3.1/../../../../arm-none-eabi/lib/thumb/v6-m/libg_nano.a(lib_a-nano-freer.o)
                0x000000000002f8d4                _free_r
 .text._malloc_r
                0x000000000002f968       0xbc /usr/bin/../lib/gcc/arm-none-eabi/6.3.1/../../../../arm-none-eabi/lib/thumb/v6-m/libg_nano.a(lib_a-nano-mallocr.o)
                0x000000000002f968                _malloc_r
 .text._sbrk_r  0x000000000002fa24       0x24 /usr/bin/../lib/gcc/arm-none-eabi/6.3.1/../../../../arm-none-eabi/lib/thumb/v6-m/libg_nano.a(lib_a-sbrkr.o)
                0x000000000002fa24                _sbrk_r
 .text.strcpy   0x000000000002fa48       0x10 /usr/bin/../lib/gcc/arm-none-eabi/6.3.1/../../../../arm-none-eabi/lib/thumb/v6-m/libg_nano.a(lib_a-strcpy.o)
                0x000000000002fa48                strcpy
 .text          0x000000000002fa58        0xe /usr/bin/../lib/gcc/arm-none-eabi/6.3.1/../../../../arm-none-eabi/lib/thumb/v6-m/libg_nano.a(lib_a-strlen.o)
                0x000000000002fa58                strlen
 .text.strrchr  0x000000000002fa66       0x24 /usr/bin/../lib/gcc/arm-none-eabi/6.3.1/../../../../arm-none-eabi/lib/thumb/v6-m/libg_nano.a(lib_a-strrchr.o)
                0x000000000002fa66                strrchr
 .text.__malloc_lock
                0x000000000002fa8a        0x2 /usr/bin/../lib/gcc/arm-none-eabi/6.3.1/../../../../arm-none-eabi/lib/thumb/v6-m/libg_nano.a(lib_a-mlock.o)
                0x000000000002fa8a                __malloc_lock
 .text.__malloc_unlock
                0x000000000002fa8c        0x2 /usr/bin/../lib/gcc/arm-none-eabi/6.3.1/../../../../arm-none-eabi/lib/thumb/v6-m/libg_nano.a(lib_a-mlock.o)
                0x000000000002fa8c                __malloc_unlock
 .text.strchr   0x000000000002fa8e       0x1c /usr/bin/../lib/gcc/arm-none-eabi/6.3.1/../../../../arm-none-eabi/lib/thumb/v6-m/libg_nano.a(lib_a-strchr.o)
                0x000000000002fa8e                strchr
 *fill*         0x000000000002faaa        0x2 
 .text._sbrk    0x000000000002faac       0x1c /usr/bin/../lib/gcc/arm-none-eabi/6.3.1/../../../../arm-none-eabi/lib/thumb/v6-m/libnosys.a(sbrk.o)
                0x000000000002faac                _sbrk
 .text._exit    0x000000000002fac8        0x4 /usr/bin/../lib/gcc/arm-none-eabi/6.3.1/../../../../arm-none-eabi/lib/thumb/v6-m/libnosys.a(_exit.o)
                0x000000000002fac8                _exit
 *(.init)
 .init          0x000000000002facc        0x4 /usr/bin/../lib/gcc/arm-none-eabi/6.3.1/thumb/v6-m/crti.o
                0x000000000002facc                _init
 .init          0x000000000002fad0        0x8 /usr/bin/../lib/gcc/arm-none-eabi/6.3.1/thumb/v6-m/crtn.o
 *(.fini)
 .fini          0x000000000002fad8        0x4 /usr/bin/../lib/gcc/arm-none-eabi/6.3.1/thumb/v6-m/crti.o
                0x000000000002fad8                _fini
 .fini          0x000000000002fadc        0x8 /usr/bin/../lib/gcc/arm-none-eabi/6.3.1/thumb/v6-m/crtn.o
 *crtbegin.o(.ctors)
 *crtbegin?.o(.ctors)
 *(EXCLUDE_FILE(*crtend.o *crtend?.o) .ctors)
 *(SORT(.ctors.*))
 *(.ctors)
 *crtbegin.o(.dtors)
 *crtbegin?.o(.dtors)
 *(EXCLUDE_FILE(*crtend.o *crtend?.o) .dtors)
 *(SORT(.dtors.*))
 *(.dtors)
 *(.rodata*)
 .rodata.configuration_complete.str1.4
                0x000000000002fae4       0x1a CMakeFiles/51_light_control_server.dir/src/main.c.obj
 *fill*         0x000000000002fafe        0x2 
 .rodata.configuration_setup.str1.4
                0x000000000002fb00       0x78 CMakeFiles/51_light_control_server.dir/src/main.c.obj
 .rodata.generic_set_cb.str1.4
                0x000000000002fb78       0x17 CMakeFiles/51_light_control_server.dir/src/main.c.obj
 *fill*         0x000000000002fb8f        0x1 
 .rodata.main.str1.4
                0x000000000002fb90       0x30 CMakeFiles/51_light_control_server.dir/src/main.c.obj
 .rodata.static_auth_data.7516
                0x000000000002fbc0       0x10 CMakeFiles/51_light_control_server.dir/src/main.c.obj
 .rodata.pdu_sizes.8302
                0x000000000002fbd0        0xa CMakeFiles/51_light_control_server.dir/__/__/__/mesh/src/prov/provisioning.c.obj
 *fill*         0x000000000002fbda        0x2 
 .rodata.prov_cb_pkt_in.str1.4
                0x000000000002fbdc       0x60 CMakeFiles/51_light_control_server.dir/__/__/__/mesh/src/prov/provisioning.c.obj
 .rodata.add_active_bearer.str1.4
                0x000000000002fc3c       0x2c CMakeFiles/51_light_control_server.dir/__/__/__/mesh/src/prov/prov_bearer_adv.c.obj
 .rodata.crctable.8268
                0x000000000002fc68      0x100 CMakeFiles/51_light_control_server.dir/__/__/__/mesh/src/prov/prov_bearer_adv.c.obj
 .rodata.interface.8482
                0x000000000002fd68       0x14 CMakeFiles/51_light_control_server.dir/__/__/__/mesh/src/prov/prov_bearer_adv.c.obj
 .rodata.prov_bearer_adv_pkt_in.str1.4
                0x000000000002fd7c      0x283 CMakeFiles/51_light_control_server.dir/__/__/__/mesh/src/prov/prov_bearer_adv.c.obj
 *fill*         0x000000000002ffff        0x1 
 .rodata.tx_retry_cb.str1.4
                0x0000000000030000       0x64 CMakeFiles/51_light_control_server.dir/__/__/__/mesh/src/prov/prov_bearer_adv.c.obj
 .rodata.alphanumeric.8393
                0x0000000000030064       0x25 CMakeFiles/51_light_control_server.dir/__/__/__/mesh/src/prov/prov_utils.c.obj
 *fill*         0x0000000000030089        0x3 
 .rodata.numeric_max.8387
                0x000000000003008c       0x24 CMakeFiles/51_light_control_server.dir/__/__/__/mesh/src/prov/prov_utils.c.obj
 .rodata.prov_utils_authentication_values_derive.str1.4
                0x00000000000300b0        0x5 CMakeFiles/51_light_control_server.dir/__/__/__/mesh/src/prov/prov_utils.c.obj
 *fill*         0x00000000000300b5        0x3 
 .rodata.prov_utils_derive_keys.str1.4
                0x00000000000300b8       0x15 CMakeFiles/51_light_control_server.dir/__/__/__/mesh/src/prov/prov_utils.c.obj
 *fill*         0x00000000000300cd        0x3 
 .rodata.mesh_evt_cb.str1.4
                0x00000000000300d0       0x13 CMakeFiles/51_light_control_server.dir/__/__/__/mesh/src/access/access.c.obj
 *fill*         0x00000000000300e3        0x1 
 .rodata.multiply_de_bruijn_bit_position.6706
                0x00000000000300e4       0x20 CMakeFiles/51_light_control_server.dir/__/__/__/mesh/src/access/access.c.obj
 .rodata.packet_tx.str1.4
                0x0000000000030104       0x5b CMakeFiles/51_light_control_server.dir/__/__/__/mesh/src/access/access.c.obj
 *fill*         0x000000000003015f        0x1 
 .rodata.m_flash_groups
                0x0000000000030160       0xc0 CMakeFiles/51_light_control_server.dir/__/__/__/mesh/src/access/device_state_manager.c.obj
 .rodata.default_mesh_assertion_handler.str1.4
                0x0000000000030220       0x71 CMakeFiles/51_light_control_server.dir/__/__/__/mesh/src/access/nrf_mesh_node_config.c.obj
 *fill*         0x0000000000030291        0x3 
 .rodata.default_softdevice_assertion_handler.str1.4
                0x0000000000030294       0x1d CMakeFiles/51_light_control_server.dir/__/__/__/mesh/src/access/nrf_mesh_node_config.c.obj
 *fill*         0x00000000000302b1        0x3 
 .rodata.opcode_handlers
                0x00000000000302b4      0x150 CMakeFiles/51_light_control_server.dir/__/__/__/mesh/models/config/src/config_server.c.obj
 .rodata.HardFault_Handler.str1.4
                0x0000000000030404        0xe CMakeFiles/51_light_control_server.dir/__/__/nrf_mesh_sdk.c.obj
 *fill*         0x0000000000030412        0x2 
 .rodata.app_error_handler.str1.4
                0x0000000000030414       0x1d CMakeFiles/51_light_control_server.dir/__/__/nrf_mesh_sdk.c.obj
 *fill*         0x0000000000030431        0x3 
 .rodata.softdevice_assert_handler.str1.4
                0x0000000000030434       0x47 CMakeFiles/51_light_control_server.dir/__/__/nrf_mesh_sdk.c.obj
                                         0x65 (size before relaxing)
 *fill*         0x000000000003047b        0x1 
 .rodata.m_opcode_handlers
                0x000000000003047c       0x18 CMakeFiles/51_light_control_server.dir/__/__/models/simple_on_off/src/simple_on_off_server.c.obj
 .rodata.prov_provisionee_cb_ack_received
                0x0000000000030494       0x50 ../../../mesh/lib_51_MBTLE_PB_ADV_EE.a(prov_provisionee.c.obj)
 .rodata.prov_provisionee_pkt_in
                0x00000000000304e4       0x28 ../../../mesh/lib_51_MBTLE_PB_ADV_EE.a(prov_provisionee.c.obj)
 .rodata.m_prov_callbacks
                0x000000000003050c       0x10 ../../../mesh/lib_51_MBTLE_PB_ADV_EE.a(prov_provisionee.c.obj)
 .rodata.prov_provisionee_cb_ack_received.str1.4
                0x000000000003051c       0x7f ../../../mesh/lib_51_MBTLE_PB_ADV_EE.a(prov_provisionee.c.obj)
 *fill*         0x000000000003059b        0x1 
 .rodata.bearer_adv_opt_get
                0x000000000003059c       0x1c ../../../mesh/lib_51_MBTLE_CORE.a(bearer_adv.c.obj)
 .rodata.bearer_adv_opt_set
                0x00000000000305b8       0x28 ../../../mesh/lib_51_MBTLE_CORE.a(bearer_adv.c.obj)
 .rodata        0x00000000000305e0       0x14 ../../../mesh/lib_51_MBTLE_CORE.a(bearer_adv.c.obj)
 .rodata.bearer_adv_advertiser_init.str1.4
                0x00000000000305f4       0x39 ../../../mesh/lib_51_MBTLE_CORE.a(bearer_adv.c.obj)
 *fill*         0x000000000003062d        0x3 
 .rodata.bearer_adv_init.str1.4
                0x0000000000030630       0x1d ../../../mesh/lib_51_MBTLE_CORE.a(bearer_adv.c.obj)
 *fill*         0x000000000003064d        0x3 
 .rodata.bearer_adv_opt_get.str1.4
                0x0000000000030650       0x15 ../../../mesh/lib_51_MBTLE_CORE.a(bearer_adv.c.obj)
 *fill*         0x0000000000030665        0x3 
 .rodata.scan_order.str1.4
                0x0000000000030668       0x86 ../../../mesh/lib_51_MBTLE_CORE.a(bearer_adv.c.obj)
 *fill*         0x00000000000306ee        0x2 
 .rodata.beacon_pkt_in.str1.4
                0x00000000000306f0       0x8c ../../../mesh/lib_51_MBTLE_CORE.a(beacon.c.obj)
 .rodata        0x000000000003077c       0x1c ../../../mesh/lib_51_MBTLE_CORE.a(bearer.c.obj)
 .rodata.bearer_rx_cb.str1.4
                0x0000000000030798       0x76 ../../../mesh/lib_51_MBTLE_CORE.a(bearer.c.obj)
 *fill*         0x000000000003080e        0x2 
 .rodata        0x0000000000030810       0x18 ../../../mesh/lib_51_MBTLE_CORE.a(enc.c.obj)
 .rodata.log_callback_rtt.str1.4
                0x0000000000030828       0x15 ../../../mesh/lib_51_MBTLE_CORE.a(log.c.obj)
 *fill*         0x000000000003083d        0x3 
 .rodata.str1.4
                0x0000000000030840       0x11 ../../../mesh/lib_51_MBTLE_CORE.a(log.c.obj)
 *fill*         0x0000000000030851        0x3 
 .rodata.net_beacon_init.str1.4
                0x0000000000030854        0x5 ../../../mesh/lib_51_MBTLE_CORE.a(net_beacon.c.obj)
 *fill*         0x0000000000030859        0x3 
 .rodata.nrf_mesh_adv_send.str1.4
                0x000000000003085c       0x78 ../../../mesh/lib_51_MBTLE_CORE.a(nrf_mesh.c.obj)
 .rodata.nrf_mesh_process.str1.4
                0x00000000000308d4       0x76 ../../../mesh/lib_51_MBTLE_CORE.a(nrf_mesh.c.obj)
 *fill*         0x000000000003094a        0x2 
 .rodata        0x000000000003094c        0x7 ../../../mesh/lib_51_MBTLE_CORE.a(nrf_mesh_keygen.c.obj)
 *fill*         0x0000000000030953        0x1 
 .rodata.types_lookup.6530
                0x0000000000030954        0x4 ../../../mesh/lib_51_MBTLE_CORE.a(nrf_mesh_utils.c.obj)
 .rodata.channel_rf_offsets.6165
                0x0000000000030958       0x28 ../../../mesh/lib_51_MBTLE_CORE.a(radio_config.c.obj)
 .rodata.transport_opt_set
                0x0000000000030980       0x1c ../../../mesh/lib_51_MBTLE_CORE.a(transport.c.obj)
 .rodata.transport_opt_get
                0x000000000003099c       0x1c ../../../mesh/lib_51_MBTLE_CORE.a(transport.c.obj)
 .rodata.sar_segment_send.str1.4
                0x00000000000309b8       0x39 ../../../mesh/lib_51_MBTLE_CORE.a(transport.c.obj)
 *fill*         0x00000000000309f1        0x3 
 .rodata.test_transport_decrypt.str1.4
                0x00000000000309f4       0x5f ../../../mesh/lib_51_MBTLE_CORE.a(transport.c.obj)
 *fill*         0x0000000000030a53        0x1 
 .rodata.transport_pkt_in.str1.4
                0x0000000000030a54      0x1b0 ../../../mesh/lib_51_MBTLE_CORE.a(transport.c.obj)
 .rodata.transport_sar_process.str1.4
                0x0000000000030c04       0xbb ../../../mesh/lib_51_MBTLE_CORE.a(transport.c.obj)
 *fill*         0x0000000000030cbf        0x1 
 .rodata.transport_tx.str1.4
                0x0000000000030cc0       0x30 ../../../mesh/lib_51_MBTLE_CORE.a(transport.c.obj)
 .rodata.transport_tx_sar.str1.4
                0x0000000000030cf0       0x99 ../../../mesh/lib_51_MBTLE_CORE.a(transport.c.obj)
 *fill*         0x0000000000030d89        0x3 
 .rodata.trs_sar_drop_session.str1.4
                0x0000000000030d8c       0x18 ../../../mesh/lib_51_MBTLE_CORE.a(transport.c.obj)
                                         0x48 (size before relaxing)
 .rodata.trs_sar_pkt_decrypt.str1.4
                0x0000000000030da4       0x61 ../../../mesh/lib_51_MBTLE_CORE.a(transport.c.obj)
                                         0x69 (size before relaxing)
 *fill*         0x0000000000030e05        0x3 
 .rodata.trs_sar_session_cb.str1.4
                0x0000000000030e08       0x1b ../../../mesh/lib_51_MBTLE_CORE.a(transport.c.obj)
 *fill*         0x0000000000030e23        0x1 
 .rodata.process_action_queue
                0x0000000000030e24       0x14 ../../../mesh/lib_51_MBTLE_CORE.a(flash_manager.c.obj)
 .rodata.INVALID_HEADER
                0x0000000000030e38        0x4 ../../../mesh/lib_51_MBTLE_CORE.a(flash_manager.c.obj)
                0x0000000000030e38                INVALID_HEADER
 .rodata.PADDING_HEADER
                0x0000000000030e3c        0x4 ../../../mesh/lib_51_MBTLE_CORE.a(flash_manager.c.obj)
                0x0000000000030e3c                PADDING_HEADER
 .rodata.SEAL_HEADER
                0x0000000000030e40        0x4 ../../../mesh/lib_51_MBTLE_CORE.a(flash_manager.c.obj)
                0x0000000000030e40                SEAL_HEADER
 .rodata.process_action_queue.str1.4
                0x0000000000030e44       0x4d ../../../mesh/lib_51_MBTLE_CORE.a(flash_manager.c.obj)
                                         0x7e (size before relaxing)
 *fill*         0x0000000000030e91        0x3 
 .rodata.flash_manager_defrag.str1.4
                0x0000000000030e94       0x54 ../../../mesh/lib_51_MBTLE_CORE.a(flash_manager_defrag.c.obj)
                                         0x82 (size before relaxing)
 .rodata.m_procedure_steps
                0x0000000000030ee8       0x28 ../../../mesh/lib_51_MBTLE_CORE.a(flash_manager_defrag.c.obj)
 .rodata.timeslot_init
                0x0000000000030f10       0x20 ../../../mesh/lib_51_MBTLE_CORE.a(timeslot.c.obj)
 .rodata.radio_signal_callback
                0x0000000000030f30       0x14 ../../../mesh/lib_51_MBTLE_CORE.a(timeslot.c.obj)
 .rodata.Rb.5041
                0x0000000000030f44       0x10 ../../../mesh/lib_51_MBTLE_CORE.a(aes_cmac.c.obj)
 .rodata.network_pkt_in.str1.4
                0x0000000000030f54       0x13 ../../../mesh/lib_51_MBTLE_CORE.a(network.c.obj)
                                         0x1c (size before relaxing)
 *fill*         0x0000000000030f67        0x1 
 .rodata.network_pkt_out.str1.4
                0x0000000000030f68       0x25 ../../../mesh/lib_51_MBTLE_CORE.a(network.c.obj)
 *fill*         0x0000000000030f8d        0x3 
 .rodata.network_pkt_relay.str1.4
                0x0000000000030f90       0x75 ../../../mesh/lib_51_MBTLE_CORE.a(network.c.obj)
                                         0xa6 (size before relaxing)
 *fill*         0x0000000000031005        0x3 
 .rodata.m_all_operations
                0x0000000000031008       0x10 ../../../mesh/lib_51_MBTLE_CORE.a(mesh_flash.c.obj)
 .rodata.curve_secp256r1
                0x0000000000031018       0xb0 ../../../lib/micro-ecc/lib_51_UECC_LIB.a(uECC.c.obj)
 .rodata._DoInit.str1.4
                0x00000000000310c8       0x18 ../../../lib/rtt/lib_51_RTT_LIB.a(SEGGER_RTT.c.obj)
                                         0x17 (size before relaxing)
 .rodata._aV2C.4378
                0x00000000000310e0       0x10 ../../../lib/rtt/lib_51_RTT_LIB.a(SEGGER_RTT_printf.c.obj)
 .rodata._global_impure_ptr
                0x00000000000310f0        0x4 /usr/bin/../lib/gcc/arm-none-eabi/6.3.1/../../../../arm-none-eabi/lib/thumb/v6-m/libg_nano.a(lib_a-impure.o)
                0x00000000000310f0                _global_impure_ptr
 *(.eh_frame*)
 .eh_frame      0x00000000000310f4        0x0 /usr/bin/../lib/gcc/arm-none-eabi/6.3.1/thumb/v6-m/crtbegin.o
 .eh_frame      0x00000000000310f4        0x4 /usr/bin/../lib/gcc/arm-none-eabi/6.3.1/thumb/v6-m/crtend.o

.glue_7         0x00000000000310f8        0x0
 .glue_7        0x00000000000310f8        0x0 linker stubs

.glue_7t        0x00000000000310f8        0x0
 .glue_7t       0x00000000000310f8        0x0 linker stubs

.vfp11_veneer   0x00000000000310f8        0x0
 .vfp11_veneer  0x00000000000310f8        0x0 linker stubs

.v4_bx          0x00000000000310f8        0x0
 .v4_bx         0x00000000000310f8        0x0 linker stubs

.iplt           0x00000000000310f8        0x0
 .iplt          0x00000000000310f8        0x0 /usr/bin/../lib/gcc/arm-none-eabi/6.3.1/thumb/v6-m/crtbegin.o

.ARM.extab
 *(.ARM.extab* .gnu.linkonce.armextab.*)
                0x00000000000310f8                __exidx_start = .

.ARM.exidx      0x00000000000310f8        0x8
 *(.ARM.exidx* .gnu.linkonce.armexidx.*)
 .ARM.exidx     0x00000000000310f8        0x8 /usr/bin/../lib/gcc/arm-none-eabi/6.3.1/../../../../arm-none-eabi/lib/thumb/v6-m/crt0.o
                0x0000000000031100                __exidx_end = .
                0x0000000000031100                __etext = .

.rel.dyn        0x0000000000031100        0x0
 .rel.iplt      0x0000000000031100        0x0 /usr/bin/../lib/gcc/arm-none-eabi/6.3.1/thumb/v6-m/crtbegin.o

.data           0x00000000200022d8      0x130 load address 0x0000000000031100
                0x00000000200022d8                __data_start__ = .
 *(vtable)
 *(.data*)
 .data.m_unprov_report
                0x00000000200022d8        0x1 CMakeFiles/51_light_control_server.dir/__/__/__/mesh/src/prov/prov_beacon.c.obj
 *fill*         0x00000000200022d9        0x3 
 .data.flash_add_mem_available_struct.7923
                0x00000000200022dc       0x10 CMakeFiles/51_light_control_server.dir/__/__/__/mesh/src/access/access.c.obj
 .data.flash_clear_mem_available_struct.8012
                0x00000000200022ec       0x10 CMakeFiles/51_light_control_server.dir/__/__/__/mesh/src/access/access.c.obj
 .data.flash_store_mem_available_struct.8036
                0x00000000200022fc       0x10 CMakeFiles/51_light_control_server.dir/__/__/__/mesh/src/access/access.c.obj
 .data.m_default_ttl
                0x000000002000230c        0x1 CMakeFiles/51_light_control_server.dir/__/__/__/mesh/src/access/access.c.obj
 *fill*         0x000000002000230d        0x3 
 .data.mem_listener.8178
                0x0000000020002310       0x10 CMakeFiles/51_light_control_server.dir/__/__/__/mesh/src/access/device_state_manager.c.obj
 .data.mem_listener.8204
                0x0000000020002320       0x10 CMakeFiles/51_light_control_server.dir/__/__/__/mesh/src/access/device_state_manager.c.obj
 .data.m_config_server_handle
                0x0000000020002330        0x2 CMakeFiles/51_light_control_server.dir/__/__/__/mesh/models/config/src/config_server.c.obj
 *fill*         0x0000000020002332        0x2 
 .data.SystemCoreClock
                0x0000000020002334        0x4 CMakeFiles/51_light_control_server.dir/__/__/__/toolchain/system_nrf51.c.obj
                0x0000000020002334                SystemCoreClock
 .data.m_radio_state
                0x0000000020002338        0x1 ../../../mesh/lib_51_MBTLE_CORE.a(radio.c.obj)
 *fill*         0x0000000020002339        0x3 
 .data.g_log_debug_level
                0x000000002000233c        0x4 ../../../mesh/lib_51_MBTLE_CORE.a(log.c.obj)
                0x000000002000233c                g_log_debug_level
 .data.g_log_debug_msk
                0x0000000020002340        0x4 ../../../mesh/lib_51_MBTLE_CORE.a(log.c.obj)
                0x0000000020002340                g_log_debug_msk
 .data.g_log_hex_digits
                0x0000000020002344        0x4 ../../../mesh/lib_51_MBTLE_CORE.a(log.c.obj)
                0x0000000020002344                g_log_hex_digits
 .data.m_log_callback
                0x0000000020002348        0x4 ../../../mesh/lib_51_MBTLE_CORE.a(log.c.obj)
                0x0000000020002348                m_log_callback
 .data.mem_listener.7415
                0x000000002000234c       0x10 ../../../mesh/lib_51_MBTLE_CORE.a(net_state.c.obj)
 .data.mem_listener.7420
                0x000000002000235c       0x10 ../../../mesh/lib_51_MBTLE_CORE.a(net_state.c.obj)
 .data.mem_listener.7434
                0x000000002000236c       0x10 ../../../mesh/lib_51_MBTLE_CORE.a(net_state.c.obj)
 .data.m_lfclk_ppm
                0x000000002000237c        0x4 ../../../mesh/lib_51_MBTLE_CORE.a(timeslot.c.obj)
 .data.m_negotiate_timeslot_length
                0x0000000020002380        0x4 ../../../mesh/lib_51_MBTLE_CORE.a(timeslot.c.obj)
 .data.m_radio_request_earliest
                0x0000000020002384       0x10 ../../../mesh/lib_51_MBTLE_CORE.a(timeslot.c.obj)
 .data.g_rng_function
                0x0000000020002394        0x4 ../../../lib/micro-ecc/lib_51_UECC_LIB.a(uECC.c.obj)
 .data._impure_ptr
                0x0000000020002398        0x4 /usr/bin/../lib/gcc/arm-none-eabi/6.3.1/../../../../arm-none-eabi/lib/thumb/v6-m/libg_nano.a(lib_a-impure.o)
                0x0000000020002398                _impure_ptr
 .data.impure_data
                0x000000002000239c       0x60 /usr/bin/../lib/gcc/arm-none-eabi/6.3.1/../../../../arm-none-eabi/lib/thumb/v6-m/libg_nano.a(lib_a-impure.o)
                0x00000000200023fc                . = ALIGN (0x4)
                0x00000000200023fc                PROVIDE (__preinit_array_start, .)
 *(.preinit_array)
                0x00000000200023fc                PROVIDE (__preinit_array_end, .)
                0x00000000200023fc                . = ALIGN (0x4)
                0x00000000200023fc                PROVIDE (__init_array_start, .)
 *(SORT(.init_array.*))
 *(.init_array)
 .init_array    0x00000000200023fc        0x4 /usr/bin/../lib/gcc/arm-none-eabi/6.3.1/thumb/v6-m/crtbegin.o
                0x0000000020002400                PROVIDE (__init_array_end, .)
                0x0000000020002400                . = ALIGN (0x4)
                [!provide]                        PROVIDE (__fini_array_start, .)
 *(SORT(.fini_array.*))
 *(.fini_array)
 .fini_array    0x0000000020002400        0x4 /usr/bin/../lib/gcc/arm-none-eabi/6.3.1/thumb/v6-m/crtbegin.o
                [!provide]                        PROVIDE (__fini_array_end, .)
 *(.jcr*)
 .jcr           0x0000000020002404        0x0 /usr/bin/../lib/gcc/arm-none-eabi/6.3.1/thumb/v6-m/crtbegin.o
 .jcr           0x0000000020002404        0x4 /usr/bin/../lib/gcc/arm-none-eabi/6.3.1/thumb/v6-m/crtend.o
                0x0000000020002408                . = ALIGN (0x4)
                0x0000000020002408                __data_end__ = .

.igot.plt       0x0000000020002408        0x0 load address 0x0000000000031230
 .igot.plt      0x0000000020002408        0x0 /usr/bin/../lib/gcc/arm-none-eabi/6.3.1/thumb/v6-m/crtbegin.o

.bss            0x0000000020002408     0x28cc load address 0x0000000000031230
                0x0000000020002408                . = ALIGN (0x4)
                0x0000000020002408                __bss_start__ = .
 *(.bss*)
 .bss           0x0000000020002408       0x1c /usr/bin/../lib/gcc/arm-none-eabi/6.3.1/thumb/v6-m/crtbegin.o
 .bss.config_params.7517
                0x0000000020002424       0x30 CMakeFiles/51_light_control_server.dir/src/main.c.obj
 .bss.m_server  0x0000000020002454        0xc CMakeFiles/51_light_control_server.dir/src/main.c.obj
 .bss.mp_bearer_head
                0x0000000020002460        0x4 CMakeFiles/51_light_control_server.dir/__/__/__/mesh/src/prov/prov_bearer_adv.c.obj
 .bss.m_offload_ecdh
                0x0000000020002464        0x1 CMakeFiles/51_light_control_server.dir/__/__/__/mesh/src/prov/prov_utils.c.obj
 *fill*         0x0000000020002465        0x3 
 .bss.m_element_pool
                0x0000000020002468        0x6 CMakeFiles/51_light_control_server.dir/__/__/__/mesh/src/access/access.c.obj
 *fill*         0x000000002000246e        0x2 
 .bss.m_evt_handler
                0x0000000020002470        0x8 CMakeFiles/51_light_control_server.dir/__/__/__/mesh/src/access/access.c.obj
 .bss.m_flash_manager
                0x0000000020002478       0x24 CMakeFiles/51_light_control_server.dir/__/__/__/mesh/src/access/access.c.obj
 .bss.m_flash_not_ready
                0x000000002000249c        0x1 CMakeFiles/51_light_control_server.dir/__/__/__/mesh/src/access/access.c.obj
 .bss.m_metadata_stored
                0x000000002000249d        0x1 CMakeFiles/51_light_control_server.dir/__/__/__/mesh/src/access/access.c.obj
 *fill*         0x000000002000249e        0x2 
 .bss.m_model_pool
                0x00000000200024a0       0x68 CMakeFiles/51_light_control_server.dir/__/__/__/mesh/src/access/access.c.obj
 .bss.m_subscription_list_pool
                0x0000000020002508        0x8 CMakeFiles/51_light_control_server.dir/__/__/__/mesh/src/access/access.c.obj
 .bss.m_publish_timer
                0x0000000020002510       0x18 CMakeFiles/51_light_control_server.dir/__/__/__/mesh/src/access/access_publish.c.obj
 .bss.m_publish_timer_counter
                0x0000000020002528        0x4 CMakeFiles/51_light_control_server.dir/__/__/__/mesh/src/access/access_publish.c.obj
 .bss.m_publish_timer_running
                0x000000002000252c        0x1 CMakeFiles/51_light_control_server.dir/__/__/__/mesh/src/access/access_publish.c.obj
 .bss.m_timer_resolution
                0x000000002000252d        0x1 CMakeFiles/51_light_control_server.dir/__/__/__/mesh/src/access/access_publish.c.obj
 *fill*         0x000000002000252e        0x2 
 .bss.mp_publication_list
                0x0000000020002530        0x4 CMakeFiles/51_light_control_server.dir/__/__/__/mesh/src/access/access_publish.c.obj
 .bss.m_reliable
                0x0000000020002534       0x6c CMakeFiles/51_light_control_server.dir/__/__/__/mesh/src/access/access_reliable.c.obj
 .bss.m_addr_nonvirtual_allocated
                0x00000000200025a0        0x4 CMakeFiles/51_light_control_server.dir/__/__/__/mesh/src/access/device_state_manager.c.obj
 .bss.m_addr_nonvirtual_needs_flashing
                0x00000000200025a4        0x4 CMakeFiles/51_light_control_server.dir/__/__/__/mesh/src/access/device_state_manager.c.obj
 .bss.m_addr_unicast_allocated
                0x00000000200025a8        0x4 CMakeFiles/51_light_control_server.dir/__/__/__/mesh/src/access/device_state_manager.c.obj
 .bss.m_addr_unicast_needs_flashing
                0x00000000200025ac        0x4 CMakeFiles/51_light_control_server.dir/__/__/__/mesh/src/access/device_state_manager.c.obj
 .bss.m_addr_virtual_allocated
                0x00000000200025b0        0x4 CMakeFiles/51_light_control_server.dir/__/__/__/mesh/src/access/device_state_manager.c.obj
 .bss.m_addr_virtual_needs_flashing
                0x00000000200025b4        0x4 CMakeFiles/51_light_control_server.dir/__/__/__/mesh/src/access/device_state_manager.c.obj
 .bss.m_addresses
                0x00000000200025b8        0x8 CMakeFiles/51_light_control_server.dir/__/__/__/mesh/src/access/device_state_manager.c.obj
 .bss.m_appkey_allocated
                0x00000000200025c0        0x4 CMakeFiles/51_light_control_server.dir/__/__/__/mesh/src/access/device_state_manager.c.obj
 .bss.m_appkey_needs_flashing
                0x00000000200025c4        0x4 CMakeFiles/51_light_control_server.dir/__/__/__/mesh/src/access/device_state_manager.c.obj
 .bss.m_appkeys
                0x00000000200025c8       0x16 CMakeFiles/51_light_control_server.dir/__/__/__/mesh/src/access/device_state_manager.c.obj
 *fill*         0x00000000200025de        0x2 
 .bss.m_devkey_allocated
                0x00000000200025e0        0x4 CMakeFiles/51_light_control_server.dir/__/__/__/mesh/src/access/device_state_manager.c.obj
 .bss.m_devkey_needs_flashing
                0x00000000200025e4        0x4 CMakeFiles/51_light_control_server.dir/__/__/__/mesh/src/access/device_state_manager.c.obj
 .bss.m_devkeys
                0x00000000200025e8       0x16 CMakeFiles/51_light_control_server.dir/__/__/__/mesh/src/access/device_state_manager.c.obj
 .bss.m_flash_is_available
                0x00000000200025fe        0x1 CMakeFiles/51_light_control_server.dir/__/__/__/mesh/src/access/device_state_manager.c.obj
 *fill*         0x00000000200025ff        0x1 
 .bss.m_flash_manager
                0x0000000020002600       0x24 CMakeFiles/51_light_control_server.dir/__/__/__/mesh/src/access/device_state_manager.c.obj
 .bss.m_flash_mem_listener_update_all
                0x0000000020002624       0x10 CMakeFiles/51_light_control_server.dir/__/__/__/mesh/src/access/device_state_manager.c.obj
 .bss.m_has_primary_subnet
                0x0000000020002634        0x1 CMakeFiles/51_light_control_server.dir/__/__/__/mesh/src/access/device_state_manager.c.obj
 *fill*         0x0000000020002635        0x3 
 .bss.m_local_unicast_addr
                0x0000000020002638        0x4 CMakeFiles/51_light_control_server.dir/__/__/__/mesh/src/access/device_state_manager.c.obj
 .bss.m_subnet_allocated
                0x000000002000263c        0x4 CMakeFiles/51_light_control_server.dir/__/__/__/mesh/src/access/device_state_manager.c.obj
 .bss.m_subnet_needs_flashing
                0x0000000020002640        0x4 CMakeFiles/51_light_control_server.dir/__/__/__/mesh/src/access/device_state_manager.c.obj
 .bss.m_subnets
                0x0000000020002644       0x5c CMakeFiles/51_light_control_server.dir/__/__/__/mesh/src/access/device_state_manager.c.obj
 .bss.m_virtual_addresses
                0x00000000200026a0       0x14 CMakeFiles/51_light_control_server.dir/__/__/__/mesh/src/access/device_state_manager.c.obj
 .bss.m_evt_handler
                0x00000000200026b4        0x8 CMakeFiles/51_light_control_server.dir/__/__/__/mesh/src/access/nrf_mesh_node_config.c.obj
 .bss.m_node_provisioned
                0x00000000200026bc        0x1 CMakeFiles/51_light_control_server.dir/__/__/__/mesh/src/access/nrf_mesh_node_config.c.obj
 *fill*         0x00000000200026bd        0x3 
 .bss.m_private_key
                0x00000000200026c0       0x20 CMakeFiles/51_light_control_server.dir/__/__/__/mesh/src/access/nrf_mesh_node_config.c.obj
 .bss.m_prov_ctx
                0x00000000200026e0      0x2c0 CMakeFiles/51_light_control_server.dir/__/__/__/mesh/src/access/nrf_mesh_node_config.c.obj
 .bss.m_public_key
                0x00000000200029a0       0x40 CMakeFiles/51_light_control_server.dir/__/__/__/mesh/src/access/nrf_mesh_node_config.c.obj
 .bss.m_sd_initialized
                0x00000000200029e0        0x1 CMakeFiles/51_light_control_server.dir/__/__/__/mesh/src/access/nrf_mesh_node_config.c.obj
 *fill*         0x00000000200029e1        0x3 
 .bss.mp_init_params
                0x00000000200029e4        0x4 CMakeFiles/51_light_control_server.dir/__/__/__/mesh/src/access/nrf_mesh_node_config.c.obj
 .bss.m_ble_evt_buffer
                0x00000000200029e8       0x47 CMakeFiles/51_light_control_server.dir/__/__/nrf_mesh_sdk.c.obj
 *fill*         0x0000000020002a2f        0x1 
 .bss.m_default_gap_addr
                0x0000000020002a30        0x7 ../../../mesh/lib_51_MBTLE_CORE.a(bearer_adv.c.obj)
 .bss.m_is_scanning
                0x0000000020002a37        0x1 ../../../mesh/lib_51_MBTLE_CORE.a(bearer_adv.c.obj)
 .bss.m_scan_ch
                0x0000000020002a38        0x1 ../../../mesh/lib_51_MBTLE_CORE.a(bearer_adv.c.obj)
 *fill*         0x0000000020002a39        0x3 
 .bss.m_scan_config
                0x0000000020002a3c        0xc ../../../mesh/lib_51_MBTLE_CORE.a(bearer_adv.c.obj)
 .bss.m_scan_evt
                0x0000000020002a48       0x18 ../../../mesh/lib_51_MBTLE_CORE.a(bearer_adv.c.obj)
 .bss.m_scan_window_end_evt
                0x0000000020002a60       0x18 ../../../mesh/lib_51_MBTLE_CORE.a(bearer_adv.c.obj)
 .bss.m_pool    0x0000000020002a78     0x1000 ../../../mesh/lib_51_MBTLE_CORE.a(packet_mgr.c.obj)
 .bss.mp_free_head
                0x0000000020003a78        0x4 ../../../mesh/lib_51_MBTLE_CORE.a(packet_mgr.c.obj)
 .bss.m_idle_cb
                0x0000000020003a7c        0x4 ../../../mesh/lib_51_MBTLE_CORE.a(radio.c.obj)
 .bss.m_radio_config
                0x0000000020003a80        0x8 ../../../mesh/lib_51_MBTLE_CORE.a(radio.c.obj)
 .bss.m_radio_fifo
                0x0000000020003a88       0x14 ../../../mesh/lib_51_MBTLE_CORE.a(radio.c.obj)
 .bss.m_radio_fifo_queue
                0x0000000020003a9c       0x60 ../../../mesh/lib_51_MBTLE_CORE.a(radio.c.obj)
 .bss.m_rx_cb   0x0000000020003afc        0x4 ../../../mesh/lib_51_MBTLE_CORE.a(radio.c.obj)
 .bss.m_tx_cb   0x0000000020003b00        0x4 ../../../mesh/lib_51_MBTLE_CORE.a(radio.c.obj)
 .bss.s_fifo_reserved.6682
                0x0000000020003b04        0x4 ../../../mesh/lib_51_MBTLE_CORE.a(radio.c.obj)
 .bss.m_attributes
                0x0000000020003b08        0x3 ../../../mesh/lib_51_MBTLE_CORE.a(timer.c.obj)
 *fill*         0x0000000020003b0b        0x1 
 .bss.m_callbacks
                0x0000000020003b0c        0xc ../../../mesh/lib_51_MBTLE_CORE.a(timer.c.obj)
 .bss.m_is_in_ts
                0x0000000020003b18        0x1 ../../../mesh/lib_51_MBTLE_CORE.a(timer.c.obj)
 *fill*         0x0000000020003b19        0x3 
 .bss.m_reference_time
                0x0000000020003b1c        0x4 ../../../mesh/lib_51_MBTLE_CORE.a(timer.c.obj)
 .bss.m_timeouts
                0x0000000020003b20        0xc ../../../mesh/lib_51_MBTLE_CORE.a(timer.c.obj)
 .bss.m_timer_mut
                0x0000000020003b2c        0x4 ../../../mesh/lib_51_MBTLE_CORE.a(timer.c.obj)
 .bss.m_ts_end_time
                0x0000000020003b30        0x4 ../../../mesh/lib_51_MBTLE_CORE.a(timer.c.obj)
 .bss.mp_ppi_tasks
                0x0000000020003b34        0xc ../../../mesh/lib_51_MBTLE_CORE.a(timer.c.obj)
 .bss.m_event_flag
                0x0000000020003b40        0x4 ../../../mesh/lib_51_MBTLE_CORE.a(timer_scheduler.c.obj)
 .bss.m_scheduler
                0x0000000020003b44       0x10 ../../../mesh/lib_51_MBTLE_CORE.a(timer_scheduler.c.obj)
 .bss.m_advertiser
                0x0000000020003b54       0xe0 ../../../mesh/lib_51_MBTLE_CORE.a(beacon.c.obj)
 .bss.m_addr_filter
                0x0000000020003c34        0x8 ../../../mesh/lib_51_MBTLE_CORE.a(bearer.c.obj)
 .bss.m_adtype_filter
                0x0000000020003c3c       0x20 ../../../mesh/lib_51_MBTLE_CORE.a(bearer.c.obj)
 .bss.m_adtype_filtering
                0x0000000020003c5c        0x1 ../../../mesh/lib_51_MBTLE_CORE.a(bearer.c.obj)
 *fill*         0x0000000020003c5d        0x3 
 .bss.m_regular_advertiser
                0x0000000020003c60       0xe0 ../../../mesh/lib_51_MBTLE_CORE.a(bearer.c.obj)
 .bss.m_rx_fifo
                0x0000000020003d40       0x14 ../../../mesh/lib_51_MBTLE_CORE.a(bearer.c.obj)
 .bss.m_rx_fifo_buffer
                0x0000000020003d54       0xa0 ../../../mesh/lib_51_MBTLE_CORE.a(bearer.c.obj)
 .bss.packets_accepted
                0x0000000020003df4        0x4 ../../../mesh/lib_51_MBTLE_CORE.a(bearer.c.obj)
 .bss.packets_dropped_invalid_addr
                0x0000000020003df8        0x4 ../../../mesh/lib_51_MBTLE_CORE.a(bearer.c.obj)
 .bss.packets_dropped_invalid_adtype
                0x0000000020003dfc        0x4 ../../../mesh/lib_51_MBTLE_CORE.a(bearer.c.obj)
 .bss.packets_dropped_invalid_length
                0x0000000020003e00        0x4 ../../../mesh/lib_51_MBTLE_CORE.a(bearer.c.obj)
 .bss.m_bearer_event_fifo
                0x0000000020003e04       0x14 ../../../mesh/lib_51_MBTLE_CORE.a(bearer_event.c.obj)
 .bss.m_bearer_event_fifo_buffer
                0x0000000020003e18      0x100 ../../../mesh/lib_51_MBTLE_CORE.a(bearer_event.c.obj)
 .bss.m_critical
                0x0000000020003f18        0x4 ../../../mesh/lib_51_MBTLE_CORE.a(bearer_event.c.obj)
 .bss.m_flag_count
                0x0000000020003f1c        0x4 ../../../mesh/lib_51_MBTLE_CORE.a(bearer_event.c.obj)
 .bss.m_flag_event_callbacks
                0x0000000020003f20       0x10 ../../../mesh/lib_51_MBTLE_CORE.a(bearer_event.c.obj)
 .bss.m_flags   0x0000000020003f30        0x4 ../../../mesh/lib_51_MBTLE_CORE.a(bearer_event.c.obj)
 .bss.m_uuid    0x0000000020003f34       0x10 ../../../mesh/lib_51_MBTLE_CORE.a(nrf_mesh_configure.c.obj)
 .bss.mp_evt_handlers_head
                0x0000000020003f44        0x4 ../../../mesh/lib_51_MBTLE_CORE.a(event.c.obj)
 .bss.m_beacon_salt
                0x0000000020003f48       0x10 ../../../mesh/lib_51_MBTLE_CORE.a(net_beacon.c.obj)
 .bss.m_enabled
                0x0000000020003f58        0x1 ../../../mesh/lib_51_MBTLE_CORE.a(net_beacon.c.obj)
 *fill*         0x0000000020003f59        0x3 
 .bss.m_tx_event
                0x0000000020003f5c       0x18 ../../../mesh/lib_51_MBTLE_CORE.a(net_beacon.c.obj)
 .bss.lock_count.7474
                0x0000000020003f74        0x4 ../../../mesh/lib_51_MBTLE_CORE.a(net_state.c.obj)
 .bss.m_flash_manager
                0x0000000020003f78       0x24 ../../../mesh/lib_51_MBTLE_CORE.a(net_state.c.obj)
 .bss.m_iv_update_timer
                0x0000000020003f9c       0x18 ../../../mesh/lib_51_MBTLE_CORE.a(net_state.c.obj)
 .bss.m_net_state
                0x0000000020003fb4       0x14 ../../../mesh/lib_51_MBTLE_CORE.a(net_state.c.obj)
 .bss.m_seqnum_allocation_in_progress
                0x0000000020003fc8        0x1 ../../../mesh/lib_51_MBTLE_CORE.a(net_state.c.obj)
 .bss.m_test_mode
                0x0000000020003fc9        0x1 ../../../mesh/lib_51_MBTLE_CORE.a(net_state.c.obj)
 .bss.m_is_enabled
                0x0000000020003fca        0x1 ../../../mesh/lib_51_MBTLE_CORE.a(nrf_mesh.c.obj)
 .bss.m_is_initialized
                0x0000000020003fcb        0x1 ../../../mesh/lib_51_MBTLE_CORE.a(nrf_mesh.c.obj)
 .bss.m_rx_cb   0x0000000020003fcc        0x4 ../../../mesh/lib_51_MBTLE_CORE.a(nrf_mesh.c.obj)
 .bss.m_current_time
                0x0000000020003fd0        0x4 ../../../mesh/lib_51_MBTLE_CORE.a(ticker.c.obj)
 .bss.m_timer   0x0000000020003fd4       0x18 ../../../mesh/lib_51_MBTLE_CORE.a(ticker.c.obj)
 .bss.m_sar_alloc
                0x0000000020003fec        0x4 ../../../mesh/lib_51_MBTLE_CORE.a(transport.c.obj)
 .bss.m_sar_release
                0x0000000020003ff0        0x4 ../../../mesh/lib_51_MBTLE_CORE.a(transport.c.obj)
 .bss.m_transport_pkt_buf
                0x0000000020003ff4       0x13 ../../../mesh/lib_51_MBTLE_CORE.a(transport.c.obj)
 *fill*         0x0000000020004007        0x1 
 .bss.m_trs_config
                0x0000000020004008       0x14 ../../../mesh/lib_51_MBTLE_CORE.a(transport.c.obj)
 .bss.m_trs_sar_ack_timeout
                0x000000002000401c        0x1 ../../../mesh/lib_51_MBTLE_CORE.a(transport.c.obj)
 .bss.m_trs_sar_ack_timer_active
                0x000000002000401d        0x1 ../../../mesh/lib_51_MBTLE_CORE.a(transport.c.obj)
 *fill*         0x000000002000401e        0x2 
 .bss.m_trs_sar_rx_ack_timer
                0x0000000020004020       0x18 ../../../mesh/lib_51_MBTLE_CORE.a(transport.c.obj)
 .bss.m_trs_sar_rx_sessions
                0x0000000020004038       0x50 ../../../mesh/lib_51_MBTLE_CORE.a(transport.c.obj)
 .bss.m_trs_sar_session_timer
                0x0000000020004088       0x18 ../../../mesh/lib_51_MBTLE_CORE.a(transport.c.obj)
 .bss.m_trs_sar_tx_sessions
                0x00000000200040a0       0x50 ../../../mesh/lib_51_MBTLE_CORE.a(transport.c.obj)
 .bss.m_trs_sar_tx_timeout
                0x00000000200040f0        0x1 ../../../mesh/lib_51_MBTLE_CORE.a(transport.c.obj)
 *fill*         0x00000000200040f1        0x3 
 .bss.m_trs_sar_tx_timer
                0x00000000200040f4       0x18 ../../../mesh/lib_51_MBTLE_CORE.a(transport.c.obj)
 .bss.m_internal_event_fifo
                0x000000002000410c       0x14 ../../../mesh/lib_51_MBTLE_CORE.a(internal_event.c.obj)
 .bss.m_internal_event_initialized
                0x0000000020004120        0x1 ../../../mesh/lib_51_MBTLE_CORE.a(internal_event.c.obj)
 *fill*         0x0000000020004121        0x3 
 .bss.m_report_cb
                0x0000000020004124        0x4 ../../../mesh/lib_51_MBTLE_CORE.a(internal_event.c.obj)
 .bss.m_action_queue
                0x0000000020004128        0xc ../../../mesh/lib_51_MBTLE_CORE.a(flash_manager.c.obj)
 .bss.m_action_queue_buffer
                0x0000000020004134      0x104 ../../../mesh/lib_51_MBTLE_CORE.a(flash_manager.c.obj)
 .bss.m_action_state
                0x0000000020004238        0x1 ../../../mesh/lib_51_MBTLE_CORE.a(flash_manager.c.obj)
 *fill*         0x0000000020004239        0x3 
 .bss.m_memory_listener_queue
                0x000000002000423c        0x8 ../../../mesh/lib_51_MBTLE_CORE.a(flash_manager.c.obj)
 .bss.m_processing_flag
                0x0000000020004244        0x4 ../../../mesh/lib_51_MBTLE_CORE.a(flash_manager.c.obj)
 .bss.m_state   0x0000000020004248        0x1 ../../../mesh/lib_51_MBTLE_CORE.a(flash_manager.c.obj)
 *fill*         0x0000000020004249        0x1 
 .bss.m_token   0x000000002000424a        0x2 ../../../mesh/lib_51_MBTLE_CORE.a(flash_manager.c.obj)
 .bss.p_current.8667
                0x000000002000424c        0x4 ../../../mesh/lib_51_MBTLE_CORE.a(flash_manager.c.obj)
 .bss.result.8668
                0x0000000020004250        0x1 ../../../mesh/lib_51_MBTLE_CORE.a(flash_manager.c.obj)
 *fill*         0x0000000020004251        0x3 
 .bss.m_defrag  0x0000000020004254       0x1c ../../../mesh/lib_51_MBTLE_CORE.a(flash_manager_defrag.c.obj)
 .bss.m_token   0x0000000020004270        0x2 ../../../mesh/lib_51_MBTLE_CORE.a(flash_manager_defrag.c.obj)
 *fill*         0x0000000020004272        0x2 
 .bss.mp_recovery_area
                0x0000000020004274        0x4 ../../../mesh/lib_51_MBTLE_CORE.a(flash_manager_defrag.c.obj)
 .bss.p_null_ptr.7732
                0x0000000020004278        0x4 ../../../mesh/lib_51_MBTLE_CORE.a(flash_manager_defrag.c.obj)
 .bss.m_end_timer_triggered
                0x000000002000427c        0x1 ../../../mesh/lib_51_MBTLE_CORE.a(timeslot.c.obj)
 .bss.m_framework_initialized
                0x000000002000427d        0x1 ../../../mesh/lib_51_MBTLE_CORE.a(timeslot.c.obj)
 .bss.m_is_in_callback
                0x000000002000427e        0x1 ../../../mesh/lib_51_MBTLE_CORE.a(timeslot.c.obj)
 .bss.m_is_in_timeslot
                0x000000002000427f        0x1 ../../../mesh/lib_51_MBTLE_CORE.a(timeslot.c.obj)
 .bss.m_ret_param
                0x0000000020004280        0x8 ../../../mesh/lib_51_MBTLE_CORE.a(timeslot.c.obj)
 .bss.m_start_time
                0x0000000020004288        0x4 ../../../mesh/lib_51_MBTLE_CORE.a(timeslot.c.obj)
 .bss.m_timeslot_count
                0x000000002000428c        0x4 ../../../mesh/lib_51_MBTLE_CORE.a(timeslot.c.obj)
 .bss.m_timeslot_forced_command
                0x0000000020004290        0x1 ../../../mesh/lib_51_MBTLE_CORE.a(timeslot.c.obj)
 *fill*         0x0000000020004291        0x3 
 .bss.m_timeslot_length
                0x0000000020004294        0x4 ../../../mesh/lib_51_MBTLE_CORE.a(timeslot.c.obj)
 .bss.requested_extend_time.8330
                0x0000000020004298        0x4 ../../../mesh/lib_51_MBTLE_CORE.a(timeslot.c.obj)
 *fill*         0x000000002000429c        0x4 
 .bss.s_last_rtc_value.8302
                0x00000000200042a0        0x8 ../../../mesh/lib_51_MBTLE_CORE.a(timeslot.c.obj)
 .bss.m_128buf  0x00000000200042a8       0x10 ../../../mesh/lib_51_MBTLE_CORE.a(aes_cmac.c.obj)
 .bss.m_subkey1
                0x00000000200042b8       0x10 ../../../mesh/lib_51_MBTLE_CORE.a(aes_cmac.c.obj)
 .bss.m_subkey2
                0x00000000200042c8       0x10 ../../../mesh/lib_51_MBTLE_CORE.a(aes_cmac.c.obj)
 .bss.m_msg_cache
                0x00000000200042d8      0x100 ../../../mesh/lib_51_MBTLE_CORE.a(msg_cache.c.obj)
 .bss.m_msg_cache_head
                0x00000000200043d8        0x4 ../../../mesh/lib_51_MBTLE_CORE.a(msg_cache.c.obj)
 .bss.m_relay_check_cb
                0x00000000200043dc        0x4 ../../../mesh/lib_51_MBTLE_CORE.a(network.c.obj)
 .bss.m_relay_enable
                0x00000000200043e0        0x1 ../../../mesh/lib_51_MBTLE_CORE.a(network.c.obj)
 .bss.m_relay_retransmit_count
                0x00000000200043e1        0x1 ../../../mesh/lib_51_MBTLE_CORE.a(network.c.obj)
 .bss.m_cache_full
                0x00000000200043e2        0x1 ../../../mesh/lib_51_MBTLE_CORE.a(replay_cache.c.obj)
 .bss.m_cache_index
                0x00000000200043e3        0x1 ../../../mesh/lib_51_MBTLE_CORE.a(replay_cache.c.obj)
 .bss.m_replay_cache
                0x00000000200043e4      0x200 ../../../mesh/lib_51_MBTLE_CORE.a(replay_cache.c.obj)
 .bss.m_event_flag
                0x00000000200045e4        0x4 ../../../mesh/lib_51_MBTLE_CORE.a(mesh_flash.c.obj)
 .bss.m_suspended
                0x00000000200045e8        0x1 ../../../mesh/lib_51_MBTLE_CORE.a(mesh_flash.c.obj)
 *fill*         0x00000000200045e9        0x3 
 .bss.m_users   0x00000000200045ec      0x1d4 ../../../mesh/lib_51_MBTLE_CORE.a(mesh_flash.c.obj)
 .bss._acDownBuffer
                0x00000000200047c0       0x80 ../../../lib/rtt/lib_51_RTT_LIB.a(SEGGER_RTT.c.obj)
 .bss._acUpBuffer
                0x0000000020004840      0x400 ../../../lib/rtt/lib_51_RTT_LIB.a(SEGGER_RTT.c.obj)
 .bss.__malloc_free_list
                0x0000000020004c40        0x4 /usr/bin/../lib/gcc/arm-none-eabi/6.3.1/../../../../arm-none-eabi/lib/thumb/v6-m/libg_nano.a(lib_a-nano-mallocr.o)
                0x0000000020004c40                __malloc_free_list
 .bss.__malloc_sbrk_start
                0x0000000020004c44        0x4 /usr/bin/../lib/gcc/arm-none-eabi/6.3.1/../../../../arm-none-eabi/lib/thumb/v6-m/libg_nano.a(lib_a-nano-mallocr.o)
                0x0000000020004c44                __malloc_sbrk_start
 .bss.heap_end.4116
                0x0000000020004c48        0x4 /usr/bin/../lib/gcc/arm-none-eabi/6.3.1/../../../../arm-none-eabi/lib/thumb/v6-m/libnosys.a(sbrk.o)
 *(COMMON)
 COMMON         0x0000000020004c4c        0x8 CMakeFiles/51_light_control_server.dir/__/__/nrf_mesh_sdk.c.obj
                0x0000000020004c4c                nrf_nvic_state
 COMMON         0x0000000020004c54        0x4 ../../../mesh/lib_51_MBTLE_CORE.a(nrf_mesh.c.obj)
                0x0000000020004c54                m_assertion_handler
 COMMON         0x0000000020004c58       0x78 ../../../lib/rtt/lib_51_RTT_LIB.a(SEGGER_RTT.c.obj)
                0x0000000020004c58                _SEGGER_RTT
 COMMON         0x0000000020004cd0        0x4 /usr/bin/../lib/gcc/arm-none-eabi/6.3.1/../../../../arm-none-eabi/lib/thumb/v6-m/libg_nano.a(lib_a-reent.o)
                0x0000000020004cd0                errno
                0x0000000020004cd4                . = ALIGN (0x4)
                0x0000000020004cd4                __bss_end__ = .

.heap           0x0000000020004cd8       0x80
                0x0000000020004cd8                __HeapBase = .
                0x0000000020004cd8                __end__ = .
                0x0000000020004cd8                PROVIDE (end, .)
 *(.heap*)
 .heap          0x0000000020004cd8       0x80 CMakeFiles/51_light_control_server.dir/__/__/__/toolchain/gcc/gcc_startup_nrf51.S.obj
                0x0000000020004d58                __HeapLimit = .

.stack_dummy    0x0000000020004cd8      0x800
 *(.stack*)
 .stack         0x0000000020004cd8      0x800 CMakeFiles/51_light_control_server.dir/__/__/__/toolchain/gcc/gcc_startup_nrf51.S.obj
                0x0000000020007d00                __StackTop = (ORIGIN (RAM) + LENGTH (RAM))
                0x0000000020007500                __StackLimit = (__StackTop - SIZEOF (.stack_dummy))
                0x0000000020007d00                PROVIDE (__stack, __StackTop)
                0x0000000000000001                ASSERT ((__StackLimit >= __HeapLimit), region RAM overflowed with stack)
OUTPUT(51_light_control_server.elf elf32-littlearm)

.ARM.attributes
                0x0000000000000000       0x28
 .ARM.attributes
                0x0000000000000000       0x1e /usr/bin/../lib/gcc/arm-none-eabi/6.3.1/thumb/v6-m/crti.o
 .ARM.attributes
                0x000000000000001e       0x2c /usr/bin/../lib/gcc/arm-none-eabi/6.3.1/thumb/v6-m/crtbegin.o
 .ARM.attributes
                0x000000000000004a       0x1b /usr/bin/../lib/gcc/arm-none-eabi/6.3.1/../../../../arm-none-eabi/lib/thumb/v6-m/crt0.o
 .ARM.attributes
                0x0000000000000065       0x31 CMakeFiles/51_light_control_server.dir/src/main.c.obj
 .ARM.attributes
                0x0000000000000096       0x31 CMakeFiles/51_light_control_server.dir/__/__/__/mesh/src/prov/provisioning.c.obj
 .ARM.attributes
                0x00000000000000c7       0x31 CMakeFiles/51_light_control_server.dir/__/__/__/mesh/src/prov/nrf_mesh_prov.c.obj
 .ARM.attributes
                0x00000000000000f8       0x31 CMakeFiles/51_light_control_server.dir/__/__/__/mesh/src/prov/prov_bearer_adv.c.obj
 .ARM.attributes
                0x0000000000000129       0x31 CMakeFiles/51_light_control_server.dir/__/__/__/mesh/src/prov/prov_utils.c.obj
 .ARM.attributes
                0x000000000000015a       0x31 CMakeFiles/51_light_control_server.dir/__/__/__/mesh/src/prov/prov_beacon.c.obj
 .ARM.attributes
                0x000000000000018b       0x31 CMakeFiles/51_light_control_server.dir/__/__/__/mesh/src/access/access.c.obj
 .ARM.attributes
                0x00000000000001bc       0x31 CMakeFiles/51_light_control_server.dir/__/__/__/mesh/src/access/access_publish.c.obj
 .ARM.attributes
                0x00000000000001ed       0x31 CMakeFiles/51_light_control_server.dir/__/__/__/mesh/src/access/access_reliable.c.obj
 .ARM.attributes
                0x000000000000021e       0x31 CMakeFiles/51_light_control_server.dir/__/__/__/mesh/src/access/device_state_manager.c.obj
 .ARM.attributes
                0x000000000000024f       0x31 CMakeFiles/51_light_control_server.dir/__/__/__/mesh/src/access/nrf_mesh_node_config.c.obj
 .ARM.attributes
                0x0000000000000280       0x31 CMakeFiles/51_light_control_server.dir/__/__/__/mesh/models/config/src/config_server.c.obj
 .ARM.attributes
                0x00000000000002b1       0x31 CMakeFiles/51_light_control_server.dir/__/__/__/mesh/models/config/src/packed_index_list.c.obj
 .ARM.attributes
                0x00000000000002e2       0x31 CMakeFiles/51_light_control_server.dir/__/__/__/mesh/models/config/src/composition_data.c.obj
 .ARM.attributes
                0x0000000000000313       0x31 CMakeFiles/51_light_control_server.dir/__/__/nrf_mesh_sdk.c.obj
 .ARM.attributes
                0x0000000000000344       0x31 CMakeFiles/51_light_control_server.dir/__/__/hal/src/simple_hal.c.obj
 .ARM.attributes
                0x0000000000000375       0x31 CMakeFiles/51_light_control_server.dir/__/__/models/simple_on_off/src/simple_on_off_server.c.obj
 .ARM.attributes
                0x00000000000003a6       0x1b CMakeFiles/51_light_control_server.dir/__/__/__/toolchain/gcc/gcc_startup_nrf51.S.obj
 .ARM.attributes
                0x00000000000003c1       0x31 CMakeFiles/51_light_control_server.dir/__/__/__/toolchain/system_nrf51.c.obj
 .ARM.attributes
                0x00000000000003f2       0x31 ../../../mesh/lib_51_MBTLE_PB_ADV_EE.a(prov_provisionee.c.obj)
 .ARM.attributes
                0x0000000000000423       0x31 ../../../mesh/lib_51_MBTLE_CORE.a(nrf_mesh_weak.c.obj)
 .ARM.attributes
                0x0000000000000454       0x31 ../../../mesh/lib_51_MBTLE_CORE.a(bearer_adv.c.obj)
 .ARM.attributes
                0x0000000000000485       0x31 ../../../mesh/lib_51_MBTLE_CORE.a(fifo.c.obj)
 .ARM.attributes
                0x00000000000004b6       0x31 ../../../mesh/lib_51_MBTLE_CORE.a(packet_mgr.c.obj)
 .ARM.attributes
                0x00000000000004e7       0x31 ../../../mesh/lib_51_MBTLE_CORE.a(radio.c.obj)
 .ARM.attributes
                0x0000000000000518       0x31 ../../../mesh/lib_51_MBTLE_CORE.a(timer.c.obj)
 .ARM.attributes
                0x0000000000000549       0x31 ../../../mesh/lib_51_MBTLE_CORE.a(timer_scheduler.c.obj)
 .ARM.attributes
                0x000000000000057a       0x31 ../../../mesh/lib_51_MBTLE_CORE.a(beacon.c.obj)
 .ARM.attributes
                0x00000000000005ab       0x31 ../../../mesh/lib_51_MBTLE_CORE.a(bearer.c.obj)
 .ARM.attributes
                0x00000000000005dc       0x31 ../../../mesh/lib_51_MBTLE_CORE.a(bearer_event.c.obj)
 .ARM.attributes
                0x000000000000060d       0x31 ../../../mesh/lib_51_MBTLE_CORE.a(nrf_mesh_configure.c.obj)
 .ARM.attributes
                0x000000000000063e       0x31 ../../../mesh/lib_51_MBTLE_CORE.a(enc.c.obj)
 .ARM.attributes
                0x000000000000066f       0x31 ../../../mesh/lib_51_MBTLE_CORE.a(event.c.obj)
 .ARM.attributes
                0x00000000000006a0       0x31 ../../../mesh/lib_51_MBTLE_CORE.a(log.c.obj)
 .ARM.attributes
                0x00000000000006d1       0x31 ../../../mesh/lib_51_MBTLE_CORE.a(net_beacon.c.obj)
 .ARM.attributes
                0x0000000000000702       0x31 ../../../mesh/lib_51_MBTLE_CORE.a(net_state.c.obj)
 .ARM.attributes
                0x0000000000000733       0x31 ../../../mesh/lib_51_MBTLE_CORE.a(nrf_mesh.c.obj)
 .ARM.attributes
                0x0000000000000764       0x31 ../../../mesh/lib_51_MBTLE_CORE.a(nrf_mesh_keygen.c.obj)
 .ARM.attributes
                0x0000000000000795       0x31 ../../../mesh/lib_51_MBTLE_CORE.a(nrf_mesh_utils.c.obj)
 .ARM.attributes
                0x00000000000007c6       0x31 ../../../mesh/lib_51_MBTLE_CORE.a(nrf_mesh_opt.c.obj)
 .ARM.attributes
                0x00000000000007f7       0x31 ../../../mesh/lib_51_MBTLE_CORE.a(radio_config.c.obj)
 .ARM.attributes
                0x0000000000000828       0x31 ../../../mesh/lib_51_MBTLE_CORE.a(rand.c.obj)
 .ARM.attributes
                0x0000000000000859       0x31 ../../../mesh/lib_51_MBTLE_CORE.a(ticker.c.obj)
 .ARM.attributes
                0x000000000000088a       0x31 ../../../mesh/lib_51_MBTLE_CORE.a(transport.c.obj)
 .ARM.attributes
                0x00000000000008bb       0x31 ../../../mesh/lib_51_MBTLE_CORE.a(internal_event.c.obj)
 .ARM.attributes
                0x00000000000008ec       0x31 ../../../mesh/lib_51_MBTLE_CORE.a(flash_manager.c.obj)
 .ARM.attributes
                0x000000000000091d       0x31 ../../../mesh/lib_51_MBTLE_CORE.a(flash_manager_defrag.c.obj)
 .ARM.attributes
                0x000000000000094e       0x31 ../../../mesh/lib_51_MBTLE_CORE.a(flash_manager_internal.c.obj)
 .ARM.attributes
                0x000000000000097f       0x31 ../../../mesh/lib_51_MBTLE_CORE.a(aes.c.obj)
 .ARM.attributes
                0x00000000000009b0       0x31 ../../../mesh/lib_51_MBTLE_CORE.a(queue.c.obj)
 .ARM.attributes
                0x00000000000009e1       0x31 ../../../mesh/lib_51_MBTLE_CORE.a(timeslot.c.obj)
 .ARM.attributes
                0x0000000000000a12       0x31 ../../../mesh/lib_51_MBTLE_CORE.a(aes_cmac.c.obj)
 .ARM.attributes
                0x0000000000000a43       0x31 ../../../mesh/lib_51_MBTLE_CORE.a(ccm_soft.c.obj)
 .ARM.attributes
                0x0000000000000a74       0x31 ../../../mesh/lib_51_MBTLE_CORE.a(msg_cache.c.obj)
 .ARM.attributes
                0x0000000000000aa5       0x31 ../../../mesh/lib_51_MBTLE_CORE.a(network.c.obj)
 .ARM.attributes
                0x0000000000000ad6       0x31 ../../../mesh/lib_51_MBTLE_CORE.a(packet.c.obj)
 .ARM.attributes
                0x0000000000000b07       0x31 ../../../mesh/lib_51_MBTLE_CORE.a(packet_buffer.c.obj)
 .ARM.attributes
                0x0000000000000b38       0x31 ../../../mesh/lib_51_MBTLE_CORE.a(replay_cache.c.obj)
 .ARM.attributes
                0x0000000000000b69       0x31 ../../../mesh/lib_51_MBTLE_CORE.a(mesh_flash.c.obj)
 .ARM.attributes
                0x0000000000000b9a       0x31 ../../../mesh/lib_51_MBTLE_CORE.a(nrf_flash.c.obj)
 .ARM.attributes
                0x0000000000000bcb       0x31 ../../../mesh/lib_51_MBTLE_CORE.a(msqueue.c.obj)
 .ARM.attributes
                0x0000000000000bfc       0x31 ../../../lib/micro-ecc/lib_51_UECC_LIB.a(uECC.c.obj)
 .ARM.attributes
                0x0000000000000c2d       0x31 ../../../lib/rtt/lib_51_RTT_LIB.a(SEGGER_RTT.c.obj)
 .ARM.attributes
                0x0000000000000c5e       0x31 ../../../lib/rtt/lib_51_RTT_LIB.a(SEGGER_RTT_printf.c.obj)
 .ARM.attributes
                0x0000000000000c8f       0x1e /usr/bin/../lib/gcc/arm-none-eabi/6.3.1/thumb/v6-m/libgcc.a(_udivsi3.o)
 .ARM.attributes
                0x0000000000000cad       0x1e /usr/bin/../lib/gcc/arm-none-eabi/6.3.1/thumb/v6-m/libgcc.a(_divsi3.o)
 .ARM.attributes
                0x0000000000000ccb       0x1e /usr/bin/../lib/gcc/arm-none-eabi/6.3.1/thumb/v6-m/libgcc.a(_dvmd_tls.o)
 .ARM.attributes
                0x0000000000000ce9       0x2c /usr/bin/../lib/gcc/arm-none-eabi/6.3.1/thumb/v6-m/libgcc.a(_muldi3.o)
 .ARM.attributes
                0x0000000000000d15       0x2c /usr/bin/../lib/gcc/arm-none-eabi/6.3.1/../../../../arm-none-eabi/lib/thumb/v6-m/libg_nano.a(lib_a-exit.o)
 .ARM.attributes
                0x0000000000000d41       0x2c /usr/bin/../lib/gcc/arm-none-eabi/6.3.1/../../../../arm-none-eabi/lib/thumb/v6-m/libg_nano.a(lib_a-impure.o)
 .ARM.attributes
                0x0000000000000d6d       0x2c /usr/bin/../lib/gcc/arm-none-eabi/6.3.1/../../../../arm-none-eabi/lib/thumb/v6-m/libg_nano.a(lib_a-init.o)
 .ARM.attributes
                0x0000000000000d99       0x2c /usr/bin/../lib/gcc/arm-none-eabi/6.3.1/../../../../arm-none-eabi/lib/thumb/v6-m/libg_nano.a(lib_a-malloc.o)
 .ARM.attributes
                0x0000000000000dc5       0x2c /usr/bin/../lib/gcc/arm-none-eabi/6.3.1/../../../../arm-none-eabi/lib/thumb/v6-m/libg_nano.a(lib_a-memcmp.o)
 .ARM.attributes
                0x0000000000000df1       0x2c /usr/bin/../lib/gcc/arm-none-eabi/6.3.1/../../../../arm-none-eabi/lib/thumb/v6-m/libg_nano.a(lib_a-memcpy-stub.o)
 .ARM.attributes
                0x0000000000000e1d       0x2c /usr/bin/../lib/gcc/arm-none-eabi/6.3.1/../../../../arm-none-eabi/lib/thumb/v6-m/libg_nano.a(lib_a-memset.o)
 .ARM.attributes
                0x0000000000000e49       0x2c /usr/bin/../lib/gcc/arm-none-eabi/6.3.1/../../../../arm-none-eabi/lib/thumb/v6-m/libg_nano.a(lib_a-nano-freer.o)
 .ARM.attributes
                0x0000000000000e75       0x2c /usr/bin/../lib/gcc/arm-none-eabi/6.3.1/../../../../arm-none-eabi/lib/thumb/v6-m/libg_nano.a(lib_a-nano-mallocr.o)
 .ARM.attributes
                0x0000000000000ea1       0x2c /usr/bin/../lib/gcc/arm-none-eabi/6.3.1/../../../../arm-none-eabi/lib/thumb/v6-m/libg_nano.a(lib_a-sbrkr.o)
 .ARM.attributes
                0x0000000000000ecd       0x2c /usr/bin/../lib/gcc/arm-none-eabi/6.3.1/../../../../arm-none-eabi/lib/thumb/v6-m/libg_nano.a(lib_a-strcpy.o)
 .ARM.attributes
                0x0000000000000ef9       0x1c /usr/bin/../lib/gcc/arm-none-eabi/6.3.1/../../../../arm-none-eabi/lib/thumb/v6-m/libg_nano.a(lib_a-strlen.o)
 .ARM.attributes
                0x0000000000000f15       0x2c /usr/bin/../lib/gcc/arm-none-eabi/6.3.1/../../../../arm-none-eabi/lib/thumb/v6-m/libg_nano.a(lib_a-strrchr.o)
 .ARM.attributes
                0x0000000000000f41       0x2c /usr/bin/../lib/gcc/arm-none-eabi/6.3.1/../../../../arm-none-eabi/lib/thumb/v6-m/libg_nano.a(lib_a-mlock.o)
 .ARM.attributes
                0x0000000000000f6d       0x2c /usr/bin/../lib/gcc/arm-none-eabi/6.3.1/../../../../arm-none-eabi/lib/thumb/v6-m/libg_nano.a(lib_a-reent.o)
 .ARM.attributes
                0x0000000000000f99       0x2c /usr/bin/../lib/gcc/arm-none-eabi/6.3.1/../../../../arm-none-eabi/lib/thumb/v6-m/libg_nano.a(lib_a-strchr.o)
 .ARM.attributes
                0x0000000000000fc5       0x2c /usr/bin/../lib/gcc/arm-none-eabi/6.3.1/thumb/v6-m/crtend.o
 .ARM.attributes
                0x0000000000000ff1       0x1e /usr/bin/../lib/gcc/arm-none-eabi/6.3.1/thumb/v6-m/crtn.o
 .ARM.attributes
                0x000000000000100f       0x2c /usr/bin/../lib/gcc/arm-none-eabi/6.3.1/../../../../arm-none-eabi/lib/thumb/v6-m/libnosys.a(sbrk.o)
 .ARM.attributes
                0x000000000000103b       0x2c /usr/bin/../lib/gcc/arm-none-eabi/6.3.1/../../../../arm-none-eabi/lib/thumb/v6-m/libnosys.a(_exit.o)

.comment        0x0000000000000000       0x7f
 .comment       0x0000000000000000       0x7f CMakeFiles/51_light_control_server.dir/src/main.c.obj
                                         0x80 (size before relaxing)
 .comment       0x000000000000007f       0x80 CMakeFiles/51_light_control_server.dir/__/__/__/mesh/src/prov/provisioning.c.obj
 .comment       0x000000000000007f       0x80 CMakeFiles/51_light_control_server.dir/__/__/__/mesh/src/prov/nrf_mesh_prov.c.obj
 .comment       0x000000000000007f       0x80 CMakeFiles/51_light_control_server.dir/__/__/__/mesh/src/prov/prov_bearer_adv.c.obj
 .comment       0x000000000000007f       0x80 CMakeFiles/51_light_control_server.dir/__/__/__/mesh/src/prov/prov_utils.c.obj
 .comment       0x000000000000007f       0x80 CMakeFiles/51_light_control_server.dir/__/__/__/mesh/src/prov/prov_beacon.c.obj
 .comment       0x000000000000007f       0x80 CMakeFiles/51_light_control_server.dir/__/__/__/mesh/src/access/access.c.obj
 .comment       0x000000000000007f       0x80 CMakeFiles/51_light_control_server.dir/__/__/__/mesh/src/access/access_publish.c.obj
 .comment       0x000000000000007f       0x80 CMakeFiles/51_light_control_server.dir/__/__/__/mesh/src/access/access_reliable.c.obj
 .comment       0x000000000000007f       0x80 CMakeFiles/51_light_control_server.dir/__/__/__/mesh/src/access/device_state_manager.c.obj
 .comment       0x000000000000007f       0x80 CMakeFiles/51_light_control_server.dir/__/__/__/mesh/src/access/nrf_mesh_node_config.c.obj
 .comment       0x000000000000007f       0x80 CMakeFiles/51_light_control_server.dir/__/__/__/mesh/models/config/src/config_server.c.obj
 .comment       0x000000000000007f       0x80 CMakeFiles/51_light_control_server.dir/__/__/__/mesh/models/config/src/packed_index_list.c.obj
 .comment       0x000000000000007f       0x80 CMakeFiles/51_light_control_server.dir/__/__/__/mesh/models/config/src/composition_data.c.obj
 .comment       0x000000000000007f       0x80 CMakeFiles/51_light_control_server.dir/__/__/nrf_mesh_sdk.c.obj
 .comment       0x000000000000007f       0x80 CMakeFiles/51_light_control_server.dir/__/__/hal/src/simple_hal.c.obj
 .comment       0x000000000000007f       0x80 CMakeFiles/51_light_control_server.dir/__/__/models/simple_on_off/src/simple_on_off_server.c.obj
 .comment       0x000000000000007f       0x80 CMakeFiles/51_light_control_server.dir/__/__/__/toolchain/system_nrf51.c.obj
 .comment       0x000000000000007f       0x80 ../../../mesh/lib_51_MBTLE_PB_ADV_EE.a(prov_provisionee.c.obj)
 .comment       0x000000000000007f       0x80 ../../../mesh/lib_51_MBTLE_CORE.a(nrf_mesh_weak.c.obj)
 .comment       0x000000000000007f       0x80 ../../../mesh/lib_51_MBTLE_CORE.a(bearer_adv.c.obj)
 .comment       0x000000000000007f       0x80 ../../../mesh/lib_51_MBTLE_CORE.a(fifo.c.obj)
 .comment       0x000000000000007f       0x80 ../../../mesh/lib_51_MBTLE_CORE.a(packet_mgr.c.obj)
 .comment       0x000000000000007f       0x80 ../../../mesh/lib_51_MBTLE_CORE.a(radio.c.obj)
 .comment       0x000000000000007f       0x80 ../../../mesh/lib_51_MBTLE_CORE.a(timer.c.obj)
 .comment       0x000000000000007f       0x80 ../../../mesh/lib_51_MBTLE_CORE.a(timer_scheduler.c.obj)
 .comment       0x000000000000007f       0x80 ../../../mesh/lib_51_MBTLE_CORE.a(beacon.c.obj)
 .comment       0x000000000000007f       0x80 ../../../mesh/lib_51_MBTLE_CORE.a(bearer.c.obj)
 .comment       0x000000000000007f       0x80 ../../../mesh/lib_51_MBTLE_CORE.a(bearer_event.c.obj)
 .comment       0x000000000000007f       0x80 ../../../mesh/lib_51_MBTLE_CORE.a(nrf_mesh_configure.c.obj)
 .comment       0x000000000000007f       0x80 ../../../mesh/lib_51_MBTLE_CORE.a(enc.c.obj)
 .comment       0x000000000000007f       0x80 ../../../mesh/lib_51_MBTLE_CORE.a(event.c.obj)
 .comment       0x000000000000007f       0x80 ../../../mesh/lib_51_MBTLE_CORE.a(log.c.obj)
 .comment       0x000000000000007f       0x80 ../../../mesh/lib_51_MBTLE_CORE.a(net_beacon.c.obj)
 .comment       0x000000000000007f       0x80 ../../../mesh/lib_51_MBTLE_CORE.a(net_state.c.obj)
 .comment       0x000000000000007f       0x80 ../../../mesh/lib_51_MBTLE_CORE.a(nrf_mesh.c.obj)
 .comment       0x000000000000007f       0x80 ../../../mesh/lib_51_MBTLE_CORE.a(nrf_mesh_keygen.c.obj)
 .comment       0x000000000000007f       0x80 ../../../mesh/lib_51_MBTLE_CORE.a(nrf_mesh_utils.c.obj)
 .comment       0x000000000000007f       0x80 ../../../mesh/lib_51_MBTLE_CORE.a(nrf_mesh_opt.c.obj)
 .comment       0x000000000000007f       0x80 ../../../mesh/lib_51_MBTLE_CORE.a(radio_config.c.obj)
 .comment       0x000000000000007f       0x80 ../../../mesh/lib_51_MBTLE_CORE.a(rand.c.obj)
 .comment       0x000000000000007f       0x80 ../../../mesh/lib_51_MBTLE_CORE.a(ticker.c.obj)
 .comment       0x000000000000007f       0x80 ../../../mesh/lib_51_MBTLE_CORE.a(transport.c.obj)
 .comment       0x000000000000007f       0x80 ../../../mesh/lib_51_MBTLE_CORE.a(internal_event.c.obj)
 .comment       0x000000000000007f       0x80 ../../../mesh/lib_51_MBTLE_CORE.a(flash_manager.c.obj)
 .comment       0x000000000000007f       0x80 ../../../mesh/lib_51_MBTLE_CORE.a(flash_manager_defrag.c.obj)
 .comment       0x000000000000007f       0x80 ../../../mesh/lib_51_MBTLE_CORE.a(flash_manager_internal.c.obj)
 .comment       0x000000000000007f       0x80 ../../../mesh/lib_51_MBTLE_CORE.a(aes.c.obj)
 .comment       0x000000000000007f       0x80 ../../../mesh/lib_51_MBTLE_CORE.a(queue.c.obj)
 .comment       0x000000000000007f       0x80 ../../../mesh/lib_51_MBTLE_CORE.a(timeslot.c.obj)
 .comment       0x000000000000007f       0x80 ../../../mesh/lib_51_MBTLE_CORE.a(aes_cmac.c.obj)
 .comment       0x000000000000007f       0x80 ../../../mesh/lib_51_MBTLE_CORE.a(ccm_soft.c.obj)
 .comment       0x000000000000007f       0x80 ../../../mesh/lib_51_MBTLE_CORE.a(msg_cache.c.obj)
 .comment       0x000000000000007f       0x80 ../../../mesh/lib_51_MBTLE_CORE.a(network.c.obj)
 .comment       0x000000000000007f       0x80 ../../../mesh/lib_51_MBTLE_CORE.a(packet.c.obj)
 .comment       0x000000000000007f       0x80 ../../../mesh/lib_51_MBTLE_CORE.a(packet_buffer.c.obj)
 .comment       0x000000000000007f       0x80 ../../../mesh/lib_51_MBTLE_CORE.a(replay_cache.c.obj)
 .comment       0x000000000000007f       0x80 ../../../mesh/lib_51_MBTLE_CORE.a(mesh_flash.c.obj)
 .comment       0x000000000000007f       0x80 ../../../mesh/lib_51_MBTLE_CORE.a(nrf_flash.c.obj)
 .comment       0x000000000000007f       0x80 ../../../mesh/lib_51_MBTLE_CORE.a(msqueue.c.obj)
 .comment       0x000000000000007f       0x80 ../../../lib/micro-ecc/lib_51_UECC_LIB.a(uECC.c.obj)
 .comment       0x000000000000007f       0x80 ../../../lib/rtt/lib_51_RTT_LIB.a(SEGGER_RTT.c.obj)
 .comment       0x000000000000007f       0x80 ../../../lib/rtt/lib_51_RTT_LIB.a(SEGGER_RTT_printf.c.obj)

.debug_info     0x0000000000000000    0x67c42
 .debug_info    0x0000000000000000     0x1331 CMakeFiles/51_light_control_server.dir/src/main.c.obj
 .debug_info    0x0000000000001331     0x1fdb CMakeFiles/51_light_control_server.dir/__/__/__/mesh/src/prov/provisioning.c.obj
 .debug_info    0x000000000000330c     0x19e0 CMakeFiles/51_light_control_server.dir/__/__/__/mesh/src/prov/nrf_mesh_prov.c.obj
 .debug_info    0x0000000000004cec     0x388b CMakeFiles/51_light_control_server.dir/__/__/__/mesh/src/prov/prov_bearer_adv.c.obj
 .debug_info    0x0000000000008577     0x20fc CMakeFiles/51_light_control_server.dir/__/__/__/mesh/src/prov/prov_utils.c.obj
 .debug_info    0x000000000000a673     0x1a54 CMakeFiles/51_light_control_server.dir/__/__/__/mesh/src/prov/prov_beacon.c.obj
 .debug_info    0x000000000000c0c7     0x4765 CMakeFiles/51_light_control_server.dir/__/__/__/mesh/src/access/access.c.obj
 .debug_info    0x000000000001082c     0x1131 CMakeFiles/51_light_control_server.dir/__/__/__/mesh/src/access/access_publish.c.obj
 .debug_info    0x000000000001195d     0x14a3 CMakeFiles/51_light_control_server.dir/__/__/__/mesh/src/access/access_reliable.c.obj
 .debug_info    0x0000000000012e00     0x5a8e CMakeFiles/51_light_control_server.dir/__/__/__/mesh/src/access/device_state_manager.c.obj
 .debug_info    0x000000000001888e     0x277f CMakeFiles/51_light_control_server.dir/__/__/__/mesh/src/access/nrf_mesh_node_config.c.obj
 .debug_info    0x000000000001b00d     0x5a55 CMakeFiles/51_light_control_server.dir/__/__/__/mesh/models/config/src/config_server.c.obj
 .debug_info    0x0000000000020a62      0x149 CMakeFiles/51_light_control_server.dir/__/__/__/mesh/models/config/src/packed_index_list.c.obj
 .debug_info    0x0000000000020bab      0xe4f CMakeFiles/51_light_control_server.dir/__/__/__/mesh/models/config/src/composition_data.c.obj
 .debug_info    0x00000000000219fa     0x2e53 CMakeFiles/51_light_control_server.dir/__/__/nrf_mesh_sdk.c.obj
 .debug_info    0x000000000002484d      0x35d CMakeFiles/51_light_control_server.dir/__/__/hal/src/simple_hal.c.obj
 .debug_info    0x0000000000024baa      0x8c1 CMakeFiles/51_light_control_server.dir/__/__/models/simple_on_off/src/simple_on_off_server.c.obj
 .debug_info    0x000000000002546b       0xcc CMakeFiles/51_light_control_server.dir/__/__/__/toolchain/gcc/gcc_startup_nrf51.S.obj
 .debug_info    0x0000000000025537      0x1e1 CMakeFiles/51_light_control_server.dir/__/__/__/toolchain/system_nrf51.c.obj
 .debug_info    0x0000000000025718     0x3399 ../../../mesh/lib_51_MBTLE_PB_ADV_EE.a(prov_provisionee.c.obj)
 .debug_info    0x0000000000028ab1      0x924 ../../../mesh/lib_51_MBTLE_CORE.a(nrf_mesh_weak.c.obj)
 .debug_info    0x00000000000293d5     0x3587 ../../../mesh/lib_51_MBTLE_CORE.a(bearer_adv.c.obj)
 .debug_info    0x000000000002c95c      0xc92 ../../../mesh/lib_51_MBTLE_CORE.a(fifo.c.obj)
 .debug_info    0x000000000002d5ee     0x115b ../../../mesh/lib_51_MBTLE_CORE.a(packet_mgr.c.obj)
 .debug_info    0x000000000002e749     0x18e9 ../../../mesh/lib_51_MBTLE_CORE.a(radio.c.obj)
 .debug_info    0x0000000000030032      0xbbe ../../../mesh/lib_51_MBTLE_CORE.a(timer.c.obj)
 .debug_info    0x0000000000030bf0     0x10aa ../../../mesh/lib_51_MBTLE_CORE.a(timer_scheduler.c.obj)
 .debug_info    0x0000000000031c9a     0x151c ../../../mesh/lib_51_MBTLE_CORE.a(beacon.c.obj)
 .debug_info    0x00000000000331b6     0x1ee8 ../../../mesh/lib_51_MBTLE_CORE.a(bearer.c.obj)
 .debug_info    0x000000000003509e     0x14cf ../../../mesh/lib_51_MBTLE_CORE.a(bearer_event.c.obj)
 .debug_info    0x000000000003656d      0xb9e ../../../mesh/lib_51_MBTLE_CORE.a(nrf_mesh_configure.c.obj)
 .debug_info    0x000000000003710b     0x1607 ../../../mesh/lib_51_MBTLE_CORE.a(enc.c.obj)
 .debug_info    0x0000000000038712     0x1148 ../../../mesh/lib_51_MBTLE_CORE.a(event.c.obj)
 .debug_info    0x000000000003985a      0xe12 ../../../mesh/lib_51_MBTLE_CORE.a(log.c.obj)
 .debug_info    0x000000000003a66c     0x1268 ../../../mesh/lib_51_MBTLE_CORE.a(net_beacon.c.obj)
 .debug_info    0x000000000003b8d4     0x25f5 ../../../mesh/lib_51_MBTLE_CORE.a(net_state.c.obj)
 .debug_info    0x000000000003dec9     0x3b2c ../../../mesh/lib_51_MBTLE_CORE.a(nrf_mesh.c.obj)
 .debug_info    0x00000000000419f5      0xcfc ../../../mesh/lib_51_MBTLE_CORE.a(nrf_mesh_keygen.c.obj)
 .debug_info    0x00000000000426f1      0xa5f ../../../mesh/lib_51_MBTLE_CORE.a(nrf_mesh_utils.c.obj)
 .debug_info    0x0000000000043150      0xbb4 ../../../mesh/lib_51_MBTLE_CORE.a(nrf_mesh_opt.c.obj)
 .debug_info    0x0000000000043d04      0x854 ../../../mesh/lib_51_MBTLE_CORE.a(radio_config.c.obj)
 .debug_info    0x0000000000044558      0x41e ../../../mesh/lib_51_MBTLE_CORE.a(rand.c.obj)
 .debug_info    0x0000000000044976      0x204 ../../../mesh/lib_51_MBTLE_CORE.a(ticker.c.obj)
 .debug_info    0x0000000000044b7a     0x6fb9 ../../../mesh/lib_51_MBTLE_CORE.a(transport.c.obj)
 .debug_info    0x000000000004bb33      0xc28 ../../../mesh/lib_51_MBTLE_CORE.a(internal_event.c.obj)
 .debug_info    0x000000000004c75b     0x3a47 ../../../mesh/lib_51_MBTLE_CORE.a(flash_manager.c.obj)
 .debug_info    0x00000000000501a2     0x248f ../../../mesh/lib_51_MBTLE_CORE.a(flash_manager_defrag.c.obj)
 .debug_info    0x0000000000052631      0xb72 ../../../mesh/lib_51_MBTLE_CORE.a(flash_manager_internal.c.obj)
 .debug_info    0x00000000000531a3      0xd90 ../../../mesh/lib_51_MBTLE_CORE.a(aes.c.obj)
 .debug_info    0x0000000000053f33      0xadb ../../../mesh/lib_51_MBTLE_CORE.a(queue.c.obj)
 .debug_info    0x0000000000054a0e     0x1aef ../../../mesh/lib_51_MBTLE_CORE.a(timeslot.c.obj)
 .debug_info    0x00000000000564fd      0xe95 ../../../mesh/lib_51_MBTLE_CORE.a(aes_cmac.c.obj)
 .debug_info    0x0000000000057392     0x114a ../../../mesh/lib_51_MBTLE_CORE.a(ccm_soft.c.obj)
 .debug_info    0x00000000000584dc      0xb4d ../../../mesh/lib_51_MBTLE_CORE.a(msg_cache.c.obj)
 .debug_info    0x0000000000059029     0x23ad ../../../mesh/lib_51_MBTLE_CORE.a(network.c.obj)
 .debug_info    0x000000000005b3d6      0xadf ../../../mesh/lib_51_MBTLE_CORE.a(packet.c.obj)
 .debug_info    0x000000000005beb5     0x193b ../../../mesh/lib_51_MBTLE_CORE.a(packet_buffer.c.obj)
 .debug_info    0x000000000005d7f0      0xae5 ../../../mesh/lib_51_MBTLE_CORE.a(replay_cache.c.obj)
 .debug_info    0x000000000005e2d5     0x14e5 ../../../mesh/lib_51_MBTLE_CORE.a(mesh_flash.c.obj)
 .debug_info    0x000000000005f7ba      0xad9 ../../../mesh/lib_51_MBTLE_CORE.a(nrf_flash.c.obj)
 .debug_info    0x0000000000060293      0xcdb ../../../mesh/lib_51_MBTLE_CORE.a(msqueue.c.obj)
 .debug_info    0x0000000000060f6e     0x4488 ../../../lib/micro-ecc/lib_51_UECC_LIB.a(uECC.c.obj)
 .debug_info    0x00000000000653f6     0x18aa ../../../lib/rtt/lib_51_RTT_LIB.a(SEGGER_RTT.c.obj)
 .debug_info    0x0000000000066ca0      0xfa2 ../../../lib/rtt/lib_51_RTT_LIB.a(SEGGER_RTT_printf.c.obj)

.debug_abbrev   0x0000000000000000     0xd2fe
 .debug_abbrev  0x0000000000000000      0x2b0 CMakeFiles/51_light_control_server.dir/src/main.c.obj
 .debug_abbrev  0x00000000000002b0      0x32e CMakeFiles/51_light_control_server.dir/__/__/__/mesh/src/prov/provisioning.c.obj
 .debug_abbrev  0x00000000000005de      0x2a9 CMakeFiles/51_light_control_server.dir/__/__/__/mesh/src/prov/nrf_mesh_prov.c.obj
 .debug_abbrev  0x0000000000000887      0x4f3 CMakeFiles/51_light_control_server.dir/__/__/__/mesh/src/prov/prov_bearer_adv.c.obj
 .debug_abbrev  0x0000000000000d7a      0x3c8 CMakeFiles/51_light_control_server.dir/__/__/__/mesh/src/prov/prov_utils.c.obj
 .debug_abbrev  0x0000000000001142      0x322 CMakeFiles/51_light_control_server.dir/__/__/__/mesh/src/prov/prov_beacon.c.obj
 .debug_abbrev  0x0000000000001464      0x63c CMakeFiles/51_light_control_server.dir/__/__/__/mesh/src/access/access.c.obj
 .debug_abbrev  0x0000000000001aa0      0x3ef CMakeFiles/51_light_control_server.dir/__/__/__/mesh/src/access/access_publish.c.obj
 .debug_abbrev  0x0000000000001e8f      0x3e7 CMakeFiles/51_light_control_server.dir/__/__/__/mesh/src/access/access_reliable.c.obj
 .debug_abbrev  0x0000000000002276      0x59b CMakeFiles/51_light_control_server.dir/__/__/__/mesh/src/access/device_state_manager.c.obj
 .debug_abbrev  0x0000000000002811      0x526 CMakeFiles/51_light_control_server.dir/__/__/__/mesh/src/access/nrf_mesh_node_config.c.obj
 .debug_abbrev  0x0000000000002d37      0x4d8 CMakeFiles/51_light_control_server.dir/__/__/__/mesh/models/config/src/config_server.c.obj
 .debug_abbrev  0x000000000000320f       0xad CMakeFiles/51_light_control_server.dir/__/__/__/mesh/models/config/src/packed_index_list.c.obj
 .debug_abbrev  0x00000000000032bc      0x2d2 CMakeFiles/51_light_control_server.dir/__/__/__/mesh/models/config/src/composition_data.c.obj
 .debug_abbrev  0x000000000000358e      0x482 CMakeFiles/51_light_control_server.dir/__/__/nrf_mesh_sdk.c.obj
 .debug_abbrev  0x0000000000003a10      0x1bb CMakeFiles/51_light_control_server.dir/__/__/hal/src/simple_hal.c.obj
 .debug_abbrev  0x0000000000003bcb      0x226 CMakeFiles/51_light_control_server.dir/__/__/models/simple_on_off/src/simple_on_off_server.c.obj
 .debug_abbrev  0x0000000000003df1       0x14 CMakeFiles/51_light_control_server.dir/__/__/__/toolchain/gcc/gcc_startup_nrf51.S.obj
 .debug_abbrev  0x0000000000003e05      0x106 CMakeFiles/51_light_control_server.dir/__/__/__/toolchain/system_nrf51.c.obj
 .debug_abbrev  0x0000000000003f0b      0x46f ../../../mesh/lib_51_MBTLE_PB_ADV_EE.a(prov_provisionee.c.obj)
 .debug_abbrev  0x000000000000437a      0x1a7 ../../../mesh/lib_51_MBTLE_CORE.a(nrf_mesh_weak.c.obj)
 .debug_abbrev  0x0000000000004521      0x4d2 ../../../mesh/lib_51_MBTLE_CORE.a(bearer_adv.c.obj)
 .debug_abbrev  0x00000000000049f3      0x2d8 ../../../mesh/lib_51_MBTLE_CORE.a(fifo.c.obj)
 .debug_abbrev  0x0000000000004ccb      0x3e2 ../../../mesh/lib_51_MBTLE_CORE.a(packet_mgr.c.obj)
 .debug_abbrev  0x00000000000050ad      0x40b ../../../mesh/lib_51_MBTLE_CORE.a(radio.c.obj)
 .debug_abbrev  0x00000000000054b8      0x2d3 ../../../mesh/lib_51_MBTLE_CORE.a(timer.c.obj)
 .debug_abbrev  0x000000000000578b      0x3d1 ../../../mesh/lib_51_MBTLE_CORE.a(timer_scheduler.c.obj)
 .debug_abbrev  0x0000000000005b5c      0x365 ../../../mesh/lib_51_MBTLE_CORE.a(beacon.c.obj)
 .debug_abbrev  0x0000000000005ec1      0x454 ../../../mesh/lib_51_MBTLE_CORE.a(bearer.c.obj)
 .debug_abbrev  0x0000000000006315      0x49e ../../../mesh/lib_51_MBTLE_CORE.a(bearer_event.c.obj)
 .debug_abbrev  0x00000000000067b3      0x240 ../../../mesh/lib_51_MBTLE_CORE.a(nrf_mesh_configure.c.obj)
 .debug_abbrev  0x00000000000069f3      0x324 ../../../mesh/lib_51_MBTLE_CORE.a(enc.c.obj)
 .debug_abbrev  0x0000000000006d17      0x2ab ../../../mesh/lib_51_MBTLE_CORE.a(event.c.obj)
 .debug_abbrev  0x0000000000006fc2      0x24e ../../../mesh/lib_51_MBTLE_CORE.a(log.c.obj)
 .debug_abbrev  0x0000000000007210      0x3b5 ../../../mesh/lib_51_MBTLE_CORE.a(net_beacon.c.obj)
 .debug_abbrev  0x00000000000075c5      0x4f5 ../../../mesh/lib_51_MBTLE_CORE.a(net_state.c.obj)
 .debug_abbrev  0x0000000000007aba      0x49d ../../../mesh/lib_51_MBTLE_CORE.a(nrf_mesh.c.obj)
 .debug_abbrev  0x0000000000007f57      0x20d ../../../mesh/lib_51_MBTLE_CORE.a(nrf_mesh_keygen.c.obj)
 .debug_abbrev  0x0000000000008164      0x24a ../../../mesh/lib_51_MBTLE_CORE.a(nrf_mesh_utils.c.obj)
 .debug_abbrev  0x00000000000083ae      0x239 ../../../mesh/lib_51_MBTLE_CORE.a(nrf_mesh_opt.c.obj)
 .debug_abbrev  0x00000000000085e7      0x1a8 ../../../mesh/lib_51_MBTLE_CORE.a(radio_config.c.obj)
 .debug_abbrev  0x000000000000878f      0x1af ../../../mesh/lib_51_MBTLE_CORE.a(rand.c.obj)
 .debug_abbrev  0x000000000000893e      0x14d ../../../mesh/lib_51_MBTLE_CORE.a(ticker.c.obj)
 .debug_abbrev  0x0000000000008a8b      0x68c ../../../mesh/lib_51_MBTLE_CORE.a(transport.c.obj)
 .debug_abbrev  0x0000000000009117      0x24a ../../../mesh/lib_51_MBTLE_CORE.a(internal_event.c.obj)
 .debug_abbrev  0x0000000000009361      0x53e ../../../mesh/lib_51_MBTLE_CORE.a(flash_manager.c.obj)
 .debug_abbrev  0x000000000000989f      0x504 ../../../mesh/lib_51_MBTLE_CORE.a(flash_manager_defrag.c.obj)
 .debug_abbrev  0x0000000000009da3      0x283 ../../../mesh/lib_51_MBTLE_CORE.a(flash_manager_internal.c.obj)
 .debug_abbrev  0x000000000000a026      0x2f8 ../../../mesh/lib_51_MBTLE_CORE.a(aes.c.obj)
 .debug_abbrev  0x000000000000a31e      0x222 ../../../mesh/lib_51_MBTLE_CORE.a(queue.c.obj)
 .debug_abbrev  0x000000000000a540      0x496 ../../../mesh/lib_51_MBTLE_CORE.a(timeslot.c.obj)
 .debug_abbrev  0x000000000000a9d6      0x2a4 ../../../mesh/lib_51_MBTLE_CORE.a(aes_cmac.c.obj)
 .debug_abbrev  0x000000000000ac7a      0x29c ../../../mesh/lib_51_MBTLE_CORE.a(ccm_soft.c.obj)
 .debug_abbrev  0x000000000000af16      0x278 ../../../mesh/lib_51_MBTLE_CORE.a(msg_cache.c.obj)
 .debug_abbrev  0x000000000000b18e      0x50c ../../../mesh/lib_51_MBTLE_CORE.a(network.c.obj)
 .debug_abbrev  0x000000000000b69a      0x242 ../../../mesh/lib_51_MBTLE_CORE.a(packet.c.obj)
 .debug_abbrev  0x000000000000b8dc      0x417 ../../../mesh/lib_51_MBTLE_CORE.a(packet_buffer.c.obj)
 .debug_abbrev  0x000000000000bcf3      0x24c ../../../mesh/lib_51_MBTLE_CORE.a(replay_cache.c.obj)
 .debug_abbrev  0x000000000000bf3f      0x3f6 ../../../mesh/lib_51_MBTLE_CORE.a(mesh_flash.c.obj)
 .debug_abbrev  0x000000000000c335      0x22b ../../../mesh/lib_51_MBTLE_CORE.a(nrf_flash.c.obj)
 .debug_abbrev  0x000000000000c560      0x2a5 ../../../mesh/lib_51_MBTLE_CORE.a(msqueue.c.obj)
 .debug_abbrev  0x000000000000c805      0x44a ../../../lib/micro-ecc/lib_51_UECC_LIB.a(uECC.c.obj)
 .debug_abbrev  0x000000000000cc4f      0x34b ../../../lib/rtt/lib_51_RTT_LIB.a(SEGGER_RTT.c.obj)
 .debug_abbrev  0x000000000000cf9a      0x364 ../../../lib/rtt/lib_51_RTT_LIB.a(SEGGER_RTT_printf.c.obj)

.debug_loc      0x0000000000000000    0x246bc
 .debug_loc     0x0000000000000000      0x163 CMakeFiles/51_light_control_server.dir/src/main.c.obj
 .debug_loc     0x0000000000000163      0x826 CMakeFiles/51_light_control_server.dir/__/__/__/mesh/src/prov/provisioning.c.obj
 .debug_loc     0x0000000000000989      0x889 CMakeFiles/51_light_control_server.dir/__/__/__/mesh/src/prov/nrf_mesh_prov.c.obj
 .debug_loc     0x0000000000001212     0x14aa CMakeFiles/51_light_control_server.dir/__/__/__/mesh/src/prov/prov_bearer_adv.c.obj
 .debug_loc     0x00000000000026bc      0x5a0 CMakeFiles/51_light_control_server.dir/__/__/__/mesh/src/prov/prov_utils.c.obj
 .debug_loc     0x0000000000002c5c      0x1c9 CMakeFiles/51_light_control_server.dir/__/__/__/mesh/src/prov/prov_beacon.c.obj
 .debug_loc     0x0000000000002e25     0x2890 CMakeFiles/51_light_control_server.dir/__/__/__/mesh/src/access/access.c.obj
 .debug_loc     0x00000000000056b5      0x8f2 CMakeFiles/51_light_control_server.dir/__/__/__/mesh/src/access/access_publish.c.obj
 .debug_loc     0x0000000000005fa7      0x95b CMakeFiles/51_light_control_server.dir/__/__/__/mesh/src/access/access_reliable.c.obj
 .debug_loc     0x0000000000006902     0x38bc CMakeFiles/51_light_control_server.dir/__/__/__/mesh/src/access/device_state_manager.c.obj
 .debug_loc     0x000000000000a1be      0x44c CMakeFiles/51_light_control_server.dir/__/__/__/mesh/src/access/nrf_mesh_node_config.c.obj
 .debug_loc     0x000000000000a60a     0x3f12 CMakeFiles/51_light_control_server.dir/__/__/__/mesh/models/config/src/config_server.c.obj
 .debug_loc     0x000000000000e51c       0xcb CMakeFiles/51_light_control_server.dir/__/__/__/mesh/models/config/src/packed_index_list.c.obj
 .debug_loc     0x000000000000e5e7      0x328 CMakeFiles/51_light_control_server.dir/__/__/__/mesh/models/config/src/composition_data.c.obj
 .debug_loc     0x000000000000e90f      0x35a CMakeFiles/51_light_control_server.dir/__/__/nrf_mesh_sdk.c.obj
 .debug_loc     0x000000000000ec69      0x167 CMakeFiles/51_light_control_server.dir/__/__/hal/src/simple_hal.c.obj
 .debug_loc     0x000000000000edd0      0x56e CMakeFiles/51_light_control_server.dir/__/__/models/simple_on_off/src/simple_on_off_server.c.obj
 .debug_loc     0x000000000000f33e      0x72b ../../../mesh/lib_51_MBTLE_PB_ADV_EE.a(prov_provisionee.c.obj)
 .debug_loc     0x000000000000fa69     0x1082 ../../../mesh/lib_51_MBTLE_CORE.a(bearer_adv.c.obj)
 .debug_loc     0x0000000000010aeb      0x584 ../../../mesh/lib_51_MBTLE_CORE.a(fifo.c.obj)
 .debug_loc     0x000000000001106f      0x730 ../../../mesh/lib_51_MBTLE_CORE.a(packet_mgr.c.obj)
 .debug_loc     0x000000000001179f      0x39a ../../../mesh/lib_51_MBTLE_CORE.a(radio.c.obj)
 .debug_loc     0x0000000000011b39      0x7b7 ../../../mesh/lib_51_MBTLE_CORE.a(timer.c.obj)
 .debug_loc     0x00000000000122f0      0x5ed ../../../mesh/lib_51_MBTLE_CORE.a(timer_scheduler.c.obj)
 .debug_loc     0x00000000000128dd      0x5d9 ../../../mesh/lib_51_MBTLE_CORE.a(beacon.c.obj)
 .debug_loc     0x0000000000012eb6      0x8c7 ../../../mesh/lib_51_MBTLE_CORE.a(bearer.c.obj)
 .debug_loc     0x000000000001377d      0x545 ../../../mesh/lib_51_MBTLE_CORE.a(bearer_event.c.obj)
 .debug_loc     0x0000000000013cc2       0x2c ../../../mesh/lib_51_MBTLE_CORE.a(nrf_mesh_configure.c.obj)
 .debug_loc     0x0000000000013cee      0xc1f ../../../mesh/lib_51_MBTLE_CORE.a(enc.c.obj)
 .debug_loc     0x000000000001490d      0x312 ../../../mesh/lib_51_MBTLE_CORE.a(event.c.obj)
 .debug_loc     0x0000000000014c1f      0x2f0 ../../../mesh/lib_51_MBTLE_CORE.a(log.c.obj)
 .debug_loc     0x0000000000014f0f      0x3e5 ../../../mesh/lib_51_MBTLE_CORE.a(net_beacon.c.obj)
 .debug_loc     0x00000000000152f4      0x729 ../../../mesh/lib_51_MBTLE_CORE.a(net_state.c.obj)
 .debug_loc     0x0000000000015a1d      0x3dc ../../../mesh/lib_51_MBTLE_CORE.a(nrf_mesh.c.obj)
 .debug_loc     0x0000000000015df9      0x226 ../../../mesh/lib_51_MBTLE_CORE.a(nrf_mesh_keygen.c.obj)
 .debug_loc     0x000000000001601f      0x12a ../../../mesh/lib_51_MBTLE_CORE.a(nrf_mesh_utils.c.obj)
 .debug_loc     0x0000000000016149      0x214 ../../../mesh/lib_51_MBTLE_CORE.a(nrf_mesh_opt.c.obj)
 .debug_loc     0x000000000001635d      0x2e2 ../../../mesh/lib_51_MBTLE_CORE.a(radio_config.c.obj)
 .debug_loc     0x000000000001663f      0x1b2 ../../../mesh/lib_51_MBTLE_CORE.a(rand.c.obj)
 .debug_loc     0x00000000000167f1     0x248a ../../../mesh/lib_51_MBTLE_CORE.a(transport.c.obj)
 .debug_loc     0x0000000000018c7b      0x135 ../../../mesh/lib_51_MBTLE_CORE.a(internal_event.c.obj)
 .debug_loc     0x0000000000018db0     0x2190 ../../../mesh/lib_51_MBTLE_CORE.a(flash_manager.c.obj)
 .debug_loc     0x000000000001af40      0xc03 ../../../mesh/lib_51_MBTLE_CORE.a(flash_manager_defrag.c.obj)
 .debug_loc     0x000000000001bb43      0x149 ../../../mesh/lib_51_MBTLE_CORE.a(flash_manager_internal.c.obj)
 .debug_loc     0x000000000001bc8c       0xcb ../../../mesh/lib_51_MBTLE_CORE.a(aes.c.obj)
 .debug_loc     0x000000000001bd57      0x251 ../../../mesh/lib_51_MBTLE_CORE.a(queue.c.obj)
 .debug_loc     0x000000000001bfa8      0x31f ../../../mesh/lib_51_MBTLE_CORE.a(timeslot.c.obj)
 .debug_loc     0x000000000001c2c7      0x4c9 ../../../mesh/lib_51_MBTLE_CORE.a(aes_cmac.c.obj)
 .debug_loc     0x000000000001c790      0x88b ../../../mesh/lib_51_MBTLE_CORE.a(ccm_soft.c.obj)
 .debug_loc     0x000000000001d01b      0x139 ../../../mesh/lib_51_MBTLE_CORE.a(msg_cache.c.obj)
 .debug_loc     0x000000000001d154      0xafd ../../../mesh/lib_51_MBTLE_CORE.a(network.c.obj)
 .debug_loc     0x000000000001dc51      0x144 ../../../mesh/lib_51_MBTLE_CORE.a(packet.c.obj)
 .debug_loc     0x000000000001dd95      0xe4d ../../../mesh/lib_51_MBTLE_CORE.a(packet_buffer.c.obj)
 .debug_loc     0x000000000001ebe2      0x248 ../../../mesh/lib_51_MBTLE_CORE.a(replay_cache.c.obj)
 .debug_loc     0x000000000001ee2a      0xa6a ../../../mesh/lib_51_MBTLE_CORE.a(mesh_flash.c.obj)
 .debug_loc     0x000000000001f894       0xf4 ../../../mesh/lib_51_MBTLE_CORE.a(nrf_flash.c.obj)
 .debug_loc     0x000000000001f988      0x4d7 ../../../mesh/lib_51_MBTLE_CORE.a(msqueue.c.obj)
 .debug_loc     0x000000000001fe5f     0x27fd ../../../lib/micro-ecc/lib_51_UECC_LIB.a(uECC.c.obj)
 .debug_loc     0x000000000002265c     0x18a4 ../../../lib/rtt/lib_51_RTT_LIB.a(SEGGER_RTT.c.obj)
 .debug_loc     0x0000000000023f00      0x7bc ../../../lib/rtt/lib_51_RTT_LIB.a(SEGGER_RTT_printf.c.obj)

.debug_aranges  0x0000000000000000     0x1c50
 .debug_aranges
                0x0000000000000000       0x40 CMakeFiles/51_light_control_server.dir/src/main.c.obj
 .debug_aranges
                0x0000000000000040       0xc8 CMakeFiles/51_light_control_server.dir/__/__/__/mesh/src/prov/provisioning.c.obj
 .debug_aranges
                0x0000000000000108       0x58 CMakeFiles/51_light_control_server.dir/__/__/__/mesh/src/prov/nrf_mesh_prov.c.obj
 .debug_aranges
                0x0000000000000160       0xb8 CMakeFiles/51_light_control_server.dir/__/__/__/mesh/src/prov/prov_bearer_adv.c.obj
 .debug_aranges
                0x0000000000000218       0x70 CMakeFiles/51_light_control_server.dir/__/__/__/mesh/src/prov/prov_utils.c.obj
 .debug_aranges
                0x0000000000000288       0x30 CMakeFiles/51_light_control_server.dir/__/__/__/mesh/src/prov/prov_beacon.c.obj
 .debug_aranges
                0x00000000000002b8      0x190 CMakeFiles/51_light_control_server.dir/__/__/__/mesh/src/access/access.c.obj
 .debug_aranges
                0x0000000000000448       0x48 CMakeFiles/51_light_control_server.dir/__/__/__/mesh/src/access/access_publish.c.obj
 .debug_aranges
                0x0000000000000490       0x50 CMakeFiles/51_light_control_server.dir/__/__/__/mesh/src/access/access_reliable.c.obj
 .debug_aranges
                0x00000000000004e0      0x298 CMakeFiles/51_light_control_server.dir/__/__/__/mesh/src/access/device_state_manager.c.obj
 .debug_aranges
                0x0000000000000778       0x58 CMakeFiles/51_light_control_server.dir/__/__/__/mesh/src/access/nrf_mesh_node_config.c.obj
 .debug_aranges
                0x00000000000007d0      0x188 CMakeFiles/51_light_control_server.dir/__/__/__/mesh/models/config/src/config_server.c.obj
 .debug_aranges
                0x0000000000000958       0x28 CMakeFiles/51_light_control_server.dir/__/__/__/mesh/models/config/src/packed_index_list.c.obj
 .debug_aranges
                0x0000000000000980       0x20 CMakeFiles/51_light_control_server.dir/__/__/__/mesh/models/config/src/composition_data.c.obj
 .debug_aranges
                0x00000000000009a0       0x78 CMakeFiles/51_light_control_server.dir/__/__/nrf_mesh_sdk.c.obj
 .debug_aranges
                0x0000000000000a18       0x48 CMakeFiles/51_light_control_server.dir/__/__/hal/src/simple_hal.c.obj
 .debug_aranges
                0x0000000000000a60       0x38 CMakeFiles/51_light_control_server.dir/__/__/models/simple_on_off/src/simple_on_off_server.c.obj
 .debug_aranges
                0x0000000000000a98       0x20 CMakeFiles/51_light_control_server.dir/__/__/__/toolchain/gcc/gcc_startup_nrf51.S.obj
 .debug_aranges
                0x0000000000000ab8       0x28 CMakeFiles/51_light_control_server.dir/__/__/__/toolchain/system_nrf51.c.obj
 .debug_aranges
                0x0000000000000ae0       0x70 ../../../mesh/lib_51_MBTLE_PB_ADV_EE.a(prov_provisionee.c.obj)
 .debug_aranges
                0x0000000000000b50       0x28 ../../../mesh/lib_51_MBTLE_CORE.a(nrf_mesh_weak.c.obj)
 .debug_aranges
                0x0000000000000b78      0x100 ../../../mesh/lib_51_MBTLE_CORE.a(bearer_adv.c.obj)
 .debug_aranges
                0x0000000000000c78       0x60 ../../../mesh/lib_51_MBTLE_CORE.a(fifo.c.obj)
 .debug_aranges
                0x0000000000000cd8       0x48 ../../../mesh/lib_51_MBTLE_CORE.a(packet_mgr.c.obj)
 .debug_aranges
                0x0000000000000d20       0x98 ../../../mesh/lib_51_MBTLE_CORE.a(radio.c.obj)
 .debug_aranges
                0x0000000000000db8       0x58 ../../../mesh/lib_51_MBTLE_CORE.a(timer.c.obj)
 .debug_aranges
                0x0000000000000e10       0x60 ../../../mesh/lib_51_MBTLE_CORE.a(timer_scheduler.c.obj)
 .debug_aranges
                0x0000000000000e70       0x38 ../../../mesh/lib_51_MBTLE_CORE.a(beacon.c.obj)
 .debug_aranges
                0x0000000000000ea8       0x90 ../../../mesh/lib_51_MBTLE_CORE.a(bearer.c.obj)
 .debug_aranges
                0x0000000000000f38       0x70 ../../../mesh/lib_51_MBTLE_CORE.a(bearer_event.c.obj)
 .debug_aranges
                0x0000000000000fa8       0x30 ../../../mesh/lib_51_MBTLE_CORE.a(nrf_mesh_configure.c.obj)
 .debug_aranges
                0x0000000000000fd8       0x70 ../../../mesh/lib_51_MBTLE_CORE.a(enc.c.obj)
 .debug_aranges
                0x0000000000001048       0x30 ../../../mesh/lib_51_MBTLE_CORE.a(event.c.obj)
 .debug_aranges
                0x0000000000001078       0x48 ../../../mesh/lib_51_MBTLE_CORE.a(log.c.obj)
 .debug_aranges
                0x00000000000010c0       0x40 ../../../mesh/lib_51_MBTLE_CORE.a(net_beacon.c.obj)
 .debug_aranges
                0x0000000000001100       0xb8 ../../../mesh/lib_51_MBTLE_CORE.a(net_state.c.obj)
 .debug_aranges
                0x00000000000011b8       0x80 ../../../mesh/lib_51_MBTLE_CORE.a(nrf_mesh.c.obj)
 .debug_aranges
                0x0000000000001238       0x40 ../../../mesh/lib_51_MBTLE_CORE.a(nrf_mesh_keygen.c.obj)
 .debug_aranges
                0x0000000000001278       0x30 ../../../mesh/lib_51_MBTLE_CORE.a(nrf_mesh_utils.c.obj)
 .debug_aranges
                0x00000000000012a8       0x28 ../../../mesh/lib_51_MBTLE_CORE.a(nrf_mesh_opt.c.obj)
 .debug_aranges
                0x00000000000012d0       0x40 ../../../mesh/lib_51_MBTLE_CORE.a(radio_config.c.obj)
 .debug_aranges
                0x0000000000001310       0x40 ../../../mesh/lib_51_MBTLE_CORE.a(rand.c.obj)
 .debug_aranges
                0x0000000000001350       0x30 ../../../mesh/lib_51_MBTLE_CORE.a(ticker.c.obj)
 .debug_aranges
                0x0000000000001380       0xd8 ../../../mesh/lib_51_MBTLE_CORE.a(transport.c.obj)
 .debug_aranges
                0x0000000000001458       0x30 ../../../mesh/lib_51_MBTLE_CORE.a(internal_event.c.obj)
 .debug_aranges
                0x0000000000001488       0xb8 ../../../mesh/lib_51_MBTLE_CORE.a(flash_manager.c.obj)
 .debug_aranges
                0x0000000000001540       0xa8 ../../../mesh/lib_51_MBTLE_CORE.a(flash_manager_defrag.c.obj)
 .debug_aranges
                0x00000000000015e8       0x20 ../../../mesh/lib_51_MBTLE_CORE.a(flash_manager_internal.c.obj)
 .debug_aranges
                0x0000000000001608       0x28 ../../../mesh/lib_51_MBTLE_CORE.a(aes.c.obj)
 .debug_aranges
                0x0000000000001630       0x38 ../../../mesh/lib_51_MBTLE_CORE.a(queue.c.obj)
 .debug_aranges
                0x0000000000001668       0xa8 ../../../mesh/lib_51_MBTLE_CORE.a(timeslot.c.obj)
 .debug_aranges
                0x0000000000001710       0x28 ../../../mesh/lib_51_MBTLE_CORE.a(aes_cmac.c.obj)
 .debug_aranges
                0x0000000000001738       0x40 ../../../mesh/lib_51_MBTLE_CORE.a(ccm_soft.c.obj)
 .debug_aranges
                0x0000000000001778       0x38 ../../../mesh/lib_51_MBTLE_CORE.a(msg_cache.c.obj)
 .debug_aranges
                0x00000000000017b0       0x58 ../../../mesh/lib_51_MBTLE_CORE.a(network.c.obj)
 .debug_aranges
                0x0000000000001808       0x20 ../../../mesh/lib_51_MBTLE_CORE.a(packet.c.obj)
 .debug_aranges
                0x0000000000001828       0x68 ../../../mesh/lib_51_MBTLE_CORE.a(packet_buffer.c.obj)
 .debug_aranges
                0x0000000000001890       0x48 ../../../mesh/lib_51_MBTLE_CORE.a(replay_cache.c.obj)
 .debug_aranges
                0x00000000000018d8       0x58 ../../../mesh/lib_51_MBTLE_CORE.a(mesh_flash.c.obj)
 .debug_aranges
                0x0000000000001930       0x28 ../../../mesh/lib_51_MBTLE_CORE.a(nrf_flash.c.obj)
 .debug_aranges
                0x0000000000001958       0x40 ../../../mesh/lib_51_MBTLE_CORE.a(msqueue.c.obj)
 .debug_aranges
                0x0000000000001998      0x1a8 ../../../lib/micro-ecc/lib_51_UECC_LIB.a(uECC.c.obj)
 .debug_aranges
                0x0000000000001b40       0xd8 ../../../lib/rtt/lib_51_RTT_LIB.a(SEGGER_RTT.c.obj)
 .debug_aranges
                0x0000000000001c18       0x38 ../../../lib/rtt/lib_51_RTT_LIB.a(SEGGER_RTT_printf.c.obj)

.debug_ranges   0x0000000000000000     0x5570
 .debug_ranges  0x0000000000000000       0x78 CMakeFiles/51_light_control_server.dir/src/main.c.obj
 .debug_ranges  0x0000000000000078       0xb8 CMakeFiles/51_light_control_server.dir/__/__/__/mesh/src/prov/provisioning.c.obj
 .debug_ranges  0x0000000000000130       0x60 CMakeFiles/51_light_control_server.dir/__/__/__/mesh/src/prov/nrf_mesh_prov.c.obj
 .debug_ranges  0x0000000000000190      0x258 CMakeFiles/51_light_control_server.dir/__/__/__/mesh/src/prov/prov_bearer_adv.c.obj
 .debug_ranges  0x00000000000003e8       0x90 CMakeFiles/51_light_control_server.dir/__/__/__/mesh/src/prov/prov_utils.c.obj
 .debug_ranges  0x0000000000000478       0x50 CMakeFiles/51_light_control_server.dir/__/__/__/mesh/src/prov/prov_beacon.c.obj
 .debug_ranges  0x00000000000004c8      0x870 CMakeFiles/51_light_control_server.dir/__/__/__/mesh/src/access/access.c.obj
 .debug_ranges  0x0000000000000d38      0x268 CMakeFiles/51_light_control_server.dir/__/__/__/mesh/src/access/access_publish.c.obj
 .debug_ranges  0x0000000000000fa0      0x260 CMakeFiles/51_light_control_server.dir/__/__/__/mesh/src/access/access_reliable.c.obj
 .debug_ranges  0x0000000000001200      0x8f0 CMakeFiles/51_light_control_server.dir/__/__/__/mesh/src/access/device_state_manager.c.obj
 .debug_ranges  0x0000000000001af0       0xd8 CMakeFiles/51_light_control_server.dir/__/__/__/mesh/src/access/nrf_mesh_node_config.c.obj
 .debug_ranges  0x0000000000001bc8      0x680 CMakeFiles/51_light_control_server.dir/__/__/__/mesh/models/config/src/config_server.c.obj
 .debug_ranges  0x0000000000002248       0x18 CMakeFiles/51_light_control_server.dir/__/__/__/mesh/models/config/src/packed_index_list.c.obj
 .debug_ranges  0x0000000000002260       0xd0 CMakeFiles/51_light_control_server.dir/__/__/__/mesh/models/config/src/composition_data.c.obj
 .debug_ranges  0x0000000000002330       0xc8 CMakeFiles/51_light_control_server.dir/__/__/nrf_mesh_sdk.c.obj
 .debug_ranges  0x00000000000023f8       0x78 CMakeFiles/51_light_control_server.dir/__/__/hal/src/simple_hal.c.obj
 .debug_ranges  0x0000000000002470       0x28 CMakeFiles/51_light_control_server.dir/__/__/models/simple_on_off/src/simple_on_off_server.c.obj
 .debug_ranges  0x0000000000002498       0x70 CMakeFiles/51_light_control_server.dir/__/__/__/toolchain/system_nrf51.c.obj
 .debug_ranges  0x0000000000002508       0xc0 ../../../mesh/lib_51_MBTLE_PB_ADV_EE.a(prov_provisionee.c.obj)
 .debug_ranges  0x00000000000025c8       0x18 ../../../mesh/lib_51_MBTLE_CORE.a(nrf_mesh_weak.c.obj)
 .debug_ranges  0x00000000000025e0      0x198 ../../../mesh/lib_51_MBTLE_CORE.a(bearer_adv.c.obj)
 .debug_ranges  0x0000000000002778       0x80 ../../../mesh/lib_51_MBTLE_CORE.a(fifo.c.obj)
 .debug_ranges  0x00000000000027f8      0x148 ../../../mesh/lib_51_MBTLE_CORE.a(packet_mgr.c.obj)
 .debug_ranges  0x0000000000002940      0x110 ../../../mesh/lib_51_MBTLE_CORE.a(radio.c.obj)
 .debug_ranges  0x0000000000002a50       0xa8 ../../../mesh/lib_51_MBTLE_CORE.a(timer.c.obj)
 .debug_ranges  0x0000000000002af8      0x250 ../../../mesh/lib_51_MBTLE_CORE.a(timer_scheduler.c.obj)
 .debug_ranges  0x0000000000002d48       0x58 ../../../mesh/lib_51_MBTLE_CORE.a(beacon.c.obj)
 .debug_ranges  0x0000000000002da0      0x1c0 ../../../mesh/lib_51_MBTLE_CORE.a(bearer.c.obj)
 .debug_ranges  0x0000000000002f60       0xf8 ../../../mesh/lib_51_MBTLE_CORE.a(bearer_event.c.obj)
 .debug_ranges  0x0000000000003058       0x20 ../../../mesh/lib_51_MBTLE_CORE.a(nrf_mesh_configure.c.obj)
 .debug_ranges  0x0000000000003078       0x60 ../../../mesh/lib_51_MBTLE_CORE.a(enc.c.obj)
 .debug_ranges  0x00000000000030d8       0xa8 ../../../mesh/lib_51_MBTLE_CORE.a(event.c.obj)
 .debug_ranges  0x0000000000003180       0x38 ../../../mesh/lib_51_MBTLE_CORE.a(log.c.obj)
 .debug_ranges  0x00000000000031b8       0xa8 ../../../mesh/lib_51_MBTLE_CORE.a(net_beacon.c.obj)
 .debug_ranges  0x0000000000003260      0x170 ../../../mesh/lib_51_MBTLE_CORE.a(net_state.c.obj)
 .debug_ranges  0x00000000000033d0       0xa8 ../../../mesh/lib_51_MBTLE_CORE.a(nrf_mesh.c.obj)
 .debug_ranges  0x0000000000003478       0x30 ../../../mesh/lib_51_MBTLE_CORE.a(nrf_mesh_keygen.c.obj)
 .debug_ranges  0x00000000000034a8       0x20 ../../../mesh/lib_51_MBTLE_CORE.a(nrf_mesh_utils.c.obj)
 .debug_ranges  0x00000000000034c8       0x18 ../../../mesh/lib_51_MBTLE_CORE.a(nrf_mesh_opt.c.obj)
 .debug_ranges  0x00000000000034e0       0xf8 ../../../mesh/lib_51_MBTLE_CORE.a(radio_config.c.obj)
 .debug_ranges  0x00000000000035d8       0x30 ../../../mesh/lib_51_MBTLE_CORE.a(rand.c.obj)
 .debug_ranges  0x0000000000003608       0x20 ../../../mesh/lib_51_MBTLE_CORE.a(ticker.c.obj)
 .debug_ranges  0x0000000000003628      0x518 ../../../mesh/lib_51_MBTLE_CORE.a(transport.c.obj)
 .debug_ranges  0x0000000000003b40       0x20 ../../../mesh/lib_51_MBTLE_CORE.a(internal_event.c.obj)
 .debug_ranges  0x0000000000003b60      0x998 ../../../mesh/lib_51_MBTLE_CORE.a(flash_manager.c.obj)
 .debug_ranges  0x00000000000044f8      0x340 ../../../mesh/lib_51_MBTLE_CORE.a(flash_manager_defrag.c.obj)
 .debug_ranges  0x0000000000004838       0x68 ../../../mesh/lib_51_MBTLE_CORE.a(flash_manager_internal.c.obj)
 .debug_ranges  0x00000000000048a0       0x18 ../../../mesh/lib_51_MBTLE_CORE.a(aes.c.obj)
 .debug_ranges  0x00000000000048b8       0x28 ../../../mesh/lib_51_MBTLE_CORE.a(queue.c.obj)
 .debug_ranges  0x00000000000048e0       0xc8 ../../../mesh/lib_51_MBTLE_CORE.a(timeslot.c.obj)
 .debug_ranges  0x00000000000049a8       0x18 ../../../mesh/lib_51_MBTLE_CORE.a(aes_cmac.c.obj)
 .debug_ranges  0x00000000000049c0       0x30 ../../../mesh/lib_51_MBTLE_CORE.a(ccm_soft.c.obj)
 .debug_ranges  0x00000000000049f0       0x40 ../../../mesh/lib_51_MBTLE_CORE.a(msg_cache.c.obj)
 .debug_ranges  0x0000000000004a30      0x110 ../../../mesh/lib_51_MBTLE_CORE.a(network.c.obj)
 .debug_ranges  0x0000000000004b40       0x28 ../../../mesh/lib_51_MBTLE_CORE.a(packet.c.obj)
 .debug_ranges  0x0000000000004b68      0x220 ../../../mesh/lib_51_MBTLE_CORE.a(packet_buffer.c.obj)
 .debug_ranges  0x0000000000004d88       0x88 ../../../mesh/lib_51_MBTLE_CORE.a(replay_cache.c.obj)
 .debug_ranges  0x0000000000004e10      0x268 ../../../mesh/lib_51_MBTLE_CORE.a(mesh_flash.c.obj)
 .debug_ranges  0x0000000000005078       0x48 ../../../mesh/lib_51_MBTLE_CORE.a(nrf_flash.c.obj)
 .debug_ranges  0x00000000000050c0       0xf0 ../../../mesh/lib_51_MBTLE_CORE.a(msqueue.c.obj)
 .debug_ranges  0x00000000000051b0      0x250 ../../../lib/micro-ecc/lib_51_UECC_LIB.a(uECC.c.obj)
 .debug_ranges  0x0000000000005400      0x148 ../../../lib/rtt/lib_51_RTT_LIB.a(SEGGER_RTT.c.obj)
 .debug_ranges  0x0000000000005548       0x28 ../../../lib/rtt/lib_51_RTT_LIB.a(SEGGER_RTT_printf.c.obj)

.debug_line     0x0000000000000000    0x152a3
 .debug_line    0x0000000000000000      0x58c CMakeFiles/51_light_control_server.dir/src/main.c.obj
 .debug_line    0x000000000000058c      0x5f5 CMakeFiles/51_light_control_server.dir/__/__/__/mesh/src/prov/provisioning.c.obj
 .debug_line    0x0000000000000b81      0x4b9 CMakeFiles/51_light_control_server.dir/__/__/__/mesh/src/prov/nrf_mesh_prov.c.obj
 .debug_line    0x000000000000103a      0xae8 CMakeFiles/51_light_control_server.dir/__/__/__/mesh/src/prov/prov_bearer_adv.c.obj
 .debug_line    0x0000000000001b22      0x53b CMakeFiles/51_light_control_server.dir/__/__/__/mesh/src/prov/prov_utils.c.obj
 .debug_line    0x000000000000205d      0x39f CMakeFiles/51_light_control_server.dir/__/__/__/mesh/src/prov/prov_beacon.c.obj
 .debug_line    0x00000000000023fc      0xee0 CMakeFiles/51_light_control_server.dir/__/__/__/mesh/src/access/access.c.obj
 .debug_line    0x00000000000032dc      0x474 CMakeFiles/51_light_control_server.dir/__/__/__/mesh/src/access/access_publish.c.obj
 .debug_line    0x0000000000003750      0x506 CMakeFiles/51_light_control_server.dir/__/__/__/mesh/src/access/access_reliable.c.obj
 .debug_line    0x0000000000003c56     0x1464 CMakeFiles/51_light_control_server.dir/__/__/__/mesh/src/access/device_state_manager.c.obj
 .debug_line    0x00000000000050ba      0x681 CMakeFiles/51_light_control_server.dir/__/__/__/mesh/src/access/nrf_mesh_node_config.c.obj
 .debug_line    0x000000000000573b      0xfa2 CMakeFiles/51_light_control_server.dir/__/__/__/mesh/models/config/src/config_server.c.obj
 .debug_line    0x00000000000066dd      0x10b CMakeFiles/51_light_control_server.dir/__/__/__/mesh/models/config/src/packed_index_list.c.obj
 .debug_line    0x00000000000067e8      0x353 CMakeFiles/51_light_control_server.dir/__/__/__/mesh/models/config/src/composition_data.c.obj
 .debug_line    0x0000000000006b3b      0x63e CMakeFiles/51_light_control_server.dir/__/__/nrf_mesh_sdk.c.obj
 .debug_line    0x0000000000007179      0x274 CMakeFiles/51_light_control_server.dir/__/__/hal/src/simple_hal.c.obj
 .debug_line    0x00000000000073ed      0x33a CMakeFiles/51_light_control_server.dir/__/__/models/simple_on_off/src/simple_on_off_server.c.obj
 .debug_line    0x0000000000007727       0xac CMakeFiles/51_light_control_server.dir/__/__/__/toolchain/gcc/gcc_startup_nrf51.S.obj
 .debug_line    0x00000000000077d3      0x17c CMakeFiles/51_light_control_server.dir/__/__/__/toolchain/system_nrf51.c.obj
 .debug_line    0x000000000000794f      0x68f ../../../mesh/lib_51_MBTLE_PB_ADV_EE.a(prov_provisionee.c.obj)
 .debug_line    0x0000000000007fde      0x231 ../../../mesh/lib_51_MBTLE_CORE.a(nrf_mesh_weak.c.obj)
 .debug_line    0x000000000000820f      0x974 ../../../mesh/lib_51_MBTLE_CORE.a(bearer_adv.c.obj)
 .debug_line    0x0000000000008b83      0x405 ../../../mesh/lib_51_MBTLE_CORE.a(fifo.c.obj)
 .debug_line    0x0000000000008f88      0x4af ../../../mesh/lib_51_MBTLE_CORE.a(packet_mgr.c.obj)
 .debug_line    0x0000000000009437      0x564 ../../../mesh/lib_51_MBTLE_CORE.a(radio.c.obj)
 .debug_line    0x000000000000999b      0x4a5 ../../../mesh/lib_51_MBTLE_CORE.a(timer.c.obj)
 .debug_line    0x0000000000009e40      0x501 ../../../mesh/lib_51_MBTLE_CORE.a(timer_scheduler.c.obj)
 .debug_line    0x000000000000a341      0x506 ../../../mesh/lib_51_MBTLE_CORE.a(beacon.c.obj)
 .debug_line    0x000000000000a847      0x63a ../../../mesh/lib_51_MBTLE_CORE.a(bearer.c.obj)
 .debug_line    0x000000000000ae81      0x53b ../../../mesh/lib_51_MBTLE_CORE.a(bearer_event.c.obj)
 .debug_line    0x000000000000b3bc      0x21c ../../../mesh/lib_51_MBTLE_CORE.a(nrf_mesh_configure.c.obj)
 .debug_line    0x000000000000b5d8      0x44e ../../../mesh/lib_51_MBTLE_CORE.a(enc.c.obj)
 .debug_line    0x000000000000ba26      0x31a ../../../mesh/lib_51_MBTLE_CORE.a(event.c.obj)
 .debug_line    0x000000000000bd40      0x28c ../../../mesh/lib_51_MBTLE_CORE.a(log.c.obj)
 .debug_line    0x000000000000bfcc      0x399 ../../../mesh/lib_51_MBTLE_CORE.a(net_beacon.c.obj)
 .debug_line    0x000000000000c365      0x6df ../../../mesh/lib_51_MBTLE_CORE.a(net_state.c.obj)
 .debug_line    0x000000000000ca44      0x77c ../../../mesh/lib_51_MBTLE_CORE.a(nrf_mesh.c.obj)
 .debug_line    0x000000000000d1c0      0x2cd ../../../mesh/lib_51_MBTLE_CORE.a(nrf_mesh_keygen.c.obj)
 .debug_line    0x000000000000d48d      0x27b ../../../mesh/lib_51_MBTLE_CORE.a(nrf_mesh_utils.c.obj)
 .debug_line    0x000000000000d708      0x2e1 ../../../mesh/lib_51_MBTLE_CORE.a(nrf_mesh_opt.c.obj)
 .debug_line    0x000000000000d9e9      0x355 ../../../mesh/lib_51_MBTLE_CORE.a(radio_config.c.obj)
 .debug_line    0x000000000000dd3e      0x2ab ../../../mesh/lib_51_MBTLE_CORE.a(rand.c.obj)
 .debug_line    0x000000000000dfe9      0x163 ../../../mesh/lib_51_MBTLE_CORE.a(ticker.c.obj)
 .debug_line    0x000000000000e14c     0x1513 ../../../mesh/lib_51_MBTLE_CORE.a(transport.c.obj)
 .debug_line    0x000000000000f65f      0x2a8 ../../../mesh/lib_51_MBTLE_CORE.a(internal_event.c.obj)
 .debug_line    0x000000000000f907      0xbb2 ../../../mesh/lib_51_MBTLE_CORE.a(flash_manager.c.obj)
 .debug_line    0x00000000000104b9      0x828 ../../../mesh/lib_51_MBTLE_CORE.a(flash_manager_defrag.c.obj)
 .debug_line    0x0000000000010ce1      0x2a8 ../../../mesh/lib_51_MBTLE_CORE.a(flash_manager_internal.c.obj)
 .debug_line    0x0000000000010f89      0x313 ../../../mesh/lib_51_MBTLE_CORE.a(aes.c.obj)
 .debug_line    0x000000000001129c      0x329 ../../../mesh/lib_51_MBTLE_CORE.a(queue.c.obj)
 .debug_line    0x00000000000115c5      0x5f4 ../../../mesh/lib_51_MBTLE_CORE.a(timeslot.c.obj)
 .debug_line    0x0000000000011bb9      0x2b1 ../../../mesh/lib_51_MBTLE_CORE.a(aes_cmac.c.obj)
 .debug_line    0x0000000000011e6a      0x323 ../../../mesh/lib_51_MBTLE_CORE.a(ccm_soft.c.obj)
 .debug_line    0x000000000001218d      0x2b4 ../../../mesh/lib_51_MBTLE_CORE.a(msg_cache.c.obj)
 .debug_line    0x0000000000012441      0x6f9 ../../../mesh/lib_51_MBTLE_CORE.a(network.c.obj)
 .debug_line    0x0000000000012b3a      0x27a ../../../mesh/lib_51_MBTLE_CORE.a(packet.c.obj)
 .debug_line    0x0000000000012db4      0x6a4 ../../../mesh/lib_51_MBTLE_CORE.a(packet_buffer.c.obj)
 .debug_line    0x0000000000013458      0x20f ../../../mesh/lib_51_MBTLE_CORE.a(replay_cache.c.obj)
 .debug_line    0x0000000000013667      0x546 ../../../mesh/lib_51_MBTLE_CORE.a(mesh_flash.c.obj)
 .debug_line    0x0000000000013bad      0x2e7 ../../../mesh/lib_51_MBTLE_CORE.a(nrf_flash.c.obj)
 .debug_line    0x0000000000013e94      0x397 ../../../mesh/lib_51_MBTLE_CORE.a(msqueue.c.obj)
 .debug_line    0x000000000001422b      0x908 ../../../lib/micro-ecc/lib_51_UECC_LIB.a(uECC.c.obj)
 .debug_line    0x0000000000014b33      0x4b5 ../../../lib/rtt/lib_51_RTT_LIB.a(SEGGER_RTT.c.obj)
 .debug_line    0x0000000000014fe8      0x2bb ../../../lib/rtt/lib_51_RTT_LIB.a(SEGGER_RTT_printf.c.obj)

.debug_str      0x0000000000000000    0x10a6a
 .debug_str     0x0000000000000000      0xa93 CMakeFiles/51_light_control_server.dir/src/main.c.obj
                                        0xbac (size before relaxing)
 .debug_str     0x0000000000000a93      0xd71 CMakeFiles/51_light_control_server.dir/__/__/__/mesh/src/prov/provisioning.c.obj
                                       0x16d6 (size before relaxing)
 .debug_str     0x0000000000001804      0x862 CMakeFiles/51_light_control_server.dir/__/__/__/mesh/src/prov/nrf_mesh_prov.c.obj
                                       0x1a29 (size before relaxing)
 .debug_str     0x0000000000002066      0x60b CMakeFiles/51_light_control_server.dir/__/__/__/mesh/src/prov/prov_bearer_adv.c.obj
                                       0x16d2 (size before relaxing)
 .debug_str     0x0000000000002671      0x81f CMakeFiles/51_light_control_server.dir/__/__/__/mesh/src/prov/prov_utils.c.obj
                                       0x1efb (size before relaxing)
 .debug_str     0x0000000000002e90      0xeee CMakeFiles/51_light_control_server.dir/__/__/__/mesh/src/prov/prov_beacon.c.obj
                                       0x1c35 (size before relaxing)
 .debug_str     0x0000000000003d7e     0x13c6 CMakeFiles/51_light_control_server.dir/__/__/__/mesh/src/access/access.c.obj
                                       0x3149 (size before relaxing)
 .debug_str     0x0000000000005144      0x239 CMakeFiles/51_light_control_server.dir/__/__/__/mesh/src/access/access_publish.c.obj
                                        0xbc9 (size before relaxing)
 .debug_str     0x000000000000537d      0x22b CMakeFiles/51_light_control_server.dir/__/__/__/mesh/src/access/access_reliable.c.obj
                                        0xc41 (size before relaxing)
 .debug_str     0x00000000000055a8     0x1102 CMakeFiles/51_light_control_server.dir/__/__/__/mesh/src/access/device_state_manager.c.obj
                                       0x3372 (size before relaxing)
 .debug_str     0x00000000000066aa      0x561 CMakeFiles/51_light_control_server.dir/__/__/__/mesh/src/access/nrf_mesh_node_config.c.obj
                                       0x24e9 (size before relaxing)
 .debug_str     0x0000000000006c0b     0x1cdb CMakeFiles/51_light_control_server.dir/__/__/__/mesh/models/config/src/config_server.c.obj
                                       0x306c (size before relaxing)
 .debug_str     0x00000000000088e6       0x9a CMakeFiles/51_light_control_server.dir/__/__/__/mesh/models/config/src/packed_index_list.c.obj
                                        0x26b (size before relaxing)
 .debug_str     0x0000000000008980      0x1a5 CMakeFiles/51_light_control_server.dir/__/__/__/mesh/models/config/src/composition_data.c.obj
                                        0x8ed (size before relaxing)
 .debug_str     0x0000000000008b25     0x12be CMakeFiles/51_light_control_server.dir/__/__/nrf_mesh_sdk.c.obj
                                       0x1f23 (size before relaxing)
 .debug_str     0x0000000000009de3       0xd6 CMakeFiles/51_light_control_server.dir/__/__/hal/src/simple_hal.c.obj
                                        0x304 (size before relaxing)
 .debug_str     0x0000000000009eb9      0x188 CMakeFiles/51_light_control_server.dir/__/__/models/simple_on_off/src/simple_on_off_server.c.obj
                                        0x6ce (size before relaxing)
 .debug_str     0x000000000000a041      0x116 CMakeFiles/51_light_control_server.dir/__/__/__/toolchain/system_nrf51.c.obj
                                        0x2c4 (size before relaxing)
 .debug_str     0x000000000000a157      0x20c ../../../mesh/lib_51_MBTLE_PB_ADV_EE.a(prov_provisionee.c.obj)
                                       0x2e6c (size before relaxing)
 .debug_str     0x000000000000a363       0x68 ../../../mesh/lib_51_MBTLE_CORE.a(nrf_mesh_weak.c.obj)
                                        0x670 (size before relaxing)
 .debug_str     0x000000000000a3cb      0x75e ../../../mesh/lib_51_MBTLE_CORE.a(bearer_adv.c.obj)
                                       0x2b92 (size before relaxing)
 .debug_str     0x000000000000ab29       0x7a ../../../mesh/lib_51_MBTLE_CORE.a(fifo.c.obj)
                                        0x6d8 (size before relaxing)
 .debug_str     0x000000000000aba3      0x279 ../../../mesh/lib_51_MBTLE_CORE.a(packet_mgr.c.obj)
                                        0x9e5 (size before relaxing)
 .debug_str     0x000000000000ae1c      0x482 ../../../mesh/lib_51_MBTLE_CORE.a(radio.c.obj)
                                       0x1066 (size before relaxing)
 .debug_str     0x000000000000b29e      0x279 ../../../mesh/lib_51_MBTLE_CORE.a(timer.c.obj)
                                        0x72b (size before relaxing)
 .debug_str     0x000000000000b517      0x175 ../../../mesh/lib_51_MBTLE_CORE.a(timer_scheduler.c.obj)
                                        0x931 (size before relaxing)
 .debug_str     0x000000000000b68c       0xfe ../../../mesh/lib_51_MBTLE_CORE.a(beacon.c.obj)
                                        0xd16 (size before relaxing)
 .debug_str     0x000000000000b78a      0x664 ../../../mesh/lib_51_MBTLE_CORE.a(bearer.c.obj)
                                       0x149f (size before relaxing)
 .debug_str     0x000000000000bdee      0x233 ../../../mesh/lib_51_MBTLE_CORE.a(bearer_event.c.obj)
                                        0xbe4 (size before relaxing)
 .debug_str     0x000000000000c021       0xa1 ../../../mesh/lib_51_MBTLE_CORE.a(nrf_mesh_configure.c.obj)
                                        0x737 (size before relaxing)
 .debug_str     0x000000000000c0c2      0x1e5 ../../../mesh/lib_51_MBTLE_CORE.a(enc.c.obj)
                                        0x917 (size before relaxing)
 .debug_str     0x000000000000c2a7       0xef ../../../mesh/lib_51_MBTLE_CORE.a(event.c.obj)
                                       0x1742 (size before relaxing)
 .debug_str     0x000000000000c396      0x1ae ../../../mesh/lib_51_MBTLE_CORE.a(log.c.obj)
                                        0x7f3 (size before relaxing)
 .debug_str     0x000000000000c544      0x20e ../../../mesh/lib_51_MBTLE_CORE.a(net_beacon.c.obj)
                                        0xc04 (size before relaxing)
 .debug_str     0x000000000000c752      0x329 ../../../mesh/lib_51_MBTLE_CORE.a(net_state.c.obj)
                                       0x246b (size before relaxing)
 .debug_str     0x000000000000ca7b      0x357 ../../../mesh/lib_51_MBTLE_CORE.a(nrf_mesh.c.obj)
                                       0x2f64 (size before relaxing)
 .debug_str     0x000000000000cdd2       0x83 ../../../mesh/lib_51_MBTLE_CORE.a(nrf_mesh_keygen.c.obj)
                                        0x7e8 (size before relaxing)
 .debug_str     0x000000000000ce55       0xa7 ../../../mesh/lib_51_MBTLE_CORE.a(nrf_mesh_utils.c.obj)
                                        0x74e (size before relaxing)
 .debug_str     0x000000000000cefc       0x90 ../../../mesh/lib_51_MBTLE_CORE.a(nrf_mesh_opt.c.obj)
                                        0xaa2 (size before relaxing)
 .debug_str     0x000000000000cf8c       0xc0 ../../../mesh/lib_51_MBTLE_CORE.a(radio_config.c.obj)
                                        0x700 (size before relaxing)
 .debug_str     0x000000000000d04c       0xab ../../../mesh/lib_51_MBTLE_CORE.a(rand.c.obj)
                                        0x70d (size before relaxing)
 .debug_str     0x000000000000d0f7       0x68 ../../../mesh/lib_51_MBTLE_CORE.a(ticker.c.obj)
                                        0x34e (size before relaxing)
 .debug_str     0x000000000000d15f      0x9cd ../../../mesh/lib_51_MBTLE_CORE.a(transport.c.obj)
                                       0x3285 (size before relaxing)
 .debug_str     0x000000000000db2c       0xec ../../../mesh/lib_51_MBTLE_CORE.a(internal_event.c.obj)
                                        0xa9b (size before relaxing)
 .debug_str     0x000000000000dc18      0x8ef ../../../mesh/lib_51_MBTLE_CORE.a(flash_manager.c.obj)
                                       0x1994 (size before relaxing)
 .debug_str     0x000000000000e507      0x3d6 ../../../mesh/lib_51_MBTLE_CORE.a(flash_manager_defrag.c.obj)
                                       0x1507 (size before relaxing)
 .debug_str     0x000000000000e8dd       0x64 ../../../mesh/lib_51_MBTLE_CORE.a(flash_manager_internal.c.obj)
                                        0x7e1 (size before relaxing)
 .debug_str     0x000000000000e941      0x16d ../../../mesh/lib_51_MBTLE_CORE.a(aes.c.obj)
                                        0xb80 (size before relaxing)
 .debug_str     0x000000000000eaae       0x50 ../../../mesh/lib_51_MBTLE_CORE.a(queue.c.obj)
                                        0x680 (size before relaxing)
 .debug_str     0x000000000000eafe      0x798 ../../../mesh/lib_51_MBTLE_CORE.a(timeslot.c.obj)
                                       0x1787 (size before relaxing)
 .debug_str     0x000000000000f296       0xfc ../../../mesh/lib_51_MBTLE_CORE.a(aes_cmac.c.obj)
                                        0x738 (size before relaxing)
 .debug_str     0x000000000000f392       0xb1 ../../../mesh/lib_51_MBTLE_CORE.a(ccm_soft.c.obj)
                                        0x780 (size before relaxing)
 .debug_str     0x000000000000f443       0xbf ../../../mesh/lib_51_MBTLE_CORE.a(msg_cache.c.obj)
                                        0x750 (size before relaxing)
 .debug_str     0x000000000000f502      0x262 ../../../mesh/lib_51_MBTLE_CORE.a(network.c.obj)
                                       0x15cd (size before relaxing)
 .debug_str     0x000000000000f764       0x46 ../../../mesh/lib_51_MBTLE_CORE.a(packet.c.obj)
                                        0x732 (size before relaxing)
 .debug_str     0x000000000000f7aa      0x2ae ../../../mesh/lib_51_MBTLE_CORE.a(packet_buffer.c.obj)
                                        0xba6 (size before relaxing)
 .debug_str     0x000000000000fa58       0xcb ../../../mesh/lib_51_MBTLE_CORE.a(replay_cache.c.obj)
                                        0x6b2 (size before relaxing)
 .debug_str     0x000000000000fb23      0x345 ../../../mesh/lib_51_MBTLE_CORE.a(mesh_flash.c.obj)
                                        0xbf7 (size before relaxing)
 .debug_str     0x000000000000fe68       0xa8 ../../../mesh/lib_51_MBTLE_CORE.a(nrf_flash.c.obj)
                                        0x6a6 (size before relaxing)
 .debug_str     0x000000000000ff10       0x7f ../../../mesh/lib_51_MBTLE_CORE.a(msqueue.c.obj)
                                        0x6bc (size before relaxing)
 .debug_str     0x000000000000ff8f      0x6a0 ../../../lib/micro-ecc/lib_51_UECC_LIB.a(uECC.c.obj)
                                        0x87d (size before relaxing)
 .debug_str     0x000000000001062f      0x2f8 ../../../lib/rtt/lib_51_RTT_LIB.a(SEGGER_RTT.c.obj)
                                        0x91f (size before relaxing)
 .debug_str     0x0000000000010927      0x143 ../../../lib/rtt/lib_51_RTT_LIB.a(SEGGER_RTT_printf.c.obj)
                                        0x7cc (size before relaxing)

.debug_frame    0x0000000000000000     0x51d4
 .debug_frame   0x0000000000000000       0x8c CMakeFiles/51_light_control_server.dir/src/main.c.obj
 .debug_frame   0x000000000000008c      0x240 CMakeFiles/51_light_control_server.dir/__/__/__/mesh/src/prov/provisioning.c.obj
 .debug_frame   0x00000000000002cc       0xe0 CMakeFiles/51_light_control_server.dir/__/__/__/mesh/src/prov/nrf_mesh_prov.c.obj
 .debug_frame   0x00000000000003ac      0x260 CMakeFiles/51_light_control_server.dir/__/__/__/mesh/src/prov/prov_bearer_adv.c.obj
 .debug_frame   0x000000000000060c      0x134 CMakeFiles/51_light_control_server.dir/__/__/__/mesh/src/prov/prov_utils.c.obj
 .debug_frame   0x0000000000000740       0x60 CMakeFiles/51_light_control_server.dir/__/__/__/mesh/src/prov/prov_beacon.c.obj
 .debug_frame   0x00000000000007a0      0x474 CMakeFiles/51_light_control_server.dir/__/__/__/mesh/src/access/access.c.obj
 .debug_frame   0x0000000000000c14       0xc0 CMakeFiles/51_light_control_server.dir/__/__/__/mesh/src/access/access_publish.c.obj
 .debug_frame   0x0000000000000cd4       0xe4 CMakeFiles/51_light_control_server.dir/__/__/__/mesh/src/access/access_reliable.c.obj
 .debug_frame   0x0000000000000db8      0x7e0 CMakeFiles/51_light_control_server.dir/__/__/__/mesh/src/access/device_state_manager.c.obj
 .debug_frame   0x0000000000001598       0xdc CMakeFiles/51_light_control_server.dir/__/__/__/mesh/src/access/nrf_mesh_node_config.c.obj
 .debug_frame   0x0000000000001674      0x600 CMakeFiles/51_light_control_server.dir/__/__/__/mesh/models/config/src/config_server.c.obj
 .debug_frame   0x0000000000001c74       0x40 CMakeFiles/51_light_control_server.dir/__/__/__/mesh/models/config/src/packed_index_list.c.obj
 .debug_frame   0x0000000000001cb4       0x3c CMakeFiles/51_light_control_server.dir/__/__/__/mesh/models/config/src/composition_data.c.obj
 .debug_frame   0x0000000000001cf0      0x124 CMakeFiles/51_light_control_server.dir/__/__/nrf_mesh_sdk.c.obj
 .debug_frame   0x0000000000001e14       0x88 CMakeFiles/51_light_control_server.dir/__/__/hal/src/simple_hal.c.obj
 .debug_frame   0x0000000000001e9c       0x8c CMakeFiles/51_light_control_server.dir/__/__/models/simple_on_off/src/simple_on_off_server.c.obj
 .debug_frame   0x0000000000001f28       0x30 CMakeFiles/51_light_control_server.dir/__/__/__/toolchain/system_nrf51.c.obj
 .debug_frame   0x0000000000001f58      0x144 ../../../mesh/lib_51_MBTLE_PB_ADV_EE.a(prov_provisionee.c.obj)
 .debug_frame   0x000000000000209c       0x30 ../../../mesh/lib_51_MBTLE_CORE.a(nrf_mesh_weak.c.obj)
 .debug_frame   0x00000000000020cc      0x324 ../../../mesh/lib_51_MBTLE_CORE.a(bearer_adv.c.obj)
 .debug_frame   0x00000000000023f0       0xd4 ../../../mesh/lib_51_MBTLE_CORE.a(fifo.c.obj)
 .debug_frame   0x00000000000024c4       0xa4 ../../../mesh/lib_51_MBTLE_CORE.a(packet_mgr.c.obj)
 .debug_frame   0x0000000000002568      0x16c ../../../mesh/lib_51_MBTLE_CORE.a(radio.c.obj)
 .debug_frame   0x00000000000026d4       0xf8 ../../../mesh/lib_51_MBTLE_CORE.a(timer.c.obj)
 .debug_frame   0x00000000000027cc      0x11c ../../../mesh/lib_51_MBTLE_CORE.a(timer_scheduler.c.obj)
 .debug_frame   0x00000000000028e8       0x90 ../../../mesh/lib_51_MBTLE_CORE.a(beacon.c.obj)
 .debug_frame   0x0000000000002978      0x188 ../../../mesh/lib_51_MBTLE_CORE.a(bearer.c.obj)
 .debug_frame   0x0000000000002b00      0x128 ../../../mesh/lib_51_MBTLE_CORE.a(bearer_event.c.obj)
 .debug_frame   0x0000000000002c28       0x50 ../../../mesh/lib_51_MBTLE_CORE.a(nrf_mesh_configure.c.obj)
 .debug_frame   0x0000000000002c78      0x150 ../../../mesh/lib_51_MBTLE_CORE.a(enc.c.obj)
 .debug_frame   0x0000000000002dc8       0x64 ../../../mesh/lib_51_MBTLE_CORE.a(event.c.obj)
 .debug_frame   0x0000000000002e2c       0xa0 ../../../mesh/lib_51_MBTLE_CORE.a(log.c.obj)
 .debug_frame   0x0000000000002ecc       0xa4 ../../../mesh/lib_51_MBTLE_CORE.a(net_beacon.c.obj)
 .debug_frame   0x0000000000002f70      0x1d8 ../../../mesh/lib_51_MBTLE_CORE.a(net_state.c.obj)
 .debug_frame   0x0000000000003148      0x140 ../../../mesh/lib_51_MBTLE_CORE.a(nrf_mesh.c.obj)
 .debug_frame   0x0000000000003288       0xa0 ../../../mesh/lib_51_MBTLE_CORE.a(nrf_mesh_keygen.c.obj)
 .debug_frame   0x0000000000003328       0x50 ../../../mesh/lib_51_MBTLE_CORE.a(nrf_mesh_utils.c.obj)
 .debug_frame   0x0000000000003378       0x40 ../../../mesh/lib_51_MBTLE_CORE.a(nrf_mesh_opt.c.obj)
 .debug_frame   0x00000000000033b8       0x84 ../../../mesh/lib_51_MBTLE_CORE.a(radio_config.c.obj)
 .debug_frame   0x000000000000343c       0x90 ../../../mesh/lib_51_MBTLE_CORE.a(rand.c.obj)
 .debug_frame   0x00000000000034cc       0x48 ../../../mesh/lib_51_MBTLE_CORE.a(ticker.c.obj)
 .debug_frame   0x0000000000003514      0x2c8 ../../../mesh/lib_51_MBTLE_CORE.a(transport.c.obj)
 .debug_frame   0x00000000000037dc       0x58 ../../../mesh/lib_51_MBTLE_CORE.a(internal_event.c.obj)
 .debug_frame   0x0000000000003834      0x264 ../../../mesh/lib_51_MBTLE_CORE.a(flash_manager.c.obj)
 .debug_frame   0x0000000000003a98      0x1e8 ../../../mesh/lib_51_MBTLE_CORE.a(flash_manager_defrag.c.obj)
 .debug_frame   0x0000000000003c80       0x38 ../../../mesh/lib_51_MBTLE_CORE.a(flash_manager_internal.c.obj)
 .debug_frame   0x0000000000003cb8       0x3c ../../../mesh/lib_51_MBTLE_CORE.a(aes.c.obj)
 .debug_frame   0x0000000000003cf4       0x74 ../../../mesh/lib_51_MBTLE_CORE.a(queue.c.obj)
 .debug_frame   0x0000000000003d68      0x178 ../../../mesh/lib_51_MBTLE_CORE.a(timeslot.c.obj)
 .debug_frame   0x0000000000003ee0       0x50 ../../../mesh/lib_51_MBTLE_CORE.a(aes_cmac.c.obj)
 .debug_frame   0x0000000000003f30       0xe0 ../../../mesh/lib_51_MBTLE_CORE.a(ccm_soft.c.obj)
 .debug_frame   0x0000000000004010       0x84 ../../../mesh/lib_51_MBTLE_CORE.a(msg_cache.c.obj)
 .debug_frame   0x0000000000004094       0xfc ../../../mesh/lib_51_MBTLE_CORE.a(network.c.obj)
 .debug_frame   0x0000000000004190       0x30 ../../../mesh/lib_51_MBTLE_CORE.a(packet.c.obj)
 .debug_frame   0x00000000000041c0      0x124 ../../../mesh/lib_51_MBTLE_CORE.a(packet_buffer.c.obj)
 .debug_frame   0x00000000000042e4       0xa8 ../../../mesh/lib_51_MBTLE_CORE.a(replay_cache.c.obj)
 .debug_frame   0x000000000000438c      0x10c ../../../mesh/lib_51_MBTLE_CORE.a(mesh_flash.c.obj)
 .debug_frame   0x0000000000004498       0x48 ../../../mesh/lib_51_MBTLE_CORE.a(nrf_flash.c.obj)
 .debug_frame   0x00000000000044e0       0x94 ../../../mesh/lib_51_MBTLE_CORE.a(msqueue.c.obj)
 .debug_frame   0x0000000000004574      0x5c4 ../../../lib/micro-ecc/lib_51_UECC_LIB.a(uECC.c.obj)
 .debug_frame   0x0000000000004b38      0x2dc ../../../lib/rtt/lib_51_RTT_LIB.a(SEGGER_RTT.c.obj)
 .debug_frame   0x0000000000004e14       0x9c ../../../lib/rtt/lib_51_RTT_LIB.a(SEGGER_RTT_printf.c.obj)
 .debug_frame   0x0000000000004eb0       0x20 /usr/bin/../lib/gcc/arm-none-eabi/6.3.1/thumb/v6-m/libgcc.a(_udivsi3.o)
 .debug_frame   0x0000000000004ed0       0x20 /usr/bin/../lib/gcc/arm-none-eabi/6.3.1/thumb/v6-m/libgcc.a(_divsi3.o)
 .debug_frame   0x0000000000004ef0       0x34 /usr/bin/../lib/gcc/arm-none-eabi/6.3.1/thumb/v6-m/libgcc.a(_muldi3.o)
 .debug_frame   0x0000000000004f24       0x28 /usr/bin/../lib/gcc/arm-none-eabi/6.3.1/../../../../arm-none-eabi/lib/thumb/v6-m/libg_nano.a(lib_a-exit.o)
 .debug_frame   0x0000000000004f4c       0x2c /usr/bin/../lib/gcc/arm-none-eabi/6.3.1/../../../../arm-none-eabi/lib/thumb/v6-m/libg_nano.a(lib_a-init.o)
 .debug_frame   0x0000000000004f78       0x40 /usr/bin/../lib/gcc/arm-none-eabi/6.3.1/../../../../arm-none-eabi/lib/thumb/v6-m/libg_nano.a(lib_a-malloc.o)
 .debug_frame   0x0000000000004fb8       0x2c /usr/bin/../lib/gcc/arm-none-eabi/6.3.1/../../../../arm-none-eabi/lib/thumb/v6-m/libg_nano.a(lib_a-memcmp.o)
 .debug_frame   0x0000000000004fe4       0x28 /usr/bin/../lib/gcc/arm-none-eabi/6.3.1/../../../../arm-none-eabi/lib/thumb/v6-m/libg_nano.a(lib_a-memcpy-stub.o)
 .debug_frame   0x000000000000500c       0x20 /usr/bin/../lib/gcc/arm-none-eabi/6.3.1/../../../../arm-none-eabi/lib/thumb/v6-m/libg_nano.a(lib_a-memset.o)
 .debug_frame   0x000000000000502c       0x2c /usr/bin/../lib/gcc/arm-none-eabi/6.3.1/../../../../arm-none-eabi/lib/thumb/v6-m/libg_nano.a(lib_a-nano-freer.o)
 .debug_frame   0x0000000000005058       0x2c /usr/bin/../lib/gcc/arm-none-eabi/6.3.1/../../../../arm-none-eabi/lib/thumb/v6-m/libg_nano.a(lib_a-nano-mallocr.o)
 .debug_frame   0x0000000000005084       0x2c /usr/bin/../lib/gcc/arm-none-eabi/6.3.1/../../../../arm-none-eabi/lib/thumb/v6-m/libg_nano.a(lib_a-sbrkr.o)
 .debug_frame   0x00000000000050b0       0x20 /usr/bin/../lib/gcc/arm-none-eabi/6.3.1/../../../../arm-none-eabi/lib/thumb/v6-m/libg_nano.a(lib_a-strcpy.o)
 .debug_frame   0x00000000000050d0       0x2c /usr/bin/../lib/gcc/arm-none-eabi/6.3.1/../../../../arm-none-eabi/lib/thumb/v6-m/libg_nano.a(lib_a-strrchr.o)
 .debug_frame   0x00000000000050fc       0x30 /usr/bin/../lib/gcc/arm-none-eabi/6.3.1/../../../../arm-none-eabi/lib/thumb/v6-m/libg_nano.a(lib_a-mlock.o)
 .debug_frame   0x000000000000512c       0x48 /usr/bin/../lib/gcc/arm-none-eabi/6.3.1/../../../../arm-none-eabi/lib/thumb/v6-m/libg_nano.a(lib_a-reent.o)
 .debug_frame   0x0000000000005174       0x20 /usr/bin/../lib/gcc/arm-none-eabi/6.3.1/../../../../arm-none-eabi/lib/thumb/v6-m/libg_nano.a(lib_a-strchr.o)
 .debug_frame   0x0000000000005194       0x20 /usr/bin/../lib/gcc/arm-none-eabi/6.3.1/../../../../arm-none-eabi/lib/thumb/v6-m/libnosys.a(sbrk.o)
 .debug_frame   0x00000000000051b4       0x20 /usr/bin/../lib/gcc/arm-none-eabi/6.3.1/../../../../arm-none-eabi/lib/thumb/v6-m/libnosys.a(_exit.o)
