Archive member included to satisfy reference by file (symbol)

../../mesh/lib_51_MBTLE_CORE.a(bearer_adv.c.obj)
                              CMakeFiles/51_beaconing.dir/src/main.c.obj (bearer_adv_advertiser_init)
../../mesh/lib_51_MBTLE_CORE.a(fifo.c.obj)
                              ../../mesh/lib_51_MBTLE_CORE.a(bearer_adv.c.obj) (fifo_init)
../../mesh/lib_51_MBTLE_CORE.a(packet_mgr.c.obj)
                              CMakeFiles/51_beaconing.dir/src/main.c.obj (packet_mgr_alloc)
../../mesh/lib_51_MBTLE_CORE.a(radio.c.obj)
                              ../../mesh/lib_51_MBTLE_CORE.a(bearer_adv.c.obj) (radio_init)
../../mesh/lib_51_MBTLE_CORE.a(timer.c.obj)
                              ../../mesh/lib_51_MBTLE_CORE.a(bearer_adv.c.obj) (timer_now)
../../mesh/lib_51_MBTLE_CORE.a(timer_scheduler.c.obj)
                              ../../mesh/lib_51_MBTLE_CORE.a(bearer_adv.c.obj) (timer_sch_abort)
../../mesh/lib_51_MBTLE_CORE.a(bearer.c.obj)
                              ../../mesh/lib_51_MBTLE_CORE.a(bearer_adv.c.obj) (bearer_adtype_filtering_set)
../../mesh/lib_51_MBTLE_CORE.a(bearer_event.c.obj)
                              ../../mesh/lib_51_MBTLE_CORE.a(bearer_adv.c.obj) (bearer_event_generic_post)
../../mesh/lib_51_MBTLE_CORE.a(event.c.obj)
                              CMakeFiles/51_beaconing.dir/__/__/mesh/src/access/device_state_manager.c.obj (event_handle)
../../mesh/lib_51_MBTLE_CORE.a(log.c.obj)
                              CMakeFiles/51_beaconing.dir/src/main.c.obj (log_callback_rtt)
../../mesh/lib_51_MBTLE_CORE.a(net_state.c.obj)
                              CMakeFiles/51_beaconing.dir/__/__/mesh/src/access/device_state_manager.c.obj (net_state_flash_area_get)
../../mesh/lib_51_MBTLE_CORE.a(nrf_mesh.c.obj)
                              CMakeFiles/51_beaconing.dir/src/main.c.obj (nrf_mesh_init)
../../mesh/lib_51_MBTLE_CORE.a(nrf_mesh_keygen.c.obj)
                              CMakeFiles/51_beaconing.dir/__/__/mesh/src/access/device_state_manager.c.obj (nrf_mesh_keygen_aid)
../../mesh/lib_51_MBTLE_CORE.a(nrf_mesh_utils.c.obj)
                              CMakeFiles/51_beaconing.dir/__/__/mesh/src/access/device_state_manager.c.obj (nrf_mesh_address_type_get)
../../mesh/lib_51_MBTLE_CORE.a(radio_config.c.obj)
                              ../../mesh/lib_51_MBTLE_CORE.a(radio.c.obj) (radio_config_reset)
../../mesh/lib_51_MBTLE_CORE.a(rand.c.obj)
                              ../../mesh/lib_51_MBTLE_CORE.a(bearer_adv.c.obj) (rand_prng_get)
../../mesh/lib_51_MBTLE_CORE.a(ticker.c.obj)
                              ../../mesh/lib_51_MBTLE_CORE.a(nrf_mesh.c.obj) (ticker_init)
../../mesh/lib_51_MBTLE_CORE.a(transport.c.obj)
                              ../../mesh/lib_51_MBTLE_CORE.a(nrf_mesh.c.obj) (transport_init)
../../mesh/lib_51_MBTLE_CORE.a(internal_event.c.obj)
                              ../../mesh/lib_51_MBTLE_CORE.a(bearer.c.obj) (internal_event_push)
../../mesh/lib_51_MBTLE_CORE.a(mesh_flash.c.obj)
                              ../../mesh/lib_51_MBTLE_CORE.a(nrf_mesh.c.obj) (mesh_flash_init)
../../mesh/lib_51_MBTLE_CORE.a(nrf_flash.c.obj)
                              ../../mesh/lib_51_MBTLE_CORE.a(mesh_flash.c.obj) (nrf_flash_erase)
../../mesh/lib_51_MBTLE_CORE.a(flash_manager.c.obj)
                              ../../mesh/lib_51_MBTLE_CORE.a(nrf_mesh.c.obj) (flash_manager_init)
../../mesh/lib_51_MBTLE_CORE.a(flash_manager_defrag.c.obj)
                              ../../mesh/lib_51_MBTLE_CORE.a(flash_manager.c.obj) (flash_manager_defrag_init)
../../mesh/lib_51_MBTLE_CORE.a(flash_manager_internal.c.obj)
                              ../../mesh/lib_51_MBTLE_CORE.a(flash_manager.c.obj) (entry_get)
../../mesh/lib_51_MBTLE_CORE.a(nrf_mesh_weak.c.obj)
                              ../../mesh/lib_51_MBTLE_CORE.a(nrf_mesh.c.obj) (nrf_mesh_dfu_rx)
../../mesh/lib_51_MBTLE_CORE.a(queue.c.obj)
                              ../../mesh/lib_51_MBTLE_CORE.a(flash_manager.c.obj) (queue_init)
../../mesh/lib_51_MBTLE_CORE.a(msqueue.c.obj)
                              ../../mesh/lib_51_MBTLE_CORE.a(mesh_flash.c.obj) (msq_get)
../../mesh/lib_51_MBTLE_CORE.a(timeslot.c.obj)
                              ../../mesh/lib_51_MBTLE_CORE.a(nrf_mesh.c.obj) (timeslot_sd_event_handler)
../../mesh/lib_51_MBTLE_CORE.a(beacon.c.obj)
                              ../../mesh/lib_51_MBTLE_CORE.a(nrf_mesh.c.obj) (beacon_init)
../../mesh/lib_51_MBTLE_CORE.a(nrf_mesh_configure.c.obj)
                              ../../mesh/lib_51_MBTLE_CORE.a(nrf_mesh.c.obj) (nrf_mesh_configure_device_uuid_reset)
../../mesh/lib_51_MBTLE_CORE.a(enc.c.obj)
                              ../../mesh/lib_51_MBTLE_CORE.a(nrf_mesh_keygen.c.obj) (enc_aes_cmac)
../../mesh/lib_51_MBTLE_CORE.a(msg_cache.c.obj)
                              ../../mesh/lib_51_MBTLE_CORE.a(nrf_mesh.c.obj) (msg_cache_init)
../../mesh/lib_51_MBTLE_CORE.a(network.c.obj)
                              ../../mesh/lib_51_MBTLE_CORE.a(transport.c.obj) (network_pkt_relay)
../../mesh/lib_51_MBTLE_CORE.a(net_beacon.c.obj)
                              ../../mesh/lib_51_MBTLE_CORE.a(network.c.obj) (net_beacon_init)
../../mesh/lib_51_MBTLE_CORE.a(packet.c.obj)
                              ../../mesh/lib_51_MBTLE_CORE.a(network.c.obj) (packet_type_packet_get)
../../mesh/lib_51_MBTLE_CORE.a(packet_buffer.c.obj)
                              ../../mesh/lib_51_MBTLE_CORE.a(flash_manager.c.obj) (packet_buffer_init)
../../mesh/lib_51_MBTLE_CORE.a(replay_cache.c.obj)
                              ../../mesh/lib_51_MBTLE_CORE.a(transport.c.obj) (replay_cache_add)
../../mesh/lib_51_MBTLE_CORE.a(aes.c.obj)
                              ../../mesh/lib_51_MBTLE_CORE.a(enc.c.obj) (aes_encrypt)
../../mesh/lib_51_MBTLE_CORE.a(aes_cmac.c.obj)
                              ../../mesh/lib_51_MBTLE_CORE.a(enc.c.obj) (aes_cmac)
../../mesh/lib_51_MBTLE_CORE.a(ccm_soft.c.obj)
                              ../../mesh/lib_51_MBTLE_CORE.a(enc.c.obj) (ccm_soft_encrypt)
../../lib/rtt/lib_51_RTT_LIB.a(SEGGER_RTT.c.obj)
                              ../../mesh/lib_51_MBTLE_CORE.a(log.c.obj) (SEGGER_RTT_Write)
../../lib/rtt/lib_51_RTT_LIB.a(SEGGER_RTT_printf.c.obj)
                              ../../mesh/lib_51_MBTLE_CORE.a(log.c.obj) (SEGGER_RTT_vprintf)
/usr/bin/../lib/gcc/arm-none-eabi/6.3.1/thumb/v6-m/libgcc.a(_udivsi3.o)
                              CMakeFiles/51_beaconing.dir/__/__/mesh/src/access/device_state_manager.c.obj (__aeabi_uidiv)
/usr/bin/../lib/gcc/arm-none-eabi/6.3.1/thumb/v6-m/libgcc.a(_divsi3.o)
                              ../../mesh/lib_51_MBTLE_CORE.a(packet_mgr.c.obj) (__aeabi_idiv)
/usr/bin/../lib/gcc/arm-none-eabi/6.3.1/thumb/v6-m/libgcc.a(_dvmd_tls.o)
                              /usr/bin/../lib/gcc/arm-none-eabi/6.3.1/thumb/v6-m/libgcc.a(_udivsi3.o) (__aeabi_idiv0)
/usr/bin/../lib/gcc/arm-none-eabi/6.3.1/thumb/v6-m/libgcc.a(_muldi3.o)
                              ../../mesh/lib_51_MBTLE_CORE.a(timeslot.c.obj) (__aeabi_lmul)
/usr/bin/../lib/gcc/arm-none-eabi/6.3.1/../../../../arm-none-eabi/lib/thumb/v6-m/libg_nano.a(lib_a-exit.o)
                              /usr/bin/../lib/gcc/arm-none-eabi/6.3.1/../../../../arm-none-eabi/lib/thumb/v6-m/crt0.o (exit)
/usr/bin/../lib/gcc/arm-none-eabi/6.3.1/../../../../arm-none-eabi/lib/thumb/v6-m/libg_nano.a(lib_a-impure.o)
                              /usr/bin/../lib/gcc/arm-none-eabi/6.3.1/../../../../arm-none-eabi/lib/thumb/v6-m/libg_nano.a(lib_a-exit.o) (_global_impure_ptr)
/usr/bin/../lib/gcc/arm-none-eabi/6.3.1/../../../../arm-none-eabi/lib/thumb/v6-m/libg_nano.a(lib_a-init.o)
                              /usr/bin/../lib/gcc/arm-none-eabi/6.3.1/../../../../arm-none-eabi/lib/thumb/v6-m/crt0.o (__libc_init_array)
/usr/bin/../lib/gcc/arm-none-eabi/6.3.1/../../../../arm-none-eabi/lib/thumb/v6-m/libg_nano.a(lib_a-malloc.o)
                              ../../mesh/lib_51_MBTLE_CORE.a(transport.c.obj) (malloc)
/usr/bin/../lib/gcc/arm-none-eabi/6.3.1/../../../../arm-none-eabi/lib/thumb/v6-m/libg_nano.a(lib_a-memcmp.o)
                              CMakeFiles/51_beaconing.dir/__/__/mesh/src/access/device_state_manager.c.obj (memcmp)
/usr/bin/../lib/gcc/arm-none-eabi/6.3.1/../../../../arm-none-eabi/lib/thumb/v6-m/libg_nano.a(lib_a-memcpy-stub.o)
                              CMakeFiles/51_beaconing.dir/src/main.c.obj (memcpy)
/usr/bin/../lib/gcc/arm-none-eabi/6.3.1/../../../../arm-none-eabi/lib/thumb/v6-m/libg_nano.a(lib_a-memset.o)
                              /usr/bin/../lib/gcc/arm-none-eabi/6.3.1/../../../../arm-none-eabi/lib/thumb/v6-m/crt0.o (memset)
/usr/bin/../lib/gcc/arm-none-eabi/6.3.1/../../../../arm-none-eabi/lib/thumb/v6-m/libg_nano.a(lib_a-nano-freer.o)
                              /usr/bin/../lib/gcc/arm-none-eabi/6.3.1/../../../../arm-none-eabi/lib/thumb/v6-m/libg_nano.a(lib_a-malloc.o) (_free_r)
/usr/bin/../lib/gcc/arm-none-eabi/6.3.1/../../../../arm-none-eabi/lib/thumb/v6-m/libg_nano.a(lib_a-nano-mallocr.o)
                              /usr/bin/../lib/gcc/arm-none-eabi/6.3.1/../../../../arm-none-eabi/lib/thumb/v6-m/libg_nano.a(lib_a-malloc.o) (_malloc_r)
/usr/bin/../lib/gcc/arm-none-eabi/6.3.1/../../../../arm-none-eabi/lib/thumb/v6-m/libg_nano.a(lib_a-sbrkr.o)
                              /usr/bin/../lib/gcc/arm-none-eabi/6.3.1/../../../../arm-none-eabi/lib/thumb/v6-m/libg_nano.a(lib_a-nano-mallocr.o) (_sbrk_r)
/usr/bin/../lib/gcc/arm-none-eabi/6.3.1/../../../../arm-none-eabi/lib/thumb/v6-m/libg_nano.a(lib_a-sprintf.o)
                              CMakeFiles/51_beaconing.dir/src/main.c.obj (sprintf)
/usr/bin/../lib/gcc/arm-none-eabi/6.3.1/../../../../arm-none-eabi/lib/thumb/v6-m/libg_nano.a(lib_a-strcpy.o)
                              ../../lib/rtt/lib_51_RTT_LIB.a(SEGGER_RTT.c.obj) (strcpy)
/usr/bin/../lib/gcc/arm-none-eabi/6.3.1/../../../../arm-none-eabi/lib/thumb/v6-m/libg_nano.a(lib_a-strlen.o)
                              ../../lib/rtt/lib_51_RTT_LIB.a(SEGGER_RTT.c.obj) (strlen)
/usr/bin/../lib/gcc/arm-none-eabi/6.3.1/../../../../arm-none-eabi/lib/thumb/v6-m/libg_nano.a(lib_a-strrchr.o)
                              CMakeFiles/51_beaconing.dir/src/main.c.obj (strrchr)
/usr/bin/../lib/gcc/arm-none-eabi/6.3.1/../../../../arm-none-eabi/lib/thumb/v6-m/libg_nano.a(lib_a-mlock.o)
                              /usr/bin/../lib/gcc/arm-none-eabi/6.3.1/../../../../arm-none-eabi/lib/thumb/v6-m/libg_nano.a(lib_a-nano-freer.o) (__malloc_lock)
/usr/bin/../lib/gcc/arm-none-eabi/6.3.1/../../../../arm-none-eabi/lib/thumb/v6-m/libg_nano.a(lib_a-nano-svfprintf.o)
                              /usr/bin/../lib/gcc/arm-none-eabi/6.3.1/../../../../arm-none-eabi/lib/thumb/v6-m/libg_nano.a(lib_a-sprintf.o) (_svfprintf_r)
/usr/bin/../lib/gcc/arm-none-eabi/6.3.1/../../../../arm-none-eabi/lib/thumb/v6-m/libg_nano.a(lib_a-nano-vfprintf_i.o)
                              /usr/bin/../lib/gcc/arm-none-eabi/6.3.1/../../../../arm-none-eabi/lib/thumb/v6-m/libg_nano.a(lib_a-nano-svfprintf.o) (_printf_i)
/usr/bin/../lib/gcc/arm-none-eabi/6.3.1/../../../../arm-none-eabi/lib/thumb/v6-m/libg_nano.a(lib_a-reent.o)
                              /usr/bin/../lib/gcc/arm-none-eabi/6.3.1/../../../../arm-none-eabi/lib/thumb/v6-m/libg_nano.a(lib_a-sbrkr.o) (errno)
/usr/bin/../lib/gcc/arm-none-eabi/6.3.1/../../../../arm-none-eabi/lib/thumb/v6-m/libg_nano.a(lib_a-strchr.o)
                              /usr/bin/../lib/gcc/arm-none-eabi/6.3.1/../../../../arm-none-eabi/lib/thumb/v6-m/libg_nano.a(lib_a-strrchr.o) (strchr)
/usr/bin/../lib/gcc/arm-none-eabi/6.3.1/../../../../arm-none-eabi/lib/thumb/v6-m/libg_nano.a(lib_a-memchr-stub.o)
                              /usr/bin/../lib/gcc/arm-none-eabi/6.3.1/../../../../arm-none-eabi/lib/thumb/v6-m/libg_nano.a(lib_a-nano-svfprintf.o) (memchr)
/usr/bin/../lib/gcc/arm-none-eabi/6.3.1/../../../../arm-none-eabi/lib/thumb/v6-m/libg_nano.a(lib_a-memmove.o)
                              /usr/bin/../lib/gcc/arm-none-eabi/6.3.1/../../../../arm-none-eabi/lib/thumb/v6-m/libg_nano.a(lib_a-nano-svfprintf.o) (memmove)
/usr/bin/../lib/gcc/arm-none-eabi/6.3.1/../../../../arm-none-eabi/lib/thumb/v6-m/libg_nano.a(lib_a-nano-reallocr.o)
                              /usr/bin/../lib/gcc/arm-none-eabi/6.3.1/../../../../arm-none-eabi/lib/thumb/v6-m/libg_nano.a(lib_a-nano-svfprintf.o) (_realloc_r)
/usr/bin/../lib/gcc/arm-none-eabi/6.3.1/../../../../arm-none-eabi/lib/thumb/v6-m/libg_nano.a(lib_a-nano-msizer.o)
                              /usr/bin/../lib/gcc/arm-none-eabi/6.3.1/../../../../arm-none-eabi/lib/thumb/v6-m/libg_nano.a(lib_a-nano-reallocr.o) (_malloc_usable_size_r)
/usr/bin/../lib/gcc/arm-none-eabi/6.3.1/../../../../arm-none-eabi/lib/thumb/v6-m/libnosys.a(sbrk.o)
                              /usr/bin/../lib/gcc/arm-none-eabi/6.3.1/../../../../arm-none-eabi/lib/thumb/v6-m/libg_nano.a(lib_a-sbrkr.o) (_sbrk)
/usr/bin/../lib/gcc/arm-none-eabi/6.3.1/../../../../arm-none-eabi/lib/thumb/v6-m/libnosys.a(_exit.o)
                              /usr/bin/../lib/gcc/arm-none-eabi/6.3.1/../../../../arm-none-eabi/lib/thumb/v6-m/libg_nano.a(lib_a-exit.o) (_exit)

Allocating common symbols
Common symbol       size              file

nrf_nvic_state      0x8               CMakeFiles/51_beaconing.dir/__/nrf_mesh_sdk.c.obj
errno               0x4               /usr/bin/../lib/gcc/arm-none-eabi/6.3.1/../../../../arm-none-eabi/lib/thumb/v6-m/libg_nano.a(lib_a-reent.o)
m_assertion_handler
                    0x4               ../../mesh/lib_51_MBTLE_CORE.a(nrf_mesh.c.obj)
_SEGGER_RTT         0x78              ../../lib/rtt/lib_51_RTT_LIB.a(SEGGER_RTT.c.obj)

Discarded input sections

 .text          0x0000000000000000        0x0 /usr/bin/../lib/gcc/arm-none-eabi/6.3.1/thumb/v6-m/crti.o
 .data          0x0000000000000000        0x0 /usr/bin/../lib/gcc/arm-none-eabi/6.3.1/thumb/v6-m/crti.o
 .bss           0x0000000000000000        0x0 /usr/bin/../lib/gcc/arm-none-eabi/6.3.1/thumb/v6-m/crti.o
 .data          0x0000000000000000        0x4 /usr/bin/../lib/gcc/arm-none-eabi/6.3.1/thumb/v6-m/crtbegin.o
 .data          0x0000000000000000        0x0 /usr/bin/../lib/gcc/arm-none-eabi/6.3.1/../../../../arm-none-eabi/lib/thumb/v6-m/crt0.o
 .bss           0x0000000000000000        0x0 /usr/bin/../lib/gcc/arm-none-eabi/6.3.1/../../../../arm-none-eabi/lib/thumb/v6-m/crt0.o
 .ARM.extab     0x0000000000000000        0x0 /usr/bin/../lib/gcc/arm-none-eabi/6.3.1/../../../../arm-none-eabi/lib/thumb/v6-m/crt0.o
 .text          0x0000000000000000        0x0 CMakeFiles/51_beaconing.dir/src/main.c.obj
 .data          0x0000000000000000        0x0 CMakeFiles/51_beaconing.dir/src/main.c.obj
 .bss           0x0000000000000000        0x0 CMakeFiles/51_beaconing.dir/src/main.c.obj
 .text          0x0000000000000000        0x0 CMakeFiles/51_beaconing.dir/__/nrf_mesh_sdk.c.obj
 .data          0x0000000000000000        0x0 CMakeFiles/51_beaconing.dir/__/nrf_mesh_sdk.c.obj
 .bss           0x0000000000000000        0x0 CMakeFiles/51_beaconing.dir/__/nrf_mesh_sdk.c.obj
 .text          0x0000000000000000        0x0 CMakeFiles/51_beaconing.dir/__/__/mesh/src/access/device_state_manager.c.obj
 .data          0x0000000000000000        0x0 CMakeFiles/51_beaconing.dir/__/__/mesh/src/access/device_state_manager.c.obj
 .bss           0x0000000000000000        0x0 CMakeFiles/51_beaconing.dir/__/__/mesh/src/access/device_state_manager.c.obj
 .text.dev_key_handle_get
                0x0000000000000000       0x30 CMakeFiles/51_beaconing.dir/__/__/mesh/src/access/device_state_manager.c.obj
 .text.app_key_handle_get
                0x0000000000000000       0x70 CMakeFiles/51_beaconing.dir/__/__/mesh/src/access/device_state_manager.c.obj
 .text.nonvirtual_address_set
                0x0000000000000000       0x3c CMakeFiles/51_beaconing.dir/__/__/mesh/src/access/device_state_manager.c.obj
 .text.addr_nonvirtual_to_dsm_entry
                0x0000000000000000        0xe CMakeFiles/51_beaconing.dir/__/__/mesh/src/access/device_state_manager.c.obj
 .text.addr_nonvirtual_to_flash_entry
                0x0000000000000000       0x10 CMakeFiles/51_beaconing.dir/__/__/mesh/src/access/device_state_manager.c.obj
 .text.flash_mem_listener_callback
                0x0000000000000000       0x20 CMakeFiles/51_beaconing.dir/__/__/mesh/src/access/device_state_manager.c.obj
 .text.devkey_set
                0x0000000000000000       0x60 CMakeFiles/51_beaconing.dir/__/__/mesh/src/access/device_state_manager.c.obj
 .text.devkey_to_dsm_entry
                0x0000000000000000       0x14 CMakeFiles/51_beaconing.dir/__/__/mesh/src/access/device_state_manager.c.obj
 .text.devkey_to_flash_entry
                0x0000000000000000       0x28 CMakeFiles/51_beaconing.dir/__/__/mesh/src/access/device_state_manager.c.obj
 .text.appkey_to_flash_entry
                0x0000000000000000       0x28 CMakeFiles/51_beaconing.dir/__/__/mesh/src/access/device_state_manager.c.obj
 .text.subnet_to_flash_entry
                0x0000000000000000       0x20 CMakeFiles/51_beaconing.dir/__/__/mesh/src/access/device_state_manager.c.obj
 .text.addr_virtual_to_flash_entry
                0x0000000000000000       0x20 CMakeFiles/51_beaconing.dir/__/__/mesh/src/access/device_state_manager.c.obj
 .text.addr_unicast_to_dsm_entry
                0x0000000000000000       0x10 CMakeFiles/51_beaconing.dir/__/__/mesh/src/access/device_state_manager.c.obj
 .text.addr_unicast_to_flash_entry
                0x0000000000000000       0x14 CMakeFiles/51_beaconing.dir/__/__/mesh/src/access/device_state_manager.c.obj
 .text.appkey_set
                0x0000000000000000       0x8c CMakeFiles/51_beaconing.dir/__/__/mesh/src/access/device_state_manager.c.obj
 .text.appkey_to_dsm_entry
                0x0000000000000000       0x12 CMakeFiles/51_beaconing.dir/__/__/mesh/src/access/device_state_manager.c.obj
 .text.subnet_set
                0x0000000000000000       0xb4 CMakeFiles/51_beaconing.dir/__/__/mesh/src/access/device_state_manager.c.obj
 .text.subnet_to_dsm_entry
                0x0000000000000000       0x10 CMakeFiles/51_beaconing.dir/__/__/mesh/src/access/device_state_manager.c.obj
 .text.virtual_address_set
                0x0000000000000000       0x6c CMakeFiles/51_beaconing.dir/__/__/mesh/src/access/device_state_manager.c.obj
 .text.addr_virtual_to_dsm_entry
                0x0000000000000000       0x12 CMakeFiles/51_beaconing.dir/__/__/mesh/src/access/device_state_manager.c.obj
 .text.flash_save
                0x0000000000000000       0x94 CMakeFiles/51_beaconing.dir/__/__/mesh/src/access/device_state_manager.c.obj
 .text.flash_invalidate
                0x0000000000000000       0x80 CMakeFiles/51_beaconing.dir/__/__/mesh/src/access/device_state_manager.c.obj
 .text.flash_update_all
                0x0000000000000000       0xd4 CMakeFiles/51_beaconing.dir/__/__/mesh/src/access/device_state_manager.c.obj
 .text.address_delete_if_unused
                0x0000000000000000       0xc8 CMakeFiles/51_beaconing.dir/__/__/mesh/src/access/device_state_manager.c.obj
 .text.flash_operation_complete
                0x0000000000000000       0x6c CMakeFiles/51_beaconing.dir/__/__/mesh/src/access/device_state_manager.c.obj
 .text.flash_invalidate_complete
                0x0000000000000000        0xc CMakeFiles/51_beaconing.dir/__/__/mesh/src/access/device_state_manager.c.obj
 .text.flash_write_complete
                0x0000000000000000        0xc CMakeFiles/51_beaconing.dir/__/__/mesh/src/access/device_state_manager.c.obj
 .text.reset_flash_area
                0x0000000000000000       0x28 CMakeFiles/51_beaconing.dir/__/__/mesh/src/access/device_state_manager.c.obj
 .text.add_address
                0x0000000000000000      0x160 CMakeFiles/51_beaconing.dir/__/__/mesh/src/access/device_state_manager.c.obj
 .text.add_address_virtual
                0x0000000000000000       0x94 CMakeFiles/51_beaconing.dir/__/__/mesh/src/access/device_state_manager.c.obj
 .text.dsm_flash_config_load
                0x0000000000000000      0x140 CMakeFiles/51_beaconing.dir/__/__/mesh/src/access/device_state_manager.c.obj
 .text.dsm_has_unflashed_data
                0x0000000000000000       0x5c CMakeFiles/51_beaconing.dir/__/__/mesh/src/access/device_state_manager.c.obj
 .text.dsm_flash_area_get
                0x0000000000000000       0x14 CMakeFiles/51_beaconing.dir/__/__/mesh/src/access/device_state_manager.c.obj
 .text.build_flash_area
                0x0000000000000000       0x90 CMakeFiles/51_beaconing.dir/__/__/mesh/src/access/device_state_manager.c.obj
 .text.dsm_init
                0x0000000000000000       0x28 CMakeFiles/51_beaconing.dir/__/__/mesh/src/access/device_state_manager.c.obj
 .text.flash_remove_complete
                0x0000000000000000        0x8 CMakeFiles/51_beaconing.dir/__/__/mesh/src/access/device_state_manager.c.obj
 .text.dsm_clear
                0x0000000000000000       0x74 CMakeFiles/51_beaconing.dir/__/__/mesh/src/access/device_state_manager.c.obj
 .text.dsm_local_unicast_addresses_set
                0x0000000000000000       0x84 CMakeFiles/51_beaconing.dir/__/__/mesh/src/access/device_state_manager.c.obj
 .text.dsm_local_unicast_addresses_get
                0x0000000000000000       0x2c CMakeFiles/51_beaconing.dir/__/__/mesh/src/access/device_state_manager.c.obj
 .text.dsm_address_publish_add
                0x0000000000000000        0xa CMakeFiles/51_beaconing.dir/__/__/mesh/src/access/device_state_manager.c.obj
 .text.dsm_address_publish_add_handle
                0x0000000000000000       0x78 CMakeFiles/51_beaconing.dir/__/__/mesh/src/access/device_state_manager.c.obj
 .text.dsm_address_publish_virtual_add
                0x0000000000000000        0xa CMakeFiles/51_beaconing.dir/__/__/mesh/src/access/device_state_manager.c.obj
 .text.dsm_address_publish_remove
                0x0000000000000000       0x80 CMakeFiles/51_beaconing.dir/__/__/mesh/src/access/device_state_manager.c.obj
 .text.dsm_address_subscription_add
                0x0000000000000000        0xa CMakeFiles/51_beaconing.dir/__/__/mesh/src/access/device_state_manager.c.obj
 .text.dsm_address_subscription_virtual_add
                0x0000000000000000        0xa CMakeFiles/51_beaconing.dir/__/__/mesh/src/access/device_state_manager.c.obj
 .text.dsm_address_subscription_add_handle
                0x0000000000000000       0x78 CMakeFiles/51_beaconing.dir/__/__/mesh/src/access/device_state_manager.c.obj
 .text.dsm_address_subscription_get
                0x0000000000000000       0x7c CMakeFiles/51_beaconing.dir/__/__/mesh/src/access/device_state_manager.c.obj
 .text.dsm_address_get
                0x0000000000000000       0x90 CMakeFiles/51_beaconing.dir/__/__/mesh/src/access/device_state_manager.c.obj
 .text.dsm_address_subscription_count_get
                0x0000000000000000       0x98 CMakeFiles/51_beaconing.dir/__/__/mesh/src/access/device_state_manager.c.obj
 .text.dsm_address_subscription_remove
                0x0000000000000000       0xbc CMakeFiles/51_beaconing.dir/__/__/mesh/src/access/device_state_manager.c.obj
 .text.dsm_address_get_all
                0x0000000000000000       0xac CMakeFiles/51_beaconing.dir/__/__/mesh/src/access/device_state_manager.c.obj
 .text.dsm_address_handle_get
                0x0000000000000000       0xc8 CMakeFiles/51_beaconing.dir/__/__/mesh/src/access/device_state_manager.c.obj
 .text.dsm_net_key_index_to_subnet_handle
                0x0000000000000000       0x60 CMakeFiles/51_beaconing.dir/__/__/mesh/src/access/device_state_manager.c.obj
 .text.dsm_subnet_handle_get
                0x0000000000000000       0x14 CMakeFiles/51_beaconing.dir/__/__/mesh/src/access/device_state_manager.c.obj
 .text.dsm_subnet_handle_to_netkey_index
                0x0000000000000000       0x40 CMakeFiles/51_beaconing.dir/__/__/mesh/src/access/device_state_manager.c.obj
 .text.dsm_app_key_index_to_appkey_handle
                0x0000000000000000       0x20 CMakeFiles/51_beaconing.dir/__/__/mesh/src/access/device_state_manager.c.obj
 .text.dsm_appkey_handle_get
                0x0000000000000000       0x14 CMakeFiles/51_beaconing.dir/__/__/mesh/src/access/device_state_manager.c.obj
 .text.dsm_appkey_handle_to_appkey_index
                0x0000000000000000       0x40 CMakeFiles/51_beaconing.dir/__/__/mesh/src/access/device_state_manager.c.obj
 .text.dsm_subnet_add
                0x0000000000000000       0xac CMakeFiles/51_beaconing.dir/__/__/mesh/src/access/device_state_manager.c.obj
 .text.dsm_subnet_update
                0x0000000000000000       0x4c CMakeFiles/51_beaconing.dir/__/__/mesh/src/access/device_state_manager.c.obj
 .text.dsm_subnet_get_all
                0x0000000000000000       0x78 CMakeFiles/51_beaconing.dir/__/__/mesh/src/access/device_state_manager.c.obj
 .text.dsm_devkey_add
                0x0000000000000000       0x8c CMakeFiles/51_beaconing.dir/__/__/mesh/src/access/device_state_manager.c.obj
 .text.dsm_devkey_delete
                0x0000000000000000       0x38 CMakeFiles/51_beaconing.dir/__/__/mesh/src/access/device_state_manager.c.obj
 .text.dsm_devkey_handle_get
                0x0000000000000000       0x3a CMakeFiles/51_beaconing.dir/__/__/mesh/src/access/device_state_manager.c.obj
 .text.dsm_appkey_add
                0x0000000000000000       0x8c CMakeFiles/51_beaconing.dir/__/__/mesh/src/access/device_state_manager.c.obj
 .text.dsm_appkey_update
                0x0000000000000000       0x54 CMakeFiles/51_beaconing.dir/__/__/mesh/src/access/device_state_manager.c.obj
 .text.dsm_appkey_delete
                0x0000000000000000       0x38 CMakeFiles/51_beaconing.dir/__/__/mesh/src/access/device_state_manager.c.obj
 .text.dsm_subnet_delete
                0x0000000000000000       0xd4 CMakeFiles/51_beaconing.dir/__/__/mesh/src/access/device_state_manager.c.obj
 .text.dsm_appkey_get_all
                0x0000000000000000       0xb0 CMakeFiles/51_beaconing.dir/__/__/mesh/src/access/device_state_manager.c.obj
 .text.dsm_tx_secmat_get
                0x0000000000000000      0x144 CMakeFiles/51_beaconing.dir/__/__/mesh/src/access/device_state_manager.c.obj
 .text.dsm_beacon_secmat_get
                0x0000000000000000       0x44 CMakeFiles/51_beaconing.dir/__/__/mesh/src/access/device_state_manager.c.obj
 .text.dsm_proxy_identity_get
                0x0000000000000000        0x4 CMakeFiles/51_beaconing.dir/__/__/mesh/src/access/device_state_manager.c.obj
 .bss.m_addr_nonvirtual_needs_flashing
                0x0000000000000000        0x4 CMakeFiles/51_beaconing.dir/__/__/mesh/src/access/device_state_manager.c.obj
 .bss.m_addr_unicast_needs_flashing
                0x0000000000000000        0x4 CMakeFiles/51_beaconing.dir/__/__/mesh/src/access/device_state_manager.c.obj
 .bss.m_addr_virtual_needs_flashing
                0x0000000000000000        0x4 CMakeFiles/51_beaconing.dir/__/__/mesh/src/access/device_state_manager.c.obj
 .bss.m_appkey_needs_flashing
                0x0000000000000000        0x4 CMakeFiles/51_beaconing.dir/__/__/mesh/src/access/device_state_manager.c.obj
 .bss.m_devkey_allocated
                0x0000000000000000        0x4 CMakeFiles/51_beaconing.dir/__/__/mesh/src/access/device_state_manager.c.obj
 .bss.m_devkey_needs_flashing
                0x0000000000000000        0x4 CMakeFiles/51_beaconing.dir/__/__/mesh/src/access/device_state_manager.c.obj
 .bss.m_flash_is_available
                0x0000000000000000        0x1 CMakeFiles/51_beaconing.dir/__/__/mesh/src/access/device_state_manager.c.obj
 .bss.m_flash_manager
                0x0000000000000000       0x24 CMakeFiles/51_beaconing.dir/__/__/mesh/src/access/device_state_manager.c.obj
 .bss.m_flash_mem_listener_update_all
                0x0000000000000000       0x10 CMakeFiles/51_beaconing.dir/__/__/mesh/src/access/device_state_manager.c.obj
 .bss.m_subnet_needs_flashing
                0x0000000000000000        0x4 CMakeFiles/51_beaconing.dir/__/__/mesh/src/access/device_state_manager.c.obj
 .data.mem_listener.8178
                0x0000000000000000       0x10 CMakeFiles/51_beaconing.dir/__/__/mesh/src/access/device_state_manager.c.obj
 .data.mem_listener.8204
                0x0000000000000000       0x10 CMakeFiles/51_beaconing.dir/__/__/mesh/src/access/device_state_manager.c.obj
 .rodata.m_flash_groups
                0x0000000000000000       0xc0 CMakeFiles/51_beaconing.dir/__/__/mesh/src/access/device_state_manager.c.obj
 .data          0x0000000000000000        0x0 CMakeFiles/51_beaconing.dir/__/__/toolchain/gcc/gcc_startup_nrf51.S.obj
 .bss           0x0000000000000000        0x0 CMakeFiles/51_beaconing.dir/__/__/toolchain/gcc/gcc_startup_nrf51.S.obj
 .text          0x0000000000000000        0x0 CMakeFiles/51_beaconing.dir/__/__/toolchain/system_nrf51.c.obj
 .data          0x0000000000000000        0x0 CMakeFiles/51_beaconing.dir/__/__/toolchain/system_nrf51.c.obj
 .bss           0x0000000000000000        0x0 CMakeFiles/51_beaconing.dir/__/__/toolchain/system_nrf51.c.obj
 .text.SystemCoreClockUpdate
                0x0000000000000000       0x10 CMakeFiles/51_beaconing.dir/__/__/toolchain/system_nrf51.c.obj
 .data.SystemCoreClock
                0x0000000000000000        0x4 CMakeFiles/51_beaconing.dir/__/__/toolchain/system_nrf51.c.obj
 .text          0x0000000000000000        0x0 ../../mesh/lib_51_MBTLE_CORE.a(bearer_adv.c.obj)
 .data          0x0000000000000000        0x0 ../../mesh/lib_51_MBTLE_CORE.a(bearer_adv.c.obj)
 .bss           0x0000000000000000        0x0 ../../mesh/lib_51_MBTLE_CORE.a(bearer_adv.c.obj)
 .text.bearer_adv_opt_get
                0x0000000000000000       0xd8 ../../mesh/lib_51_MBTLE_CORE.a(bearer_adv.c.obj)
 .rodata.bearer_adv_opt_get
                0x0000000000000000       0x1c ../../mesh/lib_51_MBTLE_CORE.a(bearer_adv.c.obj)
 .text.bearer_adv_available
                0x0000000000000000       0x10 ../../mesh/lib_51_MBTLE_CORE.a(bearer_adv.c.obj)
 .text.bearer_adv_tx_raw
                0x0000000000000000       0x30 ../../mesh/lib_51_MBTLE_CORE.a(bearer_adv.c.obj)
 .text.bearer_adv_adv_stop
                0x0000000000000000       0x1a ../../mesh/lib_51_MBTLE_CORE.a(bearer_adv.c.obj)
 .text.bearer_adv_adv_start
                0x0000000000000000       0x26 ../../mesh/lib_51_MBTLE_CORE.a(bearer_adv.c.obj)
 .text.bearer_adv_flush_tx
                0x0000000000000000       0x56 ../../mesh/lib_51_MBTLE_CORE.a(bearer_adv.c.obj)
 .text.bearer_adv_interval_reset
                0x0000000000000000       0x30 ../../mesh/lib_51_MBTLE_CORE.a(bearer_adv.c.obj)
 .text.bearer_adv_opt_set
                0x0000000000000000      0x124 ../../mesh/lib_51_MBTLE_CORE.a(bearer_adv.c.obj)
 .rodata.bearer_adv_opt_set
                0x0000000000000000       0x28 ../../mesh/lib_51_MBTLE_CORE.a(bearer_adv.c.obj)
 .text.bearer_adv_scan_stop
                0x0000000000000000       0x28 ../../mesh/lib_51_MBTLE_CORE.a(bearer_adv.c.obj)
 .text.bearer_adv_addr_set
                0x0000000000000000       0x3c ../../mesh/lib_51_MBTLE_CORE.a(bearer_adv.c.obj)
 .rodata.bearer_adv_opt_get.str1.4
                0x0000000000000000       0x15 ../../mesh/lib_51_MBTLE_CORE.a(bearer_adv.c.obj)
 .text          0x0000000000000000        0x0 ../../mesh/lib_51_MBTLE_CORE.a(fifo.c.obj)
 .data          0x0000000000000000        0x0 ../../mesh/lib_51_MBTLE_CORE.a(fifo.c.obj)
 .bss           0x0000000000000000        0x0 ../../mesh/lib_51_MBTLE_CORE.a(fifo.c.obj)
 .text.fifo_flush
                0x0000000000000000        0x6 ../../mesh/lib_51_MBTLE_CORE.a(fifo.c.obj)
 .text.fifo_is_full
                0x0000000000000000       0x14 ../../mesh/lib_51_MBTLE_CORE.a(fifo.c.obj)
 .text          0x0000000000000000        0x0 ../../mesh/lib_51_MBTLE_CORE.a(packet_mgr.c.obj)
 .data          0x0000000000000000        0x0 ../../mesh/lib_51_MBTLE_CORE.a(packet_mgr.c.obj)
 .bss           0x0000000000000000        0x0 ../../mesh/lib_51_MBTLE_CORE.a(packet_mgr.c.obj)
 .text.packet_mgr_get_free_space
                0x0000000000000000       0x1c ../../mesh/lib_51_MBTLE_CORE.a(packet_mgr.c.obj)
 .text.packet_mgr_refcount_get
                0x0000000000000000        0x6 ../../mesh/lib_51_MBTLE_CORE.a(packet_mgr.c.obj)
 .text.packet_mgr_size_get
                0x0000000000000000        0x6 ../../mesh/lib_51_MBTLE_CORE.a(packet_mgr.c.obj)
 .text          0x0000000000000000        0x0 ../../mesh/lib_51_MBTLE_CORE.a(radio.c.obj)
 .data          0x0000000000000000        0x0 ../../mesh/lib_51_MBTLE_CORE.a(radio.c.obj)
 .bss           0x0000000000000000        0x0 ../../mesh/lib_51_MBTLE_CORE.a(radio.c.obj)
 .text.radio_mode_set
                0x0000000000000000       0x14 ../../mesh/lib_51_MBTLE_CORE.a(radio.c.obj)
 .text.radio_access_addr_set
                0x0000000000000000        0xc ../../mesh/lib_51_MBTLE_CORE.a(radio.c.obj)
 .text.radio_tx_power_set
                0x0000000000000000        0xc ../../mesh/lib_51_MBTLE_CORE.a(radio.c.obj)
 .text.radio_mode_get
                0x0000000000000000        0xc ../../mesh/lib_51_MBTLE_CORE.a(radio.c.obj)
 .text.radio_access_addr_get
                0x0000000000000000        0xc ../../mesh/lib_51_MBTLE_CORE.a(radio.c.obj)
 .text.radio_tx_power_get
                0x0000000000000000        0xc ../../mesh/lib_51_MBTLE_CORE.a(radio.c.obj)
 .text.radio_resume
                0x0000000000000000       0x40 ../../mesh/lib_51_MBTLE_CORE.a(radio.c.obj)
 .text          0x0000000000000000        0x0 ../../mesh/lib_51_MBTLE_CORE.a(timer.c.obj)
 .data          0x0000000000000000        0x0 ../../mesh/lib_51_MBTLE_CORE.a(timer.c.obj)
 .bss           0x0000000000000000        0x0 ../../mesh/lib_51_MBTLE_CORE.a(timer.c.obj)
 .text.timer_order_cb_ppi
                0x0000000000000000       0xd0 ../../mesh/lib_51_MBTLE_CORE.a(timer.c.obj)
 .text.timer_order_ppi
                0x0000000000000000       0x90 ../../mesh/lib_51_MBTLE_CORE.a(timer.c.obj)
 .text          0x0000000000000000        0x0 ../../mesh/lib_51_MBTLE_CORE.a(timer_scheduler.c.obj)
 .data          0x0000000000000000        0x0 ../../mesh/lib_51_MBTLE_CORE.a(timer_scheduler.c.obj)
 .bss           0x0000000000000000        0x0 ../../mesh/lib_51_MBTLE_CORE.a(timer_scheduler.c.obj)
 .text          0x0000000000000000        0x0 ../../mesh/lib_51_MBTLE_CORE.a(bearer.c.obj)
 .data          0x0000000000000000        0x0 ../../mesh/lib_51_MBTLE_CORE.a(bearer.c.obj)
 .bss           0x0000000000000000        0x0 ../../mesh/lib_51_MBTLE_CORE.a(bearer.c.obj)
 .text.gap_addr_filter_set
                0x0000000000000000       0x40 ../../mesh/lib_51_MBTLE_CORE.a(bearer.c.obj)
 .text.bearer_adtype_filtering_set
                0x0000000000000000        0xc ../../mesh/lib_51_MBTLE_CORE.a(bearer.c.obj)
 .text.bearer_adtype_add
                0x0000000000000000       0x1c ../../mesh/lib_51_MBTLE_CORE.a(bearer.c.obj)
 .text.bearer_adtype_remove
                0x0000000000000000       0x1c ../../mesh/lib_51_MBTLE_CORE.a(bearer.c.obj)
 .text.bearer_filter_gap_addr_whitelist_set
                0x0000000000000000        0xa ../../mesh/lib_51_MBTLE_CORE.a(bearer.c.obj)
 .text.bearer_filter_gap_addr_blacklist_set
                0x0000000000000000        0xa ../../mesh/lib_51_MBTLE_CORE.a(bearer.c.obj)
 .text.bearer_filter_gap_addr_range_set
                0x0000000000000000       0x36 ../../mesh/lib_51_MBTLE_CORE.a(bearer.c.obj)
 .text.bearer_filter_gap_addr_clear
                0x0000000000000000       0x28 ../../mesh/lib_51_MBTLE_CORE.a(bearer.c.obj)
 .text.bearer_disable
                0x0000000000000000       0x14 ../../mesh/lib_51_MBTLE_CORE.a(bearer.c.obj)
 .text.bearer_stats_get
                0x0000000000000000       0x2c ../../mesh/lib_51_MBTLE_CORE.a(bearer.c.obj)
 .text          0x0000000000000000        0x0 ../../mesh/lib_51_MBTLE_CORE.a(bearer_event.c.obj)
 .data          0x0000000000000000        0x0 ../../mesh/lib_51_MBTLE_CORE.a(bearer_event.c.obj)
 .bss           0x0000000000000000        0x0 ../../mesh/lib_51_MBTLE_CORE.a(bearer_event.c.obj)
 .text.bearer_event_timer_sch_post
                0x0000000000000000       0x3c ../../mesh/lib_51_MBTLE_CORE.a(bearer_event.c.obj)
 .text.bearer_event_in_progress
                0x0000000000000000       0x18 ../../mesh/lib_51_MBTLE_CORE.a(bearer_event.c.obj)
 .text          0x0000000000000000        0x0 ../../mesh/lib_51_MBTLE_CORE.a(event.c.obj)
 .data          0x0000000000000000        0x0 ../../mesh/lib_51_MBTLE_CORE.a(event.c.obj)
 .bss           0x0000000000000000        0x0 ../../mesh/lib_51_MBTLE_CORE.a(event.c.obj)
 .text.event_handler_add
                0x0000000000000000       0x98 ../../mesh/lib_51_MBTLE_CORE.a(event.c.obj)
 .text.event_handler_remove
                0x0000000000000000       0x7c ../../mesh/lib_51_MBTLE_CORE.a(event.c.obj)
 .text          0x0000000000000000        0x0 ../../mesh/lib_51_MBTLE_CORE.a(log.c.obj)
 .data          0x0000000000000000        0x0 ../../mesh/lib_51_MBTLE_CORE.a(log.c.obj)
 .bss           0x0000000000000000        0x0 ../../mesh/lib_51_MBTLE_CORE.a(log.c.obj)
 .text.log_callback_logview
                0x0000000000000000       0x38 ../../mesh/lib_51_MBTLE_CORE.a(log.c.obj)
 .text.log_set_callback
                0x0000000000000000        0xc ../../mesh/lib_51_MBTLE_CORE.a(log.c.obj)
 .rodata.log_callback_logview.str1.4
                0x0000000000000000       0x12 ../../mesh/lib_51_MBTLE_CORE.a(log.c.obj)
 .text          0x0000000000000000        0x0 ../../mesh/lib_51_MBTLE_CORE.a(net_state.c.obj)
 .data          0x0000000000000000        0x0 ../../mesh/lib_51_MBTLE_CORE.a(net_state.c.obj)
 .bss           0x0000000000000000        0x0 ../../mesh/lib_51_MBTLE_CORE.a(net_state.c.obj)
 .text.net_state_reset
                0x0000000000000000       0x3c ../../mesh/lib_51_MBTLE_CORE.a(net_state.c.obj)
 .text.net_state_iv_update_test_mode_set
                0x0000000000000000        0xc ../../mesh/lib_51_MBTLE_CORE.a(net_state.c.obj)
 .data.mem_listener.7451
                0x0000000000000000       0x10 ../../mesh/lib_51_MBTLE_CORE.a(net_state.c.obj)
 .text          0x0000000000000000        0x0 ../../mesh/lib_51_MBTLE_CORE.a(nrf_mesh.c.obj)
 .data          0x0000000000000000        0x0 ../../mesh/lib_51_MBTLE_CORE.a(nrf_mesh.c.obj)
 .bss           0x0000000000000000        0x0 ../../mesh/lib_51_MBTLE_CORE.a(nrf_mesh.c.obj)
 .text.nrf_mesh_disable
                0x0000000000000000       0x28 ../../mesh/lib_51_MBTLE_CORE.a(nrf_mesh.c.obj)
 .text.nrf_mesh_packet_send
                0x0000000000000000       0x54 ../../mesh/lib_51_MBTLE_CORE.a(nrf_mesh.c.obj)
 .text.nrf_mesh_adv_send
                0x0000000000000000       0xbc ../../mesh/lib_51_MBTLE_CORE.a(nrf_mesh.c.obj)
 .text.nrf_mesh_evt_handler_add
                0x0000000000000000        0x8 ../../mesh/lib_51_MBTLE_CORE.a(nrf_mesh.c.obj)
 .text.nrf_mesh_evt_handler_remove
                0x0000000000000000        0x8 ../../mesh/lib_51_MBTLE_CORE.a(nrf_mesh.c.obj)
 .text.nrf_mesh_rx_cb_clear
                0x0000000000000000        0xc ../../mesh/lib_51_MBTLE_CORE.a(nrf_mesh.c.obj)
 .text          0x0000000000000000        0x0 ../../mesh/lib_51_MBTLE_CORE.a(nrf_mesh_keygen.c.obj)
 .data          0x0000000000000000        0x0 ../../mesh/lib_51_MBTLE_CORE.a(nrf_mesh_keygen.c.obj)
 .bss           0x0000000000000000        0x0 ../../mesh/lib_51_MBTLE_CORE.a(nrf_mesh_keygen.c.obj)
 .text.nrf_mesh_keygen_aid
                0x0000000000000000       0x1a ../../mesh/lib_51_MBTLE_CORE.a(nrf_mesh_keygen.c.obj)
 .text.nrf_mesh_keygen_network_secmat
                0x0000000000000000       0x2a ../../mesh/lib_51_MBTLE_CORE.a(nrf_mesh_keygen.c.obj)
 .text.nrf_mesh_keygen_beacon_secmat
                0x0000000000000000       0x58 ../../mesh/lib_51_MBTLE_CORE.a(nrf_mesh_keygen.c.obj)
 .text.nrf_mesh_keygen_identitykey
                0x0000000000000000       0x50 ../../mesh/lib_51_MBTLE_CORE.a(nrf_mesh_keygen.c.obj)
 .text.nrf_mesh_keygen_virtual_address
                0x0000000000000000       0x54 ../../mesh/lib_51_MBTLE_CORE.a(nrf_mesh_keygen.c.obj)
 .rodata        0x0000000000000000        0x7 ../../mesh/lib_51_MBTLE_CORE.a(nrf_mesh_keygen.c.obj)
 .debug_info    0x0000000000000000      0xcfc ../../mesh/lib_51_MBTLE_CORE.a(nrf_mesh_keygen.c.obj)
 .debug_abbrev  0x0000000000000000      0x20d ../../mesh/lib_51_MBTLE_CORE.a(nrf_mesh_keygen.c.obj)
 .debug_loc     0x0000000000000000      0x226 ../../mesh/lib_51_MBTLE_CORE.a(nrf_mesh_keygen.c.obj)
 .debug_aranges
                0x0000000000000000       0x40 ../../mesh/lib_51_MBTLE_CORE.a(nrf_mesh_keygen.c.obj)
 .debug_ranges  0x0000000000000000       0x30 ../../mesh/lib_51_MBTLE_CORE.a(nrf_mesh_keygen.c.obj)
 .debug_line    0x0000000000000000      0x2cd ../../mesh/lib_51_MBTLE_CORE.a(nrf_mesh_keygen.c.obj)
 .debug_str     0x0000000000000000      0x7e8 ../../mesh/lib_51_MBTLE_CORE.a(nrf_mesh_keygen.c.obj)
 .comment       0x0000000000000000       0x80 ../../mesh/lib_51_MBTLE_CORE.a(nrf_mesh_keygen.c.obj)
 .debug_frame   0x0000000000000000       0xa0 ../../mesh/lib_51_MBTLE_CORE.a(nrf_mesh_keygen.c.obj)
 .ARM.attributes
                0x0000000000000000       0x31 ../../mesh/lib_51_MBTLE_CORE.a(nrf_mesh_keygen.c.obj)
 .text          0x0000000000000000        0x0 ../../mesh/lib_51_MBTLE_CORE.a(nrf_mesh_utils.c.obj)
 .data          0x0000000000000000        0x0 ../../mesh/lib_51_MBTLE_CORE.a(nrf_mesh_utils.c.obj)
 .bss           0x0000000000000000        0x0 ../../mesh/lib_51_MBTLE_CORE.a(nrf_mesh_utils.c.obj)
 .text.nrf_mesh_rand_get
                0x0000000000000000       0x14 ../../mesh/lib_51_MBTLE_CORE.a(nrf_mesh_utils.c.obj)
 .text          0x0000000000000000        0x0 ../../mesh/lib_51_MBTLE_CORE.a(radio_config.c.obj)
 .data          0x0000000000000000        0x0 ../../mesh/lib_51_MBTLE_CORE.a(radio_config.c.obj)
 .bss           0x0000000000000000        0x0 ../../mesh/lib_51_MBTLE_CORE.a(radio_config.c.obj)
 .text.radio_config_access_addr_set
                0x0000000000000000       0x78 ../../mesh/lib_51_MBTLE_CORE.a(radio_config.c.obj)
 .text.radio_config_access_addr_get
                0x0000000000000000       0x7c ../../mesh/lib_51_MBTLE_CORE.a(radio_config.c.obj)
 .text          0x0000000000000000        0x0 ../../mesh/lib_51_MBTLE_CORE.a(rand.c.obj)
 .data          0x0000000000000000        0x0 ../../mesh/lib_51_MBTLE_CORE.a(rand.c.obj)
 .bss           0x0000000000000000        0x0 ../../mesh/lib_51_MBTLE_CORE.a(rand.c.obj)
 .text          0x0000000000000000        0x0 ../../mesh/lib_51_MBTLE_CORE.a(ticker.c.obj)
 .data          0x0000000000000000        0x0 ../../mesh/lib_51_MBTLE_CORE.a(ticker.c.obj)
 .bss           0x0000000000000000        0x0 ../../mesh/lib_51_MBTLE_CORE.a(ticker.c.obj)
 .text.ticker_get
                0x0000000000000000        0xc ../../mesh/lib_51_MBTLE_CORE.a(ticker.c.obj)
 .text          0x0000000000000000        0x0 ../../mesh/lib_51_MBTLE_CORE.a(transport.c.obj)
 .data          0x0000000000000000        0x0 ../../mesh/lib_51_MBTLE_CORE.a(transport.c.obj)
 .bss           0x0000000000000000        0x0 ../../mesh/lib_51_MBTLE_CORE.a(transport.c.obj)
 .text.transport_tx
                0x0000000000000000      0x234 ../../mesh/lib_51_MBTLE_CORE.a(transport.c.obj)
 .text.transport_opt_set
                0x0000000000000000       0xdc ../../mesh/lib_51_MBTLE_CORE.a(transport.c.obj)
 .rodata.transport_opt_set
                0x0000000000000000       0x1c ../../mesh/lib_51_MBTLE_CORE.a(transport.c.obj)
 .text.transport_opt_get
                0x0000000000000000       0x80 ../../mesh/lib_51_MBTLE_CORE.a(transport.c.obj)
 .rodata.transport_opt_get
                0x0000000000000000       0x1c ../../mesh/lib_51_MBTLE_CORE.a(transport.c.obj)
 .text.transport_seg_maxlen_get
                0x0000000000000000       0x14 ../../mesh/lib_51_MBTLE_CORE.a(transport.c.obj)
 .text.transport_tx_sar
                0x0000000000000000      0x558 ../../mesh/lib_51_MBTLE_CORE.a(transport.c.obj)
 .text.transport_unseg_maxlen_get
                0x0000000000000000        0x4 ../../mesh/lib_51_MBTLE_CORE.a(transport.c.obj)
 .rodata.transport_tx.str1.4
                0x0000000000000000       0x30 ../../mesh/lib_51_MBTLE_CORE.a(transport.c.obj)
 .rodata.transport_tx_sar.str1.4
                0x0000000000000000       0x99 ../../mesh/lib_51_MBTLE_CORE.a(transport.c.obj)
 .text          0x0000000000000000        0x0 ../../mesh/lib_51_MBTLE_CORE.a(internal_event.c.obj)
 .data          0x0000000000000000        0x0 ../../mesh/lib_51_MBTLE_CORE.a(internal_event.c.obj)
 .bss           0x0000000000000000        0x0 ../../mesh/lib_51_MBTLE_CORE.a(internal_event.c.obj)
 .text.internal_event_init
                0x0000000000000000       0x44 ../../mesh/lib_51_MBTLE_CORE.a(internal_event.c.obj)
 .text.internal_event_pop
                0x0000000000000000       0x20 ../../mesh/lib_51_MBTLE_CORE.a(internal_event.c.obj)
 .bss.m_internal_event_fifo_buffer
                0x0000000000000000      0x100 ../../mesh/lib_51_MBTLE_CORE.a(internal_event.c.obj)
 .text          0x0000000000000000        0x0 ../../mesh/lib_51_MBTLE_CORE.a(mesh_flash.c.obj)
 .data          0x0000000000000000        0x0 ../../mesh/lib_51_MBTLE_CORE.a(mesh_flash.c.obj)
 .bss           0x0000000000000000        0x0 ../../mesh/lib_51_MBTLE_CORE.a(mesh_flash.c.obj)
 .text.mesh_flash_op_available_slots
                0x0000000000000000       0x30 ../../mesh/lib_51_MBTLE_CORE.a(mesh_flash.c.obj)
 .text.mesh_flash_in_progress
                0x0000000000000000       0x3c ../../mesh/lib_51_MBTLE_CORE.a(mesh_flash.c.obj)
 .text.mesh_flash_set_suspended
                0x0000000000000000       0x58 ../../mesh/lib_51_MBTLE_CORE.a(mesh_flash.c.obj)
 .bss.suspend_count.7574
                0x0000000000000000        0x4 ../../mesh/lib_51_MBTLE_CORE.a(mesh_flash.c.obj)
 .text          0x0000000000000000        0x0 ../../mesh/lib_51_MBTLE_CORE.a(nrf_flash.c.obj)
 .data          0x0000000000000000        0x0 ../../mesh/lib_51_MBTLE_CORE.a(nrf_flash.c.obj)
 .bss           0x0000000000000000        0x0 ../../mesh/lib_51_MBTLE_CORE.a(nrf_flash.c.obj)
 .text          0x0000000000000000        0x0 ../../mesh/lib_51_MBTLE_CORE.a(flash_manager.c.obj)
 .data          0x0000000000000000        0x0 ../../mesh/lib_51_MBTLE_CORE.a(flash_manager.c.obj)
 .bss           0x0000000000000000        0x0 ../../mesh/lib_51_MBTLE_CORE.a(flash_manager.c.obj)
 .text.flash_manager_remove
                0x0000000000000000       0x60 ../../mesh/lib_51_MBTLE_CORE.a(flash_manager.c.obj)
 .text.flash_manager_entry_get
                0x0000000000000000       0x54 ../../mesh/lib_51_MBTLE_CORE.a(flash_manager.c.obj)
 .text.flash_manager_entry_count_get
                0x0000000000000000       0xc4 ../../mesh/lib_51_MBTLE_CORE.a(flash_manager.c.obj)
 .text.flash_manager_entry_release
                0x0000000000000000       0x58 ../../mesh/lib_51_MBTLE_CORE.a(flash_manager.c.obj)
 .text          0x0000000000000000        0x0 ../../mesh/lib_51_MBTLE_CORE.a(flash_manager_defrag.c.obj)
 .data          0x0000000000000000        0x0 ../../mesh/lib_51_MBTLE_CORE.a(flash_manager_defrag.c.obj)
 .bss           0x0000000000000000        0x0 ../../mesh/lib_51_MBTLE_CORE.a(flash_manager_defrag.c.obj)
 .text.flash_manager_defragging
                0x0000000000000000       0x54 ../../mesh/lib_51_MBTLE_CORE.a(flash_manager_defrag.c.obj)
 .text          0x0000000000000000        0x0 ../../mesh/lib_51_MBTLE_CORE.a(flash_manager_internal.c.obj)
 .data          0x0000000000000000        0x0 ../../mesh/lib_51_MBTLE_CORE.a(flash_manager_internal.c.obj)
 .bss           0x0000000000000000        0x0 ../../mesh/lib_51_MBTLE_CORE.a(flash_manager_internal.c.obj)
 .text          0x0000000000000000        0x0 ../../mesh/lib_51_MBTLE_CORE.a(nrf_mesh_weak.c.obj)
 .data          0x0000000000000000        0x0 ../../mesh/lib_51_MBTLE_CORE.a(nrf_mesh_weak.c.obj)
 .bss           0x0000000000000000        0x0 ../../mesh/lib_51_MBTLE_CORE.a(nrf_mesh_weak.c.obj)
 .text._weak_handler_ptr
                0x0000000000000000        0x4 ../../mesh/lib_51_MBTLE_CORE.a(nrf_mesh_weak.c.obj)
 .text          0x0000000000000000        0x0 ../../mesh/lib_51_MBTLE_CORE.a(queue.c.obj)
 .data          0x0000000000000000        0x0 ../../mesh/lib_51_MBTLE_CORE.a(queue.c.obj)
 .bss           0x0000000000000000        0x0 ../../mesh/lib_51_MBTLE_CORE.a(queue.c.obj)
 .text.queue_peek
                0x0000000000000000       0x20 ../../mesh/lib_51_MBTLE_CORE.a(queue.c.obj)
 .text          0x0000000000000000        0x0 ../../mesh/lib_51_MBTLE_CORE.a(msqueue.c.obj)
 .data          0x0000000000000000        0x0 ../../mesh/lib_51_MBTLE_CORE.a(msqueue.c.obj)
 .bss           0x0000000000000000        0x0 ../../mesh/lib_51_MBTLE_CORE.a(msqueue.c.obj)
 .text          0x0000000000000000        0x0 ../../mesh/lib_51_MBTLE_CORE.a(timeslot.c.obj)
 .data          0x0000000000000000        0x0 ../../mesh/lib_51_MBTLE_CORE.a(timeslot.c.obj)
 .bss           0x0000000000000000        0x0 ../../mesh/lib_51_MBTLE_CORE.a(timeslot.c.obj)
 .text.sd_radio_session_close
                0x0000000000000000        0x4 ../../mesh/lib_51_MBTLE_CORE.a(timeslot.c.obj)
 .text.timeslot_stop
                0x0000000000000000       0x50 ../../mesh/lib_51_MBTLE_CORE.a(timeslot.c.obj)
 .text.timeslot_restart
                0x0000000000000000       0x34 ../../mesh/lib_51_MBTLE_CORE.a(timeslot.c.obj)
 .text.timeslot_start_time_get
                0x0000000000000000        0xc ../../mesh/lib_51_MBTLE_CORE.a(timeslot.c.obj)
 .text.timeslot_is_in_ts
                0x0000000000000000        0xc ../../mesh/lib_51_MBTLE_CORE.a(timeslot.c.obj)
 .text          0x0000000000000000        0x0 ../../mesh/lib_51_MBTLE_CORE.a(beacon.c.obj)
 .data          0x0000000000000000        0x0 ../../mesh/lib_51_MBTLE_CORE.a(beacon.c.obj)
 .bss           0x0000000000000000        0x0 ../../mesh/lib_51_MBTLE_CORE.a(beacon.c.obj)
 .text          0x0000000000000000        0x0 ../../mesh/lib_51_MBTLE_CORE.a(nrf_mesh_configure.c.obj)
 .data          0x0000000000000000        0x0 ../../mesh/lib_51_MBTLE_CORE.a(nrf_mesh_configure.c.obj)
 .bss           0x0000000000000000        0x0 ../../mesh/lib_51_MBTLE_CORE.a(nrf_mesh_configure.c.obj)
 .text.nrf_mesh_configure_device_uuid_set
                0x0000000000000000       0x14 ../../mesh/lib_51_MBTLE_CORE.a(nrf_mesh_configure.c.obj)
 .text.nrf_mesh_configure_device_uuid_get
                0x0000000000000000        0x8 ../../mesh/lib_51_MBTLE_CORE.a(nrf_mesh_configure.c.obj)
 .text          0x0000000000000000        0x0 ../../mesh/lib_51_MBTLE_CORE.a(enc.c.obj)
 .data          0x0000000000000000        0x0 ../../mesh/lib_51_MBTLE_CORE.a(enc.c.obj)
 .bss           0x0000000000000000        0x0 ../../mesh/lib_51_MBTLE_CORE.a(enc.c.obj)
 .text.enc_key_generate
                0x0000000000000000        0xa ../../mesh/lib_51_MBTLE_CORE.a(enc.c.obj)
 .text.enc_k1   0x0000000000000000       0x58 ../../mesh/lib_51_MBTLE_CORE.a(enc.c.obj)
 .text.enc_k2   0x0000000000000000       0xfc ../../mesh/lib_51_MBTLE_CORE.a(enc.c.obj)
 .text.enc_k3   0x0000000000000000       0x68 ../../mesh/lib_51_MBTLE_CORE.a(enc.c.obj)
 .text.enc_k4   0x0000000000000000       0x64 ../../mesh/lib_51_MBTLE_CORE.a(enc.c.obj)
 .rodata        0x0000000000000000       0x18 ../../mesh/lib_51_MBTLE_CORE.a(enc.c.obj)
 .text          0x0000000000000000        0x0 ../../mesh/lib_51_MBTLE_CORE.a(msg_cache.c.obj)
 .data          0x0000000000000000        0x0 ../../mesh/lib_51_MBTLE_CORE.a(msg_cache.c.obj)
 .bss           0x0000000000000000        0x0 ../../mesh/lib_51_MBTLE_CORE.a(msg_cache.c.obj)
 .text.msg_cache_clear
                0x0000000000000000       0x20 ../../mesh/lib_51_MBTLE_CORE.a(msg_cache.c.obj)
 .text          0x0000000000000000        0x0 ../../mesh/lib_51_MBTLE_CORE.a(network.c.obj)
 .data          0x0000000000000000        0x0 ../../mesh/lib_51_MBTLE_CORE.a(network.c.obj)
 .bss           0x0000000000000000        0x0 ../../mesh/lib_51_MBTLE_CORE.a(network.c.obj)
 .text.network_opt_set
                0x0000000000000000       0x4c ../../mesh/lib_51_MBTLE_CORE.a(network.c.obj)
 .text.network_opt_get
                0x0000000000000000       0x48 ../../mesh/lib_51_MBTLE_CORE.a(network.c.obj)
 .text          0x0000000000000000        0x0 ../../mesh/lib_51_MBTLE_CORE.a(net_beacon.c.obj)
 .data          0x0000000000000000        0x0 ../../mesh/lib_51_MBTLE_CORE.a(net_beacon.c.obj)
 .bss           0x0000000000000000        0x0 ../../mesh/lib_51_MBTLE_CORE.a(net_beacon.c.obj)
 .text.net_beacon_state_set
                0x0000000000000000       0x40 ../../mesh/lib_51_MBTLE_CORE.a(net_beacon.c.obj)
 .text.net_beacon_state_get
                0x0000000000000000        0xc ../../mesh/lib_51_MBTLE_CORE.a(net_beacon.c.obj)
 .text          0x0000000000000000        0x0 ../../mesh/lib_51_MBTLE_CORE.a(packet.c.obj)
 .data          0x0000000000000000        0x0 ../../mesh/lib_51_MBTLE_CORE.a(packet.c.obj)
 .bss           0x0000000000000000        0x0 ../../mesh/lib_51_MBTLE_CORE.a(packet.c.obj)
 .text          0x0000000000000000        0x0 ../../mesh/lib_51_MBTLE_CORE.a(packet_buffer.c.obj)
 .data          0x0000000000000000        0x0 ../../mesh/lib_51_MBTLE_CORE.a(packet_buffer.c.obj)
 .bss           0x0000000000000000        0x0 ../../mesh/lib_51_MBTLE_CORE.a(packet_buffer.c.obj)
 .text.packet_buffer_max_packet_len_get
                0x0000000000000000       0x3c ../../mesh/lib_51_MBTLE_CORE.a(packet_buffer.c.obj)
 .text          0x0000000000000000        0x0 ../../mesh/lib_51_MBTLE_CORE.a(replay_cache.c.obj)
 .data          0x0000000000000000        0x0 ../../mesh/lib_51_MBTLE_CORE.a(replay_cache.c.obj)
 .bss           0x0000000000000000        0x0 ../../mesh/lib_51_MBTLE_CORE.a(replay_cache.c.obj)
 .text.replay_cache_on_iv_update
                0x0000000000000000       0x28 ../../mesh/lib_51_MBTLE_CORE.a(replay_cache.c.obj)
 .text          0x0000000000000000        0x0 ../../mesh/lib_51_MBTLE_CORE.a(aes.c.obj)
 .data          0x0000000000000000        0x0 ../../mesh/lib_51_MBTLE_CORE.a(aes.c.obj)
 .bss           0x0000000000000000        0x0 ../../mesh/lib_51_MBTLE_CORE.a(aes.c.obj)
 .text          0x0000000000000000        0x0 ../../mesh/lib_51_MBTLE_CORE.a(aes_cmac.c.obj)
 .data          0x0000000000000000        0x0 ../../mesh/lib_51_MBTLE_CORE.a(aes_cmac.c.obj)
 .bss           0x0000000000000000        0x0 ../../mesh/lib_51_MBTLE_CORE.a(aes_cmac.c.obj)
 .text          0x0000000000000000        0x0 ../../mesh/lib_51_MBTLE_CORE.a(ccm_soft.c.obj)
 .data          0x0000000000000000        0x0 ../../mesh/lib_51_MBTLE_CORE.a(ccm_soft.c.obj)
 .bss           0x0000000000000000        0x0 ../../mesh/lib_51_MBTLE_CORE.a(ccm_soft.c.obj)
 .text          0x0000000000000000        0x0 ../../lib/rtt/lib_51_RTT_LIB.a(SEGGER_RTT.c.obj)
 .data          0x0000000000000000        0x0 ../../lib/rtt/lib_51_RTT_LIB.a(SEGGER_RTT.c.obj)
 .bss           0x0000000000000000        0x0 ../../lib/rtt/lib_51_RTT_LIB.a(SEGGER_RTT.c.obj)
 .text._PostTerminalSwitch
                0x0000000000000000       0x20 ../../lib/rtt/lib_51_RTT_LIB.a(SEGGER_RTT.c.obj)
 .text.SEGGER_RTT_ReadNoLock
                0x0000000000000000       0xd8 ../../lib/rtt/lib_51_RTT_LIB.a(SEGGER_RTT.c.obj)
 .text.SEGGER_RTT_Read
                0x0000000000000000       0x1a ../../lib/rtt/lib_51_RTT_LIB.a(SEGGER_RTT.c.obj)
 .text.SEGGER_RTT_WriteSkipNoLock
                0x0000000000000000      0x124 ../../lib/rtt/lib_51_RTT_LIB.a(SEGGER_RTT.c.obj)
 .text.SEGGER_RTT_WriteString
                0x0000000000000000       0x18 ../../lib/rtt/lib_51_RTT_LIB.a(SEGGER_RTT.c.obj)
 .text.SEGGER_RTT_GetKey
                0x0000000000000000       0x22 ../../lib/rtt/lib_51_RTT_LIB.a(SEGGER_RTT.c.obj)
 .text.SEGGER_RTT_WaitKey
                0x0000000000000000        0xc ../../lib/rtt/lib_51_RTT_LIB.a(SEGGER_RTT.c.obj)
 .text.SEGGER_RTT_HasKey
                0x0000000000000000       0x24 ../../lib/rtt/lib_51_RTT_LIB.a(SEGGER_RTT.c.obj)
 .text.SEGGER_RTT_HasData
                0x0000000000000000       0x1c ../../lib/rtt/lib_51_RTT_LIB.a(SEGGER_RTT.c.obj)
 .text.SEGGER_RTT_AllocDownBuffer
                0x0000000000000000       0x78 ../../lib/rtt/lib_51_RTT_LIB.a(SEGGER_RTT.c.obj)
 .text.SEGGER_RTT_AllocUpBuffer
                0x0000000000000000       0x98 ../../lib/rtt/lib_51_RTT_LIB.a(SEGGER_RTT.c.obj)
 .text.SEGGER_RTT_ConfigUpBuffer
                0x0000000000000000       0x80 ../../lib/rtt/lib_51_RTT_LIB.a(SEGGER_RTT.c.obj)
 .text.SEGGER_RTT_ConfigDownBuffer
                0x0000000000000000       0x64 ../../lib/rtt/lib_51_RTT_LIB.a(SEGGER_RTT.c.obj)
 .text.SEGGER_RTT_SetNameUpBuffer
                0x0000000000000000       0x44 ../../lib/rtt/lib_51_RTT_LIB.a(SEGGER_RTT.c.obj)
 .text.SEGGER_RTT_SetNameDownBuffer
                0x0000000000000000       0x44 ../../lib/rtt/lib_51_RTT_LIB.a(SEGGER_RTT.c.obj)
 .text.SEGGER_RTT_Init
                0x0000000000000000       0x18 ../../lib/rtt/lib_51_RTT_LIB.a(SEGGER_RTT.c.obj)
 .text.SEGGER_RTT_SetTerminal
                0x0000000000000000       0x8c ../../lib/rtt/lib_51_RTT_LIB.a(SEGGER_RTT.c.obj)
 .text.SEGGER_RTT_TerminalOut
                0x0000000000000000       0xf0 ../../lib/rtt/lib_51_RTT_LIB.a(SEGGER_RTT.c.obj)
 .bss._ActiveTerminal
                0x0000000000000000        0x1 ../../lib/rtt/lib_51_RTT_LIB.a(SEGGER_RTT.c.obj)
 .rodata._aTerminalId
                0x0000000000000000       0x10 ../../lib/rtt/lib_51_RTT_LIB.a(SEGGER_RTT.c.obj)
 .text          0x0000000000000000        0x0 ../../lib/rtt/lib_51_RTT_LIB.a(SEGGER_RTT_printf.c.obj)
 .data          0x0000000000000000        0x0 ../../lib/rtt/lib_51_RTT_LIB.a(SEGGER_RTT_printf.c.obj)
 .bss           0x0000000000000000        0x0 ../../lib/rtt/lib_51_RTT_LIB.a(SEGGER_RTT_printf.c.obj)
 .data          0x0000000000000000        0x0 /usr/bin/../lib/gcc/arm-none-eabi/6.3.1/thumb/v6-m/libgcc.a(_udivsi3.o)
 .bss           0x0000000000000000        0x0 /usr/bin/../lib/gcc/arm-none-eabi/6.3.1/thumb/v6-m/libgcc.a(_udivsi3.o)
 .data          0x0000000000000000        0x0 /usr/bin/../lib/gcc/arm-none-eabi/6.3.1/thumb/v6-m/libgcc.a(_divsi3.o)
 .bss           0x0000000000000000        0x0 /usr/bin/../lib/gcc/arm-none-eabi/6.3.1/thumb/v6-m/libgcc.a(_divsi3.o)
 .data          0x0000000000000000        0x0 /usr/bin/../lib/gcc/arm-none-eabi/6.3.1/thumb/v6-m/libgcc.a(_dvmd_tls.o)
 .bss           0x0000000000000000        0x0 /usr/bin/../lib/gcc/arm-none-eabi/6.3.1/thumb/v6-m/libgcc.a(_dvmd_tls.o)
 .data          0x0000000000000000        0x0 /usr/bin/../lib/gcc/arm-none-eabi/6.3.1/thumb/v6-m/libgcc.a(_muldi3.o)
 .bss           0x0000000000000000        0x0 /usr/bin/../lib/gcc/arm-none-eabi/6.3.1/thumb/v6-m/libgcc.a(_muldi3.o)
 .text          0x0000000000000000        0x0 /usr/bin/../lib/gcc/arm-none-eabi/6.3.1/../../../../arm-none-eabi/lib/thumb/v6-m/libg_nano.a(lib_a-exit.o)
 .data          0x0000000000000000        0x0 /usr/bin/../lib/gcc/arm-none-eabi/6.3.1/../../../../arm-none-eabi/lib/thumb/v6-m/libg_nano.a(lib_a-exit.o)
 .bss           0x0000000000000000        0x0 /usr/bin/../lib/gcc/arm-none-eabi/6.3.1/../../../../arm-none-eabi/lib/thumb/v6-m/libg_nano.a(lib_a-exit.o)
 .text          0x0000000000000000        0x0 /usr/bin/../lib/gcc/arm-none-eabi/6.3.1/../../../../arm-none-eabi/lib/thumb/v6-m/libg_nano.a(lib_a-impure.o)
 .data          0x0000000000000000        0x0 /usr/bin/../lib/gcc/arm-none-eabi/6.3.1/../../../../arm-none-eabi/lib/thumb/v6-m/libg_nano.a(lib_a-impure.o)
 .bss           0x0000000000000000        0x0 /usr/bin/../lib/gcc/arm-none-eabi/6.3.1/../../../../arm-none-eabi/lib/thumb/v6-m/libg_nano.a(lib_a-impure.o)
 .text          0x0000000000000000        0x0 /usr/bin/../lib/gcc/arm-none-eabi/6.3.1/../../../../arm-none-eabi/lib/thumb/v6-m/libg_nano.a(lib_a-init.o)
 .data          0x0000000000000000        0x0 /usr/bin/../lib/gcc/arm-none-eabi/6.3.1/../../../../arm-none-eabi/lib/thumb/v6-m/libg_nano.a(lib_a-init.o)
 .bss           0x0000000000000000        0x0 /usr/bin/../lib/gcc/arm-none-eabi/6.3.1/../../../../arm-none-eabi/lib/thumb/v6-m/libg_nano.a(lib_a-init.o)
 .text          0x0000000000000000        0x0 /usr/bin/../lib/gcc/arm-none-eabi/6.3.1/../../../../arm-none-eabi/lib/thumb/v6-m/libg_nano.a(lib_a-malloc.o)
 .data          0x0000000000000000        0x0 /usr/bin/../lib/gcc/arm-none-eabi/6.3.1/../../../../arm-none-eabi/lib/thumb/v6-m/libg_nano.a(lib_a-malloc.o)
 .bss           0x0000000000000000        0x0 /usr/bin/../lib/gcc/arm-none-eabi/6.3.1/../../../../arm-none-eabi/lib/thumb/v6-m/libg_nano.a(lib_a-malloc.o)
 .text          0x0000000000000000        0x0 /usr/bin/../lib/gcc/arm-none-eabi/6.3.1/../../../../arm-none-eabi/lib/thumb/v6-m/libg_nano.a(lib_a-memcmp.o)
 .data          0x0000000000000000        0x0 /usr/bin/../lib/gcc/arm-none-eabi/6.3.1/../../../../arm-none-eabi/lib/thumb/v6-m/libg_nano.a(lib_a-memcmp.o)
 .bss           0x0000000000000000        0x0 /usr/bin/../lib/gcc/arm-none-eabi/6.3.1/../../../../arm-none-eabi/lib/thumb/v6-m/libg_nano.a(lib_a-memcmp.o)
 .text          0x0000000000000000        0x0 /usr/bin/../lib/gcc/arm-none-eabi/6.3.1/../../../../arm-none-eabi/lib/thumb/v6-m/libg_nano.a(lib_a-memcpy-stub.o)
 .data          0x0000000000000000        0x0 /usr/bin/../lib/gcc/arm-none-eabi/6.3.1/../../../../arm-none-eabi/lib/thumb/v6-m/libg_nano.a(lib_a-memcpy-stub.o)
 .bss           0x0000000000000000        0x0 /usr/bin/../lib/gcc/arm-none-eabi/6.3.1/../../../../arm-none-eabi/lib/thumb/v6-m/libg_nano.a(lib_a-memcpy-stub.o)
 .text          0x0000000000000000        0x0 /usr/bin/../lib/gcc/arm-none-eabi/6.3.1/../../../../arm-none-eabi/lib/thumb/v6-m/libg_nano.a(lib_a-memset.o)
 .data          0x0000000000000000        0x0 /usr/bin/../lib/gcc/arm-none-eabi/6.3.1/../../../../arm-none-eabi/lib/thumb/v6-m/libg_nano.a(lib_a-memset.o)
 .bss           0x0000000000000000        0x0 /usr/bin/../lib/gcc/arm-none-eabi/6.3.1/../../../../arm-none-eabi/lib/thumb/v6-m/libg_nano.a(lib_a-memset.o)
 .text          0x0000000000000000        0x0 /usr/bin/../lib/gcc/arm-none-eabi/6.3.1/../../../../arm-none-eabi/lib/thumb/v6-m/libg_nano.a(lib_a-nano-freer.o)
 .data          0x0000000000000000        0x0 /usr/bin/../lib/gcc/arm-none-eabi/6.3.1/../../../../arm-none-eabi/lib/thumb/v6-m/libg_nano.a(lib_a-nano-freer.o)
 .bss           0x0000000000000000        0x0 /usr/bin/../lib/gcc/arm-none-eabi/6.3.1/../../../../arm-none-eabi/lib/thumb/v6-m/libg_nano.a(lib_a-nano-freer.o)
 .text          0x0000000000000000        0x0 /usr/bin/../lib/gcc/arm-none-eabi/6.3.1/../../../../arm-none-eabi/lib/thumb/v6-m/libg_nano.a(lib_a-nano-mallocr.o)
 .data          0x0000000000000000        0x0 /usr/bin/../lib/gcc/arm-none-eabi/6.3.1/../../../../arm-none-eabi/lib/thumb/v6-m/libg_nano.a(lib_a-nano-mallocr.o)
 .bss           0x0000000000000000        0x0 /usr/bin/../lib/gcc/arm-none-eabi/6.3.1/../../../../arm-none-eabi/lib/thumb/v6-m/libg_nano.a(lib_a-nano-mallocr.o)
 .text          0x0000000000000000        0x0 /usr/bin/../lib/gcc/arm-none-eabi/6.3.1/../../../../arm-none-eabi/lib/thumb/v6-m/libg_nano.a(lib_a-sbrkr.o)
 .data          0x0000000000000000        0x0 /usr/bin/../lib/gcc/arm-none-eabi/6.3.1/../../../../arm-none-eabi/lib/thumb/v6-m/libg_nano.a(lib_a-sbrkr.o)
 .bss           0x0000000000000000        0x0 /usr/bin/../lib/gcc/arm-none-eabi/6.3.1/../../../../arm-none-eabi/lib/thumb/v6-m/libg_nano.a(lib_a-sbrkr.o)
 .text          0x0000000000000000        0x0 /usr/bin/../lib/gcc/arm-none-eabi/6.3.1/../../../../arm-none-eabi/lib/thumb/v6-m/libg_nano.a(lib_a-sprintf.o)
 .data          0x0000000000000000        0x0 /usr/bin/../lib/gcc/arm-none-eabi/6.3.1/../../../../arm-none-eabi/lib/thumb/v6-m/libg_nano.a(lib_a-sprintf.o)
 .bss           0x0000000000000000        0x0 /usr/bin/../lib/gcc/arm-none-eabi/6.3.1/../../../../arm-none-eabi/lib/thumb/v6-m/libg_nano.a(lib_a-sprintf.o)
 .text._sprintf_r
                0x0000000000000000       0x40 /usr/bin/../lib/gcc/arm-none-eabi/6.3.1/../../../../arm-none-eabi/lib/thumb/v6-m/libg_nano.a(lib_a-sprintf.o)
 .text          0x0000000000000000        0x0 /usr/bin/../lib/gcc/arm-none-eabi/6.3.1/../../../../arm-none-eabi/lib/thumb/v6-m/libg_nano.a(lib_a-strcpy.o)
 .data          0x0000000000000000        0x0 /usr/bin/../lib/gcc/arm-none-eabi/6.3.1/../../../../arm-none-eabi/lib/thumb/v6-m/libg_nano.a(lib_a-strcpy.o)
 .bss           0x0000000000000000        0x0 /usr/bin/../lib/gcc/arm-none-eabi/6.3.1/../../../../arm-none-eabi/lib/thumb/v6-m/libg_nano.a(lib_a-strcpy.o)
 .text          0x0000000000000000        0xe /usr/bin/../lib/gcc/arm-none-eabi/6.3.1/../../../../arm-none-eabi/lib/thumb/v6-m/libg_nano.a(lib_a-strlen.o)
 .data          0x0000000000000000        0x0 /usr/bin/../lib/gcc/arm-none-eabi/6.3.1/../../../../arm-none-eabi/lib/thumb/v6-m/libg_nano.a(lib_a-strlen.o)
 .bss           0x0000000000000000        0x0 /usr/bin/../lib/gcc/arm-none-eabi/6.3.1/../../../../arm-none-eabi/lib/thumb/v6-m/libg_nano.a(lib_a-strlen.o)
 .ARM.attributes
                0x0000000000000000       0x1c /usr/bin/../lib/gcc/arm-none-eabi/6.3.1/../../../../arm-none-eabi/lib/thumb/v6-m/libg_nano.a(lib_a-strlen.o)
 .text          0x0000000000000000        0x0 /usr/bin/../lib/gcc/arm-none-eabi/6.3.1/../../../../arm-none-eabi/lib/thumb/v6-m/libg_nano.a(lib_a-strrchr.o)
 .data          0x0000000000000000        0x0 /usr/bin/../lib/gcc/arm-none-eabi/6.3.1/../../../../arm-none-eabi/lib/thumb/v6-m/libg_nano.a(lib_a-strrchr.o)
 .bss           0x0000000000000000        0x0 /usr/bin/../lib/gcc/arm-none-eabi/6.3.1/../../../../arm-none-eabi/lib/thumb/v6-m/libg_nano.a(lib_a-strrchr.o)
 .text          0x0000000000000000        0x0 /usr/bin/../lib/gcc/arm-none-eabi/6.3.1/../../../../arm-none-eabi/lib/thumb/v6-m/libg_nano.a(lib_a-mlock.o)
 .data          0x0000000000000000        0x0 /usr/bin/../lib/gcc/arm-none-eabi/6.3.1/../../../../arm-none-eabi/lib/thumb/v6-m/libg_nano.a(lib_a-mlock.o)
 .bss           0x0000000000000000        0x0 /usr/bin/../lib/gcc/arm-none-eabi/6.3.1/../../../../arm-none-eabi/lib/thumb/v6-m/libg_nano.a(lib_a-mlock.o)
 .text          0x0000000000000000        0x0 /usr/bin/../lib/gcc/arm-none-eabi/6.3.1/../../../../arm-none-eabi/lib/thumb/v6-m/libg_nano.a(lib_a-nano-svfprintf.o)
 .data          0x0000000000000000        0x0 /usr/bin/../lib/gcc/arm-none-eabi/6.3.1/../../../../arm-none-eabi/lib/thumb/v6-m/libg_nano.a(lib_a-nano-svfprintf.o)
 .bss           0x0000000000000000        0x0 /usr/bin/../lib/gcc/arm-none-eabi/6.3.1/../../../../arm-none-eabi/lib/thumb/v6-m/libg_nano.a(lib_a-nano-svfprintf.o)
 .text.__ssprint_r
                0x0000000000000000       0xfc /usr/bin/../lib/gcc/arm-none-eabi/6.3.1/../../../../arm-none-eabi/lib/thumb/v6-m/libg_nano.a(lib_a-nano-svfprintf.o)
 .text          0x0000000000000000        0x0 /usr/bin/../lib/gcc/arm-none-eabi/6.3.1/../../../../arm-none-eabi/lib/thumb/v6-m/libg_nano.a(lib_a-nano-vfprintf_i.o)
 .data          0x0000000000000000        0x0 /usr/bin/../lib/gcc/arm-none-eabi/6.3.1/../../../../arm-none-eabi/lib/thumb/v6-m/libg_nano.a(lib_a-nano-vfprintf_i.o)
 .bss           0x0000000000000000        0x0 /usr/bin/../lib/gcc/arm-none-eabi/6.3.1/../../../../arm-none-eabi/lib/thumb/v6-m/libg_nano.a(lib_a-nano-vfprintf_i.o)
 .text          0x0000000000000000        0x0 /usr/bin/../lib/gcc/arm-none-eabi/6.3.1/../../../../arm-none-eabi/lib/thumb/v6-m/libg_nano.a(lib_a-reent.o)
 .data          0x0000000000000000        0x0 /usr/bin/../lib/gcc/arm-none-eabi/6.3.1/../../../../arm-none-eabi/lib/thumb/v6-m/libg_nano.a(lib_a-reent.o)
 .bss           0x0000000000000000        0x0 /usr/bin/../lib/gcc/arm-none-eabi/6.3.1/../../../../arm-none-eabi/lib/thumb/v6-m/libg_nano.a(lib_a-reent.o)
 .text.cleanup_glue
                0x0000000000000000       0x1a /usr/bin/../lib/gcc/arm-none-eabi/6.3.1/../../../../arm-none-eabi/lib/thumb/v6-m/libg_nano.a(lib_a-reent.o)
 .text._reclaim_reent
                0x0000000000000000       0xcc /usr/bin/../lib/gcc/arm-none-eabi/6.3.1/../../../../arm-none-eabi/lib/thumb/v6-m/libg_nano.a(lib_a-reent.o)
 .text          0x0000000000000000        0x0 /usr/bin/../lib/gcc/arm-none-eabi/6.3.1/../../../../arm-none-eabi/lib/thumb/v6-m/libg_nano.a(lib_a-strchr.o)
 .data          0x0000000000000000        0x0 /usr/bin/../lib/gcc/arm-none-eabi/6.3.1/../../../../arm-none-eabi/lib/thumb/v6-m/libg_nano.a(lib_a-strchr.o)
 .bss           0x0000000000000000        0x0 /usr/bin/../lib/gcc/arm-none-eabi/6.3.1/../../../../arm-none-eabi/lib/thumb/v6-m/libg_nano.a(lib_a-strchr.o)
 .text          0x0000000000000000        0x0 /usr/bin/../lib/gcc/arm-none-eabi/6.3.1/../../../../arm-none-eabi/lib/thumb/v6-m/libg_nano.a(lib_a-memchr-stub.o)
 .data          0x0000000000000000        0x0 /usr/bin/../lib/gcc/arm-none-eabi/6.3.1/../../../../arm-none-eabi/lib/thumb/v6-m/libg_nano.a(lib_a-memchr-stub.o)
 .bss           0x0000000000000000        0x0 /usr/bin/../lib/gcc/arm-none-eabi/6.3.1/../../../../arm-none-eabi/lib/thumb/v6-m/libg_nano.a(lib_a-memchr-stub.o)
 .text          0x0000000000000000        0x0 /usr/bin/../lib/gcc/arm-none-eabi/6.3.1/../../../../arm-none-eabi/lib/thumb/v6-m/libg_nano.a(lib_a-memmove.o)
 .data          0x0000000000000000        0x0 /usr/bin/../lib/gcc/arm-none-eabi/6.3.1/../../../../arm-none-eabi/lib/thumb/v6-m/libg_nano.a(lib_a-memmove.o)
 .bss           0x0000000000000000        0x0 /usr/bin/../lib/gcc/arm-none-eabi/6.3.1/../../../../arm-none-eabi/lib/thumb/v6-m/libg_nano.a(lib_a-memmove.o)
 .text          0x0000000000000000        0x0 /usr/bin/../lib/gcc/arm-none-eabi/6.3.1/../../../../arm-none-eabi/lib/thumb/v6-m/libg_nano.a(lib_a-nano-reallocr.o)
 .data          0x0000000000000000        0x0 /usr/bin/../lib/gcc/arm-none-eabi/6.3.1/../../../../arm-none-eabi/lib/thumb/v6-m/libg_nano.a(lib_a-nano-reallocr.o)
 .bss           0x0000000000000000        0x0 /usr/bin/../lib/gcc/arm-none-eabi/6.3.1/../../../../arm-none-eabi/lib/thumb/v6-m/libg_nano.a(lib_a-nano-reallocr.o)
 .text          0x0000000000000000        0x0 /usr/bin/../lib/gcc/arm-none-eabi/6.3.1/../../../../arm-none-eabi/lib/thumb/v6-m/libg_nano.a(lib_a-nano-msizer.o)
 .data          0x0000000000000000        0x0 /usr/bin/../lib/gcc/arm-none-eabi/6.3.1/../../../../arm-none-eabi/lib/thumb/v6-m/libg_nano.a(lib_a-nano-msizer.o)
 .bss           0x0000000000000000        0x0 /usr/bin/../lib/gcc/arm-none-eabi/6.3.1/../../../../arm-none-eabi/lib/thumb/v6-m/libg_nano.a(lib_a-nano-msizer.o)
 .text          0x0000000000000000        0x0 /usr/bin/../lib/gcc/arm-none-eabi/6.3.1/thumb/v6-m/crtend.o
 .data          0x0000000000000000        0x0 /usr/bin/../lib/gcc/arm-none-eabi/6.3.1/thumb/v6-m/crtend.o
 .bss           0x0000000000000000        0x0 /usr/bin/../lib/gcc/arm-none-eabi/6.3.1/thumb/v6-m/crtend.o
 .text          0x0000000000000000        0x0 /usr/bin/../lib/gcc/arm-none-eabi/6.3.1/thumb/v6-m/crtn.o
 .data          0x0000000000000000        0x0 /usr/bin/../lib/gcc/arm-none-eabi/6.3.1/thumb/v6-m/crtn.o
 .bss           0x0000000000000000        0x0 /usr/bin/../lib/gcc/arm-none-eabi/6.3.1/thumb/v6-m/crtn.o
 .text          0x0000000000000000        0x0 /usr/bin/../lib/gcc/arm-none-eabi/6.3.1/../../../../arm-none-eabi/lib/thumb/v6-m/libnosys.a(sbrk.o)
 .data          0x0000000000000000        0x0 /usr/bin/../lib/gcc/arm-none-eabi/6.3.1/../../../../arm-none-eabi/lib/thumb/v6-m/libnosys.a(sbrk.o)
 .bss           0x0000000000000000        0x0 /usr/bin/../lib/gcc/arm-none-eabi/6.3.1/../../../../arm-none-eabi/lib/thumb/v6-m/libnosys.a(sbrk.o)
 .text          0x0000000000000000        0x0 /usr/bin/../lib/gcc/arm-none-eabi/6.3.1/../../../../arm-none-eabi/lib/thumb/v6-m/libnosys.a(_exit.o)
 .data          0x0000000000000000        0x0 /usr/bin/../lib/gcc/arm-none-eabi/6.3.1/../../../../arm-none-eabi/lib/thumb/v6-m/libnosys.a(_exit.o)
 .bss           0x0000000000000000        0x0 /usr/bin/../lib/gcc/arm-none-eabi/6.3.1/../../../../arm-none-eabi/lib/thumb/v6-m/libnosys.a(_exit.o)

Memory Configuration

Name             Origin             Length             Attributes
FLASH            0x000000000001b000 0x000000000001f000 xr
RAM              0x00000000200022d8 0x0000000000005a28 xrw
*default*        0x0000000000000000 0xffffffffffffffff

Linker script and memory map

LOAD /usr/bin/../lib/gcc/arm-none-eabi/6.3.1/thumb/v6-m/crti.o
LOAD /usr/bin/../lib/gcc/arm-none-eabi/6.3.1/thumb/v6-m/crtbegin.o
LOAD /usr/bin/../lib/gcc/arm-none-eabi/6.3.1/../../../../arm-none-eabi/lib/thumb/v6-m/crt0.o
LOAD CMakeFiles/51_beaconing.dir/src/main.c.obj
LOAD CMakeFiles/51_beaconing.dir/__/nrf_mesh_sdk.c.obj
LOAD CMakeFiles/51_beaconing.dir/__/__/mesh/src/access/device_state_manager.c.obj
LOAD CMakeFiles/51_beaconing.dir/__/__/toolchain/gcc/gcc_startup_nrf51.S.obj
LOAD CMakeFiles/51_beaconing.dir/__/__/toolchain/system_nrf51.c.obj
LOAD ../../mesh/lib_51_MBTLE_CORE.a
LOAD ../../lib/rtt/lib_51_RTT_LIB.a
START GROUP
LOAD /usr/bin/../lib/gcc/arm-none-eabi/6.3.1/thumb/v6-m/libgcc.a
LOAD /usr/bin/../lib/gcc/arm-none-eabi/6.3.1/../../../../arm-none-eabi/lib/thumb/v6-m/libg_nano.a
LOAD /usr/bin/../lib/gcc/arm-none-eabi/6.3.1/../../../../arm-none-eabi/lib/thumb/v6-m/libc_nano.a
END GROUP
START GROUP
LOAD /usr/bin/../lib/gcc/arm-none-eabi/6.3.1/thumb/v6-m/libgcc.a
LOAD /usr/bin/../lib/gcc/arm-none-eabi/6.3.1/../../../../arm-none-eabi/lib/thumb/v6-m/libc_nano.a
END GROUP
LOAD /usr/bin/../lib/gcc/arm-none-eabi/6.3.1/thumb/v6-m/crtend.o
LOAD /usr/bin/../lib/gcc/arm-none-eabi/6.3.1/thumb/v6-m/crtn.o
START GROUP
LOAD /usr/bin/../lib/gcc/arm-none-eabi/6.3.1/thumb/v6-m/libgcc.a
LOAD /usr/bin/../lib/gcc/arm-none-eabi/6.3.1/../../../../arm-none-eabi/lib/thumb/v6-m/libc.a
LOAD /usr/bin/../lib/gcc/arm-none-eabi/6.3.1/../../../../arm-none-eabi/lib/thumb/v6-m/libnosys.a
END GROUP

.text           0x000000000001b000     0xc43c
 *(.isr_vector)
 .isr_vector    0x000000000001b000       0xc0 CMakeFiles/51_beaconing.dir/__/__/toolchain/gcc/gcc_startup_nrf51.S.obj
                0x000000000001b000                __isr_vector
 *(.text*)
 .text          0x000000000001b0c0       0x60 /usr/bin/../lib/gcc/arm-none-eabi/6.3.1/thumb/v6-m/crtbegin.o
 .text          0x000000000001b120       0x78 /usr/bin/../lib/gcc/arm-none-eabi/6.3.1/../../../../arm-none-eabi/lib/thumb/v6-m/crt0.o
                0x000000000001b120                _mainCRTStartup
                0x000000000001b120                _start
 .text.rx_callback
                0x000000000001b198      0x140 CMakeFiles/51_beaconing.dir/src/main.c.obj
 .text.main     0x000000000001b2d8      0x2ec CMakeFiles/51_beaconing.dir/src/main.c.obj
                0x000000000001b2d8                main
 .text.sd_evt_get
                0x000000000001b5c4        0x4 CMakeFiles/51_beaconing.dir/__/nrf_mesh_sdk.c.obj
 .text.sd_softdevice_enable
                0x000000000001b5c8        0x4 CMakeFiles/51_beaconing.dir/__/nrf_mesh_sdk.c.obj
 .text.sd_ble_enable
                0x000000000001b5cc        0x4 CMakeFiles/51_beaconing.dir/__/nrf_mesh_sdk.c.obj
 .text.sd_ble_evt_get
                0x000000000001b5d0        0x4 CMakeFiles/51_beaconing.dir/__/nrf_mesh_sdk.c.obj
 .text.sleep_forever
                0x000000000001b5d4       0x24 CMakeFiles/51_beaconing.dir/__/nrf_mesh_sdk.c.obj
 .text.softdevice_assert_handler
                0x000000000001b5f8       0x88 CMakeFiles/51_beaconing.dir/__/nrf_mesh_sdk.c.obj
                0x000000000001b5f8                softdevice_assert_handler
 .text.app_error_handler
                0x000000000001b680       0x88 CMakeFiles/51_beaconing.dir/__/nrf_mesh_sdk.c.obj
                0x000000000001b680                app_error_handler
 .text.mesh_assert_handler
                0x000000000001b708       0x80 CMakeFiles/51_beaconing.dir/__/nrf_mesh_sdk.c.obj
                0x000000000001b708                mesh_assert_handler
 .text.HardFault_Handler
                0x000000000001b788       0x7c CMakeFiles/51_beaconing.dir/__/nrf_mesh_sdk.c.obj
                0x000000000001b788                HardFault_Handler
 .text.SWI2_IRQHandler
                0x000000000001b804       0x44 CMakeFiles/51_beaconing.dir/__/nrf_mesh_sdk.c.obj
                0x000000000001b804                SWI2_IRQHandler
 .text.mesh_softdevice_enable
                0x000000000001b848      0x154 CMakeFiles/51_beaconing.dir/__/nrf_mesh_sdk.c.obj
                0x000000000001b848                mesh_softdevice_enable
 .text.mesh_softdevice_setup
                0x000000000001b99c       0x94 CMakeFiles/51_beaconing.dir/__/nrf_mesh_sdk.c.obj
                0x000000000001b99c                mesh_softdevice_setup
 .text.get_subnet_handle
                0x000000000001ba30       0x50 CMakeFiles/51_beaconing.dir/__/__/mesh/src/access/device_state_manager.c.obj
 .text.get_app_handle
                0x000000000001ba80       0x5c CMakeFiles/51_beaconing.dir/__/__/mesh/src/access/device_state_manager.c.obj
 .text.virtual_address_uuid_index_get
                0x000000000001badc       0x7c CMakeFiles/51_beaconing.dir/__/__/mesh/src/access/device_state_manager.c.obj
 .text.nrf_mesh_net_secmat_next_get
                0x000000000001bb58       0xa4 CMakeFiles/51_beaconing.dir/__/__/mesh/src/access/device_state_manager.c.obj
                0x000000000001bb58                nrf_mesh_net_secmat_next_get
 .text.nrf_mesh_app_secmat_next_get
                0x000000000001bbfc       0xe0 CMakeFiles/51_beaconing.dir/__/__/mesh/src/access/device_state_manager.c.obj
                0x000000000001bbfc                nrf_mesh_app_secmat_next_get
 .text.nrf_mesh_devkey_secmat_get
                0x000000000001bcdc       0x40 CMakeFiles/51_beaconing.dir/__/__/mesh/src/access/device_state_manager.c.obj
                0x000000000001bcdc                nrf_mesh_devkey_secmat_get
 .text.nrf_mesh_beacon_info_next_get
                0x000000000001bd1c       0xf0 CMakeFiles/51_beaconing.dir/__/__/mesh/src/access/device_state_manager.c.obj
                0x000000000001bd1c                nrf_mesh_beacon_info_next_get
 .text.nrf_mesh_rx_address_get
                0x000000000001be0c      0x170 CMakeFiles/51_beaconing.dir/__/__/mesh/src/access/device_state_manager.c.obj
                0x000000000001be0c                nrf_mesh_rx_address_get
 .text          0x000000000001bf7c       0x4c CMakeFiles/51_beaconing.dir/__/__/toolchain/gcc/gcc_startup_nrf51.S.obj
                0x000000000001bf7c                Reset_Handler
                0x000000000001bfbc                NMI_Handler
                0x000000000001bfc0                SVC_Handler
                0x000000000001bfc2                PendSV_Handler
                0x000000000001bfc4                SysTick_Handler
                0x000000000001bfc6                TIMER2_IRQHandler
                0x000000000001bfc6                SPI0_TWI0_IRQHandler
                0x000000000001bfc6                RTC0_IRQHandler
                0x000000000001bfc6                GPIOTE_IRQHandler
                0x000000000001bfc6                POWER_CLOCK_IRQHandler
                0x000000000001bfc6                RADIO_IRQHandler
                0x000000000001bfc6                LPCOMP_IRQHandler
                0x000000000001bfc6                SWI4_IRQHandler
                0x000000000001bfc6                TEMP_IRQHandler
                0x000000000001bfc6                UART0_IRQHandler
                0x000000000001bfc6                SWI5_IRQHandler
                0x000000000001bfc6                TIMER0_IRQHandler
                0x000000000001bfc6                SWI0_IRQHandler
                0x000000000001bfc6                TIMER1_IRQHandler
                0x000000000001bfc6                ECB_IRQHandler
                0x000000000001bfc6                Default_Handler
                0x000000000001bfc6                ADC_IRQHandler
                0x000000000001bfc6                SWI3_IRQHandler
                0x000000000001bfc6                CCM_AAR_IRQHandler
                0x000000000001bfc6                WDT_IRQHandler
                0x000000000001bfc6                RNG_IRQHandler
                0x000000000001bfc6                SPI1_TWI1_IRQHandler
                0x000000000001bfc6                RTC1_IRQHandler
                0x000000000001bfc6                SWI1_IRQHandler
 .text.SystemInit
                0x000000000001bfc8      0x104 CMakeFiles/51_beaconing.dir/__/__/toolchain/system_nrf51.c.obj
                0x000000000001bfc8                SystemInit
 .text.is_valid_gap_addr
                0x000000000001c0cc       0x7c ../../mesh/lib_51_MBTLE_CORE.a(bearer_adv.c.obj)
 .text.packet_tx
                0x000000000001c148       0xaa ../../mesh/lib_51_MBTLE_CORE.a(bearer_adv.c.obj)
 *fill*         0x000000000001c1f2        0x2 
 .text.scan_order
                0x000000000001c1f4       0xb0 ../../mesh/lib_51_MBTLE_CORE.a(bearer_adv.c.obj)
 .text.radio_idle_cb
                0x000000000001c2a4       0x18 ../../mesh/lib_51_MBTLE_CORE.a(bearer_adv.c.obj)
 .text.scan_begin_timer_cb
                0x000000000001c2bc       0x44 ../../mesh/lib_51_MBTLE_CORE.a(bearer_adv.c.obj)
 .text.radio_tx_cb
                0x000000000001c300       0x34 ../../mesh/lib_51_MBTLE_CORE.a(bearer_adv.c.obj)
 .text.tx_event_send
                0x000000000001c334       0x22 ../../mesh/lib_51_MBTLE_CORE.a(bearer_adv.c.obj)
 *fill*         0x000000000001c356        0x2 
 .text.radio_rx_cb
                0x000000000001c358       0x44 ../../mesh/lib_51_MBTLE_CORE.a(bearer_adv.c.obj)
 .text.adv_evt_timeout
                0x000000000001c39c      0x168 ../../mesh/lib_51_MBTLE_CORE.a(bearer_adv.c.obj)
 .text.next_adv_schedule
                0x000000000001c504       0x80 ../../mesh/lib_51_MBTLE_CORE.a(bearer_adv.c.obj)
 .text.scan_end_timer_cb
                0x000000000001c584       0x14 ../../mesh/lib_51_MBTLE_CORE.a(bearer_adv.c.obj)
 .text.bearer_adv_advertiser_init
                0x000000000001c598      0x13c ../../mesh/lib_51_MBTLE_CORE.a(bearer_adv.c.obj)
                0x000000000001c598                bearer_adv_advertiser_init
 .text.bearer_adv_reconfig
                0x000000000001c6d4       0x50 ../../mesh/lib_51_MBTLE_CORE.a(bearer_adv.c.obj)
                0x000000000001c6d4                bearer_adv_reconfig
 .text.bearer_adv_tx
                0x000000000001c724       0x58 ../../mesh/lib_51_MBTLE_CORE.a(bearer_adv.c.obj)
                0x000000000001c724                bearer_adv_tx
 .text.bearer_adv_scan_start
                0x000000000001c77c       0x60 ../../mesh/lib_51_MBTLE_CORE.a(bearer_adv.c.obj)
                0x000000000001c77c                bearer_adv_scan_start
 .text.bearer_adv_gap_type_set
                0x000000000001c7dc       0x60 ../../mesh/lib_51_MBTLE_CORE.a(bearer_adv.c.obj)
                0x000000000001c7dc                bearer_adv_gap_type_set
 .text.bearer_adv_addr_get
                0x000000000001c83c       0x28 ../../mesh/lib_51_MBTLE_CORE.a(bearer_adv.c.obj)
                0x000000000001c83c                bearer_adv_addr_get
 .text.bearer_adv_addr_default_set
                0x000000000001c864       0x30 ../../mesh/lib_51_MBTLE_CORE.a(bearer_adv.c.obj)
                0x000000000001c864                bearer_adv_addr_default_set
 .text.bearer_adv_init
                0x000000000001c894       0xf4 ../../mesh/lib_51_MBTLE_CORE.a(bearer_adv.c.obj)
                0x000000000001c894                bearer_adv_init
 .text.fifo_init
                0x000000000001c988       0x60 ../../mesh/lib_51_MBTLE_CORE.a(fifo.c.obj)
                0x000000000001c988                fifo_init
 .text.fifo_push
                0x000000000001c9e8       0x64 ../../mesh/lib_51_MBTLE_CORE.a(fifo.c.obj)
                0x000000000001c9e8                fifo_push
 .text.fifo_pop
                0x000000000001ca4c       0x62 ../../mesh/lib_51_MBTLE_CORE.a(fifo.c.obj)
                0x000000000001ca4c                fifo_pop
 .text.fifo_peek_at
                0x000000000001caae       0x62 ../../mesh/lib_51_MBTLE_CORE.a(fifo.c.obj)
                0x000000000001caae                fifo_peek_at
 .text.fifo_peek
                0x000000000001cb10        0xa ../../mesh/lib_51_MBTLE_CORE.a(fifo.c.obj)
                0x000000000001cb10                fifo_peek
 .text.fifo_get_len
                0x000000000001cb1a        0x8 ../../mesh/lib_51_MBTLE_CORE.a(fifo.c.obj)
                0x000000000001cb1a                fifo_get_len
 .text.fifo_is_empty
                0x000000000001cb22        0xe ../../mesh/lib_51_MBTLE_CORE.a(fifo.c.obj)
                0x000000000001cb22                fifo_is_empty
 .text.packet_mgr_init
                0x000000000001cb30       0x5c ../../mesh/lib_51_MBTLE_CORE.a(packet_mgr.c.obj)
                0x000000000001cb30                packet_mgr_init
 .text.packet_mgr_alloc
                0x000000000001cb8c      0x1f4 ../../mesh/lib_51_MBTLE_CORE.a(packet_mgr.c.obj)
                0x000000000001cb8c                packet_mgr_alloc
 .text.packet_mgr_free
                0x000000000001cd80       0x74 ../../mesh/lib_51_MBTLE_CORE.a(packet_mgr.c.obj)
                0x000000000001cd80                packet_mgr_free
 .text.radio_init
                0x000000000001cdf4       0x60 ../../mesh/lib_51_MBTLE_CORE.a(radio.c.obj)
                0x000000000001cdf4                radio_init
 .text.radio_order
                0x000000000001ce54      0x13c ../../mesh/lib_51_MBTLE_CORE.a(radio.c.obj)
                0x000000000001ce54                radio_order
 .text.radio_invoke
                0x000000000001cf90       0x28 ../../mesh/lib_51_MBTLE_CORE.a(radio.c.obj)
                0x000000000001cf90                radio_invoke
 .text.radio_stop
                0x000000000001cfb8       0x28 ../../mesh/lib_51_MBTLE_CORE.a(radio.c.obj)
                0x000000000001cfb8                radio_stop
 .text.purge_preemptable
                0x000000000001cfe0       0x7c ../../mesh/lib_51_MBTLE_CORE.a(radio.c.obj)
 .text.radio_preemptable_cancel
                0x000000000001d05c       0x2c ../../mesh/lib_51_MBTLE_CORE.a(radio.c.obj)
                0x000000000001d05c                radio_preemptable_cancel
 .text.radio_event_handler
                0x000000000001d088      0x134 ../../mesh/lib_51_MBTLE_CORE.a(radio.c.obj)
                0x000000000001d088                radio_event_handler
 .text.radio_on_ts_begin
                0x000000000001d1bc       0x50 ../../mesh/lib_51_MBTLE_CORE.a(radio.c.obj)
                0x000000000001d1bc                radio_on_ts_begin
 .text.radio_on_ts_end
                0x000000000001d20c        0x8 ../../mesh/lib_51_MBTLE_CORE.a(radio.c.obj)
                0x000000000001d20c                radio_on_ts_end
 .text.timer_order_cb
                0x000000000001d214       0x9c ../../mesh/lib_51_MBTLE_CORE.a(timer.c.obj)
                0x000000000001d214                timer_order_cb
 .text.timer_abort
                0x000000000001d2b0       0x8c ../../mesh/lib_51_MBTLE_CORE.a(timer.c.obj)
                0x000000000001d2b0                timer_abort
 .text.timer_now
                0x000000000001d33c       0x58 ../../mesh/lib_51_MBTLE_CORE.a(timer.c.obj)
                0x000000000001d33c                timer_now
 .text.timer_event_handler
                0x000000000001d394       0xa0 ../../mesh/lib_51_MBTLE_CORE.a(timer.c.obj)
                0x000000000001d394                timer_event_handler
 .text.timer_on_ts_begin
                0x000000000001d434      0x138 ../../mesh/lib_51_MBTLE_CORE.a(timer.c.obj)
                0x000000000001d434                timer_on_ts_begin
 .text.timer_on_ts_end
                0x000000000001d56c       0x48 ../../mesh/lib_51_MBTLE_CORE.a(timer.c.obj)
                0x000000000001d56c                timer_on_ts_end
 .text.add_evt  0x000000000001d5b4       0x90 ../../mesh/lib_51_MBTLE_CORE.a(timer_scheduler.c.obj)
 .text.process_add_list
                0x000000000001d644       0x50 ../../mesh/lib_51_MBTLE_CORE.a(timer_scheduler.c.obj)
 .text.process_dirty_events
                0x000000000001d694       0xb8 ../../mesh/lib_51_MBTLE_CORE.a(timer_scheduler.c.obj)
 .text.flag_event_cb
                0x000000000001d74c      0x138 ../../mesh/lib_51_MBTLE_CORE.a(timer_scheduler.c.obj)
 .text.timer_cb
                0x000000000001d884       0x10 ../../mesh/lib_51_MBTLE_CORE.a(timer_scheduler.c.obj)
 .text.timer_sch_init
                0x000000000001d894       0x24 ../../mesh/lib_51_MBTLE_CORE.a(timer_scheduler.c.obj)
                0x000000000001d894                timer_sch_init
 .text.timer_sch_schedule
                0x000000000001d8b8       0x94 ../../mesh/lib_51_MBTLE_CORE.a(timer_scheduler.c.obj)
                0x000000000001d8b8                timer_sch_schedule
 .text.timer_sch_abort
                0x000000000001d94c       0x6c ../../mesh/lib_51_MBTLE_CORE.a(timer_scheduler.c.obj)
                0x000000000001d94c                timer_sch_abort
 .text.timer_sch_reschedule
                0x000000000001d9b8       0xb4 ../../mesh/lib_51_MBTLE_CORE.a(timer_scheduler.c.obj)
                0x000000000001d9b8                timer_sch_reschedule
 .text.bearer_rx_cb
                0x000000000001da6c      0x3a0 ../../mesh/lib_51_MBTLE_CORE.a(bearer.c.obj)
 .text.bearer_init
                0x000000000001de0c       0x68 ../../mesh/lib_51_MBTLE_CORE.a(bearer.c.obj)
                0x000000000001de0c                bearer_init
 .text.bearer_enable
                0x000000000001de74        0xa ../../mesh/lib_51_MBTLE_CORE.a(bearer.c.obj)
                0x000000000001de74                bearer_enable
 *fill*         0x000000000001de7e        0x2 
 .text.bearer_tx
                0x000000000001de80       0x50 ../../mesh/lib_51_MBTLE_CORE.a(bearer.c.obj)
                0x000000000001de80                bearer_tx
 .text.bearer_rx
                0x000000000001ded0       0x3c ../../mesh/lib_51_MBTLE_CORE.a(bearer.c.obj)
                0x000000000001ded0                bearer_rx
 .text.evt_push
                0x000000000001df0c       0x28 ../../mesh/lib_51_MBTLE_CORE.a(bearer_event.c.obj)
 .text.QDEC_IRQHandler
                0x000000000001df34       0xb4 ../../mesh/lib_51_MBTLE_CORE.a(bearer_event.c.obj)
                0x000000000001df34                QDEC_IRQHandler
 .text.bearer_event_init
                0x000000000001dfe8       0x40 ../../mesh/lib_51_MBTLE_CORE.a(bearer_event.c.obj)
                0x000000000001dfe8                bearer_event_init
 .text.bearer_event_generic_post
                0x000000000001e028       0x38 ../../mesh/lib_51_MBTLE_CORE.a(bearer_event.c.obj)
                0x000000000001e028                bearer_event_generic_post
 .text.bearer_event_timer_post
                0x000000000001e060       0x38 ../../mesh/lib_51_MBTLE_CORE.a(bearer_event.c.obj)
                0x000000000001e060                bearer_event_timer_post
 .text.bearer_event_critical_section_begin
                0x000000000001e098       0x48 ../../mesh/lib_51_MBTLE_CORE.a(bearer_event.c.obj)
                0x000000000001e098                bearer_event_critical_section_begin
 .text.bearer_event_critical_section_end
                0x000000000001e0e0       0x50 ../../mesh/lib_51_MBTLE_CORE.a(bearer_event.c.obj)
                0x000000000001e0e0                bearer_event_critical_section_end
 .text.bearer_event_flag_add
                0x000000000001e130       0x58 ../../mesh/lib_51_MBTLE_CORE.a(bearer_event.c.obj)
                0x000000000001e130                bearer_event_flag_add
 .text.bearer_event_flag_set
                0x000000000001e188       0x5c ../../mesh/lib_51_MBTLE_CORE.a(bearer_event.c.obj)
                0x000000000001e188                bearer_event_flag_set
 .text.event_handle
                0x000000000001e1e4       0x38 ../../mesh/lib_51_MBTLE_CORE.a(event.c.obj)
                0x000000000001e1e4                event_handle
 .text.log_callback_rtt
                0x000000000001e21c       0x2c ../../mesh/lib_51_MBTLE_CORE.a(log.c.obj)
                0x000000000001e21c                log_callback_rtt
 .text.log_init
                0x000000000001e248       0x1c ../../mesh/lib_51_MBTLE_CORE.a(log.c.obj)
                0x000000000001e248                log_init
 .text.log_vprintf
                0x000000000001e264       0x20 ../../mesh/lib_51_MBTLE_CORE.a(log.c.obj)
                0x000000000001e264                log_vprintf
 .text.log_printf
                0x000000000001e284       0x16 ../../mesh/lib_51_MBTLE_CORE.a(log.c.obj)
                0x000000000001e284                log_printf
 *fill*         0x000000000001e29a        0x2 
 .text.flash_mem_available
                0x000000000001e29c       0x20 ../../mesh/lib_51_MBTLE_CORE.a(net_state.c.obj)
 .text.flash_store_iv_index
                0x000000000001e2bc       0x34 ../../mesh/lib_51_MBTLE_CORE.a(net_state.c.obj)
 .text.seqnum_block_allocate
                0x000000000001e2f0       0x54 ../../mesh/lib_51_MBTLE_CORE.a(net_state.c.obj)
 .text.flash_write_complete
                0x000000000001e344       0x84 ../../mesh/lib_51_MBTLE_CORE.a(net_state.c.obj)
 .text.net_state_recover_from_flash
                0x000000000001e3c8       0x98 ../../mesh/lib_51_MBTLE_CORE.a(net_state.c.obj)
                0x000000000001e3c8                net_state_recover_from_flash
 .text.net_state_flash_area_get
                0x000000000001e460       0x14 ../../mesh/lib_51_MBTLE_CORE.a(net_state.c.obj)
                0x000000000001e460                net_state_flash_area_get
 .text.init_flash_storage
                0x000000000001e474       0x44 ../../mesh/lib_51_MBTLE_CORE.a(net_state.c.obj)
 .text.net_state_init
                0x000000000001e4b8       0x48 ../../mesh/lib_51_MBTLE_CORE.a(net_state.c.obj)
                0x000000000001e4b8                net_state_init
 .text.net_state_iv_update_start
                0x000000000001e500       0x70 ../../mesh/lib_51_MBTLE_CORE.a(net_state.c.obj)
                0x000000000001e500                net_state_iv_update_start
 .text.iv_update_trigger_if_pending
                0x000000000001e570       0x98 ../../mesh/lib_51_MBTLE_CORE.a(net_state.c.obj)
 .text.iv_update_timer_handler
                0x000000000001e608       0x8c ../../mesh/lib_51_MBTLE_CORE.a(net_state.c.obj)
 .text.net_state_seqnum_alloc
                0x000000000001e694       0x74 ../../mesh/lib_51_MBTLE_CORE.a(net_state.c.obj)
                0x000000000001e694                net_state_seqnum_alloc
 .text.net_state_iv_index_lock
                0x000000000001e708       0x5c ../../mesh/lib_51_MBTLE_CORE.a(net_state.c.obj)
                0x000000000001e708                net_state_iv_index_lock
 .text.net_state_beacon_received
                0x000000000001e764       0xc0 ../../mesh/lib_51_MBTLE_CORE.a(net_state.c.obj)
                0x000000000001e764                net_state_beacon_received
 .text.net_state_beacon_iv_index_get
                0x000000000001e824        0xc ../../mesh/lib_51_MBTLE_CORE.a(net_state.c.obj)
                0x000000000001e824                net_state_beacon_iv_index_get
 .text.net_state_tx_iv_index_get
                0x000000000001e830       0x1c ../../mesh/lib_51_MBTLE_CORE.a(net_state.c.obj)
                0x000000000001e830                net_state_tx_iv_index_get
 .text.net_state_rx_iv_index_get
                0x000000000001e84c       0x18 ../../mesh/lib_51_MBTLE_CORE.a(net_state.c.obj)
                0x000000000001e84c                net_state_rx_iv_index_get
 .text.net_state_iv_update_get
                0x000000000001e864        0xc ../../mesh/lib_51_MBTLE_CORE.a(net_state.c.obj)
                0x000000000001e864                net_state_iv_update_get
 .text.sd_softdevice_is_enabled
                0x000000000001e870        0x4 ../../mesh/lib_51_MBTLE_CORE.a(nrf_mesh.c.obj)
 .text.nrf_mesh_init
                0x000000000001e874       0xb0 ../../mesh/lib_51_MBTLE_CORE.a(nrf_mesh.c.obj)
                0x000000000001e874                nrf_mesh_init
 .text.nrf_mesh_enable
                0x000000000001e924       0x4c ../../mesh/lib_51_MBTLE_CORE.a(nrf_mesh.c.obj)
                0x000000000001e924                nrf_mesh_enable
 .text.nrf_mesh_process
                0x000000000001e970      0x23c ../../mesh/lib_51_MBTLE_CORE.a(nrf_mesh.c.obj)
                0x000000000001e970                nrf_mesh_process
 .text.nrf_mesh_on_ble_evt
                0x000000000001ebac        0x4 ../../mesh/lib_51_MBTLE_CORE.a(nrf_mesh.c.obj)
                0x000000000001ebac                nrf_mesh_on_ble_evt
 .text.nrf_mesh_on_sd_evt
                0x000000000001ebb0        0xa ../../mesh/lib_51_MBTLE_CORE.a(nrf_mesh.c.obj)
                0x000000000001ebb0                nrf_mesh_on_sd_evt
 *fill*         0x000000000001ebba        0x2 
 .text.nrf_mesh_rx_cb_set
                0x000000000001ebbc        0xc ../../mesh/lib_51_MBTLE_CORE.a(nrf_mesh.c.obj)
                0x000000000001ebbc                nrf_mesh_rx_cb_set
 .text.nrf_mesh_address_type_get
                0x000000000001ebc8       0x14 ../../mesh/lib_51_MBTLE_CORE.a(nrf_mesh_utils.c.obj)
                0x000000000001ebc8                nrf_mesh_address_type_get
 .text.nrf_mesh_gap_address_type_get
                0x000000000001ebdc       0x48 ../../mesh/lib_51_MBTLE_CORE.a(nrf_mesh_utils.c.obj)
                0x000000000001ebdc                nrf_mesh_gap_address_type_get
 .text.radio_config_reset
                0x000000000001ec24       0x48 ../../mesh/lib_51_MBTLE_CORE.a(radio_config.c.obj)
                0x000000000001ec24                radio_config_reset
 .text.radio_config_channel_set
                0x000000000001ec6c       0x40 ../../mesh/lib_51_MBTLE_CORE.a(radio_config.c.obj)
                0x000000000001ec6c                radio_config_channel_set
 .text.radio_config_config
                0x000000000001ecac       0xd8 ../../mesh/lib_51_MBTLE_CORE.a(radio_config.c.obj)
                0x000000000001ecac                radio_config_config
 .text.sd_rand_application_bytes_available_get
                0x000000000001ed84        0x4 ../../mesh/lib_51_MBTLE_CORE.a(rand.c.obj)
 .text.sd_rand_application_vector_get
                0x000000000001ed88        0x4 ../../mesh/lib_51_MBTLE_CORE.a(rand.c.obj)
 .text.rand_prng_get
                0x000000000001ed8c       0x2e ../../mesh/lib_51_MBTLE_CORE.a(rand.c.obj)
                0x000000000001ed8c                rand_prng_get
 *fill*         0x000000000001edba        0x2 
 .text.rand_hw_rng_get
                0x000000000001edbc       0x64 ../../mesh/lib_51_MBTLE_CORE.a(rand.c.obj)
                0x000000000001edbc                rand_hw_rng_get
 .text.rand_prng_seed
                0x000000000001ee20       0x34 ../../mesh/lib_51_MBTLE_CORE.a(rand.c.obj)
                0x000000000001ee20                rand_prng_seed
 .text.timer_cb
                0x000000000001ee54       0x10 ../../mesh/lib_51_MBTLE_CORE.a(ticker.c.obj)
 .text.ticker_init
                0x000000000001ee64       0x38 ../../mesh/lib_51_MBTLE_CORE.a(ticker.c.obj)
                0x000000000001ee64                ticker_init
 .text.packet_mesh_trs_seq_auth_get
                0x000000000001ee9c       0x40 ../../mesh/lib_51_MBTLE_CORE.a(transport.c.obj)
 .text.trs_sar_ack_timeout_cb
                0x000000000001eedc       0x18 ../../mesh/lib_51_MBTLE_CORE.a(transport.c.obj)
 .text.trs_sar_tx_timeout_cb
                0x000000000001eef4        0xc ../../mesh/lib_51_MBTLE_CORE.a(transport.c.obj)
 .text.trs_sar_session_next_timeout_get
                0x000000000001ef00       0x6c ../../mesh/lib_51_MBTLE_CORE.a(transport.c.obj)
 .text.m_send_sar_cancel_event
                0x000000000001ef6c       0x26 ../../mesh/lib_51_MBTLE_CORE.a(transport.c.obj)
 .text.m_send_replay_cache_full_event
                0x000000000001ef92       0x2e ../../mesh/lib_51_MBTLE_CORE.a(transport.c.obj)
 .text.test_transport_decrypt
                0x000000000001efc0       0xa8 ../../mesh/lib_51_MBTLE_CORE.a(transport.c.obj)
 .text.trs_sar_drop_session
                0x000000000001f068      0x12c ../../mesh/lib_51_MBTLE_CORE.a(transport.c.obj)
 .text.trs_sar_session_cb
                0x000000000001f194       0xa8 ../../mesh/lib_51_MBTLE_CORE.a(transport.c.obj)
 .text.trs_sar_pkt_ack
                0x000000000001f23c      0x154 ../../mesh/lib_51_MBTLE_CORE.a(transport.c.obj)
 .text.sar_segment_send
                0x000000000001f390      0x19c ../../mesh/lib_51_MBTLE_CORE.a(transport.c.obj)
 .text.trs_sar_session_timer_order
                0x000000000001f52c       0x34 ../../mesh/lib_51_MBTLE_CORE.a(transport.c.obj)
 .text.trs_sar_pkt_decrypt
                0x000000000001f560      0x4c4 ../../mesh/lib_51_MBTLE_CORE.a(transport.c.obj)
                0x000000000001f560                trs_sar_pkt_decrypt
 .text.transport_sar_mem_funcs_reset
                0x000000000001fa24       0x2c ../../mesh/lib_51_MBTLE_CORE.a(transport.c.obj)
                0x000000000001fa24                transport_sar_mem_funcs_reset
 .text.transport_init
                0x000000000001fa50       0xb8 ../../mesh/lib_51_MBTLE_CORE.a(transport.c.obj)
                0x000000000001fa50                transport_init
 .text.transport_sar_mem_funcs_set
                0x000000000001fb08       0x44 ../../mesh/lib_51_MBTLE_CORE.a(transport.c.obj)
                0x000000000001fb08                transport_sar_mem_funcs_set
 .text.transport_pkt_in
                0x000000000001fb4c     0x1168 ../../mesh/lib_51_MBTLE_CORE.a(transport.c.obj)
                0x000000000001fb4c                transport_pkt_in
 .text.transport_sar_process
                0x0000000000020cb4      0x510 ../../mesh/lib_51_MBTLE_CORE.a(transport.c.obj)
                0x0000000000020cb4                transport_sar_process
 .text.internal_event_push
                0x00000000000211c4       0x34 ../../mesh/lib_51_MBTLE_CORE.a(internal_event.c.obj)
                0x00000000000211c4                internal_event_push
 .text.send_end_events
                0x00000000000211f8       0x88 ../../mesh/lib_51_MBTLE_CORE.a(mesh_flash.c.obj)
 .text.mesh_flash_init
                0x0000000000021280       0x90 ../../mesh/lib_51_MBTLE_CORE.a(mesh_flash.c.obj)
                0x0000000000021280                mesh_flash_init
 .text.mesh_flash_user_callback_set
                0x0000000000021310       0x30 ../../mesh/lib_51_MBTLE_CORE.a(mesh_flash.c.obj)
                0x0000000000021310                mesh_flash_user_callback_set
 .text.mesh_flash_op_push
                0x0000000000021340      0x168 ../../mesh/lib_51_MBTLE_CORE.a(mesh_flash.c.obj)
                0x0000000000021340                mesh_flash_op_push
 .text.mesh_flash_op_execute
                0x00000000000214a8      0x1d0 ../../mesh/lib_51_MBTLE_CORE.a(mesh_flash.c.obj)
                0x00000000000214a8                mesh_flash_op_execute
 .text.nrf_flash_erase
                0x0000000000021678       0x78 ../../mesh/lib_51_MBTLE_CORE.a(nrf_flash.c.obj)
                0x0000000000021678                nrf_flash_erase
 .text.nrf_flash_write
                0x00000000000216f0       0x78 ../../mesh/lib_51_MBTLE_CORE.a(nrf_flash.c.obj)
                0x00000000000216f0                nrf_flash_write
 .text.flash_area_is_blank
                0x0000000000021768       0x60 ../../mesh/lib_51_MBTLE_CORE.a(flash_manager.c.obj)
 .text.free_packet_buffer
                0x00000000000217c8       0x58 ../../mesh/lib_51_MBTLE_CORE.a(flash_manager.c.obj)
 .text.reserve_action_buffer
                0x0000000000021820       0x28 ../../mesh/lib_51_MBTLE_CORE.a(flash_manager.c.obj)
 .text.get_last_entry
                0x0000000000021848       0x7c ../../mesh/lib_51_MBTLE_CORE.a(flash_manager.c.obj)
 .text.process_action_queue
                0x00000000000218c4      0x740 ../../mesh/lib_51_MBTLE_CORE.a(flash_manager.c.obj)
 .text.flash_op_ended_callback
                0x0000000000022004       0x28 ../../mesh/lib_51_MBTLE_CORE.a(flash_manager.c.obj)
 .text.flash_manager_init
                0x000000000002202c       0x6c ../../mesh/lib_51_MBTLE_CORE.a(flash_manager.c.obj)
                0x000000000002202c                flash_manager_init
 .text.flash_manager_entry_next_get
                0x0000000000022098      0x140 ../../mesh/lib_51_MBTLE_CORE.a(flash_manager.c.obj)
                0x0000000000022098                flash_manager_entry_next_get
 .text.flash_manager_entry_alloc
                0x00000000000221d8       0x8c ../../mesh/lib_51_MBTLE_CORE.a(flash_manager.c.obj)
                0x00000000000221d8                flash_manager_entry_alloc
 .text.flash_manager_entry_commit
                0x0000000000022264       0x6c ../../mesh/lib_51_MBTLE_CORE.a(flash_manager.c.obj)
                0x0000000000022264                flash_manager_entry_commit
 .text.flash_manager_entry_invalidate
                0x00000000000222d0       0xa4 ../../mesh/lib_51_MBTLE_CORE.a(flash_manager.c.obj)
                0x00000000000222d0                flash_manager_entry_invalidate
 .text.flash_manager_add
                0x0000000000022374      0x3b8 ../../mesh/lib_51_MBTLE_CORE.a(flash_manager.c.obj)
                0x0000000000022374                flash_manager_add
 .text.flash_manager_mem_listener_register
                0x000000000002272c       0x4c ../../mesh/lib_51_MBTLE_CORE.a(flash_manager.c.obj)
                0x000000000002272c                flash_manager_mem_listener_register
 .text.flash_manager_is_stable
                0x0000000000022778       0x24 ../../mesh/lib_51_MBTLE_CORE.a(flash_manager.c.obj)
                0x0000000000022778                flash_manager_is_stable
 .text.flash_manager_on_defrag_end
                0x000000000002279c       0x68 ../../mesh/lib_51_MBTLE_CORE.a(flash_manager.c.obj)
                0x000000000002279c                flash_manager_on_defrag_end
 .text.flash_manager_recovery_page_get
                0x0000000000022804        0x8 ../../mesh/lib_51_MBTLE_CORE.a(flash_manager.c.obj)
                0x0000000000022804                flash_manager_recovery_page_get
 .text.defrag_on_end
                0x000000000002280c       0x1c ../../mesh/lib_51_MBTLE_CORE.a(flash_manager_defrag.c.obj)
 .text.execute_procedure_step
                0x0000000000022828       0xc0 ../../mesh/lib_51_MBTLE_CORE.a(flash_manager_defrag.c.obj)
 .text.on_flash_op_end
                0x00000000000228e8       0x40 ../../mesh/lib_51_MBTLE_CORE.a(flash_manager_defrag.c.obj)
 .text.erase_source
                0x0000000000022928       0x30 ../../mesh/lib_51_MBTLE_CORE.a(flash_manager_defrag.c.obj)
 .text.erase_recovery_area
                0x0000000000022958       0x30 ../../mesh/lib_51_MBTLE_CORE.a(flash_manager_defrag.c.obj)
 .text.post_process
                0x0000000000022988       0x6c ../../mesh/lib_51_MBTLE_CORE.a(flash_manager_defrag.c.obj)
 .text.write_back
                0x00000000000229f4       0x48 ../../mesh/lib_51_MBTLE_CORE.a(flash_manager_defrag.c.obj)
 .text.write_defrag_start_pointer
                0x0000000000022a3c       0x38 ../../mesh/lib_51_MBTLE_CORE.a(flash_manager_defrag.c.obj)
 .text.copy_metadata
                0x0000000000022a74       0x5c ../../mesh/lib_51_MBTLE_CORE.a(flash_manager_defrag.c.obj)
 .text.seal_storage_page
                0x0000000000022ad0       0x7c ../../mesh/lib_51_MBTLE_CORE.a(flash_manager_defrag.c.obj)
 .text.check_for_invalid_entries
                0x0000000000022b4c       0x50 ../../mesh/lib_51_MBTLE_CORE.a(flash_manager_defrag.c.obj)
 .text.invalidate_duplicate_entries
                0x0000000000022b9c      0x174 ../../mesh/lib_51_MBTLE_CORE.a(flash_manager_defrag.c.obj)
 .text.backup_entries
                0x0000000000022d10      0x214 ../../mesh/lib_51_MBTLE_CORE.a(flash_manager_defrag.c.obj)
 .text.flash_manager_defrag_init
                0x0000000000022f24       0xa8 ../../mesh/lib_51_MBTLE_CORE.a(flash_manager_defrag.c.obj)
                0x0000000000022f24                flash_manager_defrag_init
 .text.flash_manager_defrag_is_running
                0x0000000000022fcc       0x10 ../../mesh/lib_51_MBTLE_CORE.a(flash_manager_defrag.c.obj)
                0x0000000000022fcc                flash_manager_defrag_is_running
 .text.flash_manager_defrag
                0x0000000000022fdc       0xec ../../mesh/lib_51_MBTLE_CORE.a(flash_manager_defrag.c.obj)
                0x0000000000022fdc                flash_manager_defrag
 .text.flash_manager_defrag_recovery_page_get
                0x00000000000230c8        0xc ../../mesh/lib_51_MBTLE_CORE.a(flash_manager_defrag.c.obj)
                0x00000000000230c8                flash_manager_defrag_recovery_page_get
 .text.entry_get
                0x00000000000230d4       0x9c ../../mesh/lib_51_MBTLE_CORE.a(flash_manager_internal.c.obj)
                0x00000000000230d4                entry_get
 .text._weak_handler
                0x0000000000023170        0x4 ../../mesh/lib_51_MBTLE_CORE.a(nrf_mesh_weak.c.obj)
                0x0000000000023170                nrf_mesh_dfu_init
                0x0000000000023170                nrf_mesh_dfu_jump_to_bootloader
                0x0000000000023170                prov_utils_opt_get
                0x0000000000023170                prov_provisioner_cb_link_established
                0x0000000000023170                nrf_mesh_dfu_rx
                0x0000000000023170                prov_utils_opt_set
                0x0000000000023170                prov_provisionee_pkt_in
                0x0000000000023170                prov_provisioner_provision
                0x0000000000023170                prov_provisioner_cb_ack_received
                0x0000000000023170                nrf_mesh_dfu_bank_info_get
                0x0000000000023170                prov_provisionee_cb_ack_received
                0x0000000000023170                prov_provisioner_oob_pubkey
                0x0000000000023170                nrf_mesh_dfu_request
                0x0000000000023170                nrf_mesh_dfu_bank_flash
                0x0000000000023170                _weak_handler
                0x0000000000023170                prov_provisioner_pkt_in
                0x0000000000023170                prov_provisionee_auth_data
                0x0000000000023170                prov_provisioner_init
                0x0000000000023170                nrf_mesh_dfu_relay
                0x0000000000023170                prov_bearer_adv_pkt_in
                0x0000000000023170                prov_provisionee_accept
                0x0000000000023170                prov_beacon_unprov_pkt_in
                0x0000000000023170                prov_provisionee_shared_secret
                0x0000000000023170                nrf_mesh_dfu_abort
                0x0000000000023170                prov_provisionee_init
                0x0000000000023170                nrf_mesh_dfu_state_get
                0x0000000000023170                prov_provisioner_shared_secret
                0x0000000000023170                prov_provisioner_auth_data
                0x0000000000023170                prov_provisioner_oob_use
 .text.queue_init
                0x0000000000023174       0x24 ../../mesh/lib_51_MBTLE_CORE.a(queue.c.obj)
                0x0000000000023174                queue_init
 .text.queue_push
                0x0000000000023198       0x58 ../../mesh/lib_51_MBTLE_CORE.a(queue.c.obj)
                0x0000000000023198                queue_push
 .text.queue_pop
                0x00000000000231f0       0x40 ../../mesh/lib_51_MBTLE_CORE.a(queue.c.obj)
                0x00000000000231f0                queue_pop
 .text.msq_get  0x0000000000023230       0x7c ../../mesh/lib_51_MBTLE_CORE.a(msqueue.c.obj)
                0x0000000000023230                msq_get
 .text.msq_move
                0x00000000000232ac       0x70 ../../mesh/lib_51_MBTLE_CORE.a(msqueue.c.obj)
                0x00000000000232ac                msq_move
 .text.msq_reset
                0x000000000002331c       0x34 ../../mesh/lib_51_MBTLE_CORE.a(msqueue.c.obj)
                0x000000000002331c                msq_reset
 .text.msq_init
                0x0000000000023350       0x8c ../../mesh/lib_51_MBTLE_CORE.a(msqueue.c.obj)
                0x0000000000023350                msq_init
 .text.msq_available
                0x00000000000233dc       0x60 ../../mesh/lib_51_MBTLE_CORE.a(msqueue.c.obj)
                0x00000000000233dc                msq_available
 .text.sd_radio_session_open
                0x000000000002343c        0x4 ../../mesh/lib_51_MBTLE_CORE.a(timeslot.c.obj)
 .text.sd_radio_request
                0x0000000000023440        0x4 ../../mesh/lib_51_MBTLE_CORE.a(timeslot.c.obj)
 .text.ts_order_earliest
                0x0000000000023444       0x38 ../../mesh/lib_51_MBTLE_CORE.a(timeslot.c.obj)
 .text.ts_extend
                0x000000000002347c       0x30 ../../mesh/lib_51_MBTLE_CORE.a(timeslot.c.obj)
 .text.end_timer_handler
                0x00000000000234ac        0xc ../../mesh/lib_51_MBTLE_CORE.a(timeslot.c.obj)
 .text.start_time_update
                0x00000000000234b8       0x84 ../../mesh/lib_51_MBTLE_CORE.a(timeslot.c.obj)
                0x00000000000234b8                start_time_update
 .text.timeslot_sd_event_handler
                0x000000000002353c       0x58 ../../mesh/lib_51_MBTLE_CORE.a(timeslot.c.obj)
                0x000000000002353c                timeslot_sd_event_handler
 .text.timeslot_init
                0x0000000000023594       0x94 ../../mesh/lib_51_MBTLE_CORE.a(timeslot.c.obj)
                0x0000000000023594                timeslot_init
 .text.timeslot_resume
                0x0000000000023628       0x4c ../../mesh/lib_51_MBTLE_CORE.a(timeslot.c.obj)
                0x0000000000023628                timeslot_resume
 .text.timeslot_end_time_get
                0x0000000000023674       0x24 ../../mesh/lib_51_MBTLE_CORE.a(timeslot.c.obj)
                0x0000000000023674                timeslot_end_time_get
 .text.timeslot_end
                0x0000000000023698       0x80 ../../mesh/lib_51_MBTLE_CORE.a(timeslot.c.obj)
 .text.timeslot_remaining_time_get
                0x0000000000023718       0x34 ../../mesh/lib_51_MBTLE_CORE.a(timeslot.c.obj)
                0x0000000000023718                timeslot_remaining_time_get
 .text.radio_signal_callback
                0x000000000002374c      0x1f0 ../../mesh/lib_51_MBTLE_CORE.a(timeslot.c.obj)
 .text.beacon_init
                0x000000000002393c       0x44 ../../mesh/lib_51_MBTLE_CORE.a(beacon.c.obj)
                0x000000000002393c                beacon_init
 .text.beacon_create
                0x0000000000023980       0x5e ../../mesh/lib_51_MBTLE_CORE.a(beacon.c.obj)
                0x0000000000023980                beacon_create
 *fill*         0x00000000000239de        0x2 
 .text.beacon_tx
                0x00000000000239e0       0x48 ../../mesh/lib_51_MBTLE_CORE.a(beacon.c.obj)
                0x00000000000239e0                beacon_tx
 .text.beacon_pkt_in
                0x0000000000023a28      0x19c ../../mesh/lib_51_MBTLE_CORE.a(beacon.c.obj)
                0x0000000000023a28                beacon_pkt_in
 .text.nrf_mesh_configure_device_uuid_reset
                0x0000000000023bc4       0x28 ../../mesh/lib_51_MBTLE_CORE.a(nrf_mesh_configure.c.obj)
                0x0000000000023bc4                nrf_mesh_configure_device_uuid_reset
 .text.enc_aes_encrypt
                0x0000000000023bec        0x8 ../../mesh/lib_51_MBTLE_CORE.a(enc.c.obj)
                0x0000000000023bec                enc_aes_encrypt
 .text.enc_aes_cmac
                0x0000000000023bf4        0x8 ../../mesh/lib_51_MBTLE_CORE.a(enc.c.obj)
                0x0000000000023bf4                enc_aes_cmac
 .text.enc_aes_ccm_encrypt
                0x0000000000023bfc        0x8 ../../mesh/lib_51_MBTLE_CORE.a(enc.c.obj)
                0x0000000000023bfc                enc_aes_ccm_encrypt
 .text.enc_aes_ccm_decrypt
                0x0000000000023c04        0x8 ../../mesh/lib_51_MBTLE_CORE.a(enc.c.obj)
                0x0000000000023c04                enc_aes_ccm_decrypt
 .text.enc_nonce_generate
                0x0000000000023c0c       0xcc ../../mesh/lib_51_MBTLE_CORE.a(enc.c.obj)
                0x0000000000023c0c                enc_nonce_generate
 .text.enc_s1   0x0000000000023cd8       0x44 ../../mesh/lib_51_MBTLE_CORE.a(enc.c.obj)
                0x0000000000023cd8                enc_s1
 .text.msg_cache_init
                0x0000000000023d1c       0x38 ../../mesh/lib_51_MBTLE_CORE.a(msg_cache.c.obj)
                0x0000000000023d1c                msg_cache_init
 .text.msg_cache_entry_exists
                0x0000000000023d54       0xa8 ../../mesh/lib_51_MBTLE_CORE.a(msg_cache.c.obj)
                0x0000000000023d54                msg_cache_entry_exists
 .text.msg_cache_entry_add
                0x0000000000023dfc       0x40 ../../mesh/lib_51_MBTLE_CORE.a(msg_cache.c.obj)
                0x0000000000023dfc                msg_cache_entry_add
 .text.header_transfuscate
                0x0000000000023e3c       0x58 ../../mesh/lib_51_MBTLE_CORE.a(network.c.obj)
 .text.network_pkt_encrypt
                0x0000000000023e94       0x7a ../../mesh/lib_51_MBTLE_CORE.a(network.c.obj)
 *fill*         0x0000000000023f0e        0x2 
 .text.network_pkt_relay
                0x0000000000023f10      0x1e0 ../../mesh/lib_51_MBTLE_CORE.a(network.c.obj)
                0x0000000000023f10                network_pkt_relay
 .text.network_init
                0x00000000000240f0       0x3c ../../mesh/lib_51_MBTLE_CORE.a(network.c.obj)
                0x00000000000240f0                network_init
 .text.network_pkt_out
                0x000000000002412c      0x170 ../../mesh/lib_51_MBTLE_CORE.a(network.c.obj)
                0x000000000002412c                network_pkt_out
 .text.network_pkt_in
                0x000000000002429c      0x3d4 ../../mesh/lib_51_MBTLE_CORE.a(network.c.obj)
                0x000000000002429c                network_pkt_in
 .text.network_beacon_tx_cb
                0x0000000000024670      0x124 ../../mesh/lib_51_MBTLE_CORE.a(net_beacon.c.obj)
 .text.net_beacon_init
                0x0000000000024794       0x60 ../../mesh/lib_51_MBTLE_CORE.a(net_beacon.c.obj)
                0x0000000000024794                net_beacon_init
 .text.net_beacon_pkt_in
                0x00000000000247f4       0xe8 ../../mesh/lib_51_MBTLE_CORE.a(net_beacon.c.obj)
                0x00000000000247f4                net_beacon_pkt_in
 .text.packet_type_packet_get
                0x00000000000248dc       0x60 ../../mesh/lib_51_MBTLE_CORE.a(packet.c.obj)
                0x00000000000248dc                packet_type_packet_get
 .text.m_index_increment
                0x000000000002493c       0x2c ../../mesh/lib_51_MBTLE_CORE.a(packet_buffer.c.obj)
 .text.m_free_popped_packet
                0x0000000000024968       0x58 ../../mesh/lib_51_MBTLE_CORE.a(packet_buffer.c.obj)
 .text.m_adjust_desired_packet_length
                0x00000000000249c0       0x34 ../../mesh/lib_51_MBTLE_CORE.a(packet_buffer.c.obj)
 .text.packet_buffer_init
                0x00000000000249f4       0xe0 ../../mesh/lib_51_MBTLE_CORE.a(packet_buffer.c.obj)
                0x00000000000249f4                packet_buffer_init
 .text.packet_buffer_reserve
                0x0000000000024ad4      0x110 ../../mesh/lib_51_MBTLE_CORE.a(packet_buffer.c.obj)
                0x0000000000024ad4                packet_buffer_reserve
 .text.packet_buffer_commit
                0x0000000000024be4      0x128 ../../mesh/lib_51_MBTLE_CORE.a(packet_buffer.c.obj)
                0x0000000000024be4                packet_buffer_commit
 .text.packet_buffer_pop
                0x0000000000024d0c       0x84 ../../mesh/lib_51_MBTLE_CORE.a(packet_buffer.c.obj)
                0x0000000000024d0c                packet_buffer_pop
 .text.packet_buffer_can_pop
                0x0000000000024d90       0x48 ../../mesh/lib_51_MBTLE_CORE.a(packet_buffer.c.obj)
                0x0000000000024d90                packet_buffer_can_pop
 .text.packet_buffer_free
                0x0000000000024dd8       0x9c ../../mesh/lib_51_MBTLE_CORE.a(packet_buffer.c.obj)
                0x0000000000024dd8                packet_buffer_free
 .text.replay_cache_add
                0x0000000000024e74       0x98 ../../mesh/lib_51_MBTLE_CORE.a(replay_cache.c.obj)
                0x0000000000024e74                replay_cache_add
 .text.replay_cache_has_room
                0x0000000000024f0c       0x44 ../../mesh/lib_51_MBTLE_CORE.a(replay_cache.c.obj)
                0x0000000000024f0c                replay_cache_has_room
 .text.replay_cache_has_elem
                0x0000000000024f50       0x48 ../../mesh/lib_51_MBTLE_CORE.a(replay_cache.c.obj)
                0x0000000000024f50                replay_cache_has_elem
 .text.replay_cache_clear
                0x0000000000024f98       0x28 ../../mesh/lib_51_MBTLE_CORE.a(replay_cache.c.obj)
                0x0000000000024f98                replay_cache_clear
 .text.replay_cache_init
                0x0000000000024fc0        0x8 ../../mesh/lib_51_MBTLE_CORE.a(replay_cache.c.obj)
                0x0000000000024fc0                replay_cache_init
 .text.sd_ecb_block_encrypt
                0x0000000000024fc8        0x4 ../../mesh/lib_51_MBTLE_CORE.a(aes.c.obj)
 .text.aes_encrypt
                0x0000000000024fcc       0x78 ../../mesh/lib_51_MBTLE_CORE.a(aes.c.obj)
                0x0000000000024fcc                aes_encrypt
 .text.aes_cmac_subkey_generate
                0x0000000000025044       0xac ../../mesh/lib_51_MBTLE_CORE.a(aes_cmac.c.obj)
                0x0000000000025044                aes_cmac_subkey_generate
 .text.aes_cmac
                0x00000000000250f0       0xf4 ../../mesh/lib_51_MBTLE_CORE.a(aes_cmac.c.obj)
                0x00000000000250f0                aes_cmac
 .text.ccm_soft_crypt
                0x00000000000251e4       0xa2 ../../mesh/lib_51_MBTLE_CORE.a(ccm_soft.c.obj)
 .text.ccm_soft_authenticate_blocks
                0x0000000000025286       0x86 ../../mesh/lib_51_MBTLE_CORE.a(ccm_soft.c.obj)
 .text.ccm_soft_authenticate
                0x000000000002530c       0x8c ../../mesh/lib_51_MBTLE_CORE.a(ccm_soft.c.obj)
 .text.ccm_soft_encrypt
                0x0000000000025398       0x8a ../../mesh/lib_51_MBTLE_CORE.a(ccm_soft.c.obj)
                0x0000000000025398                ccm_soft_encrypt
 .text.ccm_soft_decrypt
                0x0000000000025422      0x166 ../../mesh/lib_51_MBTLE_CORE.a(ccm_soft.c.obj)
                0x0000000000025422                ccm_soft_decrypt
 .text._GetAvailWriteSpace
                0x0000000000025588       0x18 ../../lib/rtt/lib_51_RTT_LIB.a(SEGGER_RTT.c.obj)
 .text._WriteNoCheck
                0x00000000000255a0       0x3a ../../lib/rtt/lib_51_RTT_LIB.a(SEGGER_RTT.c.obj)
 .text._WriteBlocking
                0x00000000000255da       0x6c ../../lib/rtt/lib_51_RTT_LIB.a(SEGGER_RTT.c.obj)
 *fill*         0x0000000000025646        0x2 
 .text._DoInit  0x0000000000025648       0x60 ../../lib/rtt/lib_51_RTT_LIB.a(SEGGER_RTT.c.obj)
 .text.SEGGER_RTT_WriteNoLock
                0x00000000000256a8       0x70 ../../lib/rtt/lib_51_RTT_LIB.a(SEGGER_RTT.c.obj)
                0x00000000000256a8                SEGGER_RTT_WriteNoLock
 .text.SEGGER_RTT_Write
                0x0000000000025718       0x34 ../../lib/rtt/lib_51_RTT_LIB.a(SEGGER_RTT.c.obj)
                0x0000000000025718                SEGGER_RTT_Write
 .text._StoreChar
                0x000000000002574c       0x40 ../../lib/rtt/lib_51_RTT_LIB.a(SEGGER_RTT_printf.c.obj)
 .text._PrintUnsigned
                0x000000000002578c      0x114 ../../lib/rtt/lib_51_RTT_LIB.a(SEGGER_RTT_printf.c.obj)
 .text.SEGGER_RTT_vprintf
                0x00000000000258a0      0x2ee ../../lib/rtt/lib_51_RTT_LIB.a(SEGGER_RTT_printf.c.obj)
                0x00000000000258a0                SEGGER_RTT_vprintf
 .text.SEGGER_RTT_printf
                0x0000000000025b8e       0x1a ../../lib/rtt/lib_51_RTT_LIB.a(SEGGER_RTT_printf.c.obj)
                0x0000000000025b8e                SEGGER_RTT_printf
 .text          0x0000000000025ba8      0x114 /usr/bin/../lib/gcc/arm-none-eabi/6.3.1/thumb/v6-m/libgcc.a(_udivsi3.o)
                0x0000000000025ba8                __udivsi3
                0x0000000000025ba8                __aeabi_uidiv
                0x0000000000025cb4                __aeabi_uidivmod
 .text          0x0000000000025cbc      0x1d4 /usr/bin/../lib/gcc/arm-none-eabi/6.3.1/thumb/v6-m/libgcc.a(_divsi3.o)
                0x0000000000025cbc                __aeabi_idiv
                0x0000000000025cbc                __divsi3
                0x0000000000025e88                __aeabi_idivmod
 .text          0x0000000000025e90        0x4 /usr/bin/../lib/gcc/arm-none-eabi/6.3.1/thumb/v6-m/libgcc.a(_dvmd_tls.o)
                0x0000000000025e90                __aeabi_ldiv0
                0x0000000000025e90                __aeabi_idiv0
 .text          0x0000000000025e94       0x54 /usr/bin/../lib/gcc/arm-none-eabi/6.3.1/thumb/v6-m/libgcc.a(_muldi3.o)
                0x0000000000025e94                __aeabi_lmul
                0x0000000000025e94                __muldi3
 .text.exit     0x0000000000025ee8       0x2c /usr/bin/../lib/gcc/arm-none-eabi/6.3.1/../../../../arm-none-eabi/lib/thumb/v6-m/libg_nano.a(lib_a-exit.o)
                0x0000000000025ee8                exit
 .text.__libc_init_array
                0x0000000000025f14       0x48 /usr/bin/../lib/gcc/arm-none-eabi/6.3.1/../../../../arm-none-eabi/lib/thumb/v6-m/libg_nano.a(lib_a-init.o)
                0x0000000000025f14                __libc_init_array
 .text.malloc   0x0000000000025f5c       0x14 /usr/bin/../lib/gcc/arm-none-eabi/6.3.1/../../../../arm-none-eabi/lib/thumb/v6-m/libg_nano.a(lib_a-malloc.o)
                0x0000000000025f5c                malloc
 .text.free     0x0000000000025f70       0x14 /usr/bin/../lib/gcc/arm-none-eabi/6.3.1/../../../../arm-none-eabi/lib/thumb/v6-m/libg_nano.a(lib_a-malloc.o)
                0x0000000000025f70                free
 .text.memcmp   0x0000000000025f84       0x1e /usr/bin/../lib/gcc/arm-none-eabi/6.3.1/../../../../arm-none-eabi/lib/thumb/v6-m/libg_nano.a(lib_a-memcmp.o)
                0x0000000000025f84                memcmp
 .text.memcpy   0x0000000000025fa2       0x12 /usr/bin/../lib/gcc/arm-none-eabi/6.3.1/../../../../arm-none-eabi/lib/thumb/v6-m/libg_nano.a(lib_a-memcpy-stub.o)
                0x0000000000025fa2                memcpy
 .text.memset   0x0000000000025fb4       0x10 /usr/bin/../lib/gcc/arm-none-eabi/6.3.1/../../../../arm-none-eabi/lib/thumb/v6-m/libg_nano.a(lib_a-memset.o)
                0x0000000000025fb4                memset
 .text._free_r  0x0000000000025fc4       0x94 /usr/bin/../lib/gcc/arm-none-eabi/6.3.1/../../../../arm-none-eabi/lib/thumb/v6-m/libg_nano.a(lib_a-nano-freer.o)
                0x0000000000025fc4                _free_r
 .text._malloc_r
                0x0000000000026058       0xbc /usr/bin/../lib/gcc/arm-none-eabi/6.3.1/../../../../arm-none-eabi/lib/thumb/v6-m/libg_nano.a(lib_a-nano-mallocr.o)
                0x0000000000026058                _malloc_r
 .text._sbrk_r  0x0000000000026114       0x24 /usr/bin/../lib/gcc/arm-none-eabi/6.3.1/../../../../arm-none-eabi/lib/thumb/v6-m/libg_nano.a(lib_a-sbrkr.o)
                0x0000000000026114                _sbrk_r
 .text.sprintf  0x0000000000026138       0x44 /usr/bin/../lib/gcc/arm-none-eabi/6.3.1/../../../../arm-none-eabi/lib/thumb/v6-m/libg_nano.a(lib_a-sprintf.o)
                0x0000000000026138                sprintf
                0x0000000000026138                siprintf
 .text.strcpy   0x000000000002617c       0x10 /usr/bin/../lib/gcc/arm-none-eabi/6.3.1/../../../../arm-none-eabi/lib/thumb/v6-m/libg_nano.a(lib_a-strcpy.o)
                0x000000000002617c                strcpy
 .text.strrchr  0x000000000002618c       0x24 /usr/bin/../lib/gcc/arm-none-eabi/6.3.1/../../../../arm-none-eabi/lib/thumb/v6-m/libg_nano.a(lib_a-strrchr.o)
                0x000000000002618c                strrchr
 .text.__malloc_lock
                0x00000000000261b0        0x2 /usr/bin/../lib/gcc/arm-none-eabi/6.3.1/../../../../arm-none-eabi/lib/thumb/v6-m/libg_nano.a(lib_a-mlock.o)
                0x00000000000261b0                __malloc_lock
 .text.__malloc_unlock
                0x00000000000261b2        0x2 /usr/bin/../lib/gcc/arm-none-eabi/6.3.1/../../../../arm-none-eabi/lib/thumb/v6-m/libg_nano.a(lib_a-mlock.o)
                0x00000000000261b2                __malloc_unlock
 .text.__ssputs_r
                0x00000000000261b4       0xc4 /usr/bin/../lib/gcc/arm-none-eabi/6.3.1/../../../../arm-none-eabi/lib/thumb/v6-m/libg_nano.a(lib_a-nano-svfprintf.o)
                0x00000000000261b4                __ssputs_r
 .text._svfprintf_r
                0x0000000000026278      0x208 /usr/bin/../lib/gcc/arm-none-eabi/6.3.1/../../../../arm-none-eabi/lib/thumb/v6-m/libg_nano.a(lib_a-nano-svfprintf.o)
                0x0000000000026278                _svfprintf_r
                0x0000000000026278                _svfiprintf_r
 .text._printf_common
                0x0000000000026480       0xda /usr/bin/../lib/gcc/arm-none-eabi/6.3.1/../../../../arm-none-eabi/lib/thumb/v6-m/libg_nano.a(lib_a-nano-vfprintf_i.o)
                0x0000000000026480                _printf_common
 *fill*         0x000000000002655a        0x2 
 .text._printf_i
                0x000000000002655c      0x234 /usr/bin/../lib/gcc/arm-none-eabi/6.3.1/../../../../arm-none-eabi/lib/thumb/v6-m/libg_nano.a(lib_a-nano-vfprintf_i.o)
                0x000000000002655c                _printf_i
 .text.strchr   0x0000000000026790       0x1c /usr/bin/../lib/gcc/arm-none-eabi/6.3.1/../../../../arm-none-eabi/lib/thumb/v6-m/libg_nano.a(lib_a-strchr.o)
                0x0000000000026790                strchr
 .text.memchr   0x00000000000267ac       0x16 /usr/bin/../lib/gcc/arm-none-eabi/6.3.1/../../../../arm-none-eabi/lib/thumb/v6-m/libg_nano.a(lib_a-memchr-stub.o)
                0x00000000000267ac                memchr
 .text.memmove  0x00000000000267c2       0x24 /usr/bin/../lib/gcc/arm-none-eabi/6.3.1/../../../../arm-none-eabi/lib/thumb/v6-m/libg_nano.a(lib_a-memmove.o)
                0x00000000000267c2                memmove
 .text._realloc_r
                0x00000000000267e6       0x4c /usr/bin/../lib/gcc/arm-none-eabi/6.3.1/../../../../arm-none-eabi/lib/thumb/v6-m/libg_nano.a(lib_a-nano-reallocr.o)
                0x00000000000267e6                _realloc_r
 .text._malloc_usable_size_r
                0x0000000000026832       0x10 /usr/bin/../lib/gcc/arm-none-eabi/6.3.1/../../../../arm-none-eabi/lib/thumb/v6-m/libg_nano.a(lib_a-nano-msizer.o)
                0x0000000000026832                _malloc_usable_size_r
 *fill*         0x0000000000026842        0x2 
 .text._sbrk    0x0000000000026844       0x1c /usr/bin/../lib/gcc/arm-none-eabi/6.3.1/../../../../arm-none-eabi/lib/thumb/v6-m/libnosys.a(sbrk.o)
                0x0000000000026844                _sbrk
 .text._exit    0x0000000000026860        0x4 /usr/bin/../lib/gcc/arm-none-eabi/6.3.1/../../../../arm-none-eabi/lib/thumb/v6-m/libnosys.a(_exit.o)
                0x0000000000026860                _exit
 *(.init)
 .init          0x0000000000026864        0x4 /usr/bin/../lib/gcc/arm-none-eabi/6.3.1/thumb/v6-m/crti.o
                0x0000000000026864                _init
 .init          0x0000000000026868        0x8 /usr/bin/../lib/gcc/arm-none-eabi/6.3.1/thumb/v6-m/crtn.o
 *(.fini)
 .fini          0x0000000000026870        0x4 /usr/bin/../lib/gcc/arm-none-eabi/6.3.1/thumb/v6-m/crti.o
                0x0000000000026870                _fini
 .fini          0x0000000000026874        0x8 /usr/bin/../lib/gcc/arm-none-eabi/6.3.1/thumb/v6-m/crtn.o
 *crtbegin.o(.ctors)
 *crtbegin?.o(.ctors)
 *(EXCLUDE_FILE(*crtend.o *crtend?.o) .ctors)
 *(SORT(.ctors.*))
 *(.ctors)
 *crtbegin.o(.dtors)
 *crtbegin?.o(.dtors)
 *(EXCLUDE_FILE(*crtend.o *crtend?.o) .dtors)
 *(SORT(.dtors.*))
 *(.dtors)
 *(.rodata*)
 .rodata.adv_data.8757
                0x000000000002687c       0x12 CMakeFiles/51_beaconing.dir/src/main.c.obj
 *fill*         0x000000000002688e        0x2 
 .rodata.main.str1.4
                0x0000000000026890       0x96 CMakeFiles/51_beaconing.dir/src/main.c.obj
 *fill*         0x0000000000026926        0x2 
 .rodata.rx_callback.str1.4
                0x0000000000026928       0xa0 CMakeFiles/51_beaconing.dir/src/main.c.obj
 .rodata.HardFault_Handler.str1.4
                0x00000000000269c8        0xe CMakeFiles/51_beaconing.dir/__/nrf_mesh_sdk.c.obj
 *fill*         0x00000000000269d6        0x2 
 .rodata.app_error_handler.str1.4
                0x00000000000269d8       0x1d CMakeFiles/51_beaconing.dir/__/nrf_mesh_sdk.c.obj
 *fill*         0x00000000000269f5        0x3 
 .rodata.mesh_assert_handler.str1.4
                0x00000000000269f8       0x19 CMakeFiles/51_beaconing.dir/__/nrf_mesh_sdk.c.obj
 *fill*         0x0000000000026a11        0x3 
 .rodata.mesh_softdevice_enable.str1.4
                0x0000000000026a14       0x65 CMakeFiles/51_beaconing.dir/__/nrf_mesh_sdk.c.obj
 *fill*         0x0000000000026a79        0x3 
 .rodata.softdevice_assert_handler.str1.4
                0x0000000000026a7c       0x65 CMakeFiles/51_beaconing.dir/__/nrf_mesh_sdk.c.obj
 *fill*         0x0000000000026ae1        0x3 
 .rodata        0x0000000000026ae4       0x14 ../../mesh/lib_51_MBTLE_CORE.a(bearer_adv.c.obj)
 .rodata.bearer_adv_advertiser_init.str1.4
                0x0000000000026af8       0x39 ../../mesh/lib_51_MBTLE_CORE.a(bearer_adv.c.obj)
 *fill*         0x0000000000026b31        0x3 
 .rodata.bearer_adv_init.str1.4
                0x0000000000026b34       0x1d ../../mesh/lib_51_MBTLE_CORE.a(bearer_adv.c.obj)
 *fill*         0x0000000000026b51        0x3 
 .rodata.scan_order.str1.4
                0x0000000000026b54       0x86 ../../mesh/lib_51_MBTLE_CORE.a(bearer_adv.c.obj)
 *fill*         0x0000000000026bda        0x2 
 .rodata        0x0000000000026bdc       0x1c ../../mesh/lib_51_MBTLE_CORE.a(bearer.c.obj)
 .rodata.bearer_rx_cb.str1.4
                0x0000000000026bf8       0x76 ../../mesh/lib_51_MBTLE_CORE.a(bearer.c.obj)
 *fill*         0x0000000000026c6e        0x2 
 .rodata.log_callback_rtt.str1.4
                0x0000000000026c70       0x15 ../../mesh/lib_51_MBTLE_CORE.a(log.c.obj)
 *fill*         0x0000000000026c85        0x3 
 .rodata.str1.4
                0x0000000000026c88       0x11 ../../mesh/lib_51_MBTLE_CORE.a(log.c.obj)
 *fill*         0x0000000000026c99        0x3 
 .rodata.nrf_mesh_adv_send.str1.4
                0x0000000000026c9c       0x78 ../../mesh/lib_51_MBTLE_CORE.a(nrf_mesh.c.obj)
 .rodata.nrf_mesh_process.str1.4
                0x0000000000026d14       0x76 ../../mesh/lib_51_MBTLE_CORE.a(nrf_mesh.c.obj)
 *fill*         0x0000000000026d8a        0x2 
 .rodata.types_lookup.6530
                0x0000000000026d8c        0x4 ../../mesh/lib_51_MBTLE_CORE.a(nrf_mesh_utils.c.obj)
 .rodata.channel_rf_offsets.6165
                0x0000000000026d90       0x28 ../../mesh/lib_51_MBTLE_CORE.a(radio_config.c.obj)
 .rodata.sar_segment_send.str1.4
                0x0000000000026db8       0x39 ../../mesh/lib_51_MBTLE_CORE.a(transport.c.obj)
 *fill*         0x0000000000026df1        0x3 
 .rodata.test_transport_decrypt.str1.4
                0x0000000000026df4       0x5f ../../mesh/lib_51_MBTLE_CORE.a(transport.c.obj)
 *fill*         0x0000000000026e53        0x1 
 .rodata.transport_pkt_in.str1.4
                0x0000000000026e54      0x1b0 ../../mesh/lib_51_MBTLE_CORE.a(transport.c.obj)
 .rodata.transport_sar_process.str1.4
                0x0000000000027004       0xbb ../../mesh/lib_51_MBTLE_CORE.a(transport.c.obj)
 *fill*         0x00000000000270bf        0x1 
 .rodata.trs_sar_drop_session.str1.4
                0x00000000000270c0       0x18 ../../mesh/lib_51_MBTLE_CORE.a(transport.c.obj)
                                         0x48 (size before relaxing)
 .rodata.trs_sar_pkt_decrypt.str1.4
                0x00000000000270d8       0x61 ../../mesh/lib_51_MBTLE_CORE.a(transport.c.obj)
                                         0x69 (size before relaxing)
 *fill*         0x0000000000027139        0x3 
 .rodata.trs_sar_session_cb.str1.4
                0x000000000002713c       0x1b ../../mesh/lib_51_MBTLE_CORE.a(transport.c.obj)
 *fill*         0x0000000000027157        0x1 
 .rodata.m_all_operations
                0x0000000000027158       0x10 ../../mesh/lib_51_MBTLE_CORE.a(mesh_flash.c.obj)
 .rodata.process_action_queue
                0x0000000000027168       0x14 ../../mesh/lib_51_MBTLE_CORE.a(flash_manager.c.obj)
 .rodata.INVALID_HEADER
                0x000000000002717c        0x4 ../../mesh/lib_51_MBTLE_CORE.a(flash_manager.c.obj)
                0x000000000002717c                INVALID_HEADER
 .rodata.PADDING_HEADER
                0x0000000000027180        0x4 ../../mesh/lib_51_MBTLE_CORE.a(flash_manager.c.obj)
                0x0000000000027180                PADDING_HEADER
 .rodata.SEAL_HEADER
                0x0000000000027184        0x4 ../../mesh/lib_51_MBTLE_CORE.a(flash_manager.c.obj)
                0x0000000000027184                SEAL_HEADER
 .rodata.process_action_queue.str1.4
                0x0000000000027188       0x4d ../../mesh/lib_51_MBTLE_CORE.a(flash_manager.c.obj)
                                         0x7e (size before relaxing)
 *fill*         0x00000000000271d5        0x3 
 .rodata.flash_manager_defrag.str1.4
                0x00000000000271d8       0x54 ../../mesh/lib_51_MBTLE_CORE.a(flash_manager_defrag.c.obj)
                                         0x82 (size before relaxing)
 .rodata.m_procedure_steps
                0x000000000002722c       0x28 ../../mesh/lib_51_MBTLE_CORE.a(flash_manager_defrag.c.obj)
 .rodata.timeslot_init
                0x0000000000027254       0x20 ../../mesh/lib_51_MBTLE_CORE.a(timeslot.c.obj)
 .rodata.radio_signal_callback
                0x0000000000027274       0x14 ../../mesh/lib_51_MBTLE_CORE.a(timeslot.c.obj)
 .rodata.beacon_pkt_in.str1.4
                0x0000000000027288       0x81 ../../mesh/lib_51_MBTLE_CORE.a(beacon.c.obj)
                                         0x8c (size before relaxing)
 *fill*         0x0000000000027309        0x3 
 .rodata.network_pkt_in.str1.4
                0x000000000002730c       0x13 ../../mesh/lib_51_MBTLE_CORE.a(network.c.obj)
                                         0x1c (size before relaxing)
 *fill*         0x000000000002731f        0x1 
 .rodata.network_pkt_out.str1.4
                0x0000000000027320       0x25 ../../mesh/lib_51_MBTLE_CORE.a(network.c.obj)
 *fill*         0x0000000000027345        0x3 
 .rodata.network_pkt_relay.str1.4
                0x0000000000027348       0x75 ../../mesh/lib_51_MBTLE_CORE.a(network.c.obj)
                                         0xa6 (size before relaxing)
 *fill*         0x00000000000273bd        0x3 
 .rodata.net_beacon_init.str1.4
                0x00000000000273c0        0x5 ../../mesh/lib_51_MBTLE_CORE.a(net_beacon.c.obj)
 *fill*         0x00000000000273c5        0x3 
 .rodata.Rb.5041
                0x00000000000273c8       0x10 ../../mesh/lib_51_MBTLE_CORE.a(aes_cmac.c.obj)
 .rodata._DoInit.str1.4
                0x00000000000273d8       0x18 ../../lib/rtt/lib_51_RTT_LIB.a(SEGGER_RTT.c.obj)
                                         0x17 (size before relaxing)
 .rodata._aV2C.4378
                0x00000000000273f0       0x10 ../../lib/rtt/lib_51_RTT_LIB.a(SEGGER_RTT_printf.c.obj)
 .rodata._global_impure_ptr
                0x0000000000027400        0x4 /usr/bin/../lib/gcc/arm-none-eabi/6.3.1/../../../../arm-none-eabi/lib/thumb/v6-m/libg_nano.a(lib_a-impure.o)
                0x0000000000027400                _global_impure_ptr
 .rodata._svfprintf_r.str1.1
                0x0000000000027404       0x11 /usr/bin/../lib/gcc/arm-none-eabi/6.3.1/../../../../arm-none-eabi/lib/thumb/v6-m/libg_nano.a(lib_a-nano-svfprintf.o)
 .rodata._printf_i.str1.1
                0x0000000000027415       0x22 /usr/bin/../lib/gcc/arm-none-eabi/6.3.1/../../../../arm-none-eabi/lib/thumb/v6-m/libg_nano.a(lib_a-nano-vfprintf_i.o)
 *(.eh_frame*)
 *fill*         0x0000000000027437        0x1 
 .eh_frame      0x0000000000027438        0x0 /usr/bin/../lib/gcc/arm-none-eabi/6.3.1/thumb/v6-m/crtbegin.o
 .eh_frame      0x0000000000027438        0x4 /usr/bin/../lib/gcc/arm-none-eabi/6.3.1/thumb/v6-m/crtend.o

.glue_7         0x000000000002743c        0x0
 .glue_7        0x000000000002743c        0x0 linker stubs

.glue_7t        0x000000000002743c        0x0
 .glue_7t       0x000000000002743c        0x0 linker stubs

.vfp11_veneer   0x000000000002743c        0x0
 .vfp11_veneer  0x000000000002743c        0x0 linker stubs

.v4_bx          0x000000000002743c        0x0
 .v4_bx         0x000000000002743c        0x0 linker stubs

.iplt           0x000000000002743c        0x0
 .iplt          0x000000000002743c        0x0 /usr/bin/../lib/gcc/arm-none-eabi/6.3.1/thumb/v6-m/crtbegin.o

.ARM.extab
 *(.ARM.extab* .gnu.linkonce.armextab.*)
                0x000000000002743c                __exidx_start = .

.ARM.exidx      0x000000000002743c        0x8
 *(.ARM.exidx* .gnu.linkonce.armexidx.*)
 .ARM.exidx     0x000000000002743c        0x8 /usr/bin/../lib/gcc/arm-none-eabi/6.3.1/../../../../arm-none-eabi/lib/thumb/v6-m/crt0.o
                0x0000000000027444                __exidx_end = .
                0x0000000000027444                __etext = .

.rel.dyn        0x0000000000027444        0x0
 .rel.iplt      0x0000000000027444        0x0 /usr/bin/../lib/gcc/arm-none-eabi/6.3.1/thumb/v6-m/crtbegin.o

.data           0x00000000200022d8       0xcc load address 0x0000000000027444
                0x00000000200022d8                __data_start__ = .
 *(vtable)
 *(.data*)
 .data.m_radio_state
                0x00000000200022d8        0x1 ../../mesh/lib_51_MBTLE_CORE.a(radio.c.obj)
 *fill*         0x00000000200022d9        0x3 
 .data.g_log_debug_level
                0x00000000200022dc        0x4 ../../mesh/lib_51_MBTLE_CORE.a(log.c.obj)
                0x00000000200022dc                g_log_debug_level
 .data.g_log_debug_msk
                0x00000000200022e0        0x4 ../../mesh/lib_51_MBTLE_CORE.a(log.c.obj)
                0x00000000200022e0                g_log_debug_msk
 .data.g_log_hex_digits
                0x00000000200022e4        0x4 ../../mesh/lib_51_MBTLE_CORE.a(log.c.obj)
                0x00000000200022e4                g_log_hex_digits
 .data.m_log_callback
                0x00000000200022e8        0x4 ../../mesh/lib_51_MBTLE_CORE.a(log.c.obj)
                0x00000000200022e8                m_log_callback
 .data.mem_listener.7415
                0x00000000200022ec       0x10 ../../mesh/lib_51_MBTLE_CORE.a(net_state.c.obj)
 .data.mem_listener.7420
                0x00000000200022fc       0x10 ../../mesh/lib_51_MBTLE_CORE.a(net_state.c.obj)
 .data.mem_listener.7434
                0x000000002000230c       0x10 ../../mesh/lib_51_MBTLE_CORE.a(net_state.c.obj)
 .data.m_lfclk_ppm
                0x000000002000231c        0x4 ../../mesh/lib_51_MBTLE_CORE.a(timeslot.c.obj)
 .data.m_negotiate_timeslot_length
                0x0000000020002320        0x4 ../../mesh/lib_51_MBTLE_CORE.a(timeslot.c.obj)
 .data.m_radio_request_earliest
                0x0000000020002324       0x10 ../../mesh/lib_51_MBTLE_CORE.a(timeslot.c.obj)
 .data._impure_ptr
                0x0000000020002334        0x4 /usr/bin/../lib/gcc/arm-none-eabi/6.3.1/../../../../arm-none-eabi/lib/thumb/v6-m/libg_nano.a(lib_a-impure.o)
                0x0000000020002334                _impure_ptr
 .data.impure_data
                0x0000000020002338       0x60 /usr/bin/../lib/gcc/arm-none-eabi/6.3.1/../../../../arm-none-eabi/lib/thumb/v6-m/libg_nano.a(lib_a-impure.o)
                0x0000000020002398                . = ALIGN (0x4)
                0x0000000020002398                PROVIDE (__preinit_array_start, .)
 *(.preinit_array)
                0x0000000020002398                PROVIDE (__preinit_array_end, .)
                0x0000000020002398                . = ALIGN (0x4)
                0x0000000020002398                PROVIDE (__init_array_start, .)
 *(SORT(.init_array.*))
 *(.init_array)
 .init_array    0x0000000020002398        0x4 /usr/bin/../lib/gcc/arm-none-eabi/6.3.1/thumb/v6-m/crtbegin.o
                0x000000002000239c                PROVIDE (__init_array_end, .)
                0x000000002000239c                . = ALIGN (0x4)
                [!provide]                        PROVIDE (__fini_array_start, .)
 *(SORT(.fini_array.*))
 *(.fini_array)
 .fini_array    0x000000002000239c        0x4 /usr/bin/../lib/gcc/arm-none-eabi/6.3.1/thumb/v6-m/crtbegin.o
                [!provide]                        PROVIDE (__fini_array_end, .)
 *(.jcr*)
 .jcr           0x00000000200023a0        0x0 /usr/bin/../lib/gcc/arm-none-eabi/6.3.1/thumb/v6-m/crtbegin.o
 .jcr           0x00000000200023a0        0x4 /usr/bin/../lib/gcc/arm-none-eabi/6.3.1/thumb/v6-m/crtend.o
                0x00000000200023a4                . = ALIGN (0x4)
                0x00000000200023a4                __data_end__ = .

.igot.plt       0x00000000200023a4        0x0 load address 0x0000000000027510
 .igot.plt      0x00000000200023a4        0x0 /usr/bin/../lib/gcc/arm-none-eabi/6.3.1/thumb/v6-m/crtbegin.o

.bss            0x00000000200023a8     0x2718 load address 0x0000000000027518
                0x00000000200023a8                . = ALIGN (0x4)
                0x00000000200023a8                __bss_start__ = .
 *(.bss*)
 .bss           0x00000000200023a8       0x1c /usr/bin/../lib/gcc/arm-none-eabi/6.3.1/thumb/v6-m/crtbegin.o
 .bss.m_advertiser
                0x00000000200023c4       0xe0 CMakeFiles/51_beaconing.dir/src/main.c.obj
 .bss.m_ble_evt_buffer
                0x00000000200024a4       0x47 CMakeFiles/51_beaconing.dir/__/nrf_mesh_sdk.c.obj
 *fill*         0x00000000200024eb        0x1 
 .bss.m_addr_nonvirtual_allocated
                0x00000000200024ec        0x4 CMakeFiles/51_beaconing.dir/__/__/mesh/src/access/device_state_manager.c.obj
 .bss.m_addr_unicast_allocated
                0x00000000200024f0        0x4 CMakeFiles/51_beaconing.dir/__/__/mesh/src/access/device_state_manager.c.obj
 .bss.m_addr_virtual_allocated
                0x00000000200024f4        0x4 CMakeFiles/51_beaconing.dir/__/__/mesh/src/access/device_state_manager.c.obj
 .bss.m_addresses
                0x00000000200024f8       0x40 CMakeFiles/51_beaconing.dir/__/__/mesh/src/access/device_state_manager.c.obj
 .bss.m_appkey_allocated
                0x0000000020002538        0x4 CMakeFiles/51_beaconing.dir/__/__/mesh/src/access/device_state_manager.c.obj
 .bss.m_appkeys
                0x000000002000253c       0xb0 CMakeFiles/51_beaconing.dir/__/__/mesh/src/access/device_state_manager.c.obj
 .bss.m_devkeys
                0x00000000200025ec       0x16 CMakeFiles/51_beaconing.dir/__/__/mesh/src/access/device_state_manager.c.obj
 .bss.m_has_primary_subnet
                0x0000000020002602        0x1 CMakeFiles/51_beaconing.dir/__/__/mesh/src/access/device_state_manager.c.obj
 *fill*         0x0000000020002603        0x1 
 .bss.m_local_unicast_addr
                0x0000000020002604        0x4 CMakeFiles/51_beaconing.dir/__/__/mesh/src/access/device_state_manager.c.obj
 .bss.m_subnet_allocated
                0x0000000020002608        0x4 CMakeFiles/51_beaconing.dir/__/__/mesh/src/access/device_state_manager.c.obj
 .bss.m_subnets
                0x000000002000260c      0x170 CMakeFiles/51_beaconing.dir/__/__/mesh/src/access/device_state_manager.c.obj
 .bss.m_virtual_addresses
                0x000000002000277c       0xa0 CMakeFiles/51_beaconing.dir/__/__/mesh/src/access/device_state_manager.c.obj
 .bss.m_default_gap_addr
                0x000000002000281c        0x7 ../../mesh/lib_51_MBTLE_CORE.a(bearer_adv.c.obj)
 .bss.m_is_scanning
                0x0000000020002823        0x1 ../../mesh/lib_51_MBTLE_CORE.a(bearer_adv.c.obj)
 .bss.m_scan_ch
                0x0000000020002824        0x1 ../../mesh/lib_51_MBTLE_CORE.a(bearer_adv.c.obj)
 *fill*         0x0000000020002825        0x3 
 .bss.m_scan_config
                0x0000000020002828        0xc ../../mesh/lib_51_MBTLE_CORE.a(bearer_adv.c.obj)
 .bss.m_scan_evt
                0x0000000020002834       0x18 ../../mesh/lib_51_MBTLE_CORE.a(bearer_adv.c.obj)
 .bss.m_scan_window_end_evt
                0x000000002000284c       0x18 ../../mesh/lib_51_MBTLE_CORE.a(bearer_adv.c.obj)
 .bss.m_pool    0x0000000020002864     0x1000 ../../mesh/lib_51_MBTLE_CORE.a(packet_mgr.c.obj)
 .bss.mp_free_head
                0x0000000020003864        0x4 ../../mesh/lib_51_MBTLE_CORE.a(packet_mgr.c.obj)
 .bss.m_idle_cb
                0x0000000020003868        0x4 ../../mesh/lib_51_MBTLE_CORE.a(radio.c.obj)
 .bss.m_radio_config
                0x000000002000386c        0x8 ../../mesh/lib_51_MBTLE_CORE.a(radio.c.obj)
 .bss.m_radio_fifo
                0x0000000020003874       0x14 ../../mesh/lib_51_MBTLE_CORE.a(radio.c.obj)
 .bss.m_radio_fifo_queue
                0x0000000020003888       0x60 ../../mesh/lib_51_MBTLE_CORE.a(radio.c.obj)
 .bss.m_rx_cb   0x00000000200038e8        0x4 ../../mesh/lib_51_MBTLE_CORE.a(radio.c.obj)
 .bss.m_tx_cb   0x00000000200038ec        0x4 ../../mesh/lib_51_MBTLE_CORE.a(radio.c.obj)
 .bss.s_fifo_reserved.6682
                0x00000000200038f0        0x4 ../../mesh/lib_51_MBTLE_CORE.a(radio.c.obj)
 .bss.m_attributes
                0x00000000200038f4        0x3 ../../mesh/lib_51_MBTLE_CORE.a(timer.c.obj)
 *fill*         0x00000000200038f7        0x1 
 .bss.m_callbacks
                0x00000000200038f8        0xc ../../mesh/lib_51_MBTLE_CORE.a(timer.c.obj)
 .bss.m_is_in_ts
                0x0000000020003904        0x1 ../../mesh/lib_51_MBTLE_CORE.a(timer.c.obj)
 *fill*         0x0000000020003905        0x3 
 .bss.m_reference_time
                0x0000000020003908        0x4 ../../mesh/lib_51_MBTLE_CORE.a(timer.c.obj)
 .bss.m_timeouts
                0x000000002000390c        0xc ../../mesh/lib_51_MBTLE_CORE.a(timer.c.obj)
 .bss.m_timer_mut
                0x0000000020003918        0x4 ../../mesh/lib_51_MBTLE_CORE.a(timer.c.obj)
 .bss.m_ts_end_time
                0x000000002000391c        0x4 ../../mesh/lib_51_MBTLE_CORE.a(timer.c.obj)
 .bss.mp_ppi_tasks
                0x0000000020003920        0xc ../../mesh/lib_51_MBTLE_CORE.a(timer.c.obj)
 .bss.m_event_flag
                0x000000002000392c        0x4 ../../mesh/lib_51_MBTLE_CORE.a(timer_scheduler.c.obj)
 .bss.m_scheduler
                0x0000000020003930       0x10 ../../mesh/lib_51_MBTLE_CORE.a(timer_scheduler.c.obj)
 .bss.m_addr_filter
                0x0000000020003940        0x8 ../../mesh/lib_51_MBTLE_CORE.a(bearer.c.obj)
 .bss.m_adtype_filter
                0x0000000020003948       0x20 ../../mesh/lib_51_MBTLE_CORE.a(bearer.c.obj)
 .bss.m_adtype_filtering
                0x0000000020003968        0x1 ../../mesh/lib_51_MBTLE_CORE.a(bearer.c.obj)
 *fill*         0x0000000020003969        0x3 
 .bss.m_regular_advertiser
                0x000000002000396c       0xe0 ../../mesh/lib_51_MBTLE_CORE.a(bearer.c.obj)
 .bss.m_rx_fifo
                0x0000000020003a4c       0x14 ../../mesh/lib_51_MBTLE_CORE.a(bearer.c.obj)
 .bss.m_rx_fifo_buffer
                0x0000000020003a60       0xa0 ../../mesh/lib_51_MBTLE_CORE.a(bearer.c.obj)
 .bss.packets_accepted
                0x0000000020003b00        0x4 ../../mesh/lib_51_MBTLE_CORE.a(bearer.c.obj)
 .bss.packets_dropped_invalid_addr
                0x0000000020003b04        0x4 ../../mesh/lib_51_MBTLE_CORE.a(bearer.c.obj)
 .bss.packets_dropped_invalid_adtype
                0x0000000020003b08        0x4 ../../mesh/lib_51_MBTLE_CORE.a(bearer.c.obj)
 .bss.packets_dropped_invalid_length
                0x0000000020003b0c        0x4 ../../mesh/lib_51_MBTLE_CORE.a(bearer.c.obj)
 .bss.m_bearer_event_fifo
                0x0000000020003b10       0x14 ../../mesh/lib_51_MBTLE_CORE.a(bearer_event.c.obj)
 .bss.m_bearer_event_fifo_buffer
                0x0000000020003b24      0x100 ../../mesh/lib_51_MBTLE_CORE.a(bearer_event.c.obj)
 .bss.m_critical
                0x0000000020003c24        0x4 ../../mesh/lib_51_MBTLE_CORE.a(bearer_event.c.obj)
 .bss.m_flag_count
                0x0000000020003c28        0x4 ../../mesh/lib_51_MBTLE_CORE.a(bearer_event.c.obj)
 .bss.m_flag_event_callbacks
                0x0000000020003c2c       0x10 ../../mesh/lib_51_MBTLE_CORE.a(bearer_event.c.obj)
 .bss.m_flags   0x0000000020003c3c        0x4 ../../mesh/lib_51_MBTLE_CORE.a(bearer_event.c.obj)
 .bss.mp_evt_handlers_head
                0x0000000020003c40        0x4 ../../mesh/lib_51_MBTLE_CORE.a(event.c.obj)
 .bss.lock_count.7474
                0x0000000020003c44        0x4 ../../mesh/lib_51_MBTLE_CORE.a(net_state.c.obj)
 .bss.m_flash_manager
                0x0000000020003c48       0x24 ../../mesh/lib_51_MBTLE_CORE.a(net_state.c.obj)
 .bss.m_iv_update_timer
                0x0000000020003c6c       0x18 ../../mesh/lib_51_MBTLE_CORE.a(net_state.c.obj)
 .bss.m_net_state
                0x0000000020003c84       0x14 ../../mesh/lib_51_MBTLE_CORE.a(net_state.c.obj)
 .bss.m_seqnum_allocation_in_progress
                0x0000000020003c98        0x1 ../../mesh/lib_51_MBTLE_CORE.a(net_state.c.obj)
 .bss.m_test_mode
                0x0000000020003c99        0x1 ../../mesh/lib_51_MBTLE_CORE.a(net_state.c.obj)
 .bss.m_is_enabled
                0x0000000020003c9a        0x1 ../../mesh/lib_51_MBTLE_CORE.a(nrf_mesh.c.obj)
 .bss.m_is_initialized
                0x0000000020003c9b        0x1 ../../mesh/lib_51_MBTLE_CORE.a(nrf_mesh.c.obj)
 .bss.m_rx_cb   0x0000000020003c9c        0x4 ../../mesh/lib_51_MBTLE_CORE.a(nrf_mesh.c.obj)
 .bss.m_current_time
                0x0000000020003ca0        0x4 ../../mesh/lib_51_MBTLE_CORE.a(ticker.c.obj)
 .bss.m_timer   0x0000000020003ca4       0x18 ../../mesh/lib_51_MBTLE_CORE.a(ticker.c.obj)
 .bss.m_sar_alloc
                0x0000000020003cbc        0x4 ../../mesh/lib_51_MBTLE_CORE.a(transport.c.obj)
 .bss.m_sar_release
                0x0000000020003cc0        0x4 ../../mesh/lib_51_MBTLE_CORE.a(transport.c.obj)
 .bss.m_transport_pkt_buf
                0x0000000020003cc4       0x13 ../../mesh/lib_51_MBTLE_CORE.a(transport.c.obj)
 *fill*         0x0000000020003cd7        0x1 
 .bss.m_trs_config
                0x0000000020003cd8       0x14 ../../mesh/lib_51_MBTLE_CORE.a(transport.c.obj)
 .bss.m_trs_sar_ack_timeout
                0x0000000020003cec        0x1 ../../mesh/lib_51_MBTLE_CORE.a(transport.c.obj)
 .bss.m_trs_sar_ack_timer_active
                0x0000000020003ced        0x1 ../../mesh/lib_51_MBTLE_CORE.a(transport.c.obj)
 *fill*         0x0000000020003cee        0x2 
 .bss.m_trs_sar_rx_ack_timer
                0x0000000020003cf0       0x18 ../../mesh/lib_51_MBTLE_CORE.a(transport.c.obj)
 .bss.m_trs_sar_rx_sessions
                0x0000000020003d08       0x50 ../../mesh/lib_51_MBTLE_CORE.a(transport.c.obj)
 .bss.m_trs_sar_session_timer
                0x0000000020003d58       0x18 ../../mesh/lib_51_MBTLE_CORE.a(transport.c.obj)
 .bss.m_trs_sar_tx_sessions
                0x0000000020003d70       0x50 ../../mesh/lib_51_MBTLE_CORE.a(transport.c.obj)
 .bss.m_trs_sar_tx_timeout
                0x0000000020003dc0        0x1 ../../mesh/lib_51_MBTLE_CORE.a(transport.c.obj)
 *fill*         0x0000000020003dc1        0x3 
 .bss.m_trs_sar_tx_timer
                0x0000000020003dc4       0x18 ../../mesh/lib_51_MBTLE_CORE.a(transport.c.obj)
 .bss.m_internal_event_fifo
                0x0000000020003ddc       0x14 ../../mesh/lib_51_MBTLE_CORE.a(internal_event.c.obj)
 .bss.m_internal_event_initialized
                0x0000000020003df0        0x1 ../../mesh/lib_51_MBTLE_CORE.a(internal_event.c.obj)
 *fill*         0x0000000020003df1        0x3 
 .bss.m_report_cb
                0x0000000020003df4        0x4 ../../mesh/lib_51_MBTLE_CORE.a(internal_event.c.obj)
 .bss.m_event_flag
                0x0000000020003df8        0x4 ../../mesh/lib_51_MBTLE_CORE.a(mesh_flash.c.obj)
 .bss.m_suspended
                0x0000000020003dfc        0x1 ../../mesh/lib_51_MBTLE_CORE.a(mesh_flash.c.obj)
 *fill*         0x0000000020003dfd        0x3 
 .bss.m_users   0x0000000020003e00      0x1d4 ../../mesh/lib_51_MBTLE_CORE.a(mesh_flash.c.obj)
 .bss.m_action_queue
                0x0000000020003fd4        0xc ../../mesh/lib_51_MBTLE_CORE.a(flash_manager.c.obj)
 .bss.m_action_queue_buffer
                0x0000000020003fe0      0x104 ../../mesh/lib_51_MBTLE_CORE.a(flash_manager.c.obj)
 .bss.m_action_state
                0x00000000200040e4        0x1 ../../mesh/lib_51_MBTLE_CORE.a(flash_manager.c.obj)
 *fill*         0x00000000200040e5        0x3 
 .bss.m_memory_listener_queue
                0x00000000200040e8        0x8 ../../mesh/lib_51_MBTLE_CORE.a(flash_manager.c.obj)
 .bss.m_processing_flag
                0x00000000200040f0        0x4 ../../mesh/lib_51_MBTLE_CORE.a(flash_manager.c.obj)
 .bss.m_state   0x00000000200040f4        0x1 ../../mesh/lib_51_MBTLE_CORE.a(flash_manager.c.obj)
 *fill*         0x00000000200040f5        0x1 
 .bss.m_token   0x00000000200040f6        0x2 ../../mesh/lib_51_MBTLE_CORE.a(flash_manager.c.obj)
 .bss.p_current.8667
                0x00000000200040f8        0x4 ../../mesh/lib_51_MBTLE_CORE.a(flash_manager.c.obj)
 .bss.result.8668
                0x00000000200040fc        0x1 ../../mesh/lib_51_MBTLE_CORE.a(flash_manager.c.obj)
 *fill*         0x00000000200040fd        0x3 
 .bss.m_defrag  0x0000000020004100       0x1c ../../mesh/lib_51_MBTLE_CORE.a(flash_manager_defrag.c.obj)
 .bss.m_token   0x000000002000411c        0x2 ../../mesh/lib_51_MBTLE_CORE.a(flash_manager_defrag.c.obj)
 *fill*         0x000000002000411e        0x2 
 .bss.mp_recovery_area
                0x0000000020004120        0x4 ../../mesh/lib_51_MBTLE_CORE.a(flash_manager_defrag.c.obj)
 .bss.p_null_ptr.7732
                0x0000000020004124        0x4 ../../mesh/lib_51_MBTLE_CORE.a(flash_manager_defrag.c.obj)
 .bss.m_end_timer_triggered
                0x0000000020004128        0x1 ../../mesh/lib_51_MBTLE_CORE.a(timeslot.c.obj)
 .bss.m_framework_initialized
                0x0000000020004129        0x1 ../../mesh/lib_51_MBTLE_CORE.a(timeslot.c.obj)
 .bss.m_is_in_callback
                0x000000002000412a        0x1 ../../mesh/lib_51_MBTLE_CORE.a(timeslot.c.obj)
 .bss.m_is_in_timeslot
                0x000000002000412b        0x1 ../../mesh/lib_51_MBTLE_CORE.a(timeslot.c.obj)
 .bss.m_ret_param
                0x000000002000412c        0x8 ../../mesh/lib_51_MBTLE_CORE.a(timeslot.c.obj)
 .bss.m_start_time
                0x0000000020004134        0x4 ../../mesh/lib_51_MBTLE_CORE.a(timeslot.c.obj)
 .bss.m_timeslot_count
                0x0000000020004138        0x4 ../../mesh/lib_51_MBTLE_CORE.a(timeslot.c.obj)
 .bss.m_timeslot_forced_command
                0x000000002000413c        0x1 ../../mesh/lib_51_MBTLE_CORE.a(timeslot.c.obj)
 *fill*         0x000000002000413d        0x3 
 .bss.m_timeslot_length
                0x0000000020004140        0x4 ../../mesh/lib_51_MBTLE_CORE.a(timeslot.c.obj)
 .bss.requested_extend_time.8330
                0x0000000020004144        0x4 ../../mesh/lib_51_MBTLE_CORE.a(timeslot.c.obj)
 .bss.s_last_rtc_value.8302
                0x0000000020004148        0x8 ../../mesh/lib_51_MBTLE_CORE.a(timeslot.c.obj)
 .bss.m_advertiser
                0x0000000020004150       0xe0 ../../mesh/lib_51_MBTLE_CORE.a(beacon.c.obj)
 .bss.m_uuid    0x0000000020004230       0x10 ../../mesh/lib_51_MBTLE_CORE.a(nrf_mesh_configure.c.obj)
 .bss.m_msg_cache
                0x0000000020004240      0x100 ../../mesh/lib_51_MBTLE_CORE.a(msg_cache.c.obj)
 .bss.m_msg_cache_head
                0x0000000020004340        0x4 ../../mesh/lib_51_MBTLE_CORE.a(msg_cache.c.obj)
 .bss.m_relay_check_cb
                0x0000000020004344        0x4 ../../mesh/lib_51_MBTLE_CORE.a(network.c.obj)
 .bss.m_relay_enable
                0x0000000020004348        0x1 ../../mesh/lib_51_MBTLE_CORE.a(network.c.obj)
 .bss.m_relay_retransmit_count
                0x0000000020004349        0x1 ../../mesh/lib_51_MBTLE_CORE.a(network.c.obj)
 *fill*         0x000000002000434a        0x2 
 .bss.m_beacon_salt
                0x000000002000434c       0x10 ../../mesh/lib_51_MBTLE_CORE.a(net_beacon.c.obj)
 .bss.m_enabled
                0x000000002000435c        0x1 ../../mesh/lib_51_MBTLE_CORE.a(net_beacon.c.obj)
 *fill*         0x000000002000435d        0x3 
 .bss.m_tx_event
                0x0000000020004360       0x18 ../../mesh/lib_51_MBTLE_CORE.a(net_beacon.c.obj)
 .bss.m_cache_full
                0x0000000020004378        0x1 ../../mesh/lib_51_MBTLE_CORE.a(replay_cache.c.obj)
 .bss.m_cache_index
                0x0000000020004379        0x1 ../../mesh/lib_51_MBTLE_CORE.a(replay_cache.c.obj)
 *fill*         0x000000002000437a        0x2 
 .bss.m_replay_cache
                0x000000002000437c      0x200 ../../mesh/lib_51_MBTLE_CORE.a(replay_cache.c.obj)
 .bss.m_128buf  0x000000002000457c       0x10 ../../mesh/lib_51_MBTLE_CORE.a(aes_cmac.c.obj)
 .bss.m_subkey1
                0x000000002000458c       0x10 ../../mesh/lib_51_MBTLE_CORE.a(aes_cmac.c.obj)
 .bss.m_subkey2
                0x000000002000459c       0x10 ../../mesh/lib_51_MBTLE_CORE.a(aes_cmac.c.obj)
 .bss._acDownBuffer
                0x00000000200045ac       0x80 ../../lib/rtt/lib_51_RTT_LIB.a(SEGGER_RTT.c.obj)
 .bss._acUpBuffer
                0x000000002000462c      0x400 ../../lib/rtt/lib_51_RTT_LIB.a(SEGGER_RTT.c.obj)
 .bss.__malloc_free_list
                0x0000000020004a2c        0x4 /usr/bin/../lib/gcc/arm-none-eabi/6.3.1/../../../../arm-none-eabi/lib/thumb/v6-m/libg_nano.a(lib_a-nano-mallocr.o)
                0x0000000020004a2c                __malloc_free_list
 .bss.__malloc_sbrk_start
                0x0000000020004a30        0x4 /usr/bin/../lib/gcc/arm-none-eabi/6.3.1/../../../../arm-none-eabi/lib/thumb/v6-m/libg_nano.a(lib_a-nano-mallocr.o)
                0x0000000020004a30                __malloc_sbrk_start
 .bss.heap_end.4116
                0x0000000020004a34        0x4 /usr/bin/../lib/gcc/arm-none-eabi/6.3.1/../../../../arm-none-eabi/lib/thumb/v6-m/libnosys.a(sbrk.o)
 *(COMMON)
 COMMON         0x0000000020004a38        0x8 CMakeFiles/51_beaconing.dir/__/nrf_mesh_sdk.c.obj
                0x0000000020004a38                nrf_nvic_state
 COMMON         0x0000000020004a40        0x4 ../../mesh/lib_51_MBTLE_CORE.a(nrf_mesh.c.obj)
                0x0000000020004a40                m_assertion_handler
 COMMON         0x0000000020004a44       0x78 ../../lib/rtt/lib_51_RTT_LIB.a(SEGGER_RTT.c.obj)
                0x0000000020004a44                _SEGGER_RTT
 COMMON         0x0000000020004abc        0x4 /usr/bin/../lib/gcc/arm-none-eabi/6.3.1/../../../../arm-none-eabi/lib/thumb/v6-m/libg_nano.a(lib_a-reent.o)
                0x0000000020004abc                errno
                0x0000000020004ac0                . = ALIGN (0x4)
                0x0000000020004ac0                __bss_end__ = .

.heap           0x0000000020004ac0       0x80
                0x0000000020004ac0                __HeapBase = .
                0x0000000020004ac0                __end__ = .
                0x0000000020004ac0                PROVIDE (end, .)
 *(.heap*)
 .heap          0x0000000020004ac0       0x80 CMakeFiles/51_beaconing.dir/__/__/toolchain/gcc/gcc_startup_nrf51.S.obj
                0x0000000020004b40                __HeapLimit = .

.stack_dummy    0x0000000020004ac0      0x800
 *(.stack*)
 .stack         0x0000000020004ac0      0x800 CMakeFiles/51_beaconing.dir/__/__/toolchain/gcc/gcc_startup_nrf51.S.obj
                0x0000000020007d00                __StackTop = (ORIGIN (RAM) + LENGTH (RAM))
                0x0000000020007500                __StackLimit = (__StackTop - SIZEOF (.stack_dummy))
                0x0000000020007d00                PROVIDE (__stack, __StackTop)
                0x0000000000000001                ASSERT ((__StackLimit >= __HeapLimit), region RAM overflowed with stack)
OUTPUT(51_beaconing.elf elf32-littlearm)

.ARM.attributes
                0x0000000000000000       0x28
 .ARM.attributes
                0x0000000000000000       0x1e /usr/bin/../lib/gcc/arm-none-eabi/6.3.1/thumb/v6-m/crti.o
 .ARM.attributes
                0x000000000000001e       0x2c /usr/bin/../lib/gcc/arm-none-eabi/6.3.1/thumb/v6-m/crtbegin.o
 .ARM.attributes
                0x000000000000004a       0x1b /usr/bin/../lib/gcc/arm-none-eabi/6.3.1/../../../../arm-none-eabi/lib/thumb/v6-m/crt0.o
 .ARM.attributes
                0x0000000000000065       0x31 CMakeFiles/51_beaconing.dir/src/main.c.obj
 .ARM.attributes
                0x0000000000000096       0x31 CMakeFiles/51_beaconing.dir/__/nrf_mesh_sdk.c.obj
 .ARM.attributes
                0x00000000000000c7       0x31 CMakeFiles/51_beaconing.dir/__/__/mesh/src/access/device_state_manager.c.obj
 .ARM.attributes
                0x00000000000000f8       0x1b CMakeFiles/51_beaconing.dir/__/__/toolchain/gcc/gcc_startup_nrf51.S.obj
 .ARM.attributes
                0x0000000000000113       0x31 CMakeFiles/51_beaconing.dir/__/__/toolchain/system_nrf51.c.obj
 .ARM.attributes
                0x0000000000000144       0x31 ../../mesh/lib_51_MBTLE_CORE.a(bearer_adv.c.obj)
 .ARM.attributes
                0x0000000000000175       0x31 ../../mesh/lib_51_MBTLE_CORE.a(fifo.c.obj)
 .ARM.attributes
                0x00000000000001a6       0x31 ../../mesh/lib_51_MBTLE_CORE.a(packet_mgr.c.obj)
 .ARM.attributes
                0x00000000000001d7       0x31 ../../mesh/lib_51_MBTLE_CORE.a(radio.c.obj)
 .ARM.attributes
                0x0000000000000208       0x31 ../../mesh/lib_51_MBTLE_CORE.a(timer.c.obj)
 .ARM.attributes
                0x0000000000000239       0x31 ../../mesh/lib_51_MBTLE_CORE.a(timer_scheduler.c.obj)
 .ARM.attributes
                0x000000000000026a       0x31 ../../mesh/lib_51_MBTLE_CORE.a(bearer.c.obj)
 .ARM.attributes
                0x000000000000029b       0x31 ../../mesh/lib_51_MBTLE_CORE.a(bearer_event.c.obj)
 .ARM.attributes
                0x00000000000002cc       0x31 ../../mesh/lib_51_MBTLE_CORE.a(event.c.obj)
 .ARM.attributes
                0x00000000000002fd       0x31 ../../mesh/lib_51_MBTLE_CORE.a(log.c.obj)
 .ARM.attributes
                0x000000000000032e       0x31 ../../mesh/lib_51_MBTLE_CORE.a(net_state.c.obj)
 .ARM.attributes
                0x000000000000035f       0x31 ../../mesh/lib_51_MBTLE_CORE.a(nrf_mesh.c.obj)
 .ARM.attributes
                0x0000000000000390       0x31 ../../mesh/lib_51_MBTLE_CORE.a(nrf_mesh_utils.c.obj)
 .ARM.attributes
                0x00000000000003c1       0x31 ../../mesh/lib_51_MBTLE_CORE.a(radio_config.c.obj)
 .ARM.attributes
                0x00000000000003f2       0x31 ../../mesh/lib_51_MBTLE_CORE.a(rand.c.obj)
 .ARM.attributes
                0x0000000000000423       0x31 ../../mesh/lib_51_MBTLE_CORE.a(ticker.c.obj)
 .ARM.attributes
                0x0000000000000454       0x31 ../../mesh/lib_51_MBTLE_CORE.a(transport.c.obj)
 .ARM.attributes
                0x0000000000000485       0x31 ../../mesh/lib_51_MBTLE_CORE.a(internal_event.c.obj)
 .ARM.attributes
                0x00000000000004b6       0x31 ../../mesh/lib_51_MBTLE_CORE.a(mesh_flash.c.obj)
 .ARM.attributes
                0x00000000000004e7       0x31 ../../mesh/lib_51_MBTLE_CORE.a(nrf_flash.c.obj)
 .ARM.attributes
                0x0000000000000518       0x31 ../../mesh/lib_51_MBTLE_CORE.a(flash_manager.c.obj)
 .ARM.attributes
                0x0000000000000549       0x31 ../../mesh/lib_51_MBTLE_CORE.a(flash_manager_defrag.c.obj)
 .ARM.attributes
                0x000000000000057a       0x31 ../../mesh/lib_51_MBTLE_CORE.a(flash_manager_internal.c.obj)
 .ARM.attributes
                0x00000000000005ab       0x31 ../../mesh/lib_51_MBTLE_CORE.a(nrf_mesh_weak.c.obj)
 .ARM.attributes
                0x00000000000005dc       0x31 ../../mesh/lib_51_MBTLE_CORE.a(queue.c.obj)
 .ARM.attributes
                0x000000000000060d       0x31 ../../mesh/lib_51_MBTLE_CORE.a(msqueue.c.obj)
 .ARM.attributes
                0x000000000000063e       0x31 ../../mesh/lib_51_MBTLE_CORE.a(timeslot.c.obj)
 .ARM.attributes
                0x000000000000066f       0x31 ../../mesh/lib_51_MBTLE_CORE.a(beacon.c.obj)
 .ARM.attributes
                0x00000000000006a0       0x31 ../../mesh/lib_51_MBTLE_CORE.a(nrf_mesh_configure.c.obj)
 .ARM.attributes
                0x00000000000006d1       0x31 ../../mesh/lib_51_MBTLE_CORE.a(enc.c.obj)
 .ARM.attributes
                0x0000000000000702       0x31 ../../mesh/lib_51_MBTLE_CORE.a(msg_cache.c.obj)
 .ARM.attributes
                0x0000000000000733       0x31 ../../mesh/lib_51_MBTLE_CORE.a(network.c.obj)
 .ARM.attributes
                0x0000000000000764       0x31 ../../mesh/lib_51_MBTLE_CORE.a(net_beacon.c.obj)
 .ARM.attributes
                0x0000000000000795       0x31 ../../mesh/lib_51_MBTLE_CORE.a(packet.c.obj)
 .ARM.attributes
                0x00000000000007c6       0x31 ../../mesh/lib_51_MBTLE_CORE.a(packet_buffer.c.obj)
 .ARM.attributes
                0x00000000000007f7       0x31 ../../mesh/lib_51_MBTLE_CORE.a(replay_cache.c.obj)
 .ARM.attributes
                0x0000000000000828       0x31 ../../mesh/lib_51_MBTLE_CORE.a(aes.c.obj)
 .ARM.attributes
                0x0000000000000859       0x31 ../../mesh/lib_51_MBTLE_CORE.a(aes_cmac.c.obj)
 .ARM.attributes
                0x000000000000088a       0x31 ../../mesh/lib_51_MBTLE_CORE.a(ccm_soft.c.obj)
 .ARM.attributes
                0x00000000000008bb       0x31 ../../lib/rtt/lib_51_RTT_LIB.a(SEGGER_RTT.c.obj)
 .ARM.attributes
                0x00000000000008ec       0x31 ../../lib/rtt/lib_51_RTT_LIB.a(SEGGER_RTT_printf.c.obj)
 .ARM.attributes
                0x000000000000091d       0x1e /usr/bin/../lib/gcc/arm-none-eabi/6.3.1/thumb/v6-m/libgcc.a(_udivsi3.o)
 .ARM.attributes
                0x000000000000093b       0x1e /usr/bin/../lib/gcc/arm-none-eabi/6.3.1/thumb/v6-m/libgcc.a(_divsi3.o)
 .ARM.attributes
                0x0000000000000959       0x1e /usr/bin/../lib/gcc/arm-none-eabi/6.3.1/thumb/v6-m/libgcc.a(_dvmd_tls.o)
 .ARM.attributes
                0x0000000000000977       0x2c /usr/bin/../lib/gcc/arm-none-eabi/6.3.1/thumb/v6-m/libgcc.a(_muldi3.o)
 .ARM.attributes
                0x00000000000009a3       0x2c /usr/bin/../lib/gcc/arm-none-eabi/6.3.1/../../../../arm-none-eabi/lib/thumb/v6-m/libg_nano.a(lib_a-exit.o)
 .ARM.attributes
                0x00000000000009cf       0x2c /usr/bin/../lib/gcc/arm-none-eabi/6.3.1/../../../../arm-none-eabi/lib/thumb/v6-m/libg_nano.a(lib_a-impure.o)
 .ARM.attributes
                0x00000000000009fb       0x2c /usr/bin/../lib/gcc/arm-none-eabi/6.3.1/../../../../arm-none-eabi/lib/thumb/v6-m/libg_nano.a(lib_a-init.o)
 .ARM.attributes
                0x0000000000000a27       0x2c /usr/bin/../lib/gcc/arm-none-eabi/6.3.1/../../../../arm-none-eabi/lib/thumb/v6-m/libg_nano.a(lib_a-malloc.o)
 .ARM.attributes
                0x0000000000000a53       0x2c /usr/bin/../lib/gcc/arm-none-eabi/6.3.1/../../../../arm-none-eabi/lib/thumb/v6-m/libg_nano.a(lib_a-memcmp.o)
 .ARM.attributes
                0x0000000000000a7f       0x2c /usr/bin/../lib/gcc/arm-none-eabi/6.3.1/../../../../arm-none-eabi/lib/thumb/v6-m/libg_nano.a(lib_a-memcpy-stub.o)
 .ARM.attributes
                0x0000000000000aab       0x2c /usr/bin/../lib/gcc/arm-none-eabi/6.3.1/../../../../arm-none-eabi/lib/thumb/v6-m/libg_nano.a(lib_a-memset.o)
 .ARM.attributes
                0x0000000000000ad7       0x2c /usr/bin/../lib/gcc/arm-none-eabi/6.3.1/../../../../arm-none-eabi/lib/thumb/v6-m/libg_nano.a(lib_a-nano-freer.o)
 .ARM.attributes
                0x0000000000000b03       0x2c /usr/bin/../lib/gcc/arm-none-eabi/6.3.1/../../../../arm-none-eabi/lib/thumb/v6-m/libg_nano.a(lib_a-nano-mallocr.o)
 .ARM.attributes
                0x0000000000000b2f       0x2c /usr/bin/../lib/gcc/arm-none-eabi/6.3.1/../../../../arm-none-eabi/lib/thumb/v6-m/libg_nano.a(lib_a-sbrkr.o)
 .ARM.attributes
                0x0000000000000b5b       0x2c /usr/bin/../lib/gcc/arm-none-eabi/6.3.1/../../../../arm-none-eabi/lib/thumb/v6-m/libg_nano.a(lib_a-sprintf.o)
 .ARM.attributes
                0x0000000000000b87       0x2c /usr/bin/../lib/gcc/arm-none-eabi/6.3.1/../../../../arm-none-eabi/lib/thumb/v6-m/libg_nano.a(lib_a-strcpy.o)
 .ARM.attributes
                0x0000000000000bb3       0x2c /usr/bin/../lib/gcc/arm-none-eabi/6.3.1/../../../../arm-none-eabi/lib/thumb/v6-m/libg_nano.a(lib_a-strrchr.o)
 .ARM.attributes
                0x0000000000000bdf       0x2c /usr/bin/../lib/gcc/arm-none-eabi/6.3.1/../../../../arm-none-eabi/lib/thumb/v6-m/libg_nano.a(lib_a-mlock.o)
 .ARM.attributes
                0x0000000000000c0b       0x2c /usr/bin/../lib/gcc/arm-none-eabi/6.3.1/../../../../arm-none-eabi/lib/thumb/v6-m/libg_nano.a(lib_a-nano-svfprintf.o)
 .ARM.attributes
                0x0000000000000c37       0x2c /usr/bin/../lib/gcc/arm-none-eabi/6.3.1/../../../../arm-none-eabi/lib/thumb/v6-m/libg_nano.a(lib_a-nano-vfprintf_i.o)
 .ARM.attributes
                0x0000000000000c63       0x2c /usr/bin/../lib/gcc/arm-none-eabi/6.3.1/../../../../arm-none-eabi/lib/thumb/v6-m/libg_nano.a(lib_a-reent.o)
 .ARM.attributes
                0x0000000000000c8f       0x2c /usr/bin/../lib/gcc/arm-none-eabi/6.3.1/../../../../arm-none-eabi/lib/thumb/v6-m/libg_nano.a(lib_a-strchr.o)
 .ARM.attributes
                0x0000000000000cbb       0x2c /usr/bin/../lib/gcc/arm-none-eabi/6.3.1/../../../../arm-none-eabi/lib/thumb/v6-m/libg_nano.a(lib_a-memchr-stub.o)
 .ARM.attributes
                0x0000000000000ce7       0x2c /usr/bin/../lib/gcc/arm-none-eabi/6.3.1/../../../../arm-none-eabi/lib/thumb/v6-m/libg_nano.a(lib_a-memmove.o)
 .ARM.attributes
                0x0000000000000d13       0x2c /usr/bin/../lib/gcc/arm-none-eabi/6.3.1/../../../../arm-none-eabi/lib/thumb/v6-m/libg_nano.a(lib_a-nano-reallocr.o)
 .ARM.attributes
                0x0000000000000d3f       0x2c /usr/bin/../lib/gcc/arm-none-eabi/6.3.1/../../../../arm-none-eabi/lib/thumb/v6-m/libg_nano.a(lib_a-nano-msizer.o)
 .ARM.attributes
                0x0000000000000d6b       0x2c /usr/bin/../lib/gcc/arm-none-eabi/6.3.1/thumb/v6-m/crtend.o
 .ARM.attributes
                0x0000000000000d97       0x1e /usr/bin/../lib/gcc/arm-none-eabi/6.3.1/thumb/v6-m/crtn.o
 .ARM.attributes
                0x0000000000000db5       0x2c /usr/bin/../lib/gcc/arm-none-eabi/6.3.1/../../../../arm-none-eabi/lib/thumb/v6-m/libnosys.a(sbrk.o)
 .ARM.attributes
                0x0000000000000de1       0x2c /usr/bin/../lib/gcc/arm-none-eabi/6.3.1/../../../../arm-none-eabi/lib/thumb/v6-m/libnosys.a(_exit.o)

.comment        0x0000000000000000       0x7f
 .comment       0x0000000000000000       0x7f CMakeFiles/51_beaconing.dir/src/main.c.obj
                                         0x80 (size before relaxing)
 .comment       0x000000000000007f       0x80 CMakeFiles/51_beaconing.dir/__/nrf_mesh_sdk.c.obj
 .comment       0x000000000000007f       0x80 CMakeFiles/51_beaconing.dir/__/__/mesh/src/access/device_state_manager.c.obj
 .comment       0x000000000000007f       0x80 CMakeFiles/51_beaconing.dir/__/__/toolchain/system_nrf51.c.obj
 .comment       0x000000000000007f       0x80 ../../mesh/lib_51_MBTLE_CORE.a(bearer_adv.c.obj)
 .comment       0x000000000000007f       0x80 ../../mesh/lib_51_MBTLE_CORE.a(fifo.c.obj)
 .comment       0x000000000000007f       0x80 ../../mesh/lib_51_MBTLE_CORE.a(packet_mgr.c.obj)
 .comment       0x000000000000007f       0x80 ../../mesh/lib_51_MBTLE_CORE.a(radio.c.obj)
 .comment       0x000000000000007f       0x80 ../../mesh/lib_51_MBTLE_CORE.a(timer.c.obj)
 .comment       0x000000000000007f       0x80 ../../mesh/lib_51_MBTLE_CORE.a(timer_scheduler.c.obj)
 .comment       0x000000000000007f       0x80 ../../mesh/lib_51_MBTLE_CORE.a(bearer.c.obj)
 .comment       0x000000000000007f       0x80 ../../mesh/lib_51_MBTLE_CORE.a(bearer_event.c.obj)
 .comment       0x000000000000007f       0x80 ../../mesh/lib_51_MBTLE_CORE.a(event.c.obj)
 .comment       0x000000000000007f       0x80 ../../mesh/lib_51_MBTLE_CORE.a(log.c.obj)
 .comment       0x000000000000007f       0x80 ../../mesh/lib_51_MBTLE_CORE.a(net_state.c.obj)
 .comment       0x000000000000007f       0x80 ../../mesh/lib_51_MBTLE_CORE.a(nrf_mesh.c.obj)
 .comment       0x000000000000007f       0x80 ../../mesh/lib_51_MBTLE_CORE.a(nrf_mesh_utils.c.obj)
 .comment       0x000000000000007f       0x80 ../../mesh/lib_51_MBTLE_CORE.a(radio_config.c.obj)
 .comment       0x000000000000007f       0x80 ../../mesh/lib_51_MBTLE_CORE.a(rand.c.obj)
 .comment       0x000000000000007f       0x80 ../../mesh/lib_51_MBTLE_CORE.a(ticker.c.obj)
 .comment       0x000000000000007f       0x80 ../../mesh/lib_51_MBTLE_CORE.a(transport.c.obj)
 .comment       0x000000000000007f       0x80 ../../mesh/lib_51_MBTLE_CORE.a(internal_event.c.obj)
 .comment       0x000000000000007f       0x80 ../../mesh/lib_51_MBTLE_CORE.a(mesh_flash.c.obj)
 .comment       0x000000000000007f       0x80 ../../mesh/lib_51_MBTLE_CORE.a(nrf_flash.c.obj)
 .comment       0x000000000000007f       0x80 ../../mesh/lib_51_MBTLE_CORE.a(flash_manager.c.obj)
 .comment       0x000000000000007f       0x80 ../../mesh/lib_51_MBTLE_CORE.a(flash_manager_defrag.c.obj)
 .comment       0x000000000000007f       0x80 ../../mesh/lib_51_MBTLE_CORE.a(flash_manager_internal.c.obj)
 .comment       0x000000000000007f       0x80 ../../mesh/lib_51_MBTLE_CORE.a(nrf_mesh_weak.c.obj)
 .comment       0x000000000000007f       0x80 ../../mesh/lib_51_MBTLE_CORE.a(queue.c.obj)
 .comment       0x000000000000007f       0x80 ../../mesh/lib_51_MBTLE_CORE.a(msqueue.c.obj)
 .comment       0x000000000000007f       0x80 ../../mesh/lib_51_MBTLE_CORE.a(timeslot.c.obj)
 .comment       0x000000000000007f       0x80 ../../mesh/lib_51_MBTLE_CORE.a(beacon.c.obj)
 .comment       0x000000000000007f       0x80 ../../mesh/lib_51_MBTLE_CORE.a(nrf_mesh_configure.c.obj)
 .comment       0x000000000000007f       0x80 ../../mesh/lib_51_MBTLE_CORE.a(enc.c.obj)
 .comment       0x000000000000007f       0x80 ../../mesh/lib_51_MBTLE_CORE.a(msg_cache.c.obj)
 .comment       0x000000000000007f       0x80 ../../mesh/lib_51_MBTLE_CORE.a(network.c.obj)
 .comment       0x000000000000007f       0x80 ../../mesh/lib_51_MBTLE_CORE.a(net_beacon.c.obj)
 .comment       0x000000000000007f       0x80 ../../mesh/lib_51_MBTLE_CORE.a(packet.c.obj)
 .comment       0x000000000000007f       0x80 ../../mesh/lib_51_MBTLE_CORE.a(packet_buffer.c.obj)
 .comment       0x000000000000007f       0x80 ../../mesh/lib_51_MBTLE_CORE.a(replay_cache.c.obj)
 .comment       0x000000000000007f       0x80 ../../mesh/lib_51_MBTLE_CORE.a(aes.c.obj)
 .comment       0x000000000000007f       0x80 ../../mesh/lib_51_MBTLE_CORE.a(aes_cmac.c.obj)
 .comment       0x000000000000007f       0x80 ../../mesh/lib_51_MBTLE_CORE.a(ccm_soft.c.obj)
 .comment       0x000000000000007f       0x80 ../../lib/rtt/lib_51_RTT_LIB.a(SEGGER_RTT.c.obj)
 .comment       0x000000000000007f       0x80 ../../lib/rtt/lib_51_RTT_LIB.a(SEGGER_RTT_printf.c.obj)

.debug_info     0x0000000000000000    0x43d4c
 .debug_info    0x0000000000000000     0x1d43 CMakeFiles/51_beaconing.dir/src/main.c.obj
 .debug_info    0x0000000000001d43     0x2e53 CMakeFiles/51_beaconing.dir/__/nrf_mesh_sdk.c.obj
 .debug_info    0x0000000000004b96     0x5abb CMakeFiles/51_beaconing.dir/__/__/mesh/src/access/device_state_manager.c.obj
 .debug_info    0x000000000000a651       0xc1 CMakeFiles/51_beaconing.dir/__/__/toolchain/gcc/gcc_startup_nrf51.S.obj
 .debug_info    0x000000000000a712      0x1e1 CMakeFiles/51_beaconing.dir/__/__/toolchain/system_nrf51.c.obj
 .debug_info    0x000000000000a8f3     0x3587 ../../mesh/lib_51_MBTLE_CORE.a(bearer_adv.c.obj)
 .debug_info    0x000000000000de7a      0xc92 ../../mesh/lib_51_MBTLE_CORE.a(fifo.c.obj)
 .debug_info    0x000000000000eb0c     0x115b ../../mesh/lib_51_MBTLE_CORE.a(packet_mgr.c.obj)
 .debug_info    0x000000000000fc67     0x18e9 ../../mesh/lib_51_MBTLE_CORE.a(radio.c.obj)
 .debug_info    0x0000000000011550      0xbbe ../../mesh/lib_51_MBTLE_CORE.a(timer.c.obj)
 .debug_info    0x000000000001210e     0x10aa ../../mesh/lib_51_MBTLE_CORE.a(timer_scheduler.c.obj)
 .debug_info    0x00000000000131b8     0x1ee8 ../../mesh/lib_51_MBTLE_CORE.a(bearer.c.obj)
 .debug_info    0x00000000000150a0     0x14cf ../../mesh/lib_51_MBTLE_CORE.a(bearer_event.c.obj)
 .debug_info    0x000000000001656f     0x1148 ../../mesh/lib_51_MBTLE_CORE.a(event.c.obj)
 .debug_info    0x00000000000176b7      0xe12 ../../mesh/lib_51_MBTLE_CORE.a(log.c.obj)
 .debug_info    0x00000000000184c9     0x25f5 ../../mesh/lib_51_MBTLE_CORE.a(net_state.c.obj)
 .debug_info    0x000000000001aabe     0x3b2c ../../mesh/lib_51_MBTLE_CORE.a(nrf_mesh.c.obj)
 .debug_info    0x000000000001e5ea      0xa5f ../../mesh/lib_51_MBTLE_CORE.a(nrf_mesh_utils.c.obj)
 .debug_info    0x000000000001f049      0x854 ../../mesh/lib_51_MBTLE_CORE.a(radio_config.c.obj)
 .debug_info    0x000000000001f89d      0x41e ../../mesh/lib_51_MBTLE_CORE.a(rand.c.obj)
 .debug_info    0x000000000001fcbb      0x204 ../../mesh/lib_51_MBTLE_CORE.a(ticker.c.obj)
 .debug_info    0x000000000001febf     0x6fb9 ../../mesh/lib_51_MBTLE_CORE.a(transport.c.obj)
 .debug_info    0x0000000000026e78      0xc28 ../../mesh/lib_51_MBTLE_CORE.a(internal_event.c.obj)
 .debug_info    0x0000000000027aa0     0x14e5 ../../mesh/lib_51_MBTLE_CORE.a(mesh_flash.c.obj)
 .debug_info    0x0000000000028f85      0xad9 ../../mesh/lib_51_MBTLE_CORE.a(nrf_flash.c.obj)
 .debug_info    0x0000000000029a5e     0x3a47 ../../mesh/lib_51_MBTLE_CORE.a(flash_manager.c.obj)
 .debug_info    0x000000000002d4a5     0x248f ../../mesh/lib_51_MBTLE_CORE.a(flash_manager_defrag.c.obj)
 .debug_info    0x000000000002f934      0xb72 ../../mesh/lib_51_MBTLE_CORE.a(flash_manager_internal.c.obj)
 .debug_info    0x00000000000304a6      0x924 ../../mesh/lib_51_MBTLE_CORE.a(nrf_mesh_weak.c.obj)
 .debug_info    0x0000000000030dca      0xadb ../../mesh/lib_51_MBTLE_CORE.a(queue.c.obj)
 .debug_info    0x00000000000318a5      0xcdb ../../mesh/lib_51_MBTLE_CORE.a(msqueue.c.obj)
 .debug_info    0x0000000000032580     0x1aef ../../mesh/lib_51_MBTLE_CORE.a(timeslot.c.obj)
 .debug_info    0x000000000003406f     0x151c ../../mesh/lib_51_MBTLE_CORE.a(beacon.c.obj)
 .debug_info    0x000000000003558b      0xb9e ../../mesh/lib_51_MBTLE_CORE.a(nrf_mesh_configure.c.obj)
 .debug_info    0x0000000000036129     0x1607 ../../mesh/lib_51_MBTLE_CORE.a(enc.c.obj)
 .debug_info    0x0000000000037730      0xb4d ../../mesh/lib_51_MBTLE_CORE.a(msg_cache.c.obj)
 .debug_info    0x000000000003827d     0x23ad ../../mesh/lib_51_MBTLE_CORE.a(network.c.obj)
 .debug_info    0x000000000003a62a     0x1268 ../../mesh/lib_51_MBTLE_CORE.a(net_beacon.c.obj)
 .debug_info    0x000000000003b892      0xadf ../../mesh/lib_51_MBTLE_CORE.a(packet.c.obj)
 .debug_info    0x000000000003c371     0x193b ../../mesh/lib_51_MBTLE_CORE.a(packet_buffer.c.obj)
 .debug_info    0x000000000003dcac      0xae5 ../../mesh/lib_51_MBTLE_CORE.a(replay_cache.c.obj)
 .debug_info    0x000000000003e791      0xd90 ../../mesh/lib_51_MBTLE_CORE.a(aes.c.obj)
 .debug_info    0x000000000003f521      0xe95 ../../mesh/lib_51_MBTLE_CORE.a(aes_cmac.c.obj)
 .debug_info    0x00000000000403b6     0x114a ../../mesh/lib_51_MBTLE_CORE.a(ccm_soft.c.obj)
 .debug_info    0x0000000000041500     0x18aa ../../lib/rtt/lib_51_RTT_LIB.a(SEGGER_RTT.c.obj)
 .debug_info    0x0000000000042daa      0xfa2 ../../lib/rtt/lib_51_RTT_LIB.a(SEGGER_RTT_printf.c.obj)

.debug_abbrev   0x0000000000000000     0x9618
 .debug_abbrev  0x0000000000000000      0x3ff CMakeFiles/51_beaconing.dir/src/main.c.obj
 .debug_abbrev  0x00000000000003ff      0x482 CMakeFiles/51_beaconing.dir/__/nrf_mesh_sdk.c.obj
 .debug_abbrev  0x0000000000000881      0x589 CMakeFiles/51_beaconing.dir/__/__/mesh/src/access/device_state_manager.c.obj
 .debug_abbrev  0x0000000000000e0a       0x14 CMakeFiles/51_beaconing.dir/__/__/toolchain/gcc/gcc_startup_nrf51.S.obj
 .debug_abbrev  0x0000000000000e1e      0x106 CMakeFiles/51_beaconing.dir/__/__/toolchain/system_nrf51.c.obj
 .debug_abbrev  0x0000000000000f24      0x4d2 ../../mesh/lib_51_MBTLE_CORE.a(bearer_adv.c.obj)
 .debug_abbrev  0x00000000000013f6      0x2d8 ../../mesh/lib_51_MBTLE_CORE.a(fifo.c.obj)
 .debug_abbrev  0x00000000000016ce      0x3e2 ../../mesh/lib_51_MBTLE_CORE.a(packet_mgr.c.obj)
 .debug_abbrev  0x0000000000001ab0      0x40b ../../mesh/lib_51_MBTLE_CORE.a(radio.c.obj)
 .debug_abbrev  0x0000000000001ebb      0x2d3 ../../mesh/lib_51_MBTLE_CORE.a(timer.c.obj)
 .debug_abbrev  0x000000000000218e      0x3d1 ../../mesh/lib_51_MBTLE_CORE.a(timer_scheduler.c.obj)
 .debug_abbrev  0x000000000000255f      0x454 ../../mesh/lib_51_MBTLE_CORE.a(bearer.c.obj)
 .debug_abbrev  0x00000000000029b3      0x49e ../../mesh/lib_51_MBTLE_CORE.a(bearer_event.c.obj)
 .debug_abbrev  0x0000000000002e51      0x2ab ../../mesh/lib_51_MBTLE_CORE.a(event.c.obj)
 .debug_abbrev  0x00000000000030fc      0x24e ../../mesh/lib_51_MBTLE_CORE.a(log.c.obj)
 .debug_abbrev  0x000000000000334a      0x4f5 ../../mesh/lib_51_MBTLE_CORE.a(net_state.c.obj)
 .debug_abbrev  0x000000000000383f      0x49d ../../mesh/lib_51_MBTLE_CORE.a(nrf_mesh.c.obj)
 .debug_abbrev  0x0000000000003cdc      0x24a ../../mesh/lib_51_MBTLE_CORE.a(nrf_mesh_utils.c.obj)
 .debug_abbrev  0x0000000000003f26      0x1a8 ../../mesh/lib_51_MBTLE_CORE.a(radio_config.c.obj)
 .debug_abbrev  0x00000000000040ce      0x1af ../../mesh/lib_51_MBTLE_CORE.a(rand.c.obj)
 .debug_abbrev  0x000000000000427d      0x14d ../../mesh/lib_51_MBTLE_CORE.a(ticker.c.obj)
 .debug_abbrev  0x00000000000043ca      0x68c ../../mesh/lib_51_MBTLE_CORE.a(transport.c.obj)
 .debug_abbrev  0x0000000000004a56      0x24a ../../mesh/lib_51_MBTLE_CORE.a(internal_event.c.obj)
 .debug_abbrev  0x0000000000004ca0      0x3f6 ../../mesh/lib_51_MBTLE_CORE.a(mesh_flash.c.obj)
 .debug_abbrev  0x0000000000005096      0x22b ../../mesh/lib_51_MBTLE_CORE.a(nrf_flash.c.obj)
 .debug_abbrev  0x00000000000052c1      0x53e ../../mesh/lib_51_MBTLE_CORE.a(flash_manager.c.obj)
 .debug_abbrev  0x00000000000057ff      0x504 ../../mesh/lib_51_MBTLE_CORE.a(flash_manager_defrag.c.obj)
 .debug_abbrev  0x0000000000005d03      0x283 ../../mesh/lib_51_MBTLE_CORE.a(flash_manager_internal.c.obj)
 .debug_abbrev  0x0000000000005f86      0x1a7 ../../mesh/lib_51_MBTLE_CORE.a(nrf_mesh_weak.c.obj)
 .debug_abbrev  0x000000000000612d      0x222 ../../mesh/lib_51_MBTLE_CORE.a(queue.c.obj)
 .debug_abbrev  0x000000000000634f      0x2a5 ../../mesh/lib_51_MBTLE_CORE.a(msqueue.c.obj)
 .debug_abbrev  0x00000000000065f4      0x496 ../../mesh/lib_51_MBTLE_CORE.a(timeslot.c.obj)
 .debug_abbrev  0x0000000000006a8a      0x365 ../../mesh/lib_51_MBTLE_CORE.a(beacon.c.obj)
 .debug_abbrev  0x0000000000006def      0x240 ../../mesh/lib_51_MBTLE_CORE.a(nrf_mesh_configure.c.obj)
 .debug_abbrev  0x000000000000702f      0x324 ../../mesh/lib_51_MBTLE_CORE.a(enc.c.obj)
 .debug_abbrev  0x0000000000007353      0x278 ../../mesh/lib_51_MBTLE_CORE.a(msg_cache.c.obj)
 .debug_abbrev  0x00000000000075cb      0x50c ../../mesh/lib_51_MBTLE_CORE.a(network.c.obj)
 .debug_abbrev  0x0000000000007ad7      0x3b5 ../../mesh/lib_51_MBTLE_CORE.a(net_beacon.c.obj)
 .debug_abbrev  0x0000000000007e8c      0x242 ../../mesh/lib_51_MBTLE_CORE.a(packet.c.obj)
 .debug_abbrev  0x00000000000080ce      0x417 ../../mesh/lib_51_MBTLE_CORE.a(packet_buffer.c.obj)
 .debug_abbrev  0x00000000000084e5      0x24c ../../mesh/lib_51_MBTLE_CORE.a(replay_cache.c.obj)
 .debug_abbrev  0x0000000000008731      0x2f8 ../../mesh/lib_51_MBTLE_CORE.a(aes.c.obj)
 .debug_abbrev  0x0000000000008a29      0x2a4 ../../mesh/lib_51_MBTLE_CORE.a(aes_cmac.c.obj)
 .debug_abbrev  0x0000000000008ccd      0x29c ../../mesh/lib_51_MBTLE_CORE.a(ccm_soft.c.obj)
 .debug_abbrev  0x0000000000008f69      0x34b ../../lib/rtt/lib_51_RTT_LIB.a(SEGGER_RTT.c.obj)
 .debug_abbrev  0x00000000000092b4      0x364 ../../lib/rtt/lib_51_RTT_LIB.a(SEGGER_RTT_printf.c.obj)

.debug_loc      0x0000000000000000    0x15d6e
 .debug_loc     0x0000000000000000      0x271 CMakeFiles/51_beaconing.dir/src/main.c.obj
 .debug_loc     0x0000000000000271      0x35a CMakeFiles/51_beaconing.dir/__/nrf_mesh_sdk.c.obj
 .debug_loc     0x00000000000005cb     0x3787 CMakeFiles/51_beaconing.dir/__/__/mesh/src/access/device_state_manager.c.obj
 .debug_loc     0x0000000000003d52     0x1082 ../../mesh/lib_51_MBTLE_CORE.a(bearer_adv.c.obj)
 .debug_loc     0x0000000000004dd4      0x584 ../../mesh/lib_51_MBTLE_CORE.a(fifo.c.obj)
 .debug_loc     0x0000000000005358      0x730 ../../mesh/lib_51_MBTLE_CORE.a(packet_mgr.c.obj)
 .debug_loc     0x0000000000005a88      0x39a ../../mesh/lib_51_MBTLE_CORE.a(radio.c.obj)
 .debug_loc     0x0000000000005e22      0x7b7 ../../mesh/lib_51_MBTLE_CORE.a(timer.c.obj)
 .debug_loc     0x00000000000065d9      0x5ed ../../mesh/lib_51_MBTLE_CORE.a(timer_scheduler.c.obj)
 .debug_loc     0x0000000000006bc6      0x8c7 ../../mesh/lib_51_MBTLE_CORE.a(bearer.c.obj)
 .debug_loc     0x000000000000748d      0x545 ../../mesh/lib_51_MBTLE_CORE.a(bearer_event.c.obj)
 .debug_loc     0x00000000000079d2      0x312 ../../mesh/lib_51_MBTLE_CORE.a(event.c.obj)
 .debug_loc     0x0000000000007ce4      0x2f0 ../../mesh/lib_51_MBTLE_CORE.a(log.c.obj)
 .debug_loc     0x0000000000007fd4      0x729 ../../mesh/lib_51_MBTLE_CORE.a(net_state.c.obj)
 .debug_loc     0x00000000000086fd      0x3dc ../../mesh/lib_51_MBTLE_CORE.a(nrf_mesh.c.obj)
 .debug_loc     0x0000000000008ad9      0x12a ../../mesh/lib_51_MBTLE_CORE.a(nrf_mesh_utils.c.obj)
 .debug_loc     0x0000000000008c03      0x2e2 ../../mesh/lib_51_MBTLE_CORE.a(radio_config.c.obj)
 .debug_loc     0x0000000000008ee5      0x1b2 ../../mesh/lib_51_MBTLE_CORE.a(rand.c.obj)
 .debug_loc     0x0000000000009097     0x248a ../../mesh/lib_51_MBTLE_CORE.a(transport.c.obj)
 .debug_loc     0x000000000000b521      0x135 ../../mesh/lib_51_MBTLE_CORE.a(internal_event.c.obj)
 .debug_loc     0x000000000000b656      0xa6a ../../mesh/lib_51_MBTLE_CORE.a(mesh_flash.c.obj)
 .debug_loc     0x000000000000c0c0       0xf4 ../../mesh/lib_51_MBTLE_CORE.a(nrf_flash.c.obj)
 .debug_loc     0x000000000000c1b4     0x2190 ../../mesh/lib_51_MBTLE_CORE.a(flash_manager.c.obj)
 .debug_loc     0x000000000000e344      0xc03 ../../mesh/lib_51_MBTLE_CORE.a(flash_manager_defrag.c.obj)
 .debug_loc     0x000000000000ef47      0x149 ../../mesh/lib_51_MBTLE_CORE.a(flash_manager_internal.c.obj)
 .debug_loc     0x000000000000f090      0x251 ../../mesh/lib_51_MBTLE_CORE.a(queue.c.obj)
 .debug_loc     0x000000000000f2e1      0x4d7 ../../mesh/lib_51_MBTLE_CORE.a(msqueue.c.obj)
 .debug_loc     0x000000000000f7b8      0x31f ../../mesh/lib_51_MBTLE_CORE.a(timeslot.c.obj)
 .debug_loc     0x000000000000fad7      0x5d9 ../../mesh/lib_51_MBTLE_CORE.a(beacon.c.obj)
 .debug_loc     0x00000000000100b0       0x2c ../../mesh/lib_51_MBTLE_CORE.a(nrf_mesh_configure.c.obj)
 .debug_loc     0x00000000000100dc      0xc1f ../../mesh/lib_51_MBTLE_CORE.a(enc.c.obj)
 .debug_loc     0x0000000000010cfb      0x139 ../../mesh/lib_51_MBTLE_CORE.a(msg_cache.c.obj)
 .debug_loc     0x0000000000010e34      0xafd ../../mesh/lib_51_MBTLE_CORE.a(network.c.obj)
 .debug_loc     0x0000000000011931      0x3e5 ../../mesh/lib_51_MBTLE_CORE.a(net_beacon.c.obj)
 .debug_loc     0x0000000000011d16      0x144 ../../mesh/lib_51_MBTLE_CORE.a(packet.c.obj)
 .debug_loc     0x0000000000011e5a      0xe4d ../../mesh/lib_51_MBTLE_CORE.a(packet_buffer.c.obj)
 .debug_loc     0x0000000000012ca7      0x248 ../../mesh/lib_51_MBTLE_CORE.a(replay_cache.c.obj)
 .debug_loc     0x0000000000012eef       0xcb ../../mesh/lib_51_MBTLE_CORE.a(aes.c.obj)
 .debug_loc     0x0000000000012fba      0x4c9 ../../mesh/lib_51_MBTLE_CORE.a(aes_cmac.c.obj)
 .debug_loc     0x0000000000013483      0x88b ../../mesh/lib_51_MBTLE_CORE.a(ccm_soft.c.obj)
 .debug_loc     0x0000000000013d0e     0x18a4 ../../lib/rtt/lib_51_RTT_LIB.a(SEGGER_RTT.c.obj)
 .debug_loc     0x00000000000155b2      0x7bc ../../lib/rtt/lib_51_RTT_LIB.a(SEGGER_RTT_printf.c.obj)

.debug_aranges  0x0000000000000000     0x1270
 .debug_aranges
                0x0000000000000000       0x28 CMakeFiles/51_beaconing.dir/src/main.c.obj
 .debug_aranges
                0x0000000000000028       0x78 CMakeFiles/51_beaconing.dir/__/nrf_mesh_sdk.c.obj
 .debug_aranges
                0x00000000000000a0      0x298 CMakeFiles/51_beaconing.dir/__/__/mesh/src/access/device_state_manager.c.obj
 .debug_aranges
                0x0000000000000338       0x20 CMakeFiles/51_beaconing.dir/__/__/toolchain/gcc/gcc_startup_nrf51.S.obj
 .debug_aranges
                0x0000000000000358       0x28 CMakeFiles/51_beaconing.dir/__/__/toolchain/system_nrf51.c.obj
 .debug_aranges
                0x0000000000000380      0x100 ../../mesh/lib_51_MBTLE_CORE.a(bearer_adv.c.obj)
 .debug_aranges
                0x0000000000000480       0x60 ../../mesh/lib_51_MBTLE_CORE.a(fifo.c.obj)
 .debug_aranges
                0x00000000000004e0       0x48 ../../mesh/lib_51_MBTLE_CORE.a(packet_mgr.c.obj)
 .debug_aranges
                0x0000000000000528       0x98 ../../mesh/lib_51_MBTLE_CORE.a(radio.c.obj)
 .debug_aranges
                0x00000000000005c0       0x58 ../../mesh/lib_51_MBTLE_CORE.a(timer.c.obj)
 .debug_aranges
                0x0000000000000618       0x60 ../../mesh/lib_51_MBTLE_CORE.a(timer_scheduler.c.obj)
 .debug_aranges
                0x0000000000000678       0x90 ../../mesh/lib_51_MBTLE_CORE.a(bearer.c.obj)
 .debug_aranges
                0x0000000000000708       0x70 ../../mesh/lib_51_MBTLE_CORE.a(bearer_event.c.obj)
 .debug_aranges
                0x0000000000000778       0x30 ../../mesh/lib_51_MBTLE_CORE.a(event.c.obj)
 .debug_aranges
                0x00000000000007a8       0x48 ../../mesh/lib_51_MBTLE_CORE.a(log.c.obj)
 .debug_aranges
                0x00000000000007f0       0xb8 ../../mesh/lib_51_MBTLE_CORE.a(net_state.c.obj)
 .debug_aranges
                0x00000000000008a8       0x80 ../../mesh/lib_51_MBTLE_CORE.a(nrf_mesh.c.obj)
 .debug_aranges
                0x0000000000000928       0x30 ../../mesh/lib_51_MBTLE_CORE.a(nrf_mesh_utils.c.obj)
 .debug_aranges
                0x0000000000000958       0x40 ../../mesh/lib_51_MBTLE_CORE.a(radio_config.c.obj)
 .debug_aranges
                0x0000000000000998       0x40 ../../mesh/lib_51_MBTLE_CORE.a(rand.c.obj)
 .debug_aranges
                0x00000000000009d8       0x30 ../../mesh/lib_51_MBTLE_CORE.a(ticker.c.obj)
 .debug_aranges
                0x0000000000000a08       0xd8 ../../mesh/lib_51_MBTLE_CORE.a(transport.c.obj)
 .debug_aranges
                0x0000000000000ae0       0x30 ../../mesh/lib_51_MBTLE_CORE.a(internal_event.c.obj)
 .debug_aranges
                0x0000000000000b10       0x58 ../../mesh/lib_51_MBTLE_CORE.a(mesh_flash.c.obj)
 .debug_aranges
                0x0000000000000b68       0x28 ../../mesh/lib_51_MBTLE_CORE.a(nrf_flash.c.obj)
 .debug_aranges
                0x0000000000000b90       0xb8 ../../mesh/lib_51_MBTLE_CORE.a(flash_manager.c.obj)
 .debug_aranges
                0x0000000000000c48       0xa8 ../../mesh/lib_51_MBTLE_CORE.a(flash_manager_defrag.c.obj)
 .debug_aranges
                0x0000000000000cf0       0x20 ../../mesh/lib_51_MBTLE_CORE.a(flash_manager_internal.c.obj)
 .debug_aranges
                0x0000000000000d10       0x28 ../../mesh/lib_51_MBTLE_CORE.a(nrf_mesh_weak.c.obj)
 .debug_aranges
                0x0000000000000d38       0x38 ../../mesh/lib_51_MBTLE_CORE.a(queue.c.obj)
 .debug_aranges
                0x0000000000000d70       0x40 ../../mesh/lib_51_MBTLE_CORE.a(msqueue.c.obj)
 .debug_aranges
                0x0000000000000db0       0xa8 ../../mesh/lib_51_MBTLE_CORE.a(timeslot.c.obj)
 .debug_aranges
                0x0000000000000e58       0x38 ../../mesh/lib_51_MBTLE_CORE.a(beacon.c.obj)
 .debug_aranges
                0x0000000000000e90       0x30 ../../mesh/lib_51_MBTLE_CORE.a(nrf_mesh_configure.c.obj)
 .debug_aranges
                0x0000000000000ec0       0x70 ../../mesh/lib_51_MBTLE_CORE.a(enc.c.obj)
 .debug_aranges
                0x0000000000000f30       0x38 ../../mesh/lib_51_MBTLE_CORE.a(msg_cache.c.obj)
 .debug_aranges
                0x0000000000000f68       0x58 ../../mesh/lib_51_MBTLE_CORE.a(network.c.obj)
 .debug_aranges
                0x0000000000000fc0       0x40 ../../mesh/lib_51_MBTLE_CORE.a(net_beacon.c.obj)
 .debug_aranges
                0x0000000000001000       0x20 ../../mesh/lib_51_MBTLE_CORE.a(packet.c.obj)
 .debug_aranges
                0x0000000000001020       0x68 ../../mesh/lib_51_MBTLE_CORE.a(packet_buffer.c.obj)
 .debug_aranges
                0x0000000000001088       0x48 ../../mesh/lib_51_MBTLE_CORE.a(replay_cache.c.obj)
 .debug_aranges
                0x00000000000010d0       0x28 ../../mesh/lib_51_MBTLE_CORE.a(aes.c.obj)
 .debug_aranges
                0x00000000000010f8       0x28 ../../mesh/lib_51_MBTLE_CORE.a(aes_cmac.c.obj)
 .debug_aranges
                0x0000000000001120       0x40 ../../mesh/lib_51_MBTLE_CORE.a(ccm_soft.c.obj)
 .debug_aranges
                0x0000000000001160       0xd8 ../../lib/rtt/lib_51_RTT_LIB.a(SEGGER_RTT.c.obj)
 .debug_aranges
                0x0000000000001238       0x38 ../../lib/rtt/lib_51_RTT_LIB.a(SEGGER_RTT_printf.c.obj)

.debug_ranges   0x0000000000000000     0x38a0
 .debug_ranges  0x0000000000000000       0x78 CMakeFiles/51_beaconing.dir/src/main.c.obj
 .debug_ranges  0x0000000000000078       0xc8 CMakeFiles/51_beaconing.dir/__/nrf_mesh_sdk.c.obj
 .debug_ranges  0x0000000000000140      0x9e0 CMakeFiles/51_beaconing.dir/__/__/mesh/src/access/device_state_manager.c.obj
 .debug_ranges  0x0000000000000b20       0x70 CMakeFiles/51_beaconing.dir/__/__/toolchain/system_nrf51.c.obj
 .debug_ranges  0x0000000000000b90      0x198 ../../mesh/lib_51_MBTLE_CORE.a(bearer_adv.c.obj)
 .debug_ranges  0x0000000000000d28       0x80 ../../mesh/lib_51_MBTLE_CORE.a(fifo.c.obj)
 .debug_ranges  0x0000000000000da8      0x148 ../../mesh/lib_51_MBTLE_CORE.a(packet_mgr.c.obj)
 .debug_ranges  0x0000000000000ef0      0x110 ../../mesh/lib_51_MBTLE_CORE.a(radio.c.obj)
 .debug_ranges  0x0000000000001000       0xa8 ../../mesh/lib_51_MBTLE_CORE.a(timer.c.obj)
 .debug_ranges  0x00000000000010a8      0x250 ../../mesh/lib_51_MBTLE_CORE.a(timer_scheduler.c.obj)
 .debug_ranges  0x00000000000012f8      0x1c0 ../../mesh/lib_51_MBTLE_CORE.a(bearer.c.obj)
 .debug_ranges  0x00000000000014b8       0xf8 ../../mesh/lib_51_MBTLE_CORE.a(bearer_event.c.obj)
 .debug_ranges  0x00000000000015b0       0xa8 ../../mesh/lib_51_MBTLE_CORE.a(event.c.obj)
 .debug_ranges  0x0000000000001658       0x38 ../../mesh/lib_51_MBTLE_CORE.a(log.c.obj)
 .debug_ranges  0x0000000000001690      0x170 ../../mesh/lib_51_MBTLE_CORE.a(net_state.c.obj)
 .debug_ranges  0x0000000000001800       0xa8 ../../mesh/lib_51_MBTLE_CORE.a(nrf_mesh.c.obj)
 .debug_ranges  0x00000000000018a8       0x20 ../../mesh/lib_51_MBTLE_CORE.a(nrf_mesh_utils.c.obj)
 .debug_ranges  0x00000000000018c8       0xf8 ../../mesh/lib_51_MBTLE_CORE.a(radio_config.c.obj)
 .debug_ranges  0x00000000000019c0       0x30 ../../mesh/lib_51_MBTLE_CORE.a(rand.c.obj)
 .debug_ranges  0x00000000000019f0       0x20 ../../mesh/lib_51_MBTLE_CORE.a(ticker.c.obj)
 .debug_ranges  0x0000000000001a10      0x518 ../../mesh/lib_51_MBTLE_CORE.a(transport.c.obj)
 .debug_ranges  0x0000000000001f28       0x20 ../../mesh/lib_51_MBTLE_CORE.a(internal_event.c.obj)
 .debug_ranges  0x0000000000001f48      0x268 ../../mesh/lib_51_MBTLE_CORE.a(mesh_flash.c.obj)
 .debug_ranges  0x00000000000021b0       0x48 ../../mesh/lib_51_MBTLE_CORE.a(nrf_flash.c.obj)
 .debug_ranges  0x00000000000021f8      0x998 ../../mesh/lib_51_MBTLE_CORE.a(flash_manager.c.obj)
 .debug_ranges  0x0000000000002b90      0x340 ../../mesh/lib_51_MBTLE_CORE.a(flash_manager_defrag.c.obj)
 .debug_ranges  0x0000000000002ed0       0x68 ../../mesh/lib_51_MBTLE_CORE.a(flash_manager_internal.c.obj)
 .debug_ranges  0x0000000000002f38       0x18 ../../mesh/lib_51_MBTLE_CORE.a(nrf_mesh_weak.c.obj)
 .debug_ranges  0x0000000000002f50       0x28 ../../mesh/lib_51_MBTLE_CORE.a(queue.c.obj)
 .debug_ranges  0x0000000000002f78       0xf0 ../../mesh/lib_51_MBTLE_CORE.a(msqueue.c.obj)
 .debug_ranges  0x0000000000003068       0xc8 ../../mesh/lib_51_MBTLE_CORE.a(timeslot.c.obj)
 .debug_ranges  0x0000000000003130       0x58 ../../mesh/lib_51_MBTLE_CORE.a(beacon.c.obj)
 .debug_ranges  0x0000000000003188       0x20 ../../mesh/lib_51_MBTLE_CORE.a(nrf_mesh_configure.c.obj)
 .debug_ranges  0x00000000000031a8       0x60 ../../mesh/lib_51_MBTLE_CORE.a(enc.c.obj)
 .debug_ranges  0x0000000000003208       0x40 ../../mesh/lib_51_MBTLE_CORE.a(msg_cache.c.obj)
 .debug_ranges  0x0000000000003248      0x110 ../../mesh/lib_51_MBTLE_CORE.a(network.c.obj)
 .debug_ranges  0x0000000000003358       0xa8 ../../mesh/lib_51_MBTLE_CORE.a(net_beacon.c.obj)
 .debug_ranges  0x0000000000003400       0x28 ../../mesh/lib_51_MBTLE_CORE.a(packet.c.obj)
 .debug_ranges  0x0000000000003428      0x220 ../../mesh/lib_51_MBTLE_CORE.a(packet_buffer.c.obj)
 .debug_ranges  0x0000000000003648       0x88 ../../mesh/lib_51_MBTLE_CORE.a(replay_cache.c.obj)
 .debug_ranges  0x00000000000036d0       0x18 ../../mesh/lib_51_MBTLE_CORE.a(aes.c.obj)
 .debug_ranges  0x00000000000036e8       0x18 ../../mesh/lib_51_MBTLE_CORE.a(aes_cmac.c.obj)
 .debug_ranges  0x0000000000003700       0x30 ../../mesh/lib_51_MBTLE_CORE.a(ccm_soft.c.obj)
 .debug_ranges  0x0000000000003730      0x148 ../../lib/rtt/lib_51_RTT_LIB.a(SEGGER_RTT.c.obj)
 .debug_ranges  0x0000000000003878       0x28 ../../lib/rtt/lib_51_RTT_LIB.a(SEGGER_RTT_printf.c.obj)

.debug_line     0x0000000000000000     0xe7ea
 .debug_line    0x0000000000000000      0x600 CMakeFiles/51_beaconing.dir/src/main.c.obj
 .debug_line    0x0000000000000600      0x63e CMakeFiles/51_beaconing.dir/__/nrf_mesh_sdk.c.obj
 .debug_line    0x0000000000000c3e     0x1575 CMakeFiles/51_beaconing.dir/__/__/mesh/src/access/device_state_manager.c.obj
 .debug_line    0x00000000000021b3       0xac CMakeFiles/51_beaconing.dir/__/__/toolchain/gcc/gcc_startup_nrf51.S.obj
 .debug_line    0x000000000000225f      0x17c CMakeFiles/51_beaconing.dir/__/__/toolchain/system_nrf51.c.obj
 .debug_line    0x00000000000023db      0x974 ../../mesh/lib_51_MBTLE_CORE.a(bearer_adv.c.obj)
 .debug_line    0x0000000000002d4f      0x405 ../../mesh/lib_51_MBTLE_CORE.a(fifo.c.obj)
 .debug_line    0x0000000000003154      0x4af ../../mesh/lib_51_MBTLE_CORE.a(packet_mgr.c.obj)
 .debug_line    0x0000000000003603      0x564 ../../mesh/lib_51_MBTLE_CORE.a(radio.c.obj)
 .debug_line    0x0000000000003b67      0x4a5 ../../mesh/lib_51_MBTLE_CORE.a(timer.c.obj)
 .debug_line    0x000000000000400c      0x501 ../../mesh/lib_51_MBTLE_CORE.a(timer_scheduler.c.obj)
 .debug_line    0x000000000000450d      0x63a ../../mesh/lib_51_MBTLE_CORE.a(bearer.c.obj)
 .debug_line    0x0000000000004b47      0x53b ../../mesh/lib_51_MBTLE_CORE.a(bearer_event.c.obj)
 .debug_line    0x0000000000005082      0x31a ../../mesh/lib_51_MBTLE_CORE.a(event.c.obj)
 .debug_line    0x000000000000539c      0x28c ../../mesh/lib_51_MBTLE_CORE.a(log.c.obj)
 .debug_line    0x0000000000005628      0x6df ../../mesh/lib_51_MBTLE_CORE.a(net_state.c.obj)
 .debug_line    0x0000000000005d07      0x77c ../../mesh/lib_51_MBTLE_CORE.a(nrf_mesh.c.obj)
 .debug_line    0x0000000000006483      0x27b ../../mesh/lib_51_MBTLE_CORE.a(nrf_mesh_utils.c.obj)
 .debug_line    0x00000000000066fe      0x355 ../../mesh/lib_51_MBTLE_CORE.a(radio_config.c.obj)
 .debug_line    0x0000000000006a53      0x2ab ../../mesh/lib_51_MBTLE_CORE.a(rand.c.obj)
 .debug_line    0x0000000000006cfe      0x163 ../../mesh/lib_51_MBTLE_CORE.a(ticker.c.obj)
 .debug_line    0x0000000000006e61     0x1513 ../../mesh/lib_51_MBTLE_CORE.a(transport.c.obj)
 .debug_line    0x0000000000008374      0x2a8 ../../mesh/lib_51_MBTLE_CORE.a(internal_event.c.obj)
 .debug_line    0x000000000000861c      0x546 ../../mesh/lib_51_MBTLE_CORE.a(mesh_flash.c.obj)
 .debug_line    0x0000000000008b62      0x2e7 ../../mesh/lib_51_MBTLE_CORE.a(nrf_flash.c.obj)
 .debug_line    0x0000000000008e49      0xbb2 ../../mesh/lib_51_MBTLE_CORE.a(flash_manager.c.obj)
 .debug_line    0x00000000000099fb      0x828 ../../mesh/lib_51_MBTLE_CORE.a(flash_manager_defrag.c.obj)
 .debug_line    0x000000000000a223      0x2a8 ../../mesh/lib_51_MBTLE_CORE.a(flash_manager_internal.c.obj)
 .debug_line    0x000000000000a4cb      0x231 ../../mesh/lib_51_MBTLE_CORE.a(nrf_mesh_weak.c.obj)
 .debug_line    0x000000000000a6fc      0x329 ../../mesh/lib_51_MBTLE_CORE.a(queue.c.obj)
 .debug_line    0x000000000000aa25      0x397 ../../mesh/lib_51_MBTLE_CORE.a(msqueue.c.obj)
 .debug_line    0x000000000000adbc      0x5f4 ../../mesh/lib_51_MBTLE_CORE.a(timeslot.c.obj)
 .debug_line    0x000000000000b3b0      0x506 ../../mesh/lib_51_MBTLE_CORE.a(beacon.c.obj)
 .debug_line    0x000000000000b8b6      0x21c ../../mesh/lib_51_MBTLE_CORE.a(nrf_mesh_configure.c.obj)
 .debug_line    0x000000000000bad2      0x44e ../../mesh/lib_51_MBTLE_CORE.a(enc.c.obj)
 .debug_line    0x000000000000bf20      0x2b4 ../../mesh/lib_51_MBTLE_CORE.a(msg_cache.c.obj)
 .debug_line    0x000000000000c1d4      0x6f9 ../../mesh/lib_51_MBTLE_CORE.a(network.c.obj)
 .debug_line    0x000000000000c8cd      0x399 ../../mesh/lib_51_MBTLE_CORE.a(net_beacon.c.obj)
 .debug_line    0x000000000000cc66      0x27a ../../mesh/lib_51_MBTLE_CORE.a(packet.c.obj)
 .debug_line    0x000000000000cee0      0x6a4 ../../mesh/lib_51_MBTLE_CORE.a(packet_buffer.c.obj)
 .debug_line    0x000000000000d584      0x20f ../../mesh/lib_51_MBTLE_CORE.a(replay_cache.c.obj)
 .debug_line    0x000000000000d793      0x313 ../../mesh/lib_51_MBTLE_CORE.a(aes.c.obj)
 .debug_line    0x000000000000daa6      0x2b1 ../../mesh/lib_51_MBTLE_CORE.a(aes_cmac.c.obj)
 .debug_line    0x000000000000dd57      0x323 ../../mesh/lib_51_MBTLE_CORE.a(ccm_soft.c.obj)
 .debug_line    0x000000000000e07a      0x4b5 ../../lib/rtt/lib_51_RTT_LIB.a(SEGGER_RTT.c.obj)
 .debug_line    0x000000000000e52f      0x2bb ../../lib/rtt/lib_51_RTT_LIB.a(SEGGER_RTT_printf.c.obj)

.debug_str      0x0000000000000000     0xb6e1
 .debug_str     0x0000000000000000      0xfd3 CMakeFiles/51_beaconing.dir/src/main.c.obj
                                       0x1156 (size before relaxing)
 .debug_str     0x0000000000000fd3     0x15c9 CMakeFiles/51_beaconing.dir/__/nrf_mesh_sdk.c.obj
                                       0x1f18 (size before relaxing)
 .debug_str     0x000000000000259c     0x2a76 CMakeFiles/51_beaconing.dir/__/__/mesh/src/access/device_state_manager.c.obj
                                       0x3367 (size before relaxing)
 .debug_str     0x0000000000005012      0x116 CMakeFiles/51_beaconing.dir/__/__/toolchain/system_nrf51.c.obj
                                        0x2c4 (size before relaxing)
 .debug_str     0x0000000000005128      0xbb5 ../../mesh/lib_51_MBTLE_CORE.a(bearer_adv.c.obj)
                                       0x2b92 (size before relaxing)
 .debug_str     0x0000000000005cdd       0x92 ../../mesh/lib_51_MBTLE_CORE.a(fifo.c.obj)
                                        0x6d8 (size before relaxing)
 .debug_str     0x0000000000005d6f      0x298 ../../mesh/lib_51_MBTLE_CORE.a(packet_mgr.c.obj)
                                        0x9e5 (size before relaxing)
 .debug_str     0x0000000000006007      0x488 ../../mesh/lib_51_MBTLE_CORE.a(radio.c.obj)
                                       0x1066 (size before relaxing)
 .debug_str     0x000000000000648f      0x279 ../../mesh/lib_51_MBTLE_CORE.a(timer.c.obj)
                                        0x72b (size before relaxing)
 .debug_str     0x0000000000006708      0x188 ../../mesh/lib_51_MBTLE_CORE.a(timer_scheduler.c.obj)
                                        0x931 (size before relaxing)
 .debug_str     0x0000000000006890      0x674 ../../mesh/lib_51_MBTLE_CORE.a(bearer.c.obj)
                                       0x149f (size before relaxing)
 .debug_str     0x0000000000006f04      0x233 ../../mesh/lib_51_MBTLE_CORE.a(bearer_event.c.obj)
                                        0xbe4 (size before relaxing)
 .debug_str     0x0000000000007137      0x127 ../../mesh/lib_51_MBTLE_CORE.a(event.c.obj)
                                       0x1742 (size before relaxing)
 .debug_str     0x000000000000725e      0x11c ../../mesh/lib_51_MBTLE_CORE.a(log.c.obj)
                                        0x7f3 (size before relaxing)
 .debug_str     0x000000000000737a      0x393 ../../mesh/lib_51_MBTLE_CORE.a(net_state.c.obj)
                                       0x246b (size before relaxing)
 .debug_str     0x000000000000770d      0x414 ../../mesh/lib_51_MBTLE_CORE.a(nrf_mesh.c.obj)
                                       0x2f64 (size before relaxing)
 .debug_str     0x0000000000007b21       0xc0 ../../mesh/lib_51_MBTLE_CORE.a(nrf_mesh_utils.c.obj)
                                        0x74e (size before relaxing)
 .debug_str     0x0000000000007be1       0xc0 ../../mesh/lib_51_MBTLE_CORE.a(radio_config.c.obj)
                                        0x700 (size before relaxing)
 .debug_str     0x0000000000007ca1       0xb4 ../../mesh/lib_51_MBTLE_CORE.a(rand.c.obj)
                                        0x70d (size before relaxing)
 .debug_str     0x0000000000007d55       0x6e ../../mesh/lib_51_MBTLE_CORE.a(ticker.c.obj)
                                        0x34e (size before relaxing)
 .debug_str     0x0000000000007dc3      0xabd ../../mesh/lib_51_MBTLE_CORE.a(transport.c.obj)
                                       0x3285 (size before relaxing)
 .debug_str     0x0000000000008880       0xec ../../mesh/lib_51_MBTLE_CORE.a(internal_event.c.obj)
                                        0xa9b (size before relaxing)
 .debug_str     0x000000000000896c      0x4a5 ../../mesh/lib_51_MBTLE_CORE.a(mesh_flash.c.obj)
                                        0xbf7 (size before relaxing)
 .debug_str     0x0000000000008e11       0xaf ../../mesh/lib_51_MBTLE_CORE.a(nrf_flash.c.obj)
                                        0x6a6 (size before relaxing)
 .debug_str     0x0000000000008ec0      0x7cc ../../mesh/lib_51_MBTLE_CORE.a(flash_manager.c.obj)
                                       0x1994 (size before relaxing)
 .debug_str     0x000000000000968c      0x3d6 ../../mesh/lib_51_MBTLE_CORE.a(flash_manager_defrag.c.obj)
                                       0x1507 (size before relaxing)
 .debug_str     0x0000000000009a62       0x64 ../../mesh/lib_51_MBTLE_CORE.a(flash_manager_internal.c.obj)
                                        0x7e1 (size before relaxing)
 .debug_str     0x0000000000009ac6       0x68 ../../mesh/lib_51_MBTLE_CORE.a(nrf_mesh_weak.c.obj)
                                        0x670 (size before relaxing)
 .debug_str     0x0000000000009b2e       0x50 ../../mesh/lib_51_MBTLE_CORE.a(queue.c.obj)
                                        0x680 (size before relaxing)
 .debug_str     0x0000000000009b7e       0x7f ../../mesh/lib_51_MBTLE_CORE.a(msqueue.c.obj)
                                        0x6bc (size before relaxing)
 .debug_str     0x0000000000009bfd      0x7a9 ../../mesh/lib_51_MBTLE_CORE.a(timeslot.c.obj)
                                       0x1787 (size before relaxing)
 .debug_str     0x000000000000a3a6       0xd9 ../../mesh/lib_51_MBTLE_CORE.a(beacon.c.obj)
                                        0xd16 (size before relaxing)
 .debug_str     0x000000000000a47f       0x9f ../../mesh/lib_51_MBTLE_CORE.a(nrf_mesh_configure.c.obj)
                                        0x737 (size before relaxing)
 .debug_str     0x000000000000a51e      0x16a ../../mesh/lib_51_MBTLE_CORE.a(enc.c.obj)
                                        0x917 (size before relaxing)
 .debug_str     0x000000000000a688       0xbf ../../mesh/lib_51_MBTLE_CORE.a(msg_cache.c.obj)
                                        0x750 (size before relaxing)
 .debug_str     0x000000000000a747      0x2aa ../../mesh/lib_51_MBTLE_CORE.a(network.c.obj)
                                       0x15cd (size before relaxing)
 .debug_str     0x000000000000a9f1      0x1ff ../../mesh/lib_51_MBTLE_CORE.a(net_beacon.c.obj)
                                        0xc04 (size before relaxing)
 .debug_str     0x000000000000abf0       0x46 ../../mesh/lib_51_MBTLE_CORE.a(packet.c.obj)
                                        0x732 (size before relaxing)
 .debug_str     0x000000000000ac36      0x2ae ../../mesh/lib_51_MBTLE_CORE.a(packet_buffer.c.obj)
                                        0xba6 (size before relaxing)
 .debug_str     0x000000000000aee4       0xcb ../../mesh/lib_51_MBTLE_CORE.a(replay_cache.c.obj)
                                        0x6b2 (size before relaxing)
 .debug_str     0x000000000000afaf      0x151 ../../mesh/lib_51_MBTLE_CORE.a(aes.c.obj)
                                        0xb80 (size before relaxing)
 .debug_str     0x000000000000b100       0xe4 ../../mesh/lib_51_MBTLE_CORE.a(aes_cmac.c.obj)
                                        0x738 (size before relaxing)
 .debug_str     0x000000000000b1e4       0xbb ../../mesh/lib_51_MBTLE_CORE.a(ccm_soft.c.obj)
                                        0x780 (size before relaxing)
 .debug_str     0x000000000000b29f      0x2ff ../../lib/rtt/lib_51_RTT_LIB.a(SEGGER_RTT.c.obj)
                                        0x91f (size before relaxing)
 .debug_str     0x000000000000b59e      0x143 ../../lib/rtt/lib_51_RTT_LIB.a(SEGGER_RTT_printf.c.obj)
                                        0x7cc (size before relaxing)

.debug_frame    0x0000000000000000     0x36d4
 .debug_frame   0x0000000000000000       0x60 CMakeFiles/51_beaconing.dir/src/main.c.obj
 .debug_frame   0x0000000000000060      0x124 CMakeFiles/51_beaconing.dir/__/nrf_mesh_sdk.c.obj
 .debug_frame   0x0000000000000184      0x8dc CMakeFiles/51_beaconing.dir/__/__/mesh/src/access/device_state_manager.c.obj
 .debug_frame   0x0000000000000a60       0x30 CMakeFiles/51_beaconing.dir/__/__/toolchain/system_nrf51.c.obj
 .debug_frame   0x0000000000000a90      0x324 ../../mesh/lib_51_MBTLE_CORE.a(bearer_adv.c.obj)
 .debug_frame   0x0000000000000db4       0xd4 ../../mesh/lib_51_MBTLE_CORE.a(fifo.c.obj)
 .debug_frame   0x0000000000000e88       0xa4 ../../mesh/lib_51_MBTLE_CORE.a(packet_mgr.c.obj)
 .debug_frame   0x0000000000000f2c      0x16c ../../mesh/lib_51_MBTLE_CORE.a(radio.c.obj)
 .debug_frame   0x0000000000001098       0xf8 ../../mesh/lib_51_MBTLE_CORE.a(timer.c.obj)
 .debug_frame   0x0000000000001190      0x11c ../../mesh/lib_51_MBTLE_CORE.a(timer_scheduler.c.obj)
 .debug_frame   0x00000000000012ac      0x188 ../../mesh/lib_51_MBTLE_CORE.a(bearer.c.obj)
 .debug_frame   0x0000000000001434      0x128 ../../mesh/lib_51_MBTLE_CORE.a(bearer_event.c.obj)
 .debug_frame   0x000000000000155c       0x64 ../../mesh/lib_51_MBTLE_CORE.a(event.c.obj)
 .debug_frame   0x00000000000015c0       0xa0 ../../mesh/lib_51_MBTLE_CORE.a(log.c.obj)
 .debug_frame   0x0000000000001660      0x1d8 ../../mesh/lib_51_MBTLE_CORE.a(net_state.c.obj)
 .debug_frame   0x0000000000001838      0x140 ../../mesh/lib_51_MBTLE_CORE.a(nrf_mesh.c.obj)
 .debug_frame   0x0000000000001978       0x50 ../../mesh/lib_51_MBTLE_CORE.a(nrf_mesh_utils.c.obj)
 .debug_frame   0x00000000000019c8       0x84 ../../mesh/lib_51_MBTLE_CORE.a(radio_config.c.obj)
 .debug_frame   0x0000000000001a4c       0x90 ../../mesh/lib_51_MBTLE_CORE.a(rand.c.obj)
 .debug_frame   0x0000000000001adc       0x48 ../../mesh/lib_51_MBTLE_CORE.a(ticker.c.obj)
 .debug_frame   0x0000000000001b24      0x2c8 ../../mesh/lib_51_MBTLE_CORE.a(transport.c.obj)
 .debug_frame   0x0000000000001dec       0x58 ../../mesh/lib_51_MBTLE_CORE.a(internal_event.c.obj)
 .debug_frame   0x0000000000001e44      0x10c ../../mesh/lib_51_MBTLE_CORE.a(mesh_flash.c.obj)
 .debug_frame   0x0000000000001f50       0x48 ../../mesh/lib_51_MBTLE_CORE.a(nrf_flash.c.obj)
 .debug_frame   0x0000000000001f98      0x264 ../../mesh/lib_51_MBTLE_CORE.a(flash_manager.c.obj)
 .debug_frame   0x00000000000021fc      0x1e8 ../../mesh/lib_51_MBTLE_CORE.a(flash_manager_defrag.c.obj)
 .debug_frame   0x00000000000023e4       0x38 ../../mesh/lib_51_MBTLE_CORE.a(flash_manager_internal.c.obj)
 .debug_frame   0x000000000000241c       0x30 ../../mesh/lib_51_MBTLE_CORE.a(nrf_mesh_weak.c.obj)
 .debug_frame   0x000000000000244c       0x74 ../../mesh/lib_51_MBTLE_CORE.a(queue.c.obj)
 .debug_frame   0x00000000000024c0       0x94 ../../mesh/lib_51_MBTLE_CORE.a(msqueue.c.obj)
 .debug_frame   0x0000000000002554      0x178 ../../mesh/lib_51_MBTLE_CORE.a(timeslot.c.obj)
 .debug_frame   0x00000000000026cc       0x90 ../../mesh/lib_51_MBTLE_CORE.a(beacon.c.obj)
 .debug_frame   0x000000000000275c       0x50 ../../mesh/lib_51_MBTLE_CORE.a(nrf_mesh_configure.c.obj)
 .debug_frame   0x00000000000027ac      0x150 ../../mesh/lib_51_MBTLE_CORE.a(enc.c.obj)
 .debug_frame   0x00000000000028fc       0x84 ../../mesh/lib_51_MBTLE_CORE.a(msg_cache.c.obj)
 .debug_frame   0x0000000000002980       0xfc ../../mesh/lib_51_MBTLE_CORE.a(network.c.obj)
 .debug_frame   0x0000000000002a7c       0xa4 ../../mesh/lib_51_MBTLE_CORE.a(net_beacon.c.obj)
 .debug_frame   0x0000000000002b20       0x30 ../../mesh/lib_51_MBTLE_CORE.a(packet.c.obj)
 .debug_frame   0x0000000000002b50      0x124 ../../mesh/lib_51_MBTLE_CORE.a(packet_buffer.c.obj)
 .debug_frame   0x0000000000002c74       0xa8 ../../mesh/lib_51_MBTLE_CORE.a(replay_cache.c.obj)
 .debug_frame   0x0000000000002d1c       0x3c ../../mesh/lib_51_MBTLE_CORE.a(aes.c.obj)
 .debug_frame   0x0000000000002d58       0x50 ../../mesh/lib_51_MBTLE_CORE.a(aes_cmac.c.obj)
 .debug_frame   0x0000000000002da8       0xe0 ../../mesh/lib_51_MBTLE_CORE.a(ccm_soft.c.obj)
 .debug_frame   0x0000000000002e88      0x2dc ../../lib/rtt/lib_51_RTT_LIB.a(SEGGER_RTT.c.obj)
 .debug_frame   0x0000000000003164       0x9c ../../lib/rtt/lib_51_RTT_LIB.a(SEGGER_RTT_printf.c.obj)
 .debug_frame   0x0000000000003200       0x20 /usr/bin/../lib/gcc/arm-none-eabi/6.3.1/thumb/v6-m/libgcc.a(_udivsi3.o)
 .debug_frame   0x0000000000003220       0x20 /usr/bin/../lib/gcc/arm-none-eabi/6.3.1/thumb/v6-m/libgcc.a(_divsi3.o)
 .debug_frame   0x0000000000003240       0x34 /usr/bin/../lib/gcc/arm-none-eabi/6.3.1/thumb/v6-m/libgcc.a(_muldi3.o)
 .debug_frame   0x0000000000003274       0x28 /usr/bin/../lib/gcc/arm-none-eabi/6.3.1/../../../../arm-none-eabi/lib/thumb/v6-m/libg_nano.a(lib_a-exit.o)
 .debug_frame   0x000000000000329c       0x2c /usr/bin/../lib/gcc/arm-none-eabi/6.3.1/../../../../arm-none-eabi/lib/thumb/v6-m/libg_nano.a(lib_a-init.o)
 .debug_frame   0x00000000000032c8       0x40 /usr/bin/../lib/gcc/arm-none-eabi/6.3.1/../../../../arm-none-eabi/lib/thumb/v6-m/libg_nano.a(lib_a-malloc.o)
 .debug_frame   0x0000000000003308       0x2c /usr/bin/../lib/gcc/arm-none-eabi/6.3.1/../../../../arm-none-eabi/lib/thumb/v6-m/libg_nano.a(lib_a-memcmp.o)
 .debug_frame   0x0000000000003334       0x28 /usr/bin/../lib/gcc/arm-none-eabi/6.3.1/../../../../arm-none-eabi/lib/thumb/v6-m/libg_nano.a(lib_a-memcpy-stub.o)
 .debug_frame   0x000000000000335c       0x20 /usr/bin/../lib/gcc/arm-none-eabi/6.3.1/../../../../arm-none-eabi/lib/thumb/v6-m/libg_nano.a(lib_a-memset.o)
 .debug_frame   0x000000000000337c       0x2c /usr/bin/../lib/gcc/arm-none-eabi/6.3.1/../../../../arm-none-eabi/lib/thumb/v6-m/libg_nano.a(lib_a-nano-freer.o)
 .debug_frame   0x00000000000033a8       0x2c /usr/bin/../lib/gcc/arm-none-eabi/6.3.1/../../../../arm-none-eabi/lib/thumb/v6-m/libg_nano.a(lib_a-nano-mallocr.o)
 .debug_frame   0x00000000000033d4       0x2c /usr/bin/../lib/gcc/arm-none-eabi/6.3.1/../../../../arm-none-eabi/lib/thumb/v6-m/libg_nano.a(lib_a-sbrkr.o)
 .debug_frame   0x0000000000003400       0x50 /usr/bin/../lib/gcc/arm-none-eabi/6.3.1/../../../../arm-none-eabi/lib/thumb/v6-m/libg_nano.a(lib_a-sprintf.o)
 .debug_frame   0x0000000000003450       0x20 /usr/bin/../lib/gcc/arm-none-eabi/6.3.1/../../../../arm-none-eabi/lib/thumb/v6-m/libg_nano.a(lib_a-strcpy.o)
 .debug_frame   0x0000000000003470       0x2c /usr/bin/../lib/gcc/arm-none-eabi/6.3.1/../../../../arm-none-eabi/lib/thumb/v6-m/libg_nano.a(lib_a-strrchr.o)
 .debug_frame   0x000000000000349c       0x30 /usr/bin/../lib/gcc/arm-none-eabi/6.3.1/../../../../arm-none-eabi/lib/thumb/v6-m/libg_nano.a(lib_a-mlock.o)
 .debug_frame   0x00000000000034cc       0x74 /usr/bin/../lib/gcc/arm-none-eabi/6.3.1/../../../../arm-none-eabi/lib/thumb/v6-m/libg_nano.a(lib_a-nano-svfprintf.o)
 .debug_frame   0x0000000000003540       0x54 /usr/bin/../lib/gcc/arm-none-eabi/6.3.1/../../../../arm-none-eabi/lib/thumb/v6-m/libg_nano.a(lib_a-nano-vfprintf_i.o)
 .debug_frame   0x0000000000003594       0x48 /usr/bin/../lib/gcc/arm-none-eabi/6.3.1/../../../../arm-none-eabi/lib/thumb/v6-m/libg_nano.a(lib_a-reent.o)
 .debug_frame   0x00000000000035dc       0x20 /usr/bin/../lib/gcc/arm-none-eabi/6.3.1/../../../../arm-none-eabi/lib/thumb/v6-m/libg_nano.a(lib_a-strchr.o)
 .debug_frame   0x00000000000035fc       0x20 /usr/bin/../lib/gcc/arm-none-eabi/6.3.1/../../../../arm-none-eabi/lib/thumb/v6-m/libg_nano.a(lib_a-memchr-stub.o)
 .debug_frame   0x000000000000361c       0x28 /usr/bin/../lib/gcc/arm-none-eabi/6.3.1/../../../../arm-none-eabi/lib/thumb/v6-m/libg_nano.a(lib_a-memmove.o)
 .debug_frame   0x0000000000003644       0x30 /usr/bin/../lib/gcc/arm-none-eabi/6.3.1/../../../../arm-none-eabi/lib/thumb/v6-m/libg_nano.a(lib_a-nano-reallocr.o)
 .debug_frame   0x0000000000003674       0x20 /usr/bin/../lib/gcc/arm-none-eabi/6.3.1/../../../../arm-none-eabi/lib/thumb/v6-m/libg_nano.a(lib_a-nano-msizer.o)
 .debug_frame   0x0000000000003694       0x20 /usr/bin/../lib/gcc/arm-none-eabi/6.3.1/../../../../arm-none-eabi/lib/thumb/v6-m/libnosys.a(sbrk.o)
 .debug_frame   0x00000000000036b4       0x20 /usr/bin/../lib/gcc/arm-none-eabi/6.3.1/../../../../arm-none-eabi/lib/thumb/v6-m/libnosys.a(_exit.o)
