Archive member included to satisfy reference by file (symbol)

../../../mesh/lib_51_MBTLE_PB_ADV_ER.a(nrf_mesh_prov.c.obj)
                              CMakeFiles/51_light_control_client.dir/src/provisioner.c.obj (nrf_mesh_prov_init)
../../../mesh/lib_51_MBTLE_PB_ADV_ER.a(prov_bearer_adv.c.obj)
                              ../../../mesh/lib_51_MBTLE_PB_ADV_ER.a(nrf_mesh_prov.c.obj) (prov_bearer_adv_interface_get)
../../../mesh/lib_51_MBTLE_PB_ADV_ER.a(prov_utils.c.obj)
                              ../../../mesh/lib_51_MBTLE_PB_ADV_ER.a(nrf_mesh_prov.c.obj) (prov_utils_keys_generate)
../../../mesh/lib_51_MBTLE_PB_ADV_ER.a(prov_beacon.c.obj)
                              ../../../mesh/lib_51_MBTLE_PB_ADV_ER.a(prov_bearer_adv.c.obj) (prov_beacon_unprov_build)
../../../mesh/lib_51_MBTLE_PB_ADV_ER.a(prov_provisioner.c.obj)
                              ../../../mesh/lib_51_MBTLE_PB_ADV_ER.a(nrf_mesh_prov.c.obj) (prov_provisioner_provision)
../../../mesh/lib_51_MBTLE_PB_ADV_ER.a(provisioning.c.obj)
                              ../../../mesh/lib_51_MBTLE_PB_ADV_ER.a(prov_provisioner.c.obj) (prov_packet_length_valid)
../../../mesh/lib_51_MBTLE_CORE.a(nrf_mesh_weak.c.obj)
                              ../../../mesh/lib_51_MBTLE_PB_ADV_ER.a(nrf_mesh_prov.c.obj) (prov_provisionee_shared_secret)
../../../mesh/lib_51_MBTLE_CORE.a(bearer_adv.c.obj)
                              ../../../mesh/lib_51_MBTLE_PB_ADV_ER.a(prov_bearer_adv.c.obj) (bearer_adv_advertiser_init)
../../../mesh/lib_51_MBTLE_CORE.a(fifo.c.obj)
                              ../../../mesh/lib_51_MBTLE_CORE.a(bearer_adv.c.obj) (fifo_init)
../../../mesh/lib_51_MBTLE_CORE.a(packet_mgr.c.obj)
                              CMakeFiles/51_light_control_client.dir/__/__/__/mesh/models/config/src/config_client.c.obj (packet_mgr_alloc)
../../../mesh/lib_51_MBTLE_CORE.a(radio.c.obj)
                              ../../../mesh/lib_51_MBTLE_CORE.a(bearer_adv.c.obj) (radio_init)
../../../mesh/lib_51_MBTLE_CORE.a(timer.c.obj)
                              CMakeFiles/51_light_control_client.dir/__/__/__/mesh/src/access/access_reliable.c.obj (timer_now)
../../../mesh/lib_51_MBTLE_CORE.a(timer_scheduler.c.obj)
                              CMakeFiles/51_light_control_client.dir/__/__/__/mesh/src/access/access_publish.c.obj (timer_sch_schedule)
../../../mesh/lib_51_MBTLE_CORE.a(beacon.c.obj)
                              ../../../mesh/lib_51_MBTLE_PB_ADV_ER.a(prov_beacon.c.obj) (beacon_create)
../../../mesh/lib_51_MBTLE_CORE.a(bearer.c.obj)
                              ../../../mesh/lib_51_MBTLE_CORE.a(bearer_adv.c.obj) (bearer_adtype_filtering_set)
../../../mesh/lib_51_MBTLE_CORE.a(bearer_event.c.obj)
                              ../../../mesh/lib_51_MBTLE_CORE.a(bearer_adv.c.obj) (bearer_event_generic_post)
../../../mesh/lib_51_MBTLE_CORE.a(nrf_mesh_configure.c.obj)
                              ../../../mesh/lib_51_MBTLE_PB_ADV_ER.a(prov_bearer_adv.c.obj) (nrf_mesh_configure_device_uuid_get)
../../../mesh/lib_51_MBTLE_CORE.a(enc.c.obj)
                              ../../../mesh/lib_51_MBTLE_PB_ADV_ER.a(prov_utils.c.obj) (enc_aes_cmac)
../../../mesh/lib_51_MBTLE_CORE.a(event.c.obj)
                              CMakeFiles/51_light_control_client.dir/__/__/__/mesh/src/access/access.c.obj (event_handle)
../../../mesh/lib_51_MBTLE_CORE.a(log.c.obj)
                              CMakeFiles/51_light_control_client.dir/src/main.c.obj (log_callback_rtt)
../../../mesh/lib_51_MBTLE_CORE.a(net_beacon.c.obj)
                              ../../../mesh/lib_51_MBTLE_CORE.a(beacon.c.obj) (net_beacon_pkt_in)
../../../mesh/lib_51_MBTLE_CORE.a(net_state.c.obj)
                              CMakeFiles/51_light_control_client.dir/__/__/__/mesh/src/access/device_state_manager.c.obj (net_state_flash_area_get)
../../../mesh/lib_51_MBTLE_CORE.a(nrf_mesh.c.obj)
                              CMakeFiles/51_light_control_client.dir/src/main.c.obj (nrf_mesh_init)
../../../mesh/lib_51_MBTLE_CORE.a(nrf_mesh_keygen.c.obj)
                              CMakeFiles/51_light_control_client.dir/__/__/__/mesh/src/access/device_state_manager.c.obj (nrf_mesh_keygen_aid)
../../../mesh/lib_51_MBTLE_CORE.a(nrf_mesh_utils.c.obj)
                              CMakeFiles/51_light_control_client.dir/__/__/__/mesh/src/access/device_state_manager.c.obj (nrf_mesh_address_type_get)
../../../mesh/lib_51_MBTLE_CORE.a(radio_config.c.obj)
                              ../../../mesh/lib_51_MBTLE_CORE.a(radio.c.obj) (radio_config_reset)
../../../mesh/lib_51_MBTLE_CORE.a(rand.c.obj)
                              ../../../mesh/lib_51_MBTLE_CORE.a(bearer_adv.c.obj) (rand_prng_get)
../../../mesh/lib_51_MBTLE_CORE.a(ticker.c.obj)
                              ../../../mesh/lib_51_MBTLE_CORE.a(nrf_mesh.c.obj) (ticker_init)
../../../mesh/lib_51_MBTLE_CORE.a(transport.c.obj)
                              ../../../mesh/lib_51_MBTLE_CORE.a(nrf_mesh.c.obj) (transport_init)
../../../mesh/lib_51_MBTLE_CORE.a(internal_event.c.obj)
                              ../../../mesh/lib_51_MBTLE_CORE.a(bearer.c.obj) (internal_event_push)
../../../mesh/lib_51_MBTLE_CORE.a(flash_manager.c.obj)
                              ../../../mesh/lib_51_MBTLE_CORE.a(nrf_mesh.c.obj) (flash_manager_init)
../../../mesh/lib_51_MBTLE_CORE.a(flash_manager_defrag.c.obj)
                              ../../../mesh/lib_51_MBTLE_CORE.a(flash_manager.c.obj) (flash_manager_defrag_init)
../../../mesh/lib_51_MBTLE_CORE.a(flash_manager_internal.c.obj)
                              ../../../mesh/lib_51_MBTLE_CORE.a(flash_manager.c.obj) (entry_get)
../../../mesh/lib_51_MBTLE_CORE.a(aes.c.obj)
                              ../../../mesh/lib_51_MBTLE_CORE.a(enc.c.obj) (aes_encrypt)
../../../mesh/lib_51_MBTLE_CORE.a(queue.c.obj)
                              ../../../mesh/lib_51_MBTLE_CORE.a(flash_manager.c.obj) (queue_init)
../../../mesh/lib_51_MBTLE_CORE.a(timeslot.c.obj)
                              ../../../mesh/lib_51_MBTLE_CORE.a(nrf_mesh.c.obj) (timeslot_sd_event_handler)
../../../mesh/lib_51_MBTLE_CORE.a(aes_cmac.c.obj)
                              ../../../mesh/lib_51_MBTLE_CORE.a(enc.c.obj) (aes_cmac)
../../../mesh/lib_51_MBTLE_CORE.a(ccm_soft.c.obj)
                              ../../../mesh/lib_51_MBTLE_CORE.a(enc.c.obj) (ccm_soft_encrypt)
../../../mesh/lib_51_MBTLE_CORE.a(msg_cache.c.obj)
                              ../../../mesh/lib_51_MBTLE_CORE.a(nrf_mesh.c.obj) (msg_cache_init)
../../../mesh/lib_51_MBTLE_CORE.a(network.c.obj)
                              ../../../mesh/lib_51_MBTLE_CORE.a(transport.c.obj) (network_pkt_relay)
../../../mesh/lib_51_MBTLE_CORE.a(packet.c.obj)
                              ../../../mesh/lib_51_MBTLE_CORE.a(network.c.obj) (packet_type_packet_get)
../../../mesh/lib_51_MBTLE_CORE.a(packet_buffer.c.obj)
                              ../../../mesh/lib_51_MBTLE_CORE.a(flash_manager.c.obj) (packet_buffer_init)
../../../mesh/lib_51_MBTLE_CORE.a(replay_cache.c.obj)
                              ../../../mesh/lib_51_MBTLE_CORE.a(transport.c.obj) (replay_cache_add)
../../../mesh/lib_51_MBTLE_CORE.a(mesh_flash.c.obj)
                              ../../../mesh/lib_51_MBTLE_CORE.a(flash_manager.c.obj) (mesh_flash_user_callback_set)
../../../mesh/lib_51_MBTLE_CORE.a(nrf_flash.c.obj)
                              ../../../mesh/lib_51_MBTLE_CORE.a(mesh_flash.c.obj) (nrf_flash_erase)
../../../mesh/lib_51_MBTLE_CORE.a(msqueue.c.obj)
                              ../../../mesh/lib_51_MBTLE_CORE.a(mesh_flash.c.obj) (msq_get)
../../../lib/micro-ecc/lib_51_UECC_LIB.a(uECC.c.obj)
                              ../../../mesh/lib_51_MBTLE_PB_ADV_ER.a(prov_utils.c.obj) (uECC_secp256r1)
../../../lib/rtt/lib_51_RTT_LIB.a(SEGGER_RTT.c.obj)
                              ../../../mesh/lib_51_MBTLE_CORE.a(log.c.obj) (SEGGER_RTT_Write)
../../../lib/rtt/lib_51_RTT_LIB.a(SEGGER_RTT_printf.c.obj)
                              ../../../mesh/lib_51_MBTLE_CORE.a(log.c.obj) (SEGGER_RTT_vprintf)
/usr/bin/../lib/gcc/arm-none-eabi/6.3.1/thumb/v6-m/libgcc.a(_udivsi3.o)
                              CMakeFiles/51_light_control_client.dir/src/main.c.obj (__aeabi_uidiv)
/usr/bin/../lib/gcc/arm-none-eabi/6.3.1/thumb/v6-m/libgcc.a(_divsi3.o)
                              CMakeFiles/51_light_control_client.dir/__/__/__/mesh/src/access/access_reliable.c.obj (__aeabi_idiv)
/usr/bin/../lib/gcc/arm-none-eabi/6.3.1/thumb/v6-m/libgcc.a(_dvmd_tls.o)
                              /usr/bin/../lib/gcc/arm-none-eabi/6.3.1/thumb/v6-m/libgcc.a(_udivsi3.o) (__aeabi_idiv0)
/usr/bin/../lib/gcc/arm-none-eabi/6.3.1/thumb/v6-m/libgcc.a(_muldi3.o)
                              ../../../mesh/lib_51_MBTLE_CORE.a(timeslot.c.obj) (__aeabi_lmul)
/usr/bin/../lib/gcc/arm-none-eabi/6.3.1/../../../../arm-none-eabi/lib/thumb/v6-m/libg_nano.a(lib_a-exit.o)
                              /usr/bin/../lib/gcc/arm-none-eabi/6.3.1/../../../../arm-none-eabi/lib/thumb/v6-m/crt0.o (exit)
/usr/bin/../lib/gcc/arm-none-eabi/6.3.1/../../../../arm-none-eabi/lib/thumb/v6-m/libg_nano.a(lib_a-impure.o)
                              /usr/bin/../lib/gcc/arm-none-eabi/6.3.1/../../../../arm-none-eabi/lib/thumb/v6-m/libg_nano.a(lib_a-exit.o) (_global_impure_ptr)
/usr/bin/../lib/gcc/arm-none-eabi/6.3.1/../../../../arm-none-eabi/lib/thumb/v6-m/libg_nano.a(lib_a-init.o)
                              /usr/bin/../lib/gcc/arm-none-eabi/6.3.1/../../../../arm-none-eabi/lib/thumb/v6-m/crt0.o (__libc_init_array)
/usr/bin/../lib/gcc/arm-none-eabi/6.3.1/../../../../arm-none-eabi/lib/thumb/v6-m/libg_nano.a(lib_a-malloc.o)
                              ../../../mesh/lib_51_MBTLE_CORE.a(transport.c.obj) (malloc)
/usr/bin/../lib/gcc/arm-none-eabi/6.3.1/../../../../arm-none-eabi/lib/thumb/v6-m/libg_nano.a(lib_a-memcmp.o)
                              CMakeFiles/51_light_control_client.dir/__/__/__/mesh/src/access/device_state_manager.c.obj (memcmp)
/usr/bin/../lib/gcc/arm-none-eabi/6.3.1/../../../../arm-none-eabi/lib/thumb/v6-m/libg_nano.a(lib_a-memcpy-stub.o)
                              CMakeFiles/51_light_control_client.dir/__/__/__/mesh/models/config/src/config_client.c.obj (memcpy)
/usr/bin/../lib/gcc/arm-none-eabi/6.3.1/../../../../arm-none-eabi/lib/thumb/v6-m/libg_nano.a(lib_a-memset.o)
                              /usr/bin/../lib/gcc/arm-none-eabi/6.3.1/../../../../arm-none-eabi/lib/thumb/v6-m/crt0.o (memset)
/usr/bin/../lib/gcc/arm-none-eabi/6.3.1/../../../../arm-none-eabi/lib/thumb/v6-m/libg_nano.a(lib_a-nano-freer.o)
                              /usr/bin/../lib/gcc/arm-none-eabi/6.3.1/../../../../arm-none-eabi/lib/thumb/v6-m/libg_nano.a(lib_a-malloc.o) (_free_r)
/usr/bin/../lib/gcc/arm-none-eabi/6.3.1/../../../../arm-none-eabi/lib/thumb/v6-m/libg_nano.a(lib_a-nano-mallocr.o)
                              /usr/bin/../lib/gcc/arm-none-eabi/6.3.1/../../../../arm-none-eabi/lib/thumb/v6-m/libg_nano.a(lib_a-malloc.o) (_malloc_r)
/usr/bin/../lib/gcc/arm-none-eabi/6.3.1/../../../../arm-none-eabi/lib/thumb/v6-m/libg_nano.a(lib_a-sbrkr.o)
                              /usr/bin/../lib/gcc/arm-none-eabi/6.3.1/../../../../arm-none-eabi/lib/thumb/v6-m/libg_nano.a(lib_a-nano-mallocr.o) (_sbrk_r)
/usr/bin/../lib/gcc/arm-none-eabi/6.3.1/../../../../arm-none-eabi/lib/thumb/v6-m/libg_nano.a(lib_a-strcpy.o)
                              ../../../lib/rtt/lib_51_RTT_LIB.a(SEGGER_RTT.c.obj) (strcpy)
/usr/bin/../lib/gcc/arm-none-eabi/6.3.1/../../../../arm-none-eabi/lib/thumb/v6-m/libg_nano.a(lib_a-strlen.o)
                              ../../../mesh/lib_51_MBTLE_PB_ADV_ER.a(prov_beacon.c.obj) (strlen)
/usr/bin/../lib/gcc/arm-none-eabi/6.3.1/../../../../arm-none-eabi/lib/thumb/v6-m/libg_nano.a(lib_a-strrchr.o)
                              CMakeFiles/51_light_control_client.dir/src/main.c.obj (strrchr)
/usr/bin/../lib/gcc/arm-none-eabi/6.3.1/../../../../arm-none-eabi/lib/thumb/v6-m/libg_nano.a(lib_a-mlock.o)
                              /usr/bin/../lib/gcc/arm-none-eabi/6.3.1/../../../../arm-none-eabi/lib/thumb/v6-m/libg_nano.a(lib_a-nano-freer.o) (__malloc_lock)
/usr/bin/../lib/gcc/arm-none-eabi/6.3.1/../../../../arm-none-eabi/lib/thumb/v6-m/libg_nano.a(lib_a-reent.o)
                              /usr/bin/../lib/gcc/arm-none-eabi/6.3.1/../../../../arm-none-eabi/lib/thumb/v6-m/libg_nano.a(lib_a-sbrkr.o) (errno)
/usr/bin/../lib/gcc/arm-none-eabi/6.3.1/../../../../arm-none-eabi/lib/thumb/v6-m/libg_nano.a(lib_a-strchr.o)
                              /usr/bin/../lib/gcc/arm-none-eabi/6.3.1/../../../../arm-none-eabi/lib/thumb/v6-m/libg_nano.a(lib_a-strrchr.o) (strchr)
/usr/bin/../lib/gcc/arm-none-eabi/6.3.1/../../../../arm-none-eabi/lib/thumb/v6-m/libnosys.a(sbrk.o)
                              /usr/bin/../lib/gcc/arm-none-eabi/6.3.1/../../../../arm-none-eabi/lib/thumb/v6-m/libg_nano.a(lib_a-sbrkr.o) (_sbrk)
/usr/bin/../lib/gcc/arm-none-eabi/6.3.1/../../../../arm-none-eabi/lib/thumb/v6-m/libnosys.a(_exit.o)
                              /usr/bin/../lib/gcc/arm-none-eabi/6.3.1/../../../../arm-none-eabi/lib/thumb/v6-m/libg_nano.a(lib_a-exit.o) (_exit)

Allocating common symbols
Common symbol       size              file

nrf_nvic_state      0x8               CMakeFiles/51_light_control_client.dir/__/__/nrf_mesh_sdk.c.obj
errno               0x4               /usr/bin/../lib/gcc/arm-none-eabi/6.3.1/../../../../arm-none-eabi/lib/thumb/v6-m/libg_nano.a(lib_a-reent.o)
m_assertion_handler
                    0x4               ../../../mesh/lib_51_MBTLE_CORE.a(nrf_mesh.c.obj)
_SEGGER_RTT         0x78              ../../../lib/rtt/lib_51_RTT_LIB.a(SEGGER_RTT.c.obj)

Discarded input sections

 .text          0x0000000000000000        0x0 /usr/bin/../lib/gcc/arm-none-eabi/6.3.1/thumb/v6-m/crti.o
 .data          0x0000000000000000        0x0 /usr/bin/../lib/gcc/arm-none-eabi/6.3.1/thumb/v6-m/crti.o
 .bss           0x0000000000000000        0x0 /usr/bin/../lib/gcc/arm-none-eabi/6.3.1/thumb/v6-m/crti.o
 .data          0x0000000000000000        0x4 /usr/bin/../lib/gcc/arm-none-eabi/6.3.1/thumb/v6-m/crtbegin.o
 .data          0x0000000000000000        0x0 /usr/bin/../lib/gcc/arm-none-eabi/6.3.1/../../../../arm-none-eabi/lib/thumb/v6-m/crt0.o
 .bss           0x0000000000000000        0x0 /usr/bin/../lib/gcc/arm-none-eabi/6.3.1/../../../../arm-none-eabi/lib/thumb/v6-m/crt0.o
 .ARM.extab     0x0000000000000000        0x0 /usr/bin/../lib/gcc/arm-none-eabi/6.3.1/../../../../arm-none-eabi/lib/thumb/v6-m/crt0.o
 .text          0x0000000000000000        0x0 CMakeFiles/51_light_control_client.dir/src/main.c.obj
 .data          0x0000000000000000        0x0 CMakeFiles/51_light_control_client.dir/src/main.c.obj
 .bss           0x0000000000000000        0x0 CMakeFiles/51_light_control_client.dir/src/main.c.obj
 .text          0x0000000000000000        0x0 CMakeFiles/51_light_control_client.dir/src/provisioner.c.obj
 .data          0x0000000000000000        0x0 CMakeFiles/51_light_control_client.dir/src/provisioner.c.obj
 .bss           0x0000000000000000        0x0 CMakeFiles/51_light_control_client.dir/src/provisioner.c.obj
 .text          0x0000000000000000        0x0 CMakeFiles/51_light_control_client.dir/__/__/__/mesh/models/config/src/config_client.c.obj
 .data          0x0000000000000000        0x0 CMakeFiles/51_light_control_client.dir/__/__/__/mesh/models/config/src/config_client.c.obj
 .bss           0x0000000000000000        0x0 CMakeFiles/51_light_control_client.dir/__/__/__/mesh/models/config/src/config_client.c.obj
 .text.config_client_appkey_delete
                0x0000000000000000       0x7c CMakeFiles/51_light_control_client.dir/__/__/__/mesh/models/config/src/config_client.c.obj
 .text.config_client_appkey_get
                0x0000000000000000       0x6c CMakeFiles/51_light_control_client.dir/__/__/__/mesh/models/config/src/config_client.c.obj
 .text.config_client_appkey_update
                0x0000000000000000       0x88 CMakeFiles/51_light_control_client.dir/__/__/__/mesh/models/config/src/config_client.c.obj
 .text.config_client_model_publication_get
                0x0000000000000000       0x8c CMakeFiles/51_light_control_client.dir/__/__/__/mesh/models/config/src/config_client.c.obj
 .text.config_client_net_beacon_get
                0x0000000000000000       0x2c CMakeFiles/51_light_control_client.dir/__/__/__/mesh/models/config/src/config_client.c.obj
 .text.config_client_net_beacon_set
                0x0000000000000000       0x64 CMakeFiles/51_light_control_client.dir/__/__/__/mesh/models/config/src/config_client.c.obj
 .text.config_client_default_ttl_get
                0x0000000000000000       0x18 CMakeFiles/51_light_control_client.dir/__/__/__/mesh/models/config/src/config_client.c.obj
 .text.config_client_default_ttl_set
                0x0000000000000000       0x6c CMakeFiles/51_light_control_client.dir/__/__/__/mesh/models/config/src/config_client.c.obj
 .text.config_client_model_subscription_delete
                0x0000000000000000       0x54 CMakeFiles/51_light_control_client.dir/__/__/__/mesh/models/config/src/config_client.c.obj
 .text.config_client_model_subscription_delete_all
                0x0000000000000000       0x8c CMakeFiles/51_light_control_client.dir/__/__/__/mesh/models/config/src/config_client.c.obj
 .text.config_client_model_subscription_get
                0x0000000000000000       0xb8 CMakeFiles/51_light_control_client.dir/__/__/__/mesh/models/config/src/config_client.c.obj
 .text.config_client_model_subscription_overwrite
                0x0000000000000000       0x54 CMakeFiles/51_light_control_client.dir/__/__/__/mesh/models/config/src/config_client.c.obj
 .text.config_client_relay_get
                0x0000000000000000       0x18 CMakeFiles/51_light_control_client.dir/__/__/__/mesh/models/config/src/config_client.c.obj
 .text.config_client_relay_set
                0x0000000000000000       0x88 CMakeFiles/51_light_control_client.dir/__/__/__/mesh/models/config/src/config_client.c.obj
 .text.config_client_model_app_get
                0x0000000000000000       0xb8 CMakeFiles/51_light_control_client.dir/__/__/__/mesh/models/config/src/config_client.c.obj
 .text.config_client_model_app_unbind
                0x0000000000000000       0x14 CMakeFiles/51_light_control_client.dir/__/__/__/mesh/models/config/src/config_client.c.obj
 .text.config_client_netkey_add
                0x0000000000000000       0x78 CMakeFiles/51_light_control_client.dir/__/__/__/mesh/models/config/src/config_client.c.obj
 .text.config_client_netkey_delete
                0x0000000000000000       0x6c CMakeFiles/51_light_control_client.dir/__/__/__/mesh/models/config/src/config_client.c.obj
 .text.config_client_netkey_get
                0x0000000000000000       0x2c CMakeFiles/51_light_control_client.dir/__/__/__/mesh/models/config/src/config_client.c.obj
 .text.config_client_netkey_update
                0x0000000000000000       0x78 CMakeFiles/51_light_control_client.dir/__/__/__/mesh/models/config/src/config_client.c.obj
 .text.config_client_node_reset
                0x0000000000000000       0x2c CMakeFiles/51_light_control_client.dir/__/__/__/mesh/models/config/src/config_client.c.obj
 .text.config_client_friend_get
                0x0000000000000000        0x4 CMakeFiles/51_light_control_client.dir/__/__/__/mesh/models/config/src/config_client.c.obj
 .text.config_client_friend_set
                0x0000000000000000        0x4 CMakeFiles/51_light_control_client.dir/__/__/__/mesh/models/config/src/config_client.c.obj
 .text.config_client_gatt_proxy_get
                0x0000000000000000        0x4 CMakeFiles/51_light_control_client.dir/__/__/__/mesh/models/config/src/config_client.c.obj
 .text.config_client_gatt_proxy_set
                0x0000000000000000        0x4 CMakeFiles/51_light_control_client.dir/__/__/__/mesh/models/config/src/config_client.c.obj
 .text.config_client_node_identity_get
                0x0000000000000000        0x4 CMakeFiles/51_light_control_client.dir/__/__/__/mesh/models/config/src/config_client.c.obj
 .text.config_client_node_identity_set
                0x0000000000000000        0x4 CMakeFiles/51_light_control_client.dir/__/__/__/mesh/models/config/src/config_client.c.obj
 .text.config_client_heartbeat_publication_get
                0x0000000000000000        0x4 CMakeFiles/51_light_control_client.dir/__/__/__/mesh/models/config/src/config_client.c.obj
 .text.config_client_heartbeat_publication_set
                0x0000000000000000        0x4 CMakeFiles/51_light_control_client.dir/__/__/__/mesh/models/config/src/config_client.c.obj
 .text.config_client_heartbeat_subscription_get
                0x0000000000000000        0x4 CMakeFiles/51_light_control_client.dir/__/__/__/mesh/models/config/src/config_client.c.obj
 .text.config_client_heartbeat_subscription_set
                0x0000000000000000        0x4 CMakeFiles/51_light_control_client.dir/__/__/__/mesh/models/config/src/config_client.c.obj
 .text          0x0000000000000000        0x0 CMakeFiles/51_light_control_client.dir/__/__/__/mesh/models/config/src/packed_index_list.c.obj
 .data          0x0000000000000000        0x0 CMakeFiles/51_light_control_client.dir/__/__/__/mesh/models/config/src/packed_index_list.c.obj
 .bss           0x0000000000000000        0x0 CMakeFiles/51_light_control_client.dir/__/__/__/mesh/models/config/src/packed_index_list.c.obj
 .text.packed_index_list_size
                0x0000000000000000       0x12 CMakeFiles/51_light_control_client.dir/__/__/__/mesh/models/config/src/packed_index_list.c.obj
 .text.packed_index_list_create
                0x0000000000000000       0x36 CMakeFiles/51_light_control_client.dir/__/__/__/mesh/models/config/src/packed_index_list.c.obj
 .debug_info    0x0000000000000000      0x149 CMakeFiles/51_light_control_client.dir/__/__/__/mesh/models/config/src/packed_index_list.c.obj
 .debug_abbrev  0x0000000000000000       0xad CMakeFiles/51_light_control_client.dir/__/__/__/mesh/models/config/src/packed_index_list.c.obj
 .debug_loc     0x0000000000000000       0xcb CMakeFiles/51_light_control_client.dir/__/__/__/mesh/models/config/src/packed_index_list.c.obj
 .debug_aranges
                0x0000000000000000       0x28 CMakeFiles/51_light_control_client.dir/__/__/__/mesh/models/config/src/packed_index_list.c.obj
 .debug_ranges  0x0000000000000000       0x18 CMakeFiles/51_light_control_client.dir/__/__/__/mesh/models/config/src/packed_index_list.c.obj
 .debug_line    0x0000000000000000      0x10b CMakeFiles/51_light_control_client.dir/__/__/__/mesh/models/config/src/packed_index_list.c.obj
 .debug_str     0x0000000000000000      0x26b CMakeFiles/51_light_control_client.dir/__/__/__/mesh/models/config/src/packed_index_list.c.obj
 .comment       0x0000000000000000       0x80 CMakeFiles/51_light_control_client.dir/__/__/__/mesh/models/config/src/packed_index_list.c.obj
 .debug_frame   0x0000000000000000       0x40 CMakeFiles/51_light_control_client.dir/__/__/__/mesh/models/config/src/packed_index_list.c.obj
 .ARM.attributes
                0x0000000000000000       0x31 CMakeFiles/51_light_control_client.dir/__/__/__/mesh/models/config/src/packed_index_list.c.obj
 .text          0x0000000000000000        0x0 CMakeFiles/51_light_control_client.dir/__/__/__/mesh/src/access/access.c.obj
 .data          0x0000000000000000        0x0 CMakeFiles/51_light_control_client.dir/__/__/__/mesh/src/access/access.c.obj
 .bss           0x0000000000000000        0x0 CMakeFiles/51_light_control_client.dir/__/__/__/mesh/src/access/access.c.obj
 .text.access_clear
                0x0000000000000000       0x10 CMakeFiles/51_light_control_client.dir/__/__/__/mesh/src/access/access.c.obj
 .text.access_model_reply
                0x0000000000000000       0x20 CMakeFiles/51_light_control_client.dir/__/__/__/mesh/src/access/access.c.obj
 .text.access_model_publish_period_set
                0x0000000000000000       0xa4 CMakeFiles/51_light_control_client.dir/__/__/__/mesh/src/access/access.c.obj
 .text.access_model_publish_period_get
                0x0000000000000000       0x54 CMakeFiles/51_light_control_client.dir/__/__/__/mesh/src/access/access.c.obj
 .text.access_model_subscription_list_alloc
                0x0000000000000000       0x70 CMakeFiles/51_light_control_client.dir/__/__/__/mesh/src/access/access.c.obj
 .text.access_model_subscription_lists_share
                0x0000000000000000       0x7c CMakeFiles/51_light_control_client.dir/__/__/__/mesh/src/access/access.c.obj
 .text.access_model_subscription_add
                0x0000000000000000       0x70 CMakeFiles/51_light_control_client.dir/__/__/__/mesh/src/access/access.c.obj
 .text.access_model_subscription_remove
                0x0000000000000000       0x70 CMakeFiles/51_light_control_client.dir/__/__/__/mesh/src/access/access.c.obj
 .text.access_model_subscriptions_get
                0x0000000000000000       0xb4 CMakeFiles/51_light_control_client.dir/__/__/__/mesh/src/access/access.c.obj
 .text.access_model_application_unbind
                0x0000000000000000       0x64 CMakeFiles/51_light_control_client.dir/__/__/__/mesh/src/access/access.c.obj
 .text.access_model_applications_get
                0x0000000000000000       0x60 CMakeFiles/51_light_control_client.dir/__/__/__/mesh/src/access/access.c.obj
 .text.access_model_publish_application_get
                0x0000000000000000       0x38 CMakeFiles/51_light_control_client.dir/__/__/__/mesh/src/access/access.c.obj
 .text.access_default_ttl_set
                0x0000000000000000       0x10 CMakeFiles/51_light_control_client.dir/__/__/__/mesh/src/access/access.c.obj
 .text.access_default_ttl_get
                0x0000000000000000        0xc CMakeFiles/51_light_control_client.dir/__/__/__/mesh/src/access/access.c.obj
 .text.access_model_publish_ttl_set
                0x0000000000000000       0x54 CMakeFiles/51_light_control_client.dir/__/__/__/mesh/src/access/access.c.obj
 .text.access_element_location_set
                0x0000000000000000       0x40 CMakeFiles/51_light_control_client.dir/__/__/__/mesh/src/access/access.c.obj
 .text.access_element_location_get
                0x0000000000000000       0x28 CMakeFiles/51_light_control_client.dir/__/__/__/mesh/src/access/access.c.obj
 .text.access_element_sig_model_count_get
                0x0000000000000000       0x28 CMakeFiles/51_light_control_client.dir/__/__/__/mesh/src/access/access.c.obj
 .text.access_element_vendor_model_count_get
                0x0000000000000000       0x28 CMakeFiles/51_light_control_client.dir/__/__/__/mesh/src/access/access.c.obj
 .text.access_model_id_get
                0x0000000000000000       0x48 CMakeFiles/51_light_control_client.dir/__/__/__/mesh/src/access/access.c.obj
 .text.access_handle_get
                0x0000000000000000       0x50 CMakeFiles/51_light_control_client.dir/__/__/__/mesh/src/access/access.c.obj
 .text.access_element_models_get
                0x0000000000000000       0x7c CMakeFiles/51_light_control_client.dir/__/__/__/mesh/src/access/access.c.obj
 .text          0x0000000000000000        0x0 CMakeFiles/51_light_control_client.dir/__/__/__/mesh/src/access/access_reliable.c.obj
 .data          0x0000000000000000        0x0 CMakeFiles/51_light_control_client.dir/__/__/__/mesh/src/access/access_reliable.c.obj
 .bss           0x0000000000000000        0x0 CMakeFiles/51_light_control_client.dir/__/__/__/mesh/src/access/access_reliable.c.obj
 .text.access_reliable_cancel_all
                0x0000000000000000       0x34 CMakeFiles/51_light_control_client.dir/__/__/__/mesh/src/access/access_reliable.c.obj
 .text.access_model_reliable_cancel
                0x0000000000000000       0x50 CMakeFiles/51_light_control_client.dir/__/__/__/mesh/src/access/access_reliable.c.obj
 .text          0x0000000000000000        0x0 CMakeFiles/51_light_control_client.dir/__/__/__/mesh/src/access/access_publish.c.obj
 .data          0x0000000000000000        0x0 CMakeFiles/51_light_control_client.dir/__/__/__/mesh/src/access/access_publish.c.obj
 .bss           0x0000000000000000        0x0 CMakeFiles/51_light_control_client.dir/__/__/__/mesh/src/access/access_publish.c.obj
 .text.add_to_publication_list
                0x0000000000000000       0xb0 CMakeFiles/51_light_control_client.dir/__/__/__/mesh/src/access/access_publish.c.obj
 .text.schedule_publication_timer
                0x0000000000000000      0x308 CMakeFiles/51_light_control_client.dir/__/__/__/mesh/src/access/access_publish.c.obj
 .text.publish_timer_tick
                0x0000000000000000       0xe0 CMakeFiles/51_light_control_client.dir/__/__/__/mesh/src/access/access_publish.c.obj
 .text.access_publish_init
                0x0000000000000000       0x38 CMakeFiles/51_light_control_client.dir/__/__/__/mesh/src/access/access_publish.c.obj
 .text.access_publish_period_set
                0x0000000000000000       0xe4 CMakeFiles/51_light_control_client.dir/__/__/__/mesh/src/access/access_publish.c.obj
 .text.access_publish_period_get
                0x0000000000000000       0x34 CMakeFiles/51_light_control_client.dir/__/__/__/mesh/src/access/access_publish.c.obj
 .bss.m_publish_timer
                0x0000000000000000       0x18 CMakeFiles/51_light_control_client.dir/__/__/__/mesh/src/access/access_publish.c.obj
 .bss.m_publish_timer_counter
                0x0000000000000000        0x4 CMakeFiles/51_light_control_client.dir/__/__/__/mesh/src/access/access_publish.c.obj
 .bss.m_publish_timer_running
                0x0000000000000000        0x1 CMakeFiles/51_light_control_client.dir/__/__/__/mesh/src/access/access_publish.c.obj
 .bss.m_timer_resolution
                0x0000000000000000        0x1 CMakeFiles/51_light_control_client.dir/__/__/__/mesh/src/access/access_publish.c.obj
 .bss.mp_publication_list
                0x0000000000000000        0x4 CMakeFiles/51_light_control_client.dir/__/__/__/mesh/src/access/access_publish.c.obj
 .debug_info    0x0000000000000000     0x1131 CMakeFiles/51_light_control_client.dir/__/__/__/mesh/src/access/access_publish.c.obj
 .debug_abbrev  0x0000000000000000      0x3ef CMakeFiles/51_light_control_client.dir/__/__/__/mesh/src/access/access_publish.c.obj
 .debug_loc     0x0000000000000000      0x8f2 CMakeFiles/51_light_control_client.dir/__/__/__/mesh/src/access/access_publish.c.obj
 .debug_aranges
                0x0000000000000000       0x48 CMakeFiles/51_light_control_client.dir/__/__/__/mesh/src/access/access_publish.c.obj
 .debug_ranges  0x0000000000000000      0x268 CMakeFiles/51_light_control_client.dir/__/__/__/mesh/src/access/access_publish.c.obj
 .debug_line    0x0000000000000000      0x474 CMakeFiles/51_light_control_client.dir/__/__/__/mesh/src/access/access_publish.c.obj
 .debug_str     0x0000000000000000      0xbc9 CMakeFiles/51_light_control_client.dir/__/__/__/mesh/src/access/access_publish.c.obj
 .comment       0x0000000000000000       0x80 CMakeFiles/51_light_control_client.dir/__/__/__/mesh/src/access/access_publish.c.obj
 .debug_frame   0x0000000000000000       0xc0 CMakeFiles/51_light_control_client.dir/__/__/__/mesh/src/access/access_publish.c.obj
 .ARM.attributes
                0x0000000000000000       0x31 CMakeFiles/51_light_control_client.dir/__/__/__/mesh/src/access/access_publish.c.obj
 .text          0x0000000000000000        0x0 CMakeFiles/51_light_control_client.dir/__/__/__/mesh/src/access/device_state_manager.c.obj
 .data          0x0000000000000000        0x0 CMakeFiles/51_light_control_client.dir/__/__/__/mesh/src/access/device_state_manager.c.obj
 .bss           0x0000000000000000        0x0 CMakeFiles/51_light_control_client.dir/__/__/__/mesh/src/access/device_state_manager.c.obj
 .text.add_address_virtual
                0x0000000000000000       0x90 CMakeFiles/51_light_control_client.dir/__/__/__/mesh/src/access/device_state_manager.c.obj
 .text.dsm_has_unflashed_data
                0x0000000000000000       0x5c CMakeFiles/51_light_control_client.dir/__/__/__/mesh/src/access/device_state_manager.c.obj
 .text.dsm_clear
                0x0000000000000000       0x6c CMakeFiles/51_light_control_client.dir/__/__/__/mesh/src/access/device_state_manager.c.obj
 .text.dsm_address_publish_virtual_add
                0x0000000000000000        0xa CMakeFiles/51_light_control_client.dir/__/__/__/mesh/src/access/device_state_manager.c.obj
 .text.dsm_address_subscription_add
                0x0000000000000000        0xa CMakeFiles/51_light_control_client.dir/__/__/__/mesh/src/access/device_state_manager.c.obj
 .text.dsm_address_subscription_virtual_add
                0x0000000000000000        0xa CMakeFiles/51_light_control_client.dir/__/__/__/mesh/src/access/device_state_manager.c.obj
 .text.dsm_address_subscription_count_get
                0x0000000000000000       0x88 CMakeFiles/51_light_control_client.dir/__/__/__/mesh/src/access/device_state_manager.c.obj
 .text.dsm_address_subscription_remove
                0x0000000000000000       0xa8 CMakeFiles/51_light_control_client.dir/__/__/__/mesh/src/access/device_state_manager.c.obj
 .text.dsm_address_get_all
                0x0000000000000000       0x80 CMakeFiles/51_light_control_client.dir/__/__/__/mesh/src/access/device_state_manager.c.obj
 .text.dsm_net_key_index_to_subnet_handle
                0x0000000000000000       0x28 CMakeFiles/51_light_control_client.dir/__/__/__/mesh/src/access/device_state_manager.c.obj
 .text.dsm_subnet_handle_get
                0x0000000000000000       0x14 CMakeFiles/51_light_control_client.dir/__/__/__/mesh/src/access/device_state_manager.c.obj
 .text.dsm_subnet_handle_to_netkey_index
                0x0000000000000000       0x30 CMakeFiles/51_light_control_client.dir/__/__/__/mesh/src/access/device_state_manager.c.obj
 .text.dsm_app_key_index_to_appkey_handle
                0x0000000000000000       0x20 CMakeFiles/51_light_control_client.dir/__/__/__/mesh/src/access/device_state_manager.c.obj
 .text.dsm_appkey_handle_to_appkey_index
                0x0000000000000000       0x30 CMakeFiles/51_light_control_client.dir/__/__/__/mesh/src/access/device_state_manager.c.obj
 .text.dsm_subnet_update
                0x0000000000000000       0x3c CMakeFiles/51_light_control_client.dir/__/__/__/mesh/src/access/device_state_manager.c.obj
 .text.dsm_subnet_get_all
                0x0000000000000000       0x40 CMakeFiles/51_light_control_client.dir/__/__/__/mesh/src/access/device_state_manager.c.obj
 .text.dsm_devkey_handle_get
                0x0000000000000000       0x3a CMakeFiles/51_light_control_client.dir/__/__/__/mesh/src/access/device_state_manager.c.obj
 .text.dsm_appkey_update
                0x0000000000000000       0x44 CMakeFiles/51_light_control_client.dir/__/__/__/mesh/src/access/device_state_manager.c.obj
 .text.dsm_appkey_delete
                0x0000000000000000       0x30 CMakeFiles/51_light_control_client.dir/__/__/__/mesh/src/access/device_state_manager.c.obj
 .text.dsm_subnet_delete
                0x0000000000000000       0xa0 CMakeFiles/51_light_control_client.dir/__/__/__/mesh/src/access/device_state_manager.c.obj
 .text.dsm_appkey_get_all
                0x0000000000000000       0x60 CMakeFiles/51_light_control_client.dir/__/__/__/mesh/src/access/device_state_manager.c.obj
 .text.dsm_beacon_secmat_get
                0x0000000000000000       0x30 CMakeFiles/51_light_control_client.dir/__/__/__/mesh/src/access/device_state_manager.c.obj
 .text.dsm_proxy_identity_get
                0x0000000000000000        0x4 CMakeFiles/51_light_control_client.dir/__/__/__/mesh/src/access/device_state_manager.c.obj
 .text          0x0000000000000000        0x0 CMakeFiles/51_light_control_client.dir/__/__/nrf_mesh_sdk.c.obj
 .data          0x0000000000000000        0x0 CMakeFiles/51_light_control_client.dir/__/__/nrf_mesh_sdk.c.obj
 .bss           0x0000000000000000        0x0 CMakeFiles/51_light_control_client.dir/__/__/nrf_mesh_sdk.c.obj
 .text          0x0000000000000000        0x0 CMakeFiles/51_light_control_client.dir/__/__/hal/src/simple_hal.c.obj
 .data          0x0000000000000000        0x0 CMakeFiles/51_light_control_client.dir/__/__/hal/src/simple_hal.c.obj
 .bss           0x0000000000000000        0x0 CMakeFiles/51_light_control_client.dir/__/__/hal/src/simple_hal.c.obj
 .text.hal_led_mask_set
                0x0000000000000000       0x20 CMakeFiles/51_light_control_client.dir/__/__/hal/src/simple_hal.c.obj
 .text          0x0000000000000000        0x0 CMakeFiles/51_light_control_client.dir/__/__/models/simple_on_off/src/simple_on_off_client.c.obj
 .data          0x0000000000000000        0x0 CMakeFiles/51_light_control_client.dir/__/__/models/simple_on_off/src/simple_on_off_client.c.obj
 .bss           0x0000000000000000        0x0 CMakeFiles/51_light_control_client.dir/__/__/models/simple_on_off/src/simple_on_off_client.c.obj
 .text.simple_on_off_client_get
                0x0000000000000000       0x5c CMakeFiles/51_light_control_client.dir/__/__/models/simple_on_off/src/simple_on_off_client.c.obj
 .data          0x0000000000000000        0x0 CMakeFiles/51_light_control_client.dir/__/__/__/toolchain/gcc/gcc_startup_nrf51.S.obj
 .bss           0x0000000000000000        0x0 CMakeFiles/51_light_control_client.dir/__/__/__/toolchain/gcc/gcc_startup_nrf51.S.obj
 .text          0x0000000000000000        0x0 CMakeFiles/51_light_control_client.dir/__/__/__/toolchain/system_nrf51.c.obj
 .data          0x0000000000000000        0x0 CMakeFiles/51_light_control_client.dir/__/__/__/toolchain/system_nrf51.c.obj
 .bss           0x0000000000000000        0x0 CMakeFiles/51_light_control_client.dir/__/__/__/toolchain/system_nrf51.c.obj
 .text.SystemCoreClockUpdate
                0x0000000000000000       0x10 CMakeFiles/51_light_control_client.dir/__/__/__/toolchain/system_nrf51.c.obj
 .text          0x0000000000000000        0x0 ../../../mesh/lib_51_MBTLE_PB_ADV_ER.a(nrf_mesh_prov.c.obj)
 .data          0x0000000000000000        0x0 ../../../mesh/lib_51_MBTLE_PB_ADV_ER.a(nrf_mesh_prov.c.obj)
 .bss           0x0000000000000000        0x0 ../../../mesh/lib_51_MBTLE_PB_ADV_ER.a(nrf_mesh_prov.c.obj)
 .text.nrf_mesh_prov_listen
                0x0000000000000000       0x28 ../../../mesh/lib_51_MBTLE_PB_ADV_ER.a(nrf_mesh_prov.c.obj)
 .text.nrf_mesh_prov_shared_secret_provide
                0x0000000000000000       0x1c ../../../mesh/lib_51_MBTLE_PB_ADV_ER.a(nrf_mesh_prov.c.obj)
 .text.nrf_mesh_prov_pubkey_provide
                0x0000000000000000       0x1c ../../../mesh/lib_51_MBTLE_PB_ADV_ER.a(nrf_mesh_prov.c.obj)
 .text          0x0000000000000000        0x0 ../../../mesh/lib_51_MBTLE_PB_ADV_ER.a(prov_bearer_adv.c.obj)
 .data          0x0000000000000000        0x0 ../../../mesh/lib_51_MBTLE_PB_ADV_ER.a(prov_bearer_adv.c.obj)
 .bss           0x0000000000000000        0x0 ../../../mesh/lib_51_MBTLE_PB_ADV_ER.a(prov_bearer_adv.c.obj)
 .text          0x0000000000000000        0x0 ../../../mesh/lib_51_MBTLE_PB_ADV_ER.a(prov_utils.c.obj)
 .data          0x0000000000000000        0x0 ../../../mesh/lib_51_MBTLE_PB_ADV_ER.a(prov_utils.c.obj)
 .bss           0x0000000000000000        0x0 ../../../mesh/lib_51_MBTLE_PB_ADV_ER.a(prov_utils.c.obj)
 .text.prov_utils_opt_set
                0x0000000000000000       0x28 ../../../mesh/lib_51_MBTLE_PB_ADV_ER.a(prov_utils.c.obj)
 .text.prov_utils_opt_get
                0x0000000000000000       0x1c ../../../mesh/lib_51_MBTLE_PB_ADV_ER.a(prov_utils.c.obj)
 .text          0x0000000000000000        0x0 ../../../mesh/lib_51_MBTLE_PB_ADV_ER.a(prov_beacon.c.obj)
 .data          0x0000000000000000        0x0 ../../../mesh/lib_51_MBTLE_PB_ADV_ER.a(prov_beacon.c.obj)
 .bss           0x0000000000000000        0x0 ../../../mesh/lib_51_MBTLE_PB_ADV_ER.a(prov_beacon.c.obj)
 .text.prov_beacon_unprov_report
                0x0000000000000000        0xc ../../../mesh/lib_51_MBTLE_PB_ADV_ER.a(prov_beacon.c.obj)
 .text          0x0000000000000000        0x0 ../../../mesh/lib_51_MBTLE_PB_ADV_ER.a(prov_provisioner.c.obj)
 .data          0x0000000000000000        0x0 ../../../mesh/lib_51_MBTLE_PB_ADV_ER.a(prov_provisioner.c.obj)
 .bss           0x0000000000000000        0x0 ../../../mesh/lib_51_MBTLE_PB_ADV_ER.a(prov_provisioner.c.obj)
 .text.prov_provisioner_shared_secret
                0x0000000000000000       0x30 ../../../mesh/lib_51_MBTLE_PB_ADV_ER.a(prov_provisioner.c.obj)
 .text.prov_provisioner_oob_pubkey
                0x0000000000000000       0x40 ../../../mesh/lib_51_MBTLE_PB_ADV_ER.a(prov_provisioner.c.obj)
 .text          0x0000000000000000        0x0 ../../../mesh/lib_51_MBTLE_PB_ADV_ER.a(provisioning.c.obj)
 .data          0x0000000000000000        0x0 ../../../mesh/lib_51_MBTLE_PB_ADV_ER.a(provisioning.c.obj)
 .bss           0x0000000000000000        0x0 ../../../mesh/lib_51_MBTLE_PB_ADV_ER.a(provisioning.c.obj)
 .text.prov_listen_start
                0x0000000000000000       0x14 ../../../mesh/lib_51_MBTLE_PB_ADV_ER.a(provisioning.c.obj)
 .text.prov_listen_stop
                0x0000000000000000        0xe ../../../mesh/lib_51_MBTLE_PB_ADV_ER.a(provisioning.c.obj)
 .text.prov_tx_capabilities
                0x0000000000000000       0x1c ../../../mesh/lib_51_MBTLE_PB_ADV_ER.a(provisioning.c.obj)
 .text.prov_tx_input_complete
                0x0000000000000000       0x14 ../../../mesh/lib_51_MBTLE_PB_ADV_ER.a(provisioning.c.obj)
 .text.prov_tx_complete
                0x0000000000000000       0x14 ../../../mesh/lib_51_MBTLE_PB_ADV_ER.a(provisioning.c.obj)
 .text.prov_tx_failed
                0x0000000000000000       0x18 ../../../mesh/lib_51_MBTLE_PB_ADV_ER.a(provisioning.c.obj)
 .text.prov_tx  0x0000000000000000        0x8 ../../../mesh/lib_51_MBTLE_PB_ADV_ER.a(provisioning.c.obj)
 .text          0x0000000000000000        0x0 ../../../mesh/lib_51_MBTLE_CORE.a(nrf_mesh_weak.c.obj)
 .data          0x0000000000000000        0x0 ../../../mesh/lib_51_MBTLE_CORE.a(nrf_mesh_weak.c.obj)
 .bss           0x0000000000000000        0x0 ../../../mesh/lib_51_MBTLE_CORE.a(nrf_mesh_weak.c.obj)
 .text._weak_handler_ptr
                0x0000000000000000        0x4 ../../../mesh/lib_51_MBTLE_CORE.a(nrf_mesh_weak.c.obj)
 .text          0x0000000000000000        0x0 ../../../mesh/lib_51_MBTLE_CORE.a(bearer_adv.c.obj)
 .data          0x0000000000000000        0x0 ../../../mesh/lib_51_MBTLE_CORE.a(bearer_adv.c.obj)
 .bss           0x0000000000000000        0x0 ../../../mesh/lib_51_MBTLE_CORE.a(bearer_adv.c.obj)
 .text.bearer_adv_opt_get
                0x0000000000000000       0xd8 ../../../mesh/lib_51_MBTLE_CORE.a(bearer_adv.c.obj)
 .rodata.bearer_adv_opt_get
                0x0000000000000000       0x1c ../../../mesh/lib_51_MBTLE_CORE.a(bearer_adv.c.obj)
 .text.bearer_adv_available
                0x0000000000000000       0x10 ../../../mesh/lib_51_MBTLE_CORE.a(bearer_adv.c.obj)
 .text.bearer_adv_tx_raw
                0x0000000000000000       0x30 ../../../mesh/lib_51_MBTLE_CORE.a(bearer_adv.c.obj)
 .text.bearer_adv_opt_set
                0x0000000000000000      0x124 ../../../mesh/lib_51_MBTLE_CORE.a(bearer_adv.c.obj)
 .rodata.bearer_adv_opt_set
                0x0000000000000000       0x28 ../../../mesh/lib_51_MBTLE_CORE.a(bearer_adv.c.obj)
 .text.bearer_adv_scan_stop
                0x0000000000000000       0x28 ../../../mesh/lib_51_MBTLE_CORE.a(bearer_adv.c.obj)
 .text.bearer_adv_addr_set
                0x0000000000000000       0x3c ../../../mesh/lib_51_MBTLE_CORE.a(bearer_adv.c.obj)
 .rodata.bearer_adv_opt_get.str1.4
                0x0000000000000000       0x15 ../../../mesh/lib_51_MBTLE_CORE.a(bearer_adv.c.obj)
 .text          0x0000000000000000        0x0 ../../../mesh/lib_51_MBTLE_CORE.a(fifo.c.obj)
 .data          0x0000000000000000        0x0 ../../../mesh/lib_51_MBTLE_CORE.a(fifo.c.obj)
 .bss           0x0000000000000000        0x0 ../../../mesh/lib_51_MBTLE_CORE.a(fifo.c.obj)
 .text.fifo_flush
                0x0000000000000000        0x6 ../../../mesh/lib_51_MBTLE_CORE.a(fifo.c.obj)
 .text.fifo_is_full
                0x0000000000000000       0x14 ../../../mesh/lib_51_MBTLE_CORE.a(fifo.c.obj)
 .text          0x0000000000000000        0x0 ../../../mesh/lib_51_MBTLE_CORE.a(packet_mgr.c.obj)
 .data          0x0000000000000000        0x0 ../../../mesh/lib_51_MBTLE_CORE.a(packet_mgr.c.obj)
 .bss           0x0000000000000000        0x0 ../../../mesh/lib_51_MBTLE_CORE.a(packet_mgr.c.obj)
 .text.packet_mgr_get_free_space
                0x0000000000000000       0x1c ../../../mesh/lib_51_MBTLE_CORE.a(packet_mgr.c.obj)
 .text.packet_mgr_refcount_get
                0x0000000000000000        0x6 ../../../mesh/lib_51_MBTLE_CORE.a(packet_mgr.c.obj)
 .text.packet_mgr_size_get
                0x0000000000000000        0x6 ../../../mesh/lib_51_MBTLE_CORE.a(packet_mgr.c.obj)
 .text          0x0000000000000000        0x0 ../../../mesh/lib_51_MBTLE_CORE.a(radio.c.obj)
 .data          0x0000000000000000        0x0 ../../../mesh/lib_51_MBTLE_CORE.a(radio.c.obj)
 .bss           0x0000000000000000        0x0 ../../../mesh/lib_51_MBTLE_CORE.a(radio.c.obj)
 .text.radio_mode_set
                0x0000000000000000       0x14 ../../../mesh/lib_51_MBTLE_CORE.a(radio.c.obj)
 .text.radio_access_addr_set
                0x0000000000000000        0xc ../../../mesh/lib_51_MBTLE_CORE.a(radio.c.obj)
 .text.radio_tx_power_set
                0x0000000000000000        0xc ../../../mesh/lib_51_MBTLE_CORE.a(radio.c.obj)
 .text.radio_mode_get
                0x0000000000000000        0xc ../../../mesh/lib_51_MBTLE_CORE.a(radio.c.obj)
 .text.radio_access_addr_get
                0x0000000000000000        0xc ../../../mesh/lib_51_MBTLE_CORE.a(radio.c.obj)
 .text.radio_tx_power_get
                0x0000000000000000        0xc ../../../mesh/lib_51_MBTLE_CORE.a(radio.c.obj)
 .text.radio_resume
                0x0000000000000000       0x40 ../../../mesh/lib_51_MBTLE_CORE.a(radio.c.obj)
 .text          0x0000000000000000        0x0 ../../../mesh/lib_51_MBTLE_CORE.a(timer.c.obj)
 .data          0x0000000000000000        0x0 ../../../mesh/lib_51_MBTLE_CORE.a(timer.c.obj)
 .bss           0x0000000000000000        0x0 ../../../mesh/lib_51_MBTLE_CORE.a(timer.c.obj)
 .text.timer_order_cb_ppi
                0x0000000000000000       0xd0 ../../../mesh/lib_51_MBTLE_CORE.a(timer.c.obj)
 .text.timer_order_ppi
                0x0000000000000000       0x90 ../../../mesh/lib_51_MBTLE_CORE.a(timer.c.obj)
 .text          0x0000000000000000        0x0 ../../../mesh/lib_51_MBTLE_CORE.a(timer_scheduler.c.obj)
 .data          0x0000000000000000        0x0 ../../../mesh/lib_51_MBTLE_CORE.a(timer_scheduler.c.obj)
 .bss           0x0000000000000000        0x0 ../../../mesh/lib_51_MBTLE_CORE.a(timer_scheduler.c.obj)
 .text          0x0000000000000000        0x0 ../../../mesh/lib_51_MBTLE_CORE.a(beacon.c.obj)
 .data          0x0000000000000000        0x0 ../../../mesh/lib_51_MBTLE_CORE.a(beacon.c.obj)
 .bss           0x0000000000000000        0x0 ../../../mesh/lib_51_MBTLE_CORE.a(beacon.c.obj)
 .text          0x0000000000000000        0x0 ../../../mesh/lib_51_MBTLE_CORE.a(bearer.c.obj)
 .data          0x0000000000000000        0x0 ../../../mesh/lib_51_MBTLE_CORE.a(bearer.c.obj)
 .bss           0x0000000000000000        0x0 ../../../mesh/lib_51_MBTLE_CORE.a(bearer.c.obj)
 .text.gap_addr_filter_set
                0x0000000000000000       0x40 ../../../mesh/lib_51_MBTLE_CORE.a(bearer.c.obj)
 .text.bearer_adtype_filtering_set
                0x0000000000000000        0xc ../../../mesh/lib_51_MBTLE_CORE.a(bearer.c.obj)
 .text.bearer_adtype_add
                0x0000000000000000       0x1c ../../../mesh/lib_51_MBTLE_CORE.a(bearer.c.obj)
 .text.bearer_adtype_remove
                0x0000000000000000       0x1c ../../../mesh/lib_51_MBTLE_CORE.a(bearer.c.obj)
 .text.bearer_filter_gap_addr_whitelist_set
                0x0000000000000000        0xa ../../../mesh/lib_51_MBTLE_CORE.a(bearer.c.obj)
 .text.bearer_filter_gap_addr_blacklist_set
                0x0000000000000000        0xa ../../../mesh/lib_51_MBTLE_CORE.a(bearer.c.obj)
 .text.bearer_filter_gap_addr_range_set
                0x0000000000000000       0x36 ../../../mesh/lib_51_MBTLE_CORE.a(bearer.c.obj)
 .text.bearer_filter_gap_addr_clear
                0x0000000000000000       0x28 ../../../mesh/lib_51_MBTLE_CORE.a(bearer.c.obj)
 .text.bearer_disable
                0x0000000000000000       0x14 ../../../mesh/lib_51_MBTLE_CORE.a(bearer.c.obj)
 .text.bearer_stats_get
                0x0000000000000000       0x2c ../../../mesh/lib_51_MBTLE_CORE.a(bearer.c.obj)
 .text          0x0000000000000000        0x0 ../../../mesh/lib_51_MBTLE_CORE.a(bearer_event.c.obj)
 .data          0x0000000000000000        0x0 ../../../mesh/lib_51_MBTLE_CORE.a(bearer_event.c.obj)
 .bss           0x0000000000000000        0x0 ../../../mesh/lib_51_MBTLE_CORE.a(bearer_event.c.obj)
 .text.bearer_event_timer_sch_post
                0x0000000000000000       0x3c ../../../mesh/lib_51_MBTLE_CORE.a(bearer_event.c.obj)
 .text.bearer_event_in_progress
                0x0000000000000000       0x18 ../../../mesh/lib_51_MBTLE_CORE.a(bearer_event.c.obj)
 .text          0x0000000000000000        0x0 ../../../mesh/lib_51_MBTLE_CORE.a(nrf_mesh_configure.c.obj)
 .data          0x0000000000000000        0x0 ../../../mesh/lib_51_MBTLE_CORE.a(nrf_mesh_configure.c.obj)
 .bss           0x0000000000000000        0x0 ../../../mesh/lib_51_MBTLE_CORE.a(nrf_mesh_configure.c.obj)
 .text.nrf_mesh_configure_device_uuid_set
                0x0000000000000000       0x14 ../../../mesh/lib_51_MBTLE_CORE.a(nrf_mesh_configure.c.obj)
 .text          0x0000000000000000        0x0 ../../../mesh/lib_51_MBTLE_CORE.a(enc.c.obj)
 .data          0x0000000000000000        0x0 ../../../mesh/lib_51_MBTLE_CORE.a(enc.c.obj)
 .bss           0x0000000000000000        0x0 ../../../mesh/lib_51_MBTLE_CORE.a(enc.c.obj)
 .text.enc_key_generate
                0x0000000000000000        0xa ../../../mesh/lib_51_MBTLE_CORE.a(enc.c.obj)
 .text          0x0000000000000000        0x0 ../../../mesh/lib_51_MBTLE_CORE.a(event.c.obj)
 .data          0x0000000000000000        0x0 ../../../mesh/lib_51_MBTLE_CORE.a(event.c.obj)
 .bss           0x0000000000000000        0x0 ../../../mesh/lib_51_MBTLE_CORE.a(event.c.obj)
 .text.event_handler_remove
                0x0000000000000000       0x7c ../../../mesh/lib_51_MBTLE_CORE.a(event.c.obj)
 .text          0x0000000000000000        0x0 ../../../mesh/lib_51_MBTLE_CORE.a(log.c.obj)
 .data          0x0000000000000000        0x0 ../../../mesh/lib_51_MBTLE_CORE.a(log.c.obj)
 .bss           0x0000000000000000        0x0 ../../../mesh/lib_51_MBTLE_CORE.a(log.c.obj)
 .text.log_callback_logview
                0x0000000000000000       0x38 ../../../mesh/lib_51_MBTLE_CORE.a(log.c.obj)
 .text.log_set_callback
                0x0000000000000000        0xc ../../../mesh/lib_51_MBTLE_CORE.a(log.c.obj)
 .rodata.log_callback_logview.str1.4
                0x0000000000000000       0x12 ../../../mesh/lib_51_MBTLE_CORE.a(log.c.obj)
 .text          0x0000000000000000        0x0 ../../../mesh/lib_51_MBTLE_CORE.a(net_beacon.c.obj)
 .data          0x0000000000000000        0x0 ../../../mesh/lib_51_MBTLE_CORE.a(net_beacon.c.obj)
 .bss           0x0000000000000000        0x0 ../../../mesh/lib_51_MBTLE_CORE.a(net_beacon.c.obj)
 .text.net_beacon_state_set
                0x0000000000000000       0x40 ../../../mesh/lib_51_MBTLE_CORE.a(net_beacon.c.obj)
 .text.net_beacon_state_get
                0x0000000000000000        0xc ../../../mesh/lib_51_MBTLE_CORE.a(net_beacon.c.obj)
 .text          0x0000000000000000        0x0 ../../../mesh/lib_51_MBTLE_CORE.a(net_state.c.obj)
 .data          0x0000000000000000        0x0 ../../../mesh/lib_51_MBTLE_CORE.a(net_state.c.obj)
 .bss           0x0000000000000000        0x0 ../../../mesh/lib_51_MBTLE_CORE.a(net_state.c.obj)
 .text.net_state_reset
                0x0000000000000000       0x3c ../../../mesh/lib_51_MBTLE_CORE.a(net_state.c.obj)
 .text.net_state_iv_update_test_mode_set
                0x0000000000000000        0xc ../../../mesh/lib_51_MBTLE_CORE.a(net_state.c.obj)
 .data.mem_listener.7451
                0x0000000000000000       0x10 ../../../mesh/lib_51_MBTLE_CORE.a(net_state.c.obj)
 .text          0x0000000000000000        0x0 ../../../mesh/lib_51_MBTLE_CORE.a(nrf_mesh.c.obj)
 .data          0x0000000000000000        0x0 ../../../mesh/lib_51_MBTLE_CORE.a(nrf_mesh.c.obj)
 .bss           0x0000000000000000        0x0 ../../../mesh/lib_51_MBTLE_CORE.a(nrf_mesh.c.obj)
 .text.nrf_mesh_disable
                0x0000000000000000       0x28 ../../../mesh/lib_51_MBTLE_CORE.a(nrf_mesh.c.obj)
 .text.nrf_mesh_adv_send
                0x0000000000000000       0xbc ../../../mesh/lib_51_MBTLE_CORE.a(nrf_mesh.c.obj)
 .text.nrf_mesh_evt_handler_remove
                0x0000000000000000        0x8 ../../../mesh/lib_51_MBTLE_CORE.a(nrf_mesh.c.obj)
 .text.nrf_mesh_rx_cb_set
                0x0000000000000000        0xc ../../../mesh/lib_51_MBTLE_CORE.a(nrf_mesh.c.obj)
 .text.nrf_mesh_rx_cb_clear
                0x0000000000000000        0xc ../../../mesh/lib_51_MBTLE_CORE.a(nrf_mesh.c.obj)
 .text          0x0000000000000000        0x0 ../../../mesh/lib_51_MBTLE_CORE.a(nrf_mesh_keygen.c.obj)
 .data          0x0000000000000000        0x0 ../../../mesh/lib_51_MBTLE_CORE.a(nrf_mesh_keygen.c.obj)
 .bss           0x0000000000000000        0x0 ../../../mesh/lib_51_MBTLE_CORE.a(nrf_mesh_keygen.c.obj)
 .text.nrf_mesh_keygen_identitykey
                0x0000000000000000       0x50 ../../../mesh/lib_51_MBTLE_CORE.a(nrf_mesh_keygen.c.obj)
 .text          0x0000000000000000        0x0 ../../../mesh/lib_51_MBTLE_CORE.a(nrf_mesh_utils.c.obj)
 .data          0x0000000000000000        0x0 ../../../mesh/lib_51_MBTLE_CORE.a(nrf_mesh_utils.c.obj)
 .bss           0x0000000000000000        0x0 ../../../mesh/lib_51_MBTLE_CORE.a(nrf_mesh_utils.c.obj)
 .text.nrf_mesh_rand_get
                0x0000000000000000       0x14 ../../../mesh/lib_51_MBTLE_CORE.a(nrf_mesh_utils.c.obj)
 .text          0x0000000000000000        0x0 ../../../mesh/lib_51_MBTLE_CORE.a(radio_config.c.obj)
 .data          0x0000000000000000        0x0 ../../../mesh/lib_51_MBTLE_CORE.a(radio_config.c.obj)
 .bss           0x0000000000000000        0x0 ../../../mesh/lib_51_MBTLE_CORE.a(radio_config.c.obj)
 .text.radio_config_access_addr_set
                0x0000000000000000       0x78 ../../../mesh/lib_51_MBTLE_CORE.a(radio_config.c.obj)
 .text.radio_config_access_addr_get
                0x0000000000000000       0x7c ../../../mesh/lib_51_MBTLE_CORE.a(radio_config.c.obj)
 .text          0x0000000000000000        0x0 ../../../mesh/lib_51_MBTLE_CORE.a(rand.c.obj)
 .data          0x0000000000000000        0x0 ../../../mesh/lib_51_MBTLE_CORE.a(rand.c.obj)
 .bss           0x0000000000000000        0x0 ../../../mesh/lib_51_MBTLE_CORE.a(rand.c.obj)
 .text          0x0000000000000000        0x0 ../../../mesh/lib_51_MBTLE_CORE.a(ticker.c.obj)
 .data          0x0000000000000000        0x0 ../../../mesh/lib_51_MBTLE_CORE.a(ticker.c.obj)
 .bss           0x0000000000000000        0x0 ../../../mesh/lib_51_MBTLE_CORE.a(ticker.c.obj)
 .text.ticker_get
                0x0000000000000000        0xc ../../../mesh/lib_51_MBTLE_CORE.a(ticker.c.obj)
 .text          0x0000000000000000        0x0 ../../../mesh/lib_51_MBTLE_CORE.a(transport.c.obj)
 .data          0x0000000000000000        0x0 ../../../mesh/lib_51_MBTLE_CORE.a(transport.c.obj)
 .bss           0x0000000000000000        0x0 ../../../mesh/lib_51_MBTLE_CORE.a(transport.c.obj)
 .text.transport_opt_set
                0x0000000000000000       0xdc ../../../mesh/lib_51_MBTLE_CORE.a(transport.c.obj)
 .rodata.transport_opt_set
                0x0000000000000000       0x1c ../../../mesh/lib_51_MBTLE_CORE.a(transport.c.obj)
 .text.transport_opt_get
                0x0000000000000000       0x80 ../../../mesh/lib_51_MBTLE_CORE.a(transport.c.obj)
 .rodata.transport_opt_get
                0x0000000000000000       0x1c ../../../mesh/lib_51_MBTLE_CORE.a(transport.c.obj)
 .text          0x0000000000000000        0x0 ../../../mesh/lib_51_MBTLE_CORE.a(internal_event.c.obj)
 .data          0x0000000000000000        0x0 ../../../mesh/lib_51_MBTLE_CORE.a(internal_event.c.obj)
 .bss           0x0000000000000000        0x0 ../../../mesh/lib_51_MBTLE_CORE.a(internal_event.c.obj)
 .text.internal_event_init
                0x0000000000000000       0x44 ../../../mesh/lib_51_MBTLE_CORE.a(internal_event.c.obj)
 .text.internal_event_pop
                0x0000000000000000       0x20 ../../../mesh/lib_51_MBTLE_CORE.a(internal_event.c.obj)
 .bss.m_internal_event_fifo_buffer
                0x0000000000000000      0x100 ../../../mesh/lib_51_MBTLE_CORE.a(internal_event.c.obj)
 .text          0x0000000000000000        0x0 ../../../mesh/lib_51_MBTLE_CORE.a(flash_manager.c.obj)
 .data          0x0000000000000000        0x0 ../../../mesh/lib_51_MBTLE_CORE.a(flash_manager.c.obj)
 .bss           0x0000000000000000        0x0 ../../../mesh/lib_51_MBTLE_CORE.a(flash_manager.c.obj)
 .text.flash_manager_entry_count_get
                0x0000000000000000       0xc4 ../../../mesh/lib_51_MBTLE_CORE.a(flash_manager.c.obj)
 .text.flash_manager_entry_release
                0x0000000000000000       0x58 ../../../mesh/lib_51_MBTLE_CORE.a(flash_manager.c.obj)
 .text          0x0000000000000000        0x0 ../../../mesh/lib_51_MBTLE_CORE.a(flash_manager_defrag.c.obj)
 .data          0x0000000000000000        0x0 ../../../mesh/lib_51_MBTLE_CORE.a(flash_manager_defrag.c.obj)
 .bss           0x0000000000000000        0x0 ../../../mesh/lib_51_MBTLE_CORE.a(flash_manager_defrag.c.obj)
 .text.flash_manager_defragging
                0x0000000000000000       0x54 ../../../mesh/lib_51_MBTLE_CORE.a(flash_manager_defrag.c.obj)
 .text          0x0000000000000000        0x0 ../../../mesh/lib_51_MBTLE_CORE.a(flash_manager_internal.c.obj)
 .data          0x0000000000000000        0x0 ../../../mesh/lib_51_MBTLE_CORE.a(flash_manager_internal.c.obj)
 .bss           0x0000000000000000        0x0 ../../../mesh/lib_51_MBTLE_CORE.a(flash_manager_internal.c.obj)
 .text          0x0000000000000000        0x0 ../../../mesh/lib_51_MBTLE_CORE.a(aes.c.obj)
 .data          0x0000000000000000        0x0 ../../../mesh/lib_51_MBTLE_CORE.a(aes.c.obj)
 .bss           0x0000000000000000        0x0 ../../../mesh/lib_51_MBTLE_CORE.a(aes.c.obj)
 .text          0x0000000000000000        0x0 ../../../mesh/lib_51_MBTLE_CORE.a(queue.c.obj)
 .data          0x0000000000000000        0x0 ../../../mesh/lib_51_MBTLE_CORE.a(queue.c.obj)
 .bss           0x0000000000000000        0x0 ../../../mesh/lib_51_MBTLE_CORE.a(queue.c.obj)
 .text.queue_peek
                0x0000000000000000       0x20 ../../../mesh/lib_51_MBTLE_CORE.a(queue.c.obj)
 .text          0x0000000000000000        0x0 ../../../mesh/lib_51_MBTLE_CORE.a(timeslot.c.obj)
 .data          0x0000000000000000        0x0 ../../../mesh/lib_51_MBTLE_CORE.a(timeslot.c.obj)
 .bss           0x0000000000000000        0x0 ../../../mesh/lib_51_MBTLE_CORE.a(timeslot.c.obj)
 .text.sd_radio_session_close
                0x0000000000000000        0x4 ../../../mesh/lib_51_MBTLE_CORE.a(timeslot.c.obj)
 .text.timeslot_stop
                0x0000000000000000       0x50 ../../../mesh/lib_51_MBTLE_CORE.a(timeslot.c.obj)
 .text.timeslot_restart
                0x0000000000000000       0x34 ../../../mesh/lib_51_MBTLE_CORE.a(timeslot.c.obj)
 .text.timeslot_start_time_get
                0x0000000000000000        0xc ../../../mesh/lib_51_MBTLE_CORE.a(timeslot.c.obj)
 .text.timeslot_is_in_ts
                0x0000000000000000        0xc ../../../mesh/lib_51_MBTLE_CORE.a(timeslot.c.obj)
 .text          0x0000000000000000        0x0 ../../../mesh/lib_51_MBTLE_CORE.a(aes_cmac.c.obj)
 .data          0x0000000000000000        0x0 ../../../mesh/lib_51_MBTLE_CORE.a(aes_cmac.c.obj)
 .bss           0x0000000000000000        0x0 ../../../mesh/lib_51_MBTLE_CORE.a(aes_cmac.c.obj)
 .text          0x0000000000000000        0x0 ../../../mesh/lib_51_MBTLE_CORE.a(ccm_soft.c.obj)
 .data          0x0000000000000000        0x0 ../../../mesh/lib_51_MBTLE_CORE.a(ccm_soft.c.obj)
 .bss           0x0000000000000000        0x0 ../../../mesh/lib_51_MBTLE_CORE.a(ccm_soft.c.obj)
 .text          0x0000000000000000        0x0 ../../../mesh/lib_51_MBTLE_CORE.a(msg_cache.c.obj)
 .data          0x0000000000000000        0x0 ../../../mesh/lib_51_MBTLE_CORE.a(msg_cache.c.obj)
 .bss           0x0000000000000000        0x0 ../../../mesh/lib_51_MBTLE_CORE.a(msg_cache.c.obj)
 .text.msg_cache_clear
                0x0000000000000000       0x20 ../../../mesh/lib_51_MBTLE_CORE.a(msg_cache.c.obj)
 .text          0x0000000000000000        0x0 ../../../mesh/lib_51_MBTLE_CORE.a(network.c.obj)
 .data          0x0000000000000000        0x0 ../../../mesh/lib_51_MBTLE_CORE.a(network.c.obj)
 .bss           0x0000000000000000        0x0 ../../../mesh/lib_51_MBTLE_CORE.a(network.c.obj)
 .text.network_opt_set
                0x0000000000000000       0x4c ../../../mesh/lib_51_MBTLE_CORE.a(network.c.obj)
 .text.network_opt_get
                0x0000000000000000       0x48 ../../../mesh/lib_51_MBTLE_CORE.a(network.c.obj)
 .text          0x0000000000000000        0x0 ../../../mesh/lib_51_MBTLE_CORE.a(packet.c.obj)
 .data          0x0000000000000000        0x0 ../../../mesh/lib_51_MBTLE_CORE.a(packet.c.obj)
 .bss           0x0000000000000000        0x0 ../../../mesh/lib_51_MBTLE_CORE.a(packet.c.obj)
 .text          0x0000000000000000        0x0 ../../../mesh/lib_51_MBTLE_CORE.a(packet_buffer.c.obj)
 .data          0x0000000000000000        0x0 ../../../mesh/lib_51_MBTLE_CORE.a(packet_buffer.c.obj)
 .bss           0x0000000000000000        0x0 ../../../mesh/lib_51_MBTLE_CORE.a(packet_buffer.c.obj)
 .text.packet_buffer_max_packet_len_get
                0x0000000000000000       0x3c ../../../mesh/lib_51_MBTLE_CORE.a(packet_buffer.c.obj)
 .text          0x0000000000000000        0x0 ../../../mesh/lib_51_MBTLE_CORE.a(replay_cache.c.obj)
 .data          0x0000000000000000        0x0 ../../../mesh/lib_51_MBTLE_CORE.a(replay_cache.c.obj)
 .bss           0x0000000000000000        0x0 ../../../mesh/lib_51_MBTLE_CORE.a(replay_cache.c.obj)
 .text.replay_cache_on_iv_update
                0x0000000000000000       0x28 ../../../mesh/lib_51_MBTLE_CORE.a(replay_cache.c.obj)
 .text          0x0000000000000000        0x0 ../../../mesh/lib_51_MBTLE_CORE.a(mesh_flash.c.obj)
 .data          0x0000000000000000        0x0 ../../../mesh/lib_51_MBTLE_CORE.a(mesh_flash.c.obj)
 .bss           0x0000000000000000        0x0 ../../../mesh/lib_51_MBTLE_CORE.a(mesh_flash.c.obj)
 .text.mesh_flash_op_available_slots
                0x0000000000000000       0x30 ../../../mesh/lib_51_MBTLE_CORE.a(mesh_flash.c.obj)
 .text.mesh_flash_in_progress
                0x0000000000000000       0x3c ../../../mesh/lib_51_MBTLE_CORE.a(mesh_flash.c.obj)
 .text.mesh_flash_set_suspended
                0x0000000000000000       0x58 ../../../mesh/lib_51_MBTLE_CORE.a(mesh_flash.c.obj)
 .bss.suspend_count.7574
                0x0000000000000000        0x4 ../../../mesh/lib_51_MBTLE_CORE.a(mesh_flash.c.obj)
 .text          0x0000000000000000        0x0 ../../../mesh/lib_51_MBTLE_CORE.a(nrf_flash.c.obj)
 .data          0x0000000000000000        0x0 ../../../mesh/lib_51_MBTLE_CORE.a(nrf_flash.c.obj)
 .bss           0x0000000000000000        0x0 ../../../mesh/lib_51_MBTLE_CORE.a(nrf_flash.c.obj)
 .text          0x0000000000000000        0x0 ../../../mesh/lib_51_MBTLE_CORE.a(msqueue.c.obj)
 .data          0x0000000000000000        0x0 ../../../mesh/lib_51_MBTLE_CORE.a(msqueue.c.obj)
 .bss           0x0000000000000000        0x0 ../../../mesh/lib_51_MBTLE_CORE.a(msqueue.c.obj)
 .text          0x0000000000000000        0x0 ../../../lib/micro-ecc/lib_51_UECC_LIB.a(uECC.c.obj)
 .data          0x0000000000000000        0x0 ../../../lib/micro-ecc/lib_51_UECC_LIB.a(uECC.c.obj)
 .bss           0x0000000000000000        0x0 ../../../lib/micro-ecc/lib_51_UECC_LIB.a(uECC.c.obj)
 .text.uECC_vli_modMult
                0x0000000000000000      0x180 ../../../lib/micro-ecc/lib_51_UECC_LIB.a(uECC.c.obj)
 .text.bits2int
                0x0000000000000000       0xa8 ../../../lib/micro-ecc/lib_51_UECC_LIB.a(uECC.c.obj)
 .text.uECC_sign_with_k
                0x0000000000000000      0x184 ../../../lib/micro-ecc/lib_51_UECC_LIB.a(uECC.c.obj)
 .text.HMAC_init
                0x0000000000000000       0x48 ../../../lib/micro-ecc/lib_51_UECC_LIB.a(uECC.c.obj)
 .text.HMAC_update
                0x0000000000000000        0x8 ../../../lib/micro-ecc/lib_51_UECC_LIB.a(uECC.c.obj)
 .text.HMAC_finish
                0x0000000000000000       0x64 ../../../lib/micro-ecc/lib_51_UECC_LIB.a(uECC.c.obj)
 .text.update_V
                0x0000000000000000       0x22 ../../../lib/micro-ecc/lib_51_UECC_LIB.a(uECC.c.obj)
 .text.uECC_set_rng
                0x0000000000000000        0xc ../../../lib/micro-ecc/lib_51_UECC_LIB.a(uECC.c.obj)
 .text.uECC_get_rng
                0x0000000000000000        0xc ../../../lib/micro-ecc/lib_51_UECC_LIB.a(uECC.c.obj)
 .text.uECC_curve_private_key_size
                0x0000000000000000       0x12 ../../../lib/micro-ecc/lib_51_UECC_LIB.a(uECC.c.obj)
 .text.uECC_curve_public_key_size
                0x0000000000000000        0x8 ../../../lib/micro-ecc/lib_51_UECC_LIB.a(uECC.c.obj)
 .text.uECC_compute_public_key
                0x0000000000000000       0x8a ../../../lib/micro-ecc/lib_51_UECC_LIB.a(uECC.c.obj)
 .text.uECC_sign
                0x0000000000000000       0x5a ../../../lib/micro-ecc/lib_51_UECC_LIB.a(uECC.c.obj)
 .text.uECC_sign_deterministic
                0x0000000000000000      0x1d6 ../../../lib/micro-ecc/lib_51_UECC_LIB.a(uECC.c.obj)
 .text.uECC_verify
                0x0000000000000000      0x310 ../../../lib/micro-ecc/lib_51_UECC_LIB.a(uECC.c.obj)
 .text          0x0000000000000000        0x0 ../../../lib/rtt/lib_51_RTT_LIB.a(SEGGER_RTT.c.obj)
 .data          0x0000000000000000        0x0 ../../../lib/rtt/lib_51_RTT_LIB.a(SEGGER_RTT.c.obj)
 .bss           0x0000000000000000        0x0 ../../../lib/rtt/lib_51_RTT_LIB.a(SEGGER_RTT.c.obj)
 .text._PostTerminalSwitch
                0x0000000000000000       0x20 ../../../lib/rtt/lib_51_RTT_LIB.a(SEGGER_RTT.c.obj)
 .text.SEGGER_RTT_WriteSkipNoLock
                0x0000000000000000      0x124 ../../../lib/rtt/lib_51_RTT_LIB.a(SEGGER_RTT.c.obj)
 .text.SEGGER_RTT_WriteString
                0x0000000000000000       0x18 ../../../lib/rtt/lib_51_RTT_LIB.a(SEGGER_RTT.c.obj)
 .text.SEGGER_RTT_WaitKey
                0x0000000000000000        0xc ../../../lib/rtt/lib_51_RTT_LIB.a(SEGGER_RTT.c.obj)
 .text.SEGGER_RTT_HasKey
                0x0000000000000000       0x24 ../../../lib/rtt/lib_51_RTT_LIB.a(SEGGER_RTT.c.obj)
 .text.SEGGER_RTT_HasData
                0x0000000000000000       0x1c ../../../lib/rtt/lib_51_RTT_LIB.a(SEGGER_RTT.c.obj)
 .text.SEGGER_RTT_AllocDownBuffer
                0x0000000000000000       0x78 ../../../lib/rtt/lib_51_RTT_LIB.a(SEGGER_RTT.c.obj)
 .text.SEGGER_RTT_AllocUpBuffer
                0x0000000000000000       0x98 ../../../lib/rtt/lib_51_RTT_LIB.a(SEGGER_RTT.c.obj)
 .text.SEGGER_RTT_ConfigUpBuffer
                0x0000000000000000       0x80 ../../../lib/rtt/lib_51_RTT_LIB.a(SEGGER_RTT.c.obj)
 .text.SEGGER_RTT_ConfigDownBuffer
                0x0000000000000000       0x64 ../../../lib/rtt/lib_51_RTT_LIB.a(SEGGER_RTT.c.obj)
 .text.SEGGER_RTT_SetNameUpBuffer
                0x0000000000000000       0x44 ../../../lib/rtt/lib_51_RTT_LIB.a(SEGGER_RTT.c.obj)
 .text.SEGGER_RTT_SetNameDownBuffer
                0x0000000000000000       0x44 ../../../lib/rtt/lib_51_RTT_LIB.a(SEGGER_RTT.c.obj)
 .text.SEGGER_RTT_Init
                0x0000000000000000       0x18 ../../../lib/rtt/lib_51_RTT_LIB.a(SEGGER_RTT.c.obj)
 .text.SEGGER_RTT_SetTerminal
                0x0000000000000000       0x8c ../../../lib/rtt/lib_51_RTT_LIB.a(SEGGER_RTT.c.obj)
 .text.SEGGER_RTT_TerminalOut
                0x0000000000000000       0xf0 ../../../lib/rtt/lib_51_RTT_LIB.a(SEGGER_RTT.c.obj)
 .bss._ActiveTerminal
                0x0000000000000000        0x1 ../../../lib/rtt/lib_51_RTT_LIB.a(SEGGER_RTT.c.obj)
 .rodata._aTerminalId
                0x0000000000000000       0x10 ../../../lib/rtt/lib_51_RTT_LIB.a(SEGGER_RTT.c.obj)
 .text          0x0000000000000000        0x0 ../../../lib/rtt/lib_51_RTT_LIB.a(SEGGER_RTT_printf.c.obj)
 .data          0x0000000000000000        0x0 ../../../lib/rtt/lib_51_RTT_LIB.a(SEGGER_RTT_printf.c.obj)
 .bss           0x0000000000000000        0x0 ../../../lib/rtt/lib_51_RTT_LIB.a(SEGGER_RTT_printf.c.obj)
 .data          0x0000000000000000        0x0 /usr/bin/../lib/gcc/arm-none-eabi/6.3.1/thumb/v6-m/libgcc.a(_udivsi3.o)
 .bss           0x0000000000000000        0x0 /usr/bin/../lib/gcc/arm-none-eabi/6.3.1/thumb/v6-m/libgcc.a(_udivsi3.o)
 .data          0x0000000000000000        0x0 /usr/bin/../lib/gcc/arm-none-eabi/6.3.1/thumb/v6-m/libgcc.a(_divsi3.o)
 .bss           0x0000000000000000        0x0 /usr/bin/../lib/gcc/arm-none-eabi/6.3.1/thumb/v6-m/libgcc.a(_divsi3.o)
 .data          0x0000000000000000        0x0 /usr/bin/../lib/gcc/arm-none-eabi/6.3.1/thumb/v6-m/libgcc.a(_dvmd_tls.o)
 .bss           0x0000000000000000        0x0 /usr/bin/../lib/gcc/arm-none-eabi/6.3.1/thumb/v6-m/libgcc.a(_dvmd_tls.o)
 .data          0x0000000000000000        0x0 /usr/bin/../lib/gcc/arm-none-eabi/6.3.1/thumb/v6-m/libgcc.a(_muldi3.o)
 .bss           0x0000000000000000        0x0 /usr/bin/../lib/gcc/arm-none-eabi/6.3.1/thumb/v6-m/libgcc.a(_muldi3.o)
 .text          0x0000000000000000        0x0 /usr/bin/../lib/gcc/arm-none-eabi/6.3.1/../../../../arm-none-eabi/lib/thumb/v6-m/libg_nano.a(lib_a-exit.o)
 .data          0x0000000000000000        0x0 /usr/bin/../lib/gcc/arm-none-eabi/6.3.1/../../../../arm-none-eabi/lib/thumb/v6-m/libg_nano.a(lib_a-exit.o)
 .bss           0x0000000000000000        0x0 /usr/bin/../lib/gcc/arm-none-eabi/6.3.1/../../../../arm-none-eabi/lib/thumb/v6-m/libg_nano.a(lib_a-exit.o)
 .text          0x0000000000000000        0x0 /usr/bin/../lib/gcc/arm-none-eabi/6.3.1/../../../../arm-none-eabi/lib/thumb/v6-m/libg_nano.a(lib_a-impure.o)
 .data          0x0000000000000000        0x0 /usr/bin/../lib/gcc/arm-none-eabi/6.3.1/../../../../arm-none-eabi/lib/thumb/v6-m/libg_nano.a(lib_a-impure.o)
 .bss           0x0000000000000000        0x0 /usr/bin/../lib/gcc/arm-none-eabi/6.3.1/../../../../arm-none-eabi/lib/thumb/v6-m/libg_nano.a(lib_a-impure.o)
 .text          0x0000000000000000        0x0 /usr/bin/../lib/gcc/arm-none-eabi/6.3.1/../../../../arm-none-eabi/lib/thumb/v6-m/libg_nano.a(lib_a-init.o)
 .data          0x0000000000000000        0x0 /usr/bin/../lib/gcc/arm-none-eabi/6.3.1/../../../../arm-none-eabi/lib/thumb/v6-m/libg_nano.a(lib_a-init.o)
 .bss           0x0000000000000000        0x0 /usr/bin/../lib/gcc/arm-none-eabi/6.3.1/../../../../arm-none-eabi/lib/thumb/v6-m/libg_nano.a(lib_a-init.o)
 .text          0x0000000000000000        0x0 /usr/bin/../lib/gcc/arm-none-eabi/6.3.1/../../../../arm-none-eabi/lib/thumb/v6-m/libg_nano.a(lib_a-malloc.o)
 .data          0x0000000000000000        0x0 /usr/bin/../lib/gcc/arm-none-eabi/6.3.1/../../../../arm-none-eabi/lib/thumb/v6-m/libg_nano.a(lib_a-malloc.o)
 .bss           0x0000000000000000        0x0 /usr/bin/../lib/gcc/arm-none-eabi/6.3.1/../../../../arm-none-eabi/lib/thumb/v6-m/libg_nano.a(lib_a-malloc.o)
 .text          0x0000000000000000        0x0 /usr/bin/../lib/gcc/arm-none-eabi/6.3.1/../../../../arm-none-eabi/lib/thumb/v6-m/libg_nano.a(lib_a-memcmp.o)
 .data          0x0000000000000000        0x0 /usr/bin/../lib/gcc/arm-none-eabi/6.3.1/../../../../arm-none-eabi/lib/thumb/v6-m/libg_nano.a(lib_a-memcmp.o)
 .bss           0x0000000000000000        0x0 /usr/bin/../lib/gcc/arm-none-eabi/6.3.1/../../../../arm-none-eabi/lib/thumb/v6-m/libg_nano.a(lib_a-memcmp.o)
 .text          0x0000000000000000        0x0 /usr/bin/../lib/gcc/arm-none-eabi/6.3.1/../../../../arm-none-eabi/lib/thumb/v6-m/libg_nano.a(lib_a-memcpy-stub.o)
 .data          0x0000000000000000        0x0 /usr/bin/../lib/gcc/arm-none-eabi/6.3.1/../../../../arm-none-eabi/lib/thumb/v6-m/libg_nano.a(lib_a-memcpy-stub.o)
 .bss           0x0000000000000000        0x0 /usr/bin/../lib/gcc/arm-none-eabi/6.3.1/../../../../arm-none-eabi/lib/thumb/v6-m/libg_nano.a(lib_a-memcpy-stub.o)
 .text          0x0000000000000000        0x0 /usr/bin/../lib/gcc/arm-none-eabi/6.3.1/../../../../arm-none-eabi/lib/thumb/v6-m/libg_nano.a(lib_a-memset.o)
 .data          0x0000000000000000        0x0 /usr/bin/../lib/gcc/arm-none-eabi/6.3.1/../../../../arm-none-eabi/lib/thumb/v6-m/libg_nano.a(lib_a-memset.o)
 .bss           0x0000000000000000        0x0 /usr/bin/../lib/gcc/arm-none-eabi/6.3.1/../../../../arm-none-eabi/lib/thumb/v6-m/libg_nano.a(lib_a-memset.o)
 .text          0x0000000000000000        0x0 /usr/bin/../lib/gcc/arm-none-eabi/6.3.1/../../../../arm-none-eabi/lib/thumb/v6-m/libg_nano.a(lib_a-nano-freer.o)
 .data          0x0000000000000000        0x0 /usr/bin/../lib/gcc/arm-none-eabi/6.3.1/../../../../arm-none-eabi/lib/thumb/v6-m/libg_nano.a(lib_a-nano-freer.o)
 .bss           0x0000000000000000        0x0 /usr/bin/../lib/gcc/arm-none-eabi/6.3.1/../../../../arm-none-eabi/lib/thumb/v6-m/libg_nano.a(lib_a-nano-freer.o)
 .text          0x0000000000000000        0x0 /usr/bin/../lib/gcc/arm-none-eabi/6.3.1/../../../../arm-none-eabi/lib/thumb/v6-m/libg_nano.a(lib_a-nano-mallocr.o)
 .data          0x0000000000000000        0x0 /usr/bin/../lib/gcc/arm-none-eabi/6.3.1/../../../../arm-none-eabi/lib/thumb/v6-m/libg_nano.a(lib_a-nano-mallocr.o)
 .bss           0x0000000000000000        0x0 /usr/bin/../lib/gcc/arm-none-eabi/6.3.1/../../../../arm-none-eabi/lib/thumb/v6-m/libg_nano.a(lib_a-nano-mallocr.o)
 .text          0x0000000000000000        0x0 /usr/bin/../lib/gcc/arm-none-eabi/6.3.1/../../../../arm-none-eabi/lib/thumb/v6-m/libg_nano.a(lib_a-sbrkr.o)
 .data          0x0000000000000000        0x0 /usr/bin/../lib/gcc/arm-none-eabi/6.3.1/../../../../arm-none-eabi/lib/thumb/v6-m/libg_nano.a(lib_a-sbrkr.o)
 .bss           0x0000000000000000        0x0 /usr/bin/../lib/gcc/arm-none-eabi/6.3.1/../../../../arm-none-eabi/lib/thumb/v6-m/libg_nano.a(lib_a-sbrkr.o)
 .text          0x0000000000000000        0x0 /usr/bin/../lib/gcc/arm-none-eabi/6.3.1/../../../../arm-none-eabi/lib/thumb/v6-m/libg_nano.a(lib_a-strcpy.o)
 .data          0x0000000000000000        0x0 /usr/bin/../lib/gcc/arm-none-eabi/6.3.1/../../../../arm-none-eabi/lib/thumb/v6-m/libg_nano.a(lib_a-strcpy.o)
 .bss           0x0000000000000000        0x0 /usr/bin/../lib/gcc/arm-none-eabi/6.3.1/../../../../arm-none-eabi/lib/thumb/v6-m/libg_nano.a(lib_a-strcpy.o)
 .data          0x0000000000000000        0x0 /usr/bin/../lib/gcc/arm-none-eabi/6.3.1/../../../../arm-none-eabi/lib/thumb/v6-m/libg_nano.a(lib_a-strlen.o)
 .bss           0x0000000000000000        0x0 /usr/bin/../lib/gcc/arm-none-eabi/6.3.1/../../../../arm-none-eabi/lib/thumb/v6-m/libg_nano.a(lib_a-strlen.o)
 .text          0x0000000000000000        0x0 /usr/bin/../lib/gcc/arm-none-eabi/6.3.1/../../../../arm-none-eabi/lib/thumb/v6-m/libg_nano.a(lib_a-strrchr.o)
 .data          0x0000000000000000        0x0 /usr/bin/../lib/gcc/arm-none-eabi/6.3.1/../../../../arm-none-eabi/lib/thumb/v6-m/libg_nano.a(lib_a-strrchr.o)
 .bss           0x0000000000000000        0x0 /usr/bin/../lib/gcc/arm-none-eabi/6.3.1/../../../../arm-none-eabi/lib/thumb/v6-m/libg_nano.a(lib_a-strrchr.o)
 .text          0x0000000000000000        0x0 /usr/bin/../lib/gcc/arm-none-eabi/6.3.1/../../../../arm-none-eabi/lib/thumb/v6-m/libg_nano.a(lib_a-mlock.o)
 .data          0x0000000000000000        0x0 /usr/bin/../lib/gcc/arm-none-eabi/6.3.1/../../../../arm-none-eabi/lib/thumb/v6-m/libg_nano.a(lib_a-mlock.o)
 .bss           0x0000000000000000        0x0 /usr/bin/../lib/gcc/arm-none-eabi/6.3.1/../../../../arm-none-eabi/lib/thumb/v6-m/libg_nano.a(lib_a-mlock.o)
 .text          0x0000000000000000        0x0 /usr/bin/../lib/gcc/arm-none-eabi/6.3.1/../../../../arm-none-eabi/lib/thumb/v6-m/libg_nano.a(lib_a-reent.o)
 .data          0x0000000000000000        0x0 /usr/bin/../lib/gcc/arm-none-eabi/6.3.1/../../../../arm-none-eabi/lib/thumb/v6-m/libg_nano.a(lib_a-reent.o)
 .bss           0x0000000000000000        0x0 /usr/bin/../lib/gcc/arm-none-eabi/6.3.1/../../../../arm-none-eabi/lib/thumb/v6-m/libg_nano.a(lib_a-reent.o)
 .text.cleanup_glue
                0x0000000000000000       0x1a /usr/bin/../lib/gcc/arm-none-eabi/6.3.1/../../../../arm-none-eabi/lib/thumb/v6-m/libg_nano.a(lib_a-reent.o)
 .text._reclaim_reent
                0x0000000000000000       0xcc /usr/bin/../lib/gcc/arm-none-eabi/6.3.1/../../../../arm-none-eabi/lib/thumb/v6-m/libg_nano.a(lib_a-reent.o)
 .text          0x0000000000000000        0x0 /usr/bin/../lib/gcc/arm-none-eabi/6.3.1/../../../../arm-none-eabi/lib/thumb/v6-m/libg_nano.a(lib_a-strchr.o)
 .data          0x0000000000000000        0x0 /usr/bin/../lib/gcc/arm-none-eabi/6.3.1/../../../../arm-none-eabi/lib/thumb/v6-m/libg_nano.a(lib_a-strchr.o)
 .bss           0x0000000000000000        0x0 /usr/bin/../lib/gcc/arm-none-eabi/6.3.1/../../../../arm-none-eabi/lib/thumb/v6-m/libg_nano.a(lib_a-strchr.o)
 .text          0x0000000000000000        0x0 /usr/bin/../lib/gcc/arm-none-eabi/6.3.1/thumb/v6-m/crtend.o
 .data          0x0000000000000000        0x0 /usr/bin/../lib/gcc/arm-none-eabi/6.3.1/thumb/v6-m/crtend.o
 .bss           0x0000000000000000        0x0 /usr/bin/../lib/gcc/arm-none-eabi/6.3.1/thumb/v6-m/crtend.o
 .text          0x0000000000000000        0x0 /usr/bin/../lib/gcc/arm-none-eabi/6.3.1/thumb/v6-m/crtn.o
 .data          0x0000000000000000        0x0 /usr/bin/../lib/gcc/arm-none-eabi/6.3.1/thumb/v6-m/crtn.o
 .bss           0x0000000000000000        0x0 /usr/bin/../lib/gcc/arm-none-eabi/6.3.1/thumb/v6-m/crtn.o
 .text          0x0000000000000000        0x0 /usr/bin/../lib/gcc/arm-none-eabi/6.3.1/../../../../arm-none-eabi/lib/thumb/v6-m/libnosys.a(sbrk.o)
 .data          0x0000000000000000        0x0 /usr/bin/../lib/gcc/arm-none-eabi/6.3.1/../../../../arm-none-eabi/lib/thumb/v6-m/libnosys.a(sbrk.o)
 .bss           0x0000000000000000        0x0 /usr/bin/../lib/gcc/arm-none-eabi/6.3.1/../../../../arm-none-eabi/lib/thumb/v6-m/libnosys.a(sbrk.o)
 .text          0x0000000000000000        0x0 /usr/bin/../lib/gcc/arm-none-eabi/6.3.1/../../../../arm-none-eabi/lib/thumb/v6-m/libnosys.a(_exit.o)
 .data          0x0000000000000000        0x0 /usr/bin/../lib/gcc/arm-none-eabi/6.3.1/../../../../arm-none-eabi/lib/thumb/v6-m/libnosys.a(_exit.o)
 .bss           0x0000000000000000        0x0 /usr/bin/../lib/gcc/arm-none-eabi/6.3.1/../../../../arm-none-eabi/lib/thumb/v6-m/libnosys.a(_exit.o)

Memory Configuration

Name             Origin             Length             Attributes
FLASH            0x000000000001b000 0x000000000001f000 xr
RAM              0x00000000200022d8 0x0000000000005a28 xrw
*default*        0x0000000000000000 0xffffffffffffffff

Linker script and memory map

LOAD /usr/bin/../lib/gcc/arm-none-eabi/6.3.1/thumb/v6-m/crti.o
LOAD /usr/bin/../lib/gcc/arm-none-eabi/6.3.1/thumb/v6-m/crtbegin.o
LOAD /usr/bin/../lib/gcc/arm-none-eabi/6.3.1/../../../../arm-none-eabi/lib/thumb/v6-m/crt0.o
LOAD CMakeFiles/51_light_control_client.dir/src/main.c.obj
LOAD CMakeFiles/51_light_control_client.dir/src/provisioner.c.obj
LOAD CMakeFiles/51_light_control_client.dir/__/__/__/mesh/models/config/src/config_client.c.obj
LOAD CMakeFiles/51_light_control_client.dir/__/__/__/mesh/models/config/src/packed_index_list.c.obj
LOAD CMakeFiles/51_light_control_client.dir/__/__/__/mesh/src/access/access.c.obj
LOAD CMakeFiles/51_light_control_client.dir/__/__/__/mesh/src/access/access_reliable.c.obj
LOAD CMakeFiles/51_light_control_client.dir/__/__/__/mesh/src/access/access_publish.c.obj
LOAD CMakeFiles/51_light_control_client.dir/__/__/__/mesh/src/access/device_state_manager.c.obj
LOAD CMakeFiles/51_light_control_client.dir/__/__/nrf_mesh_sdk.c.obj
LOAD CMakeFiles/51_light_control_client.dir/__/__/hal/src/simple_hal.c.obj
LOAD CMakeFiles/51_light_control_client.dir/__/__/models/simple_on_off/src/simple_on_off_client.c.obj
LOAD CMakeFiles/51_light_control_client.dir/__/__/__/toolchain/gcc/gcc_startup_nrf51.S.obj
LOAD CMakeFiles/51_light_control_client.dir/__/__/__/toolchain/system_nrf51.c.obj
LOAD ../../../mesh/lib_51_MBTLE_PB_ADV_ER.a
LOAD ../../../mesh/lib_51_MBTLE_CORE.a
LOAD ../../../lib/micro-ecc/lib_51_UECC_LIB.a
LOAD ../../../lib/rtt/lib_51_RTT_LIB.a
START GROUP
LOAD /usr/bin/../lib/gcc/arm-none-eabi/6.3.1/thumb/v6-m/libgcc.a
LOAD /usr/bin/../lib/gcc/arm-none-eabi/6.3.1/../../../../arm-none-eabi/lib/thumb/v6-m/libg_nano.a
LOAD /usr/bin/../lib/gcc/arm-none-eabi/6.3.1/../../../../arm-none-eabi/lib/thumb/v6-m/libc_nano.a
END GROUP
START GROUP
LOAD /usr/bin/../lib/gcc/arm-none-eabi/6.3.1/thumb/v6-m/libgcc.a
LOAD /usr/bin/../lib/gcc/arm-none-eabi/6.3.1/../../../../arm-none-eabi/lib/thumb/v6-m/libc_nano.a
END GROUP
LOAD /usr/bin/../lib/gcc/arm-none-eabi/6.3.1/thumb/v6-m/crtend.o
LOAD /usr/bin/../lib/gcc/arm-none-eabi/6.3.1/thumb/v6-m/crtn.o
START GROUP
LOAD /usr/bin/../lib/gcc/arm-none-eabi/6.3.1/thumb/v6-m/libgcc.a
LOAD /usr/bin/../lib/gcc/arm-none-eabi/6.3.1/../../../../arm-none-eabi/lib/thumb/v6-m/libc.a
LOAD /usr/bin/../lib/gcc/arm-none-eabi/6.3.1/../../../../arm-none-eabi/lib/thumb/v6-m/libnosys.a
END GROUP

.text           0x000000000001b000    0x147b8
 *(.isr_vector)
 .isr_vector    0x000000000001b000       0xc0 CMakeFiles/51_light_control_client.dir/__/__/__/toolchain/gcc/gcc_startup_nrf51.S.obj
                0x000000000001b000                __isr_vector
 *(.text*)
 .text          0x000000000001b0c0       0x60 /usr/bin/../lib/gcc/arm-none-eabi/6.3.1/thumb/v6-m/crtbegin.o
 .text          0x000000000001b120       0x78 /usr/bin/../lib/gcc/arm-none-eabi/6.3.1/../../../../arm-none-eabi/lib/thumb/v6-m/crt0.o
                0x000000000001b120                _mainCRTStartup
                0x000000000001b120                _start
 .text.client_status_cb
                0x000000000001b198       0xa0 CMakeFiles/51_light_control_client.dir/src/main.c.obj
 .text.button_event_handler
                0x000000000001b238      0x1b8 CMakeFiles/51_light_control_client.dir/src/main.c.obj
 .text.provisioner_config_successful_cb
                0x000000000001b3f0       0xc0 CMakeFiles/51_light_control_client.dir/src/main.c.obj
                0x000000000001b3f0                provisioner_config_successful_cb
 .text.provisioner_config_failed_cb
                0x000000000001b4b0       0xcc CMakeFiles/51_light_control_client.dir/src/main.c.obj
                0x000000000001b4b0                provisioner_config_failed_cb
 .text.provisioner_prov_complete_cb
                0x000000000001b57c      0x160 CMakeFiles/51_light_control_client.dir/src/main.c.obj
                0x000000000001b57c                provisioner_prov_complete_cb
 .text.main     0x000000000001b6dc      0x420 CMakeFiles/51_light_control_client.dir/src/main.c.obj
                0x000000000001b6dc                main
 .text.do_config_step
                0x000000000001bafc      0x2fc CMakeFiles/51_light_control_client.dir/src/provisioner.c.obj
 .text.mesh_evt_handler
                0x000000000001bdf8      0x414 CMakeFiles/51_light_control_client.dir/src/provisioner.c.obj
 .text.provisioner_configure
                0x000000000001c20c        0xc CMakeFiles/51_light_control_client.dir/src/provisioner.c.obj
                0x000000000001c20c                provisioner_configure
 .text.provisioner_wait_for_unprov
                0x000000000001c218        0xc CMakeFiles/51_light_control_client.dir/src/provisioner.c.obj
                0x000000000001c218                provisioner_wait_for_unprov
 .text.config_client_event_cb
                0x000000000001c224      0x220 CMakeFiles/51_light_control_client.dir/src/provisioner.c.obj
                0x000000000001c224                config_client_event_cb
 .text.provisioner_init
                0x000000000001c444       0x54 CMakeFiles/51_light_control_client.dir/src/provisioner.c.obj
                0x000000000001c444                provisioner_init
 .text.config_opcode_handler
                0x000000000001c498       0x80 CMakeFiles/51_light_control_client.dir/__/__/__/mesh/models/config/src/config_client.c.obj
 .text.client_in_wrong_state
                0x000000000001c518       0x24 CMakeFiles/51_light_control_client.dir/__/__/__/mesh/models/config/src/config_client.c.obj
 .text.send_reliable
                0x000000000001c53c       0x5c CMakeFiles/51_light_control_client.dir/__/__/__/mesh/models/config/src/config_client.c.obj
 .text.subscription_add_del_owr_send
                0x000000000001c598       0x88 CMakeFiles/51_light_control_client.dir/__/__/__/mesh/models/config/src/config_client.c.obj
 .text.app_bind_unbind_send
                0x000000000001c620       0x90 CMakeFiles/51_light_control_client.dir/__/__/__/mesh/models/config/src/config_client.c.obj
 .text.reliable_status_cb
                0x000000000001c6b0       0x38 CMakeFiles/51_light_control_client.dir/__/__/__/mesh/models/config/src/config_client.c.obj
 .text.subscription_virtual_add_del_owr_send
                0x000000000001c6e8       0x90 CMakeFiles/51_light_control_client.dir/__/__/__/mesh/models/config/src/config_client.c.obj
 .text.config_client_init
                0x000000000001c778       0x64 CMakeFiles/51_light_control_client.dir/__/__/__/mesh/models/config/src/config_client.c.obj
                0x000000000001c778                config_client_init
 .text.config_client_server_set
                0x000000000001c7dc       0xa8 CMakeFiles/51_light_control_client.dir/__/__/__/mesh/models/config/src/config_client.c.obj
                0x000000000001c7dc                config_client_server_set
 .text.config_client_server_bind
                0x000000000001c884       0x34 CMakeFiles/51_light_control_client.dir/__/__/__/mesh/models/config/src/config_client.c.obj
                0x000000000001c884                config_client_server_bind
 .text.config_client_composition_data_get
                0x000000000001c8b8       0x60 CMakeFiles/51_light_control_client.dir/__/__/__/mesh/models/config/src/config_client.c.obj
                0x000000000001c8b8                config_client_composition_data_get
 .text.config_client_appkey_add
                0x000000000001c918       0x9c CMakeFiles/51_light_control_client.dir/__/__/__/mesh/models/config/src/config_client.c.obj
                0x000000000001c918                config_client_appkey_add
 .text.config_client_model_publication_set
                0x000000000001c9b4      0x1a0 CMakeFiles/51_light_control_client.dir/__/__/__/mesh/models/config/src/config_client.c.obj
                0x000000000001c9b4                config_client_model_publication_set
 .text.config_client_model_subscription_add
                0x000000000001cb54       0x54 CMakeFiles/51_light_control_client.dir/__/__/__/mesh/models/config/src/config_client.c.obj
                0x000000000001cb54                config_client_model_subscription_add
 .text.config_client_model_app_bind
                0x000000000001cba8       0x14 CMakeFiles/51_light_control_client.dir/__/__/__/mesh/models/config/src/config_client.c.obj
                0x000000000001cba8                config_client_model_app_bind
 .text.is_valid_opcode
                0x000000000001cbbc       0x58 CMakeFiles/51_light_control_client.dir/__/__/__/mesh/src/access/access.c.obj
 .text.flash_invalidate_complete
                0x000000000001cc14       0x18 CMakeFiles/51_light_control_client.dir/__/__/__/mesh/src/access/access.c.obj
 .text.flash_manager_mem_available
                0x000000000001cc2c        0x6 CMakeFiles/51_light_control_client.dir/__/__/__/mesh/src/access/access.c.obj
 *fill*         0x000000000001cc32        0x2 
 .text.restore_acquired_subscription
                0x000000000001cc34       0x2c CMakeFiles/51_light_control_client.dir/__/__/__/mesh/src/access/access.c.obj
 .text.restore_acquired_element
                0x000000000001cc60       0x24 CMakeFiles/51_light_control_client.dir/__/__/__/mesh/src/access/access.c.obj
 .text.restore_flash_data
                0x000000000001cc84       0x64 CMakeFiles/51_light_control_client.dir/__/__/__/mesh/src/access/access.c.obj
 .text.restore_acquired_model
                0x000000000001cce8       0x9c CMakeFiles/51_light_control_client.dir/__/__/__/mesh/src/access/access.c.obj
 .text.access_flash_config_clear
                0x000000000001cd84       0x28 CMakeFiles/51_light_control_client.dir/__/__/__/mesh/src/access/access.c.obj
 .text.access_flash_config_store
                0x000000000001cdac      0x168 CMakeFiles/51_light_control_client.dir/__/__/__/mesh/src/access/access.c.obj
                0x000000000001cdac                access_flash_config_store
 .text.access_state_clear
                0x000000000001cf14       0x4c CMakeFiles/51_light_control_client.dir/__/__/__/mesh/src/access/access.c.obj
 .text.add_flash_manager
                0x000000000001cf60       0x64 CMakeFiles/51_light_control_client.dir/__/__/__/mesh/src/access/access.c.obj
 .text.flash_remove_complete
                0x000000000001cfc4       0x78 CMakeFiles/51_light_control_client.dir/__/__/__/mesh/src/access/access.c.obj
 .text.flash_write_complete
                0x000000000001d03c       0x68 CMakeFiles/51_light_control_client.dir/__/__/__/mesh/src/access/access.c.obj
 .text.packet_tx
                0x000000000001d0a4      0x278 CMakeFiles/51_light_control_client.dir/__/__/__/mesh/src/access/access.c.obj
 .text.mesh_evt_cb
                0x000000000001d31c      0x310 CMakeFiles/51_light_control_client.dir/__/__/__/mesh/src/access/access.c.obj
 .text.access_flash_config_load
                0x000000000001d62c      0x194 CMakeFiles/51_light_control_client.dir/__/__/__/mesh/src/access/access.c.obj
                0x000000000001d62c                access_flash_config_load
 .text.access_init
                0x000000000001d7c0       0x24 CMakeFiles/51_light_control_client.dir/__/__/__/mesh/src/access/access.c.obj
                0x000000000001d7c0                access_init
 .text.access_model_add
                0x000000000001d7e4      0x1e4 CMakeFiles/51_light_control_client.dir/__/__/__/mesh/src/access/access.c.obj
                0x000000000001d7e4                access_model_add
 .text.access_model_publish
                0x000000000001d9c8       0x14 CMakeFiles/51_light_control_client.dir/__/__/__/mesh/src/access/access.c.obj
                0x000000000001d9c8                access_model_publish
 .text.access_model_publish_address_set
                0x000000000001d9dc       0x4c CMakeFiles/51_light_control_client.dir/__/__/__/mesh/src/access/access.c.obj
                0x000000000001d9dc                access_model_publish_address_set
 .text.access_model_publish_address_get
                0x000000000001da28       0x38 CMakeFiles/51_light_control_client.dir/__/__/__/mesh/src/access/access.c.obj
                0x000000000001da28                access_model_publish_address_get
 .text.access_model_application_bind
                0x000000000001da60       0x64 CMakeFiles/51_light_control_client.dir/__/__/__/mesh/src/access/access.c.obj
                0x000000000001da60                access_model_application_bind
 .text.access_model_publish_application_set
                0x000000000001dac4       0x4c CMakeFiles/51_light_control_client.dir/__/__/__/mesh/src/access/access.c.obj
                0x000000000001dac4                access_model_publish_application_set
 .text.access_model_publish_ttl_get
                0x000000000001db10       0x38 CMakeFiles/51_light_control_client.dir/__/__/__/mesh/src/access/access.c.obj
                0x000000000001db10                access_model_publish_ttl_get
 .text.access_model_p_args_get
                0x000000000001db48       0x38 CMakeFiles/51_light_control_client.dir/__/__/__/mesh/src/access/access.c.obj
                0x000000000001db48                access_model_p_args_get
 .text.remove_and_reschedule
                0x000000000001db80       0xe8 CMakeFiles/51_light_control_client.dir/__/__/__/mesh/src/access/access_reliable.c.obj
 .text.reliable_timer_cb
                0x000000000001dc68      0x170 CMakeFiles/51_light_control_client.dir/__/__/__/mesh/src/access/access_reliable.c.obj
 .text.access_reliable_message_rx_cb
                0x000000000001ddd8       0x9c CMakeFiles/51_light_control_client.dir/__/__/__/mesh/src/access/access_reliable.c.obj
                0x000000000001ddd8                access_reliable_message_rx_cb
 .text.access_reliable_init
                0x000000000001de74       0x1c CMakeFiles/51_light_control_client.dir/__/__/__/mesh/src/access/access_reliable.c.obj
                0x000000000001de74                access_reliable_init
 .text.access_model_reliable_publish
                0x000000000001de90      0x1f0 CMakeFiles/51_light_control_client.dir/__/__/__/mesh/src/access/access_reliable.c.obj
                0x000000000001de90                access_model_reliable_publish
 .text.dev_key_handle_get
                0x000000000001e080       0x78 CMakeFiles/51_light_control_client.dir/__/__/__/mesh/src/access/device_state_manager.c.obj
 .text.app_key_handle_get
                0x000000000001e0f8       0x30 CMakeFiles/51_light_control_client.dir/__/__/__/mesh/src/access/device_state_manager.c.obj
 .text.get_subnet_handle
                0x000000000001e128       0x38 CMakeFiles/51_light_control_client.dir/__/__/__/mesh/src/access/device_state_manager.c.obj
 .text.get_app_handle
                0x000000000001e160       0x60 CMakeFiles/51_light_control_client.dir/__/__/__/mesh/src/access/device_state_manager.c.obj
 .text.nonvirtual_address_set
                0x000000000001e1c0       0x3c CMakeFiles/51_light_control_client.dir/__/__/__/mesh/src/access/device_state_manager.c.obj
 .text.addr_nonvirtual_to_dsm_entry
                0x000000000001e1fc        0xe CMakeFiles/51_light_control_client.dir/__/__/__/mesh/src/access/device_state_manager.c.obj
 *fill*         0x000000000001e20a        0x2 
 .text.addr_nonvirtual_to_flash_entry
                0x000000000001e20c       0x10 CMakeFiles/51_light_control_client.dir/__/__/__/mesh/src/access/device_state_manager.c.obj
 .text.flash_mem_listener_callback
                0x000000000001e21c       0x20 CMakeFiles/51_light_control_client.dir/__/__/__/mesh/src/access/device_state_manager.c.obj
 .text.devkey_set
                0x000000000001e23c       0x60 CMakeFiles/51_light_control_client.dir/__/__/__/mesh/src/access/device_state_manager.c.obj
 .text.devkey_to_dsm_entry
                0x000000000001e29c       0x14 CMakeFiles/51_light_control_client.dir/__/__/__/mesh/src/access/device_state_manager.c.obj
 .text.devkey_to_flash_entry
                0x000000000001e2b0       0x28 CMakeFiles/51_light_control_client.dir/__/__/__/mesh/src/access/device_state_manager.c.obj
 .text.appkey_to_flash_entry
                0x000000000001e2d8       0x28 CMakeFiles/51_light_control_client.dir/__/__/__/mesh/src/access/device_state_manager.c.obj
 .text.subnet_to_flash_entry
                0x000000000001e300       0x20 CMakeFiles/51_light_control_client.dir/__/__/__/mesh/src/access/device_state_manager.c.obj
 .text.addr_virtual_to_flash_entry
                0x000000000001e320       0x20 CMakeFiles/51_light_control_client.dir/__/__/__/mesh/src/access/device_state_manager.c.obj
 .text.addr_unicast_to_dsm_entry
                0x000000000001e340       0x10 CMakeFiles/51_light_control_client.dir/__/__/__/mesh/src/access/device_state_manager.c.obj
 .text.addr_unicast_to_flash_entry
                0x000000000001e350       0x14 CMakeFiles/51_light_control_client.dir/__/__/__/mesh/src/access/device_state_manager.c.obj
 .text.appkey_set
                0x000000000001e364       0x8c CMakeFiles/51_light_control_client.dir/__/__/__/mesh/src/access/device_state_manager.c.obj
 .text.appkey_to_dsm_entry
                0x000000000001e3f0       0x12 CMakeFiles/51_light_control_client.dir/__/__/__/mesh/src/access/device_state_manager.c.obj
 *fill*         0x000000000001e402        0x2 
 .text.subnet_set
                0x000000000001e404       0xb4 CMakeFiles/51_light_control_client.dir/__/__/__/mesh/src/access/device_state_manager.c.obj
 .text.subnet_to_dsm_entry
                0x000000000001e4b8       0x10 CMakeFiles/51_light_control_client.dir/__/__/__/mesh/src/access/device_state_manager.c.obj
 .text.virtual_address_set
                0x000000000001e4c8       0x68 CMakeFiles/51_light_control_client.dir/__/__/__/mesh/src/access/device_state_manager.c.obj
 .text.addr_virtual_to_dsm_entry
                0x000000000001e530       0x10 CMakeFiles/51_light_control_client.dir/__/__/__/mesh/src/access/device_state_manager.c.obj
 .text.flash_save
                0x000000000001e540       0x94 CMakeFiles/51_light_control_client.dir/__/__/__/mesh/src/access/device_state_manager.c.obj
 .text.flash_invalidate
                0x000000000001e5d4       0x80 CMakeFiles/51_light_control_client.dir/__/__/__/mesh/src/access/device_state_manager.c.obj
 .text.flash_update_all
                0x000000000001e654       0xd4 CMakeFiles/51_light_control_client.dir/__/__/__/mesh/src/access/device_state_manager.c.obj
 .text.address_delete_if_unused
                0x000000000001e728       0x94 CMakeFiles/51_light_control_client.dir/__/__/__/mesh/src/access/device_state_manager.c.obj
 .text.flash_operation_complete
                0x000000000001e7bc       0x6c CMakeFiles/51_light_control_client.dir/__/__/__/mesh/src/access/device_state_manager.c.obj
 .text.flash_invalidate_complete
                0x000000000001e828        0xc CMakeFiles/51_light_control_client.dir/__/__/__/mesh/src/access/device_state_manager.c.obj
 .text.flash_write_complete
                0x000000000001e834        0xc CMakeFiles/51_light_control_client.dir/__/__/__/mesh/src/access/device_state_manager.c.obj
 .text.reset_flash_area
                0x000000000001e840       0x28 CMakeFiles/51_light_control_client.dir/__/__/__/mesh/src/access/device_state_manager.c.obj
 .text.add_address
                0x000000000001e868      0x128 CMakeFiles/51_light_control_client.dir/__/__/__/mesh/src/access/device_state_manager.c.obj
 .text.virtual_address_uuid_index_get
                0x000000000001e990       0x3c CMakeFiles/51_light_control_client.dir/__/__/__/mesh/src/access/device_state_manager.c.obj
 .text.dsm_flash_config_load
                0x000000000001e9cc      0x140 CMakeFiles/51_light_control_client.dir/__/__/__/mesh/src/access/device_state_manager.c.obj
                0x000000000001e9cc                dsm_flash_config_load
 .text.dsm_flash_area_get
                0x000000000001eb0c       0x14 CMakeFiles/51_light_control_client.dir/__/__/__/mesh/src/access/device_state_manager.c.obj
                0x000000000001eb0c                dsm_flash_area_get
 .text.build_flash_area
                0x000000000001eb20       0x8c CMakeFiles/51_light_control_client.dir/__/__/__/mesh/src/access/device_state_manager.c.obj
 .text.dsm_init
                0x000000000001ebac       0x28 CMakeFiles/51_light_control_client.dir/__/__/__/mesh/src/access/device_state_manager.c.obj
                0x000000000001ebac                dsm_init
 .text.flash_remove_complete
                0x000000000001ebd4        0x8 CMakeFiles/51_light_control_client.dir/__/__/__/mesh/src/access/device_state_manager.c.obj
 .text.dsm_local_unicast_addresses_set
                0x000000000001ebdc       0x84 CMakeFiles/51_light_control_client.dir/__/__/__/mesh/src/access/device_state_manager.c.obj
                0x000000000001ebdc                dsm_local_unicast_addresses_set
 .text.dsm_local_unicast_addresses_get
                0x000000000001ec60       0x2c CMakeFiles/51_light_control_client.dir/__/__/__/mesh/src/access/device_state_manager.c.obj
                0x000000000001ec60                dsm_local_unicast_addresses_get
 .text.dsm_address_publish_add
                0x000000000001ec8c        0xa CMakeFiles/51_light_control_client.dir/__/__/__/mesh/src/access/device_state_manager.c.obj
                0x000000000001ec8c                dsm_address_publish_add
 *fill*         0x000000000001ec96        0x2 
 .text.dsm_address_publish_add_handle
                0x000000000001ec98       0x64 CMakeFiles/51_light_control_client.dir/__/__/__/mesh/src/access/device_state_manager.c.obj
                0x000000000001ec98                dsm_address_publish_add_handle
 .text.dsm_address_publish_remove
                0x000000000001ecfc       0x64 CMakeFiles/51_light_control_client.dir/__/__/__/mesh/src/access/device_state_manager.c.obj
                0x000000000001ecfc                dsm_address_publish_remove
 .text.dsm_address_subscription_add_handle
                0x000000000001ed60       0x64 CMakeFiles/51_light_control_client.dir/__/__/__/mesh/src/access/device_state_manager.c.obj
                0x000000000001ed60                dsm_address_subscription_add_handle
 .text.dsm_address_subscription_get
                0x000000000001edc4       0x64 CMakeFiles/51_light_control_client.dir/__/__/__/mesh/src/access/device_state_manager.c.obj
                0x000000000001edc4                dsm_address_subscription_get
 .text.dsm_address_get
                0x000000000001ee28       0x70 CMakeFiles/51_light_control_client.dir/__/__/__/mesh/src/access/device_state_manager.c.obj
                0x000000000001ee28                dsm_address_get
 .text.dsm_address_handle_get
                0x000000000001ee98       0xc0 CMakeFiles/51_light_control_client.dir/__/__/__/mesh/src/access/device_state_manager.c.obj
                0x000000000001ee98                dsm_address_handle_get
 .text.dsm_appkey_handle_get
                0x000000000001ef58       0x14 CMakeFiles/51_light_control_client.dir/__/__/__/mesh/src/access/device_state_manager.c.obj
                0x000000000001ef58                dsm_appkey_handle_get
 .text.dsm_subnet_add
                0x000000000001ef6c       0x58 CMakeFiles/51_light_control_client.dir/__/__/__/mesh/src/access/device_state_manager.c.obj
                0x000000000001ef6c                dsm_subnet_add
 .text.dsm_devkey_add
                0x000000000001efc4       0x84 CMakeFiles/51_light_control_client.dir/__/__/__/mesh/src/access/device_state_manager.c.obj
                0x000000000001efc4                dsm_devkey_add
 .text.dsm_devkey_delete
                0x000000000001f048       0x48 CMakeFiles/51_light_control_client.dir/__/__/__/mesh/src/access/device_state_manager.c.obj
                0x000000000001f048                dsm_devkey_delete
 .text.dsm_appkey_add
                0x000000000001f090       0x80 CMakeFiles/51_light_control_client.dir/__/__/__/mesh/src/access/device_state_manager.c.obj
                0x000000000001f090                dsm_appkey_add
 .text.dsm_tx_secmat_get
                0x000000000001f110      0x124 CMakeFiles/51_light_control_client.dir/__/__/__/mesh/src/access/device_state_manager.c.obj
                0x000000000001f110                dsm_tx_secmat_get
 .text.nrf_mesh_net_secmat_next_get
                0x000000000001f234       0x54 CMakeFiles/51_light_control_client.dir/__/__/__/mesh/src/access/device_state_manager.c.obj
                0x000000000001f234                nrf_mesh_net_secmat_next_get
 .text.nrf_mesh_app_secmat_next_get
                0x000000000001f288       0x8c CMakeFiles/51_light_control_client.dir/__/__/__/mesh/src/access/device_state_manager.c.obj
                0x000000000001f288                nrf_mesh_app_secmat_next_get
 .text.nrf_mesh_devkey_secmat_get
                0x000000000001f314       0x6c CMakeFiles/51_light_control_client.dir/__/__/__/mesh/src/access/device_state_manager.c.obj
                0x000000000001f314                nrf_mesh_devkey_secmat_get
 .text.nrf_mesh_beacon_info_next_get
                0x000000000001f380       0x74 CMakeFiles/51_light_control_client.dir/__/__/__/mesh/src/access/device_state_manager.c.obj
                0x000000000001f380                nrf_mesh_beacon_info_next_get
 .text.nrf_mesh_rx_address_get
                0x000000000001f3f4      0x100 CMakeFiles/51_light_control_client.dir/__/__/__/mesh/src/access/device_state_manager.c.obj
                0x000000000001f3f4                nrf_mesh_rx_address_get
 .text.sd_evt_get
                0x000000000001f4f4        0x4 CMakeFiles/51_light_control_client.dir/__/__/nrf_mesh_sdk.c.obj
 .text.sd_softdevice_enable
                0x000000000001f4f8        0x4 CMakeFiles/51_light_control_client.dir/__/__/nrf_mesh_sdk.c.obj
 .text.sd_ble_enable
                0x000000000001f4fc        0x4 CMakeFiles/51_light_control_client.dir/__/__/nrf_mesh_sdk.c.obj
 .text.sd_ble_evt_get
                0x000000000001f500        0x4 CMakeFiles/51_light_control_client.dir/__/__/nrf_mesh_sdk.c.obj
 .text.sleep_forever
                0x000000000001f504       0x24 CMakeFiles/51_light_control_client.dir/__/__/nrf_mesh_sdk.c.obj
 .text.softdevice_assert_handler
                0x000000000001f528       0x88 CMakeFiles/51_light_control_client.dir/__/__/nrf_mesh_sdk.c.obj
                0x000000000001f528                softdevice_assert_handler
 .text.app_error_handler
                0x000000000001f5b0       0x88 CMakeFiles/51_light_control_client.dir/__/__/nrf_mesh_sdk.c.obj
                0x000000000001f5b0                app_error_handler
 .text.mesh_assert_handler
                0x000000000001f638       0x80 CMakeFiles/51_light_control_client.dir/__/__/nrf_mesh_sdk.c.obj
                0x000000000001f638                mesh_assert_handler
 .text.HardFault_Handler
                0x000000000001f6b8       0x7c CMakeFiles/51_light_control_client.dir/__/__/nrf_mesh_sdk.c.obj
                0x000000000001f6b8                HardFault_Handler
 .text.SWI2_IRQHandler
                0x000000000001f734       0x44 CMakeFiles/51_light_control_client.dir/__/__/nrf_mesh_sdk.c.obj
                0x000000000001f734                SWI2_IRQHandler
 .text.mesh_softdevice_enable
                0x000000000001f778      0x154 CMakeFiles/51_light_control_client.dir/__/__/nrf_mesh_sdk.c.obj
                0x000000000001f778                mesh_softdevice_enable
 .text.mesh_softdevice_setup
                0x000000000001f8cc       0x94 CMakeFiles/51_light_control_client.dir/__/__/nrf_mesh_sdk.c.obj
                0x000000000001f8cc                mesh_softdevice_setup
 .text.hal_led_pin_get
                0x000000000001f960       0x1c CMakeFiles/51_light_control_client.dir/__/__/hal/src/simple_hal.c.obj
                0x000000000001f960                hal_led_pin_get
 .text.hal_led_pin_set
                0x000000000001f97c       0x28 CMakeFiles/51_light_control_client.dir/__/__/hal/src/simple_hal.c.obj
                0x000000000001f97c                hal_led_pin_set
 .text.hal_led_blink_ms
                0x000000000001f9a4       0x5c CMakeFiles/51_light_control_client.dir/__/__/hal/src/simple_hal.c.obj
                0x000000000001f9a4                hal_led_blink_ms
 .text.hal_leds_init
                0x000000000001fa00       0x48 CMakeFiles/51_light_control_client.dir/__/__/hal/src/simple_hal.c.obj
                0x000000000001fa00                hal_leds_init
 .text.hal_buttons_init
                0x000000000001fa48       0x74 CMakeFiles/51_light_control_client.dir/__/__/hal/src/simple_hal.c.obj
                0x000000000001fa48                hal_buttons_init
 .text.GPIOTE_IRQHandler
                0x000000000001fabc       0x8c CMakeFiles/51_light_control_client.dir/__/__/hal/src/simple_hal.c.obj
                0x000000000001fabc                GPIOTE_IRQHandler
 .text.reliable_status_cb
                0x000000000001fb48       0x4c CMakeFiles/51_light_control_client.dir/__/__/models/simple_on_off/src/simple_on_off_client.c.obj
 .text.rx_status_cb
                0x000000000001fb94       0x68 CMakeFiles/51_light_control_client.dir/__/__/models/simple_on_off/src/simple_on_off_client.c.obj
 .text.simple_on_off_client_init
                0x000000000001fbfc       0x44 CMakeFiles/51_light_control_client.dir/__/__/models/simple_on_off/src/simple_on_off_client.c.obj
                0x000000000001fbfc                simple_on_off_client_init
 .text.simple_on_off_client_set
                0x000000000001fc40       0x70 CMakeFiles/51_light_control_client.dir/__/__/models/simple_on_off/src/simple_on_off_client.c.obj
                0x000000000001fc40                simple_on_off_client_set
 .text.simple_on_off_client_set_unreliable
                0x000000000001fcb0       0x4c CMakeFiles/51_light_control_client.dir/__/__/models/simple_on_off/src/simple_on_off_client.c.obj
                0x000000000001fcb0                simple_on_off_client_set_unreliable
 .text          0x000000000001fcfc       0x4c CMakeFiles/51_light_control_client.dir/__/__/__/toolchain/gcc/gcc_startup_nrf51.S.obj
                0x000000000001fcfc                Reset_Handler
                0x000000000001fd3c                NMI_Handler
                0x000000000001fd40                SVC_Handler
                0x000000000001fd42                PendSV_Handler
                0x000000000001fd44                SysTick_Handler
                0x000000000001fd46                TIMER2_IRQHandler
                0x000000000001fd46                SPI0_TWI0_IRQHandler
                0x000000000001fd46                RTC0_IRQHandler
                0x000000000001fd46                POWER_CLOCK_IRQHandler
                0x000000000001fd46                RADIO_IRQHandler
                0x000000000001fd46                LPCOMP_IRQHandler
                0x000000000001fd46                SWI4_IRQHandler
                0x000000000001fd46                TEMP_IRQHandler
                0x000000000001fd46                UART0_IRQHandler
                0x000000000001fd46                SWI5_IRQHandler
                0x000000000001fd46                TIMER0_IRQHandler
                0x000000000001fd46                SWI0_IRQHandler
                0x000000000001fd46                TIMER1_IRQHandler
                0x000000000001fd46                ECB_IRQHandler
                0x000000000001fd46                Default_Handler
                0x000000000001fd46                ADC_IRQHandler
                0x000000000001fd46                SWI3_IRQHandler
                0x000000000001fd46                CCM_AAR_IRQHandler
                0x000000000001fd46                WDT_IRQHandler
                0x000000000001fd46                RNG_IRQHandler
                0x000000000001fd46                SPI1_TWI1_IRQHandler
                0x000000000001fd46                RTC1_IRQHandler
                0x000000000001fd46                SWI1_IRQHandler
 .text.SystemInit
                0x000000000001fd48      0x104 CMakeFiles/51_light_control_client.dir/__/__/__/toolchain/system_nrf51.c.obj
                0x000000000001fd48                SystemInit
 .text.nrf_mesh_prov_init
                0x000000000001fe4c       0x38 ../../../mesh/lib_51_MBTLE_PB_ADV_ER.a(nrf_mesh_prov.c.obj)
                0x000000000001fe4c                nrf_mesh_prov_init
 .text.nrf_mesh_prov_generate_keys
                0x000000000001fe84        0x8 ../../../mesh/lib_51_MBTLE_PB_ADV_ER.a(nrf_mesh_prov.c.obj)
                0x000000000001fe84                nrf_mesh_prov_generate_keys
 .text.nrf_mesh_prov_provision
                0x000000000001fe8c       0x6c ../../../mesh/lib_51_MBTLE_PB_ADV_ER.a(nrf_mesh_prov.c.obj)
                0x000000000001fe8c                nrf_mesh_prov_provision
 .text.nrf_mesh_prov_oob_use
                0x000000000001fef8       0x1c ../../../mesh/lib_51_MBTLE_PB_ADV_ER.a(nrf_mesh_prov.c.obj)
                0x000000000001fef8                nrf_mesh_prov_oob_use
 .text.nrf_mesh_prov_auth_data_provide
                0x000000000001ff14       0x1c ../../../mesh/lib_51_MBTLE_PB_ADV_ER.a(nrf_mesh_prov.c.obj)
                0x000000000001ff14                nrf_mesh_prov_auth_data_provide
 .text.remove_active_bearer
                0x000000000001ff30       0x88 ../../../mesh/lib_51_MBTLE_PB_ADV_ER.a(prov_bearer_adv.c.obj)
 .text.send_packet
                0x000000000001ffb8       0x64 ../../../mesh/lib_51_MBTLE_PB_ADV_ER.a(prov_bearer_adv.c.obj)
 .text.send_link_close
                0x000000000002001c       0x3e ../../../mesh/lib_51_MBTLE_PB_ADV_ER.a(prov_bearer_adv.c.obj)
 *fill*         0x000000000002005a        0x2 
 .text.prov_buffer_tx
                0x000000000002005c      0x1f0 ../../../mesh/lib_51_MBTLE_PB_ADV_ER.a(prov_bearer_adv.c.obj)
 .text.send_transaction_ack
                0x000000000002024c       0x48 ../../../mesh/lib_51_MBTLE_PB_ADV_ER.a(prov_bearer_adv.c.obj)
 .text.send_link_ack
                0x0000000000020294       0x3c ../../../mesh/lib_51_MBTLE_PB_ADV_ER.a(prov_bearer_adv.c.obj)
 .text.prov_bearer_adv_listen_stop
                0x00000000000202d0       0x40 ../../../mesh/lib_51_MBTLE_PB_ADV_ER.a(prov_bearer_adv.c.obj)
 .text.close_link
                0x0000000000020310       0x68 ../../../mesh/lib_51_MBTLE_PB_ADV_ER.a(prov_bearer_adv.c.obj)
 .text.prov_bearer_adv_link_close
                0x0000000000020378       0x78 ../../../mesh/lib_51_MBTLE_PB_ADV_ER.a(prov_bearer_adv.c.obj)
 .text.adv_queue_empty_cb
                0x00000000000203f0       0x3c ../../../mesh/lib_51_MBTLE_PB_ADV_ER.a(prov_bearer_adv.c.obj)
 .text.link_timeout_cb
                0x000000000002042c        0xc ../../../mesh/lib_51_MBTLE_PB_ADV_ER.a(prov_bearer_adv.c.obj)
 .text.tx_retry_cb
                0x0000000000020438       0xe8 ../../../mesh/lib_51_MBTLE_PB_ADV_ER.a(prov_bearer_adv.c.obj)
 .text.add_active_bearer
                0x0000000000020520       0x98 ../../../mesh/lib_51_MBTLE_PB_ADV_ER.a(prov_bearer_adv.c.obj)
 .text.prov_bearer_adv_link_open
                0x00000000000205b8      0x11c ../../../mesh/lib_51_MBTLE_PB_ADV_ER.a(prov_bearer_adv.c.obj)
 .text.prov_bearer_adv_listen
                0x00000000000206d4       0xe8 ../../../mesh/lib_51_MBTLE_PB_ADV_ER.a(prov_bearer_adv.c.obj)
 .text.calculate_3GPP_CRC
                0x00000000000207bc       0x28 ../../../mesh/lib_51_MBTLE_PB_ADV_ER.a(prov_bearer_adv.c.obj)
                0x00000000000207bc                calculate_3GPP_CRC
 .text.prov_bearer_adv_tx
                0x00000000000207e4       0xc8 ../../../mesh/lib_51_MBTLE_PB_ADV_ER.a(prov_bearer_adv.c.obj)
 .text.prov_buffer_rx
                0x00000000000208ac       0x90 ../../../mesh/lib_51_MBTLE_PB_ADV_ER.a(prov_bearer_adv.c.obj)
 .text.prov_bearer_adv_interface_get
                0x000000000002093c        0x8 ../../../mesh/lib_51_MBTLE_PB_ADV_ER.a(prov_bearer_adv.c.obj)
                0x000000000002093c                prov_bearer_adv_interface_get
 .text.prov_bearer_adv_pkt_in
                0x0000000000020944      0xa24 ../../../mesh/lib_51_MBTLE_PB_ADV_ER.a(prov_bearer_adv.c.obj)
                0x0000000000020944                prov_bearer_adv_pkt_in
 .text.oob_gen_alphanumeric
                0x0000000000021368       0x38 ../../../mesh/lib_51_MBTLE_PB_ADV_ER.a(prov_utils.c.obj)
 .text.oob_gen_numeric
                0x00000000000213a0       0x4c ../../../mesh/lib_51_MBTLE_PB_ADV_ER.a(prov_utils.c.obj)
 .text.prov_utils_use_ecdh_offloading
                0x00000000000213ec        0xc ../../../mesh/lib_51_MBTLE_PB_ADV_ER.a(prov_utils.c.obj)
                0x00000000000213ec                prov_utils_use_ecdh_offloading
 .text.prov_utils_authentication_values_derive
                0x00000000000213f8       0xd4 ../../../mesh/lib_51_MBTLE_PB_ADV_ER.a(prov_utils.c.obj)
                0x00000000000213f8                prov_utils_authentication_values_derive
 .text.prov_utils_keys_generate
                0x00000000000214cc       0x20 ../../../mesh/lib_51_MBTLE_PB_ADV_ER.a(prov_utils.c.obj)
                0x00000000000214cc                prov_utils_keys_generate
 .text.prov_utils_derive_keys
                0x00000000000214ec       0xc0 ../../../mesh/lib_51_MBTLE_PB_ADV_ER.a(prov_utils.c.obj)
                0x00000000000214ec                prov_utils_derive_keys
 .text.prov_utils_calculate_shared_secret
                0x00000000000215ac       0x44 ../../../mesh/lib_51_MBTLE_PB_ADV_ER.a(prov_utils.c.obj)
                0x00000000000215ac                prov_utils_calculate_shared_secret
 .text.prov_utils_generate_oob_data
                0x00000000000215f0       0xe0 ../../../mesh/lib_51_MBTLE_PB_ADV_ER.a(prov_utils.c.obj)
                0x00000000000215f0                prov_utils_generate_oob_data
 .text.prov_utils_confirmation_check
                0x00000000000216d0       0x6c ../../../mesh/lib_51_MBTLE_PB_ADV_ER.a(prov_utils.c.obj)
                0x00000000000216d0                prov_utils_confirmation_check
 .text.prov_beacon_unprov_build
                0x000000000002173c       0x52 ../../../mesh/lib_51_MBTLE_PB_ADV_ER.a(prov_beacon.c.obj)
                0x000000000002173c                prov_beacon_unprov_build
 *fill*         0x000000000002178e        0x2 
 .text.prov_beacon_unprov_pkt_in
                0x0000000000021790       0xd4 ../../../mesh/lib_51_MBTLE_PB_ADV_ER.a(prov_beacon.c.obj)
                0x0000000000021790                prov_beacon_unprov_pkt_in
 .text.prov_provisioner_cb_link_closed
                0x0000000000021864       0x2c ../../../mesh/lib_51_MBTLE_PB_ADV_ER.a(prov_provisioner.c.obj)
 .text.prov_provisioner_cb_link_established
                0x0000000000021890       0x4c ../../../mesh/lib_51_MBTLE_PB_ADV_ER.a(prov_provisioner.c.obj)
 .text.prov_provisioner_cb_ack_received
                0x00000000000218dc       0x58 ../../../mesh/lib_51_MBTLE_PB_ADV_ER.a(prov_provisioner.c.obj)
 .text.send_confirmation
                0x0000000000021934       0x38 ../../../mesh/lib_51_MBTLE_PB_ADV_ER.a(prov_provisioner.c.obj)
 .text.request_authentication
                0x000000000002196c       0xb4 ../../../mesh/lib_51_MBTLE_PB_ADV_ER.a(prov_provisioner.c.obj)
 .text.prov_provisioner_pkt_in
                0x0000000000021a20      0x360 ../../../mesh/lib_51_MBTLE_PB_ADV_ER.a(prov_provisioner.c.obj)
 .text.prov_provisioner_provision
                0x0000000000021d80       0x58 ../../../mesh/lib_51_MBTLE_PB_ADV_ER.a(prov_provisioner.c.obj)
                0x0000000000021d80                prov_provisioner_provision
 .text.prov_provisioner_oob_use
                0x0000000000021dd8       0xe0 ../../../mesh/lib_51_MBTLE_PB_ADV_ER.a(prov_provisioner.c.obj)
                0x0000000000021dd8                prov_provisioner_oob_use
 .text.prov_provisioner_auth_data
                0x0000000000021eb8       0x50 ../../../mesh/lib_51_MBTLE_PB_ADV_ER.a(prov_provisioner.c.obj)
                0x0000000000021eb8                prov_provisioner_auth_data
 .text.send_data
                0x0000000000021f08       0x4c ../../../mesh/lib_51_MBTLE_PB_ADV_ER.a(provisioning.c.obj)
 .text.prov_packet_length_valid
                0x0000000000021f54       0x24 ../../../mesh/lib_51_MBTLE_PB_ADV_ER.a(provisioning.c.obj)
                0x0000000000021f54                prov_packet_length_valid
 .text.prov_init
                0x0000000000021f78       0x40 ../../../mesh/lib_51_MBTLE_PB_ADV_ER.a(provisioning.c.obj)
                0x0000000000021f78                prov_init
 .text.prov_link_open
                0x0000000000021fb8       0x12 ../../../mesh/lib_51_MBTLE_PB_ADV_ER.a(provisioning.c.obj)
                0x0000000000021fb8                prov_link_open
 .text.prov_link_close
                0x0000000000021fca        0xe ../../../mesh/lib_51_MBTLE_PB_ADV_ER.a(provisioning.c.obj)
                0x0000000000021fca                prov_link_close
 .text.prov_tx_invite
                0x0000000000021fd8       0x28 ../../../mesh/lib_51_MBTLE_PB_ADV_ER.a(provisioning.c.obj)
                0x0000000000021fd8                prov_tx_invite
 .text.prov_tx_start
                0x0000000000022000       0x1e ../../../mesh/lib_51_MBTLE_PB_ADV_ER.a(provisioning.c.obj)
                0x0000000000022000                prov_tx_start
 .text.prov_tx_public_key
                0x000000000002201e       0x24 ../../../mesh/lib_51_MBTLE_PB_ADV_ER.a(provisioning.c.obj)
                0x000000000002201e                prov_tx_public_key
 .text.prov_tx_confirmation
                0x0000000000022042       0x24 ../../../mesh/lib_51_MBTLE_PB_ADV_ER.a(provisioning.c.obj)
                0x0000000000022042                prov_tx_confirmation
 .text.prov_tx_random
                0x0000000000022066       0x24 ../../../mesh/lib_51_MBTLE_PB_ADV_ER.a(provisioning.c.obj)
                0x0000000000022066                prov_tx_random
 .text.prov_tx_data
                0x000000000002208a        0xa ../../../mesh/lib_51_MBTLE_PB_ADV_ER.a(provisioning.c.obj)
                0x000000000002208a                prov_tx_data
 .text.prov_cb_link_opened
                0x0000000000022094        0xe ../../../mesh/lib_51_MBTLE_PB_ADV_ER.a(provisioning.c.obj)
                0x0000000000022094                prov_cb_link_opened
 .text.prov_cb_link_closed
                0x00000000000220a2        0xe ../../../mesh/lib_51_MBTLE_PB_ADV_ER.a(provisioning.c.obj)
                0x00000000000220a2                prov_cb_link_closed
 .text.prov_cb_pkt_in
                0x00000000000220b0       0x90 ../../../mesh/lib_51_MBTLE_PB_ADV_ER.a(provisioning.c.obj)
                0x00000000000220b0                prov_cb_pkt_in
 .text.prov_cb_ack_in
                0x0000000000022140        0xe ../../../mesh/lib_51_MBTLE_PB_ADV_ER.a(provisioning.c.obj)
                0x0000000000022140                prov_cb_ack_in
 .text._weak_handler
                0x000000000002214e        0x4 ../../../mesh/lib_51_MBTLE_CORE.a(nrf_mesh_weak.c.obj)
                0x000000000002214e                nrf_mesh_dfu_init
                0x000000000002214e                nrf_mesh_dfu_jump_to_bootloader
                0x000000000002214e                prov_provisioner_cb_link_established
                0x000000000002214e                nrf_mesh_dfu_rx
                0x000000000002214e                prov_provisionee_pkt_in
                0x000000000002214e                prov_provisioner_cb_ack_received
                0x000000000002214e                nrf_mesh_dfu_bank_info_get
                0x000000000002214e                prov_provisionee_cb_ack_received
                0x000000000002214e                nrf_mesh_dfu_request
                0x000000000002214e                nrf_mesh_dfu_bank_flash
                0x000000000002214e                _weak_handler
                0x000000000002214e                prov_provisioner_pkt_in
                0x000000000002214e                prov_provisionee_auth_data
                0x000000000002214e                prov_provisioner_init
                0x000000000002214e                nrf_mesh_dfu_relay
                0x000000000002214e                prov_provisionee_accept
                0x000000000002214e                prov_provisionee_shared_secret
                0x000000000002214e                nrf_mesh_dfu_abort
                0x000000000002214e                prov_provisionee_init
                0x000000000002214e                nrf_mesh_dfu_state_get
 *fill*         0x0000000000022152        0x2 
 .text.is_valid_gap_addr
                0x0000000000022154       0x7c ../../../mesh/lib_51_MBTLE_CORE.a(bearer_adv.c.obj)
 .text.packet_tx
                0x00000000000221d0       0xaa ../../../mesh/lib_51_MBTLE_CORE.a(bearer_adv.c.obj)
 *fill*         0x000000000002227a        0x2 
 .text.scan_order
                0x000000000002227c       0xb0 ../../../mesh/lib_51_MBTLE_CORE.a(bearer_adv.c.obj)
 .text.radio_idle_cb
                0x000000000002232c       0x18 ../../../mesh/lib_51_MBTLE_CORE.a(bearer_adv.c.obj)
 .text.scan_begin_timer_cb
                0x0000000000022344       0x44 ../../../mesh/lib_51_MBTLE_CORE.a(bearer_adv.c.obj)
 .text.radio_tx_cb
                0x0000000000022388       0x34 ../../../mesh/lib_51_MBTLE_CORE.a(bearer_adv.c.obj)
 .text.tx_event_send
                0x00000000000223bc       0x22 ../../../mesh/lib_51_MBTLE_CORE.a(bearer_adv.c.obj)
 *fill*         0x00000000000223de        0x2 
 .text.radio_rx_cb
                0x00000000000223e0       0x44 ../../../mesh/lib_51_MBTLE_CORE.a(bearer_adv.c.obj)
 .text.adv_evt_timeout
                0x0000000000022424      0x168 ../../../mesh/lib_51_MBTLE_CORE.a(bearer_adv.c.obj)
 .text.next_adv_schedule
                0x000000000002258c       0x80 ../../../mesh/lib_51_MBTLE_CORE.a(bearer_adv.c.obj)
 .text.scan_end_timer_cb
                0x000000000002260c       0x14 ../../../mesh/lib_51_MBTLE_CORE.a(bearer_adv.c.obj)
 .text.bearer_adv_advertiser_init
                0x0000000000022620      0x13c ../../../mesh/lib_51_MBTLE_CORE.a(bearer_adv.c.obj)
                0x0000000000022620                bearer_adv_advertiser_init
 .text.bearer_adv_reconfig
                0x000000000002275c       0x50 ../../../mesh/lib_51_MBTLE_CORE.a(bearer_adv.c.obj)
                0x000000000002275c                bearer_adv_reconfig
 .text.bearer_adv_tx
                0x00000000000227ac       0x58 ../../../mesh/lib_51_MBTLE_CORE.a(bearer_adv.c.obj)
                0x00000000000227ac                bearer_adv_tx
 .text.bearer_adv_adv_stop
                0x0000000000022804       0x1a ../../../mesh/lib_51_MBTLE_CORE.a(bearer_adv.c.obj)
                0x0000000000022804                bearer_adv_adv_stop
 .text.bearer_adv_adv_start
                0x000000000002281e       0x26 ../../../mesh/lib_51_MBTLE_CORE.a(bearer_adv.c.obj)
                0x000000000002281e                bearer_adv_adv_start
 .text.bearer_adv_flush_tx
                0x0000000000022844       0x56 ../../../mesh/lib_51_MBTLE_CORE.a(bearer_adv.c.obj)
                0x0000000000022844                bearer_adv_flush_tx
 .text.bearer_adv_interval_reset
                0x000000000002289a       0x30 ../../../mesh/lib_51_MBTLE_CORE.a(bearer_adv.c.obj)
                0x000000000002289a                bearer_adv_interval_reset
 *fill*         0x00000000000228ca        0x2 
 .text.bearer_adv_scan_start
                0x00000000000228cc       0x60 ../../../mesh/lib_51_MBTLE_CORE.a(bearer_adv.c.obj)
                0x00000000000228cc                bearer_adv_scan_start
 .text.bearer_adv_gap_type_set
                0x000000000002292c       0x60 ../../../mesh/lib_51_MBTLE_CORE.a(bearer_adv.c.obj)
                0x000000000002292c                bearer_adv_gap_type_set
 .text.bearer_adv_addr_get
                0x000000000002298c       0x28 ../../../mesh/lib_51_MBTLE_CORE.a(bearer_adv.c.obj)
                0x000000000002298c                bearer_adv_addr_get
 .text.bearer_adv_addr_default_set
                0x00000000000229b4       0x30 ../../../mesh/lib_51_MBTLE_CORE.a(bearer_adv.c.obj)
                0x00000000000229b4                bearer_adv_addr_default_set
 .text.bearer_adv_init
                0x00000000000229e4       0xf4 ../../../mesh/lib_51_MBTLE_CORE.a(bearer_adv.c.obj)
                0x00000000000229e4                bearer_adv_init
 .text.fifo_init
                0x0000000000022ad8       0x60 ../../../mesh/lib_51_MBTLE_CORE.a(fifo.c.obj)
                0x0000000000022ad8                fifo_init
 .text.fifo_push
                0x0000000000022b38       0x64 ../../../mesh/lib_51_MBTLE_CORE.a(fifo.c.obj)
                0x0000000000022b38                fifo_push
 .text.fifo_pop
                0x0000000000022b9c       0x62 ../../../mesh/lib_51_MBTLE_CORE.a(fifo.c.obj)
                0x0000000000022b9c                fifo_pop
 .text.fifo_peek_at
                0x0000000000022bfe       0x62 ../../../mesh/lib_51_MBTLE_CORE.a(fifo.c.obj)
                0x0000000000022bfe                fifo_peek_at
 .text.fifo_peek
                0x0000000000022c60        0xa ../../../mesh/lib_51_MBTLE_CORE.a(fifo.c.obj)
                0x0000000000022c60                fifo_peek
 .text.fifo_get_len
                0x0000000000022c6a        0x8 ../../../mesh/lib_51_MBTLE_CORE.a(fifo.c.obj)
                0x0000000000022c6a                fifo_get_len
 .text.fifo_is_empty
                0x0000000000022c72        0xe ../../../mesh/lib_51_MBTLE_CORE.a(fifo.c.obj)
                0x0000000000022c72                fifo_is_empty
 .text.packet_mgr_init
                0x0000000000022c80       0x5c ../../../mesh/lib_51_MBTLE_CORE.a(packet_mgr.c.obj)
                0x0000000000022c80                packet_mgr_init
 .text.packet_mgr_alloc
                0x0000000000022cdc      0x1f4 ../../../mesh/lib_51_MBTLE_CORE.a(packet_mgr.c.obj)
                0x0000000000022cdc                packet_mgr_alloc
 .text.packet_mgr_free
                0x0000000000022ed0       0x74 ../../../mesh/lib_51_MBTLE_CORE.a(packet_mgr.c.obj)
                0x0000000000022ed0                packet_mgr_free
 .text.radio_init
                0x0000000000022f44       0x60 ../../../mesh/lib_51_MBTLE_CORE.a(radio.c.obj)
                0x0000000000022f44                radio_init
 .text.radio_order
                0x0000000000022fa4      0x13c ../../../mesh/lib_51_MBTLE_CORE.a(radio.c.obj)
                0x0000000000022fa4                radio_order
 .text.radio_invoke
                0x00000000000230e0       0x28 ../../../mesh/lib_51_MBTLE_CORE.a(radio.c.obj)
                0x00000000000230e0                radio_invoke
 .text.radio_stop
                0x0000000000023108       0x28 ../../../mesh/lib_51_MBTLE_CORE.a(radio.c.obj)
                0x0000000000023108                radio_stop
 .text.purge_preemptable
                0x0000000000023130       0x7c ../../../mesh/lib_51_MBTLE_CORE.a(radio.c.obj)
 .text.radio_preemptable_cancel
                0x00000000000231ac       0x2c ../../../mesh/lib_51_MBTLE_CORE.a(radio.c.obj)
                0x00000000000231ac                radio_preemptable_cancel
 .text.radio_event_handler
                0x00000000000231d8      0x134 ../../../mesh/lib_51_MBTLE_CORE.a(radio.c.obj)
                0x00000000000231d8                radio_event_handler
 .text.radio_on_ts_begin
                0x000000000002330c       0x50 ../../../mesh/lib_51_MBTLE_CORE.a(radio.c.obj)
                0x000000000002330c                radio_on_ts_begin
 .text.radio_on_ts_end
                0x000000000002335c        0x8 ../../../mesh/lib_51_MBTLE_CORE.a(radio.c.obj)
                0x000000000002335c                radio_on_ts_end
 .text.timer_order_cb
                0x0000000000023364       0x9c ../../../mesh/lib_51_MBTLE_CORE.a(timer.c.obj)
                0x0000000000023364                timer_order_cb
 .text.timer_abort
                0x0000000000023400       0x8c ../../../mesh/lib_51_MBTLE_CORE.a(timer.c.obj)
                0x0000000000023400                timer_abort
 .text.timer_now
                0x000000000002348c       0x58 ../../../mesh/lib_51_MBTLE_CORE.a(timer.c.obj)
                0x000000000002348c                timer_now
 .text.timer_event_handler
                0x00000000000234e4       0xa0 ../../../mesh/lib_51_MBTLE_CORE.a(timer.c.obj)
                0x00000000000234e4                timer_event_handler
 .text.timer_on_ts_begin
                0x0000000000023584      0x138 ../../../mesh/lib_51_MBTLE_CORE.a(timer.c.obj)
                0x0000000000023584                timer_on_ts_begin
 .text.timer_on_ts_end
                0x00000000000236bc       0x48 ../../../mesh/lib_51_MBTLE_CORE.a(timer.c.obj)
                0x00000000000236bc                timer_on_ts_end
 .text.add_evt  0x0000000000023704       0x90 ../../../mesh/lib_51_MBTLE_CORE.a(timer_scheduler.c.obj)
 .text.process_add_list
                0x0000000000023794       0x50 ../../../mesh/lib_51_MBTLE_CORE.a(timer_scheduler.c.obj)
 .text.process_dirty_events
                0x00000000000237e4       0xb8 ../../../mesh/lib_51_MBTLE_CORE.a(timer_scheduler.c.obj)
 .text.flag_event_cb
                0x000000000002389c      0x138 ../../../mesh/lib_51_MBTLE_CORE.a(timer_scheduler.c.obj)
 .text.timer_cb
                0x00000000000239d4       0x10 ../../../mesh/lib_51_MBTLE_CORE.a(timer_scheduler.c.obj)
 .text.timer_sch_init
                0x00000000000239e4       0x24 ../../../mesh/lib_51_MBTLE_CORE.a(timer_scheduler.c.obj)
                0x00000000000239e4                timer_sch_init
 .text.timer_sch_schedule
                0x0000000000023a08       0x94 ../../../mesh/lib_51_MBTLE_CORE.a(timer_scheduler.c.obj)
                0x0000000000023a08                timer_sch_schedule
 .text.timer_sch_abort
                0x0000000000023a9c       0x6c ../../../mesh/lib_51_MBTLE_CORE.a(timer_scheduler.c.obj)
                0x0000000000023a9c                timer_sch_abort
 .text.timer_sch_reschedule
                0x0000000000023b08       0xb4 ../../../mesh/lib_51_MBTLE_CORE.a(timer_scheduler.c.obj)
                0x0000000000023b08                timer_sch_reschedule
 .text.beacon_init
                0x0000000000023bbc       0x44 ../../../mesh/lib_51_MBTLE_CORE.a(beacon.c.obj)
                0x0000000000023bbc                beacon_init
 .text.beacon_create
                0x0000000000023c00       0x5e ../../../mesh/lib_51_MBTLE_CORE.a(beacon.c.obj)
                0x0000000000023c00                beacon_create
 *fill*         0x0000000000023c5e        0x2 
 .text.beacon_tx
                0x0000000000023c60       0x48 ../../../mesh/lib_51_MBTLE_CORE.a(beacon.c.obj)
                0x0000000000023c60                beacon_tx
 .text.beacon_pkt_in
                0x0000000000023ca8      0x19c ../../../mesh/lib_51_MBTLE_CORE.a(beacon.c.obj)
                0x0000000000023ca8                beacon_pkt_in
 .text.bearer_rx_cb
                0x0000000000023e44      0x3a0 ../../../mesh/lib_51_MBTLE_CORE.a(bearer.c.obj)
 .text.bearer_init
                0x00000000000241e4       0x68 ../../../mesh/lib_51_MBTLE_CORE.a(bearer.c.obj)
                0x00000000000241e4                bearer_init
 .text.bearer_enable
                0x000000000002424c        0xa ../../../mesh/lib_51_MBTLE_CORE.a(bearer.c.obj)
                0x000000000002424c                bearer_enable
 *fill*         0x0000000000024256        0x2 
 .text.bearer_tx
                0x0000000000024258       0x50 ../../../mesh/lib_51_MBTLE_CORE.a(bearer.c.obj)
                0x0000000000024258                bearer_tx
 .text.bearer_rx
                0x00000000000242a8       0x3c ../../../mesh/lib_51_MBTLE_CORE.a(bearer.c.obj)
                0x00000000000242a8                bearer_rx
 .text.evt_push
                0x00000000000242e4       0x28 ../../../mesh/lib_51_MBTLE_CORE.a(bearer_event.c.obj)
 .text.QDEC_IRQHandler
                0x000000000002430c       0xb4 ../../../mesh/lib_51_MBTLE_CORE.a(bearer_event.c.obj)
                0x000000000002430c                QDEC_IRQHandler
 .text.bearer_event_init
                0x00000000000243c0       0x40 ../../../mesh/lib_51_MBTLE_CORE.a(bearer_event.c.obj)
                0x00000000000243c0                bearer_event_init
 .text.bearer_event_generic_post
                0x0000000000024400       0x38 ../../../mesh/lib_51_MBTLE_CORE.a(bearer_event.c.obj)
                0x0000000000024400                bearer_event_generic_post
 .text.bearer_event_timer_post
                0x0000000000024438       0x38 ../../../mesh/lib_51_MBTLE_CORE.a(bearer_event.c.obj)
                0x0000000000024438                bearer_event_timer_post
 .text.bearer_event_critical_section_begin
                0x0000000000024470       0x48 ../../../mesh/lib_51_MBTLE_CORE.a(bearer_event.c.obj)
                0x0000000000024470                bearer_event_critical_section_begin
 .text.bearer_event_critical_section_end
                0x00000000000244b8       0x50 ../../../mesh/lib_51_MBTLE_CORE.a(bearer_event.c.obj)
                0x00000000000244b8                bearer_event_critical_section_end
 .text.bearer_event_flag_add
                0x0000000000024508       0x58 ../../../mesh/lib_51_MBTLE_CORE.a(bearer_event.c.obj)
                0x0000000000024508                bearer_event_flag_add
 .text.bearer_event_flag_set
                0x0000000000024560       0x5c ../../../mesh/lib_51_MBTLE_CORE.a(bearer_event.c.obj)
                0x0000000000024560                bearer_event_flag_set
 .text.nrf_mesh_configure_device_uuid_reset
                0x00000000000245bc       0x28 ../../../mesh/lib_51_MBTLE_CORE.a(nrf_mesh_configure.c.obj)
                0x00000000000245bc                nrf_mesh_configure_device_uuid_reset
 .text.nrf_mesh_configure_device_uuid_get
                0x00000000000245e4        0x8 ../../../mesh/lib_51_MBTLE_CORE.a(nrf_mesh_configure.c.obj)
                0x00000000000245e4                nrf_mesh_configure_device_uuid_get
 .text.enc_aes_encrypt
                0x00000000000245ec        0x8 ../../../mesh/lib_51_MBTLE_CORE.a(enc.c.obj)
                0x00000000000245ec                enc_aes_encrypt
 .text.enc_aes_cmac
                0x00000000000245f4        0x8 ../../../mesh/lib_51_MBTLE_CORE.a(enc.c.obj)
                0x00000000000245f4                enc_aes_cmac
 .text.enc_aes_ccm_encrypt
                0x00000000000245fc        0x8 ../../../mesh/lib_51_MBTLE_CORE.a(enc.c.obj)
                0x00000000000245fc                enc_aes_ccm_encrypt
 .text.enc_aes_ccm_decrypt
                0x0000000000024604        0x8 ../../../mesh/lib_51_MBTLE_CORE.a(enc.c.obj)
                0x0000000000024604                enc_aes_ccm_decrypt
 .text.enc_nonce_generate
                0x000000000002460c       0xcc ../../../mesh/lib_51_MBTLE_CORE.a(enc.c.obj)
                0x000000000002460c                enc_nonce_generate
 .text.enc_s1   0x00000000000246d8       0x44 ../../../mesh/lib_51_MBTLE_CORE.a(enc.c.obj)
                0x00000000000246d8                enc_s1
 .text.enc_k1   0x000000000002471c       0x58 ../../../mesh/lib_51_MBTLE_CORE.a(enc.c.obj)
                0x000000000002471c                enc_k1
 .text.enc_k2   0x0000000000024774       0xfc ../../../mesh/lib_51_MBTLE_CORE.a(enc.c.obj)
                0x0000000000024774                enc_k2
 .text.enc_k3   0x0000000000024870       0x68 ../../../mesh/lib_51_MBTLE_CORE.a(enc.c.obj)
                0x0000000000024870                enc_k3
 .text.enc_k4   0x00000000000248d8       0x64 ../../../mesh/lib_51_MBTLE_CORE.a(enc.c.obj)
                0x00000000000248d8                enc_k4
 .text.event_handle
                0x000000000002493c       0x38 ../../../mesh/lib_51_MBTLE_CORE.a(event.c.obj)
                0x000000000002493c                event_handle
 .text.event_handler_add
                0x0000000000024974       0x98 ../../../mesh/lib_51_MBTLE_CORE.a(event.c.obj)
                0x0000000000024974                event_handler_add
 .text.log_callback_rtt
                0x0000000000024a0c       0x2c ../../../mesh/lib_51_MBTLE_CORE.a(log.c.obj)
                0x0000000000024a0c                log_callback_rtt
 .text.log_init
                0x0000000000024a38       0x1c ../../../mesh/lib_51_MBTLE_CORE.a(log.c.obj)
                0x0000000000024a38                log_init
 .text.log_vprintf
                0x0000000000024a54       0x20 ../../../mesh/lib_51_MBTLE_CORE.a(log.c.obj)
                0x0000000000024a54                log_vprintf
 .text.log_printf
                0x0000000000024a74       0x16 ../../../mesh/lib_51_MBTLE_CORE.a(log.c.obj)
                0x0000000000024a74                log_printf
 *fill*         0x0000000000024a8a        0x2 
 .text.network_beacon_tx_cb
                0x0000000000024a8c      0x124 ../../../mesh/lib_51_MBTLE_CORE.a(net_beacon.c.obj)
 .text.net_beacon_init
                0x0000000000024bb0       0x60 ../../../mesh/lib_51_MBTLE_CORE.a(net_beacon.c.obj)
                0x0000000000024bb0                net_beacon_init
 .text.net_beacon_pkt_in
                0x0000000000024c10       0xe8 ../../../mesh/lib_51_MBTLE_CORE.a(net_beacon.c.obj)
                0x0000000000024c10                net_beacon_pkt_in
 .text.flash_mem_available
                0x0000000000024cf8       0x20 ../../../mesh/lib_51_MBTLE_CORE.a(net_state.c.obj)
 .text.flash_store_iv_index
                0x0000000000024d18       0x34 ../../../mesh/lib_51_MBTLE_CORE.a(net_state.c.obj)
 .text.seqnum_block_allocate
                0x0000000000024d4c       0x54 ../../../mesh/lib_51_MBTLE_CORE.a(net_state.c.obj)
 .text.flash_write_complete
                0x0000000000024da0       0x84 ../../../mesh/lib_51_MBTLE_CORE.a(net_state.c.obj)
 .text.net_state_recover_from_flash
                0x0000000000024e24       0x98 ../../../mesh/lib_51_MBTLE_CORE.a(net_state.c.obj)
                0x0000000000024e24                net_state_recover_from_flash
 .text.net_state_flash_area_get
                0x0000000000024ebc       0x14 ../../../mesh/lib_51_MBTLE_CORE.a(net_state.c.obj)
                0x0000000000024ebc                net_state_flash_area_get
 .text.init_flash_storage
                0x0000000000024ed0       0x44 ../../../mesh/lib_51_MBTLE_CORE.a(net_state.c.obj)
 .text.net_state_init
                0x0000000000024f14       0x48 ../../../mesh/lib_51_MBTLE_CORE.a(net_state.c.obj)
                0x0000000000024f14                net_state_init
 .text.net_state_iv_update_start
                0x0000000000024f5c       0x70 ../../../mesh/lib_51_MBTLE_CORE.a(net_state.c.obj)
                0x0000000000024f5c                net_state_iv_update_start
 .text.iv_update_trigger_if_pending
                0x0000000000024fcc       0x98 ../../../mesh/lib_51_MBTLE_CORE.a(net_state.c.obj)
 .text.iv_update_timer_handler
                0x0000000000025064       0x8c ../../../mesh/lib_51_MBTLE_CORE.a(net_state.c.obj)
 .text.net_state_seqnum_alloc
                0x00000000000250f0       0x74 ../../../mesh/lib_51_MBTLE_CORE.a(net_state.c.obj)
                0x00000000000250f0                net_state_seqnum_alloc
 .text.net_state_iv_index_lock
                0x0000000000025164       0x5c ../../../mesh/lib_51_MBTLE_CORE.a(net_state.c.obj)
                0x0000000000025164                net_state_iv_index_lock
 .text.net_state_beacon_received
                0x00000000000251c0       0xc0 ../../../mesh/lib_51_MBTLE_CORE.a(net_state.c.obj)
                0x00000000000251c0                net_state_beacon_received
 .text.net_state_beacon_iv_index_get
                0x0000000000025280        0xc ../../../mesh/lib_51_MBTLE_CORE.a(net_state.c.obj)
                0x0000000000025280                net_state_beacon_iv_index_get
 .text.net_state_tx_iv_index_get
                0x000000000002528c       0x1c ../../../mesh/lib_51_MBTLE_CORE.a(net_state.c.obj)
                0x000000000002528c                net_state_tx_iv_index_get
 .text.net_state_rx_iv_index_get
                0x00000000000252a8       0x18 ../../../mesh/lib_51_MBTLE_CORE.a(net_state.c.obj)
                0x00000000000252a8                net_state_rx_iv_index_get
 .text.net_state_iv_update_get
                0x00000000000252c0        0xc ../../../mesh/lib_51_MBTLE_CORE.a(net_state.c.obj)
                0x00000000000252c0                net_state_iv_update_get
 .text.sd_softdevice_is_enabled
                0x00000000000252cc        0x4 ../../../mesh/lib_51_MBTLE_CORE.a(nrf_mesh.c.obj)
 .text.nrf_mesh_init
                0x00000000000252d0       0xb0 ../../../mesh/lib_51_MBTLE_CORE.a(nrf_mesh.c.obj)
                0x00000000000252d0                nrf_mesh_init
 .text.nrf_mesh_enable
                0x0000000000025380       0x4c ../../../mesh/lib_51_MBTLE_CORE.a(nrf_mesh.c.obj)
                0x0000000000025380                nrf_mesh_enable
 .text.nrf_mesh_packet_send
                0x00000000000253cc       0x54 ../../../mesh/lib_51_MBTLE_CORE.a(nrf_mesh.c.obj)
                0x00000000000253cc                nrf_mesh_packet_send
 .text.nrf_mesh_process
                0x0000000000025420      0x23c ../../../mesh/lib_51_MBTLE_CORE.a(nrf_mesh.c.obj)
                0x0000000000025420                nrf_mesh_process
 .text.nrf_mesh_on_ble_evt
                0x000000000002565c        0x4 ../../../mesh/lib_51_MBTLE_CORE.a(nrf_mesh.c.obj)
                0x000000000002565c                nrf_mesh_on_ble_evt
 .text.nrf_mesh_on_sd_evt
                0x0000000000025660        0xa ../../../mesh/lib_51_MBTLE_CORE.a(nrf_mesh.c.obj)
                0x0000000000025660                nrf_mesh_on_sd_evt
 .text.nrf_mesh_evt_handler_add
                0x000000000002566a        0x8 ../../../mesh/lib_51_MBTLE_CORE.a(nrf_mesh.c.obj)
                0x000000000002566a                nrf_mesh_evt_handler_add
 .text.nrf_mesh_keygen_aid
                0x0000000000025672       0x1a ../../../mesh/lib_51_MBTLE_CORE.a(nrf_mesh_keygen.c.obj)
                0x0000000000025672                nrf_mesh_keygen_aid
 .text.nrf_mesh_keygen_network_secmat
                0x000000000002568c       0x2a ../../../mesh/lib_51_MBTLE_CORE.a(nrf_mesh_keygen.c.obj)
                0x000000000002568c                nrf_mesh_keygen_network_secmat
 *fill*         0x00000000000256b6        0x2 
 .text.nrf_mesh_keygen_beacon_secmat
                0x00000000000256b8       0x58 ../../../mesh/lib_51_MBTLE_CORE.a(nrf_mesh_keygen.c.obj)
                0x00000000000256b8                nrf_mesh_keygen_beacon_secmat
 .text.nrf_mesh_keygen_virtual_address
                0x0000000000025710       0x54 ../../../mesh/lib_51_MBTLE_CORE.a(nrf_mesh_keygen.c.obj)
                0x0000000000025710                nrf_mesh_keygen_virtual_address
 .text.nrf_mesh_address_type_get
                0x0000000000025764       0x14 ../../../mesh/lib_51_MBTLE_CORE.a(nrf_mesh_utils.c.obj)
                0x0000000000025764                nrf_mesh_address_type_get
 .text.nrf_mesh_gap_address_type_get
                0x0000000000025778       0x48 ../../../mesh/lib_51_MBTLE_CORE.a(nrf_mesh_utils.c.obj)
                0x0000000000025778                nrf_mesh_gap_address_type_get
 .text.radio_config_reset
                0x00000000000257c0       0x48 ../../../mesh/lib_51_MBTLE_CORE.a(radio_config.c.obj)
                0x00000000000257c0                radio_config_reset
 .text.radio_config_channel_set
                0x0000000000025808       0x40 ../../../mesh/lib_51_MBTLE_CORE.a(radio_config.c.obj)
                0x0000000000025808                radio_config_channel_set
 .text.radio_config_config
                0x0000000000025848       0xd8 ../../../mesh/lib_51_MBTLE_CORE.a(radio_config.c.obj)
                0x0000000000025848                radio_config_config
 .text.sd_rand_application_bytes_available_get
                0x0000000000025920        0x4 ../../../mesh/lib_51_MBTLE_CORE.a(rand.c.obj)
 .text.sd_rand_application_vector_get
                0x0000000000025924        0x4 ../../../mesh/lib_51_MBTLE_CORE.a(rand.c.obj)
 .text.rand_prng_get
                0x0000000000025928       0x2e ../../../mesh/lib_51_MBTLE_CORE.a(rand.c.obj)
                0x0000000000025928                rand_prng_get
 *fill*         0x0000000000025956        0x2 
 .text.rand_hw_rng_get
                0x0000000000025958       0x64 ../../../mesh/lib_51_MBTLE_CORE.a(rand.c.obj)
                0x0000000000025958                rand_hw_rng_get
 .text.rand_prng_seed
                0x00000000000259bc       0x34 ../../../mesh/lib_51_MBTLE_CORE.a(rand.c.obj)
                0x00000000000259bc                rand_prng_seed
 .text.timer_cb
                0x00000000000259f0       0x10 ../../../mesh/lib_51_MBTLE_CORE.a(ticker.c.obj)
 .text.ticker_init
                0x0000000000025a00       0x38 ../../../mesh/lib_51_MBTLE_CORE.a(ticker.c.obj)
                0x0000000000025a00                ticker_init
 .text.packet_mesh_trs_seq_auth_get
                0x0000000000025a38       0x40 ../../../mesh/lib_51_MBTLE_CORE.a(transport.c.obj)
 .text.trs_sar_ack_timeout_cb
                0x0000000000025a78       0x18 ../../../mesh/lib_51_MBTLE_CORE.a(transport.c.obj)
 .text.trs_sar_tx_timeout_cb
                0x0000000000025a90        0xc ../../../mesh/lib_51_MBTLE_CORE.a(transport.c.obj)
 .text.trs_sar_session_next_timeout_get
                0x0000000000025a9c       0x6c ../../../mesh/lib_51_MBTLE_CORE.a(transport.c.obj)
 .text.m_send_sar_cancel_event
                0x0000000000025b08       0x26 ../../../mesh/lib_51_MBTLE_CORE.a(transport.c.obj)
 .text.m_send_replay_cache_full_event
                0x0000000000025b2e       0x2e ../../../mesh/lib_51_MBTLE_CORE.a(transport.c.obj)
 .text.test_transport_decrypt
                0x0000000000025b5c       0xa8 ../../../mesh/lib_51_MBTLE_CORE.a(transport.c.obj)
 .text.trs_sar_drop_session
                0x0000000000025c04      0x12c ../../../mesh/lib_51_MBTLE_CORE.a(transport.c.obj)
 .text.trs_sar_session_cb
                0x0000000000025d30       0xa8 ../../../mesh/lib_51_MBTLE_CORE.a(transport.c.obj)
 .text.trs_sar_pkt_ack
                0x0000000000025dd8      0x154 ../../../mesh/lib_51_MBTLE_CORE.a(transport.c.obj)
 .text.sar_segment_send
                0x0000000000025f2c      0x19c ../../../mesh/lib_51_MBTLE_CORE.a(transport.c.obj)
 .text.trs_sar_session_timer_order
                0x00000000000260c8       0x34 ../../../mesh/lib_51_MBTLE_CORE.a(transport.c.obj)
 .text.trs_sar_pkt_decrypt
                0x00000000000260fc      0x4c4 ../../../mesh/lib_51_MBTLE_CORE.a(transport.c.obj)
                0x00000000000260fc                trs_sar_pkt_decrypt
 .text.transport_sar_mem_funcs_reset
                0x00000000000265c0       0x2c ../../../mesh/lib_51_MBTLE_CORE.a(transport.c.obj)
                0x00000000000265c0                transport_sar_mem_funcs_reset
 .text.transport_init
                0x00000000000265ec       0xb8 ../../../mesh/lib_51_MBTLE_CORE.a(transport.c.obj)
                0x00000000000265ec                transport_init
 .text.transport_sar_mem_funcs_set
                0x00000000000266a4       0x44 ../../../mesh/lib_51_MBTLE_CORE.a(transport.c.obj)
                0x00000000000266a4                transport_sar_mem_funcs_set
 .text.transport_pkt_in
                0x00000000000266e8     0x1168 ../../../mesh/lib_51_MBTLE_CORE.a(transport.c.obj)
                0x00000000000266e8                transport_pkt_in
 .text.transport_sar_process
                0x0000000000027850      0x510 ../../../mesh/lib_51_MBTLE_CORE.a(transport.c.obj)
                0x0000000000027850                transport_sar_process
 .text.transport_tx
                0x0000000000027d60      0x234 ../../../mesh/lib_51_MBTLE_CORE.a(transport.c.obj)
                0x0000000000027d60                transport_tx
 .text.transport_seg_maxlen_get
                0x0000000000027f94       0x14 ../../../mesh/lib_51_MBTLE_CORE.a(transport.c.obj)
                0x0000000000027f94                transport_seg_maxlen_get
 .text.transport_tx_sar
                0x0000000000027fa8      0x558 ../../../mesh/lib_51_MBTLE_CORE.a(transport.c.obj)
                0x0000000000027fa8                transport_tx_sar
 .text.transport_unseg_maxlen_get
                0x0000000000028500        0x4 ../../../mesh/lib_51_MBTLE_CORE.a(transport.c.obj)
                0x0000000000028500                transport_unseg_maxlen_get
 .text.internal_event_push
                0x0000000000028504       0x34 ../../../mesh/lib_51_MBTLE_CORE.a(internal_event.c.obj)
                0x0000000000028504                internal_event_push
 .text.flash_area_is_blank
                0x0000000000028538       0x60 ../../../mesh/lib_51_MBTLE_CORE.a(flash_manager.c.obj)
 .text.free_packet_buffer
                0x0000000000028598       0x58 ../../../mesh/lib_51_MBTLE_CORE.a(flash_manager.c.obj)
 .text.reserve_action_buffer
                0x00000000000285f0       0x28 ../../../mesh/lib_51_MBTLE_CORE.a(flash_manager.c.obj)
 .text.get_last_entry
                0x0000000000028618       0x7c ../../../mesh/lib_51_MBTLE_CORE.a(flash_manager.c.obj)
 .text.process_action_queue
                0x0000000000028694      0x740 ../../../mesh/lib_51_MBTLE_CORE.a(flash_manager.c.obj)
 .text.flash_op_ended_callback
                0x0000000000028dd4       0x28 ../../../mesh/lib_51_MBTLE_CORE.a(flash_manager.c.obj)
 .text.flash_manager_init
                0x0000000000028dfc       0x6c ../../../mesh/lib_51_MBTLE_CORE.a(flash_manager.c.obj)
                0x0000000000028dfc                flash_manager_init
 .text.flash_manager_remove
                0x0000000000028e68       0x60 ../../../mesh/lib_51_MBTLE_CORE.a(flash_manager.c.obj)
                0x0000000000028e68                flash_manager_remove
 .text.flash_manager_entry_get
                0x0000000000028ec8       0x54 ../../../mesh/lib_51_MBTLE_CORE.a(flash_manager.c.obj)
                0x0000000000028ec8                flash_manager_entry_get
 .text.flash_manager_entry_next_get
                0x0000000000028f1c      0x140 ../../../mesh/lib_51_MBTLE_CORE.a(flash_manager.c.obj)
                0x0000000000028f1c                flash_manager_entry_next_get
 .text.flash_manager_entry_alloc
                0x000000000002905c       0x8c ../../../mesh/lib_51_MBTLE_CORE.a(flash_manager.c.obj)
                0x000000000002905c                flash_manager_entry_alloc
 .text.flash_manager_entry_commit
                0x00000000000290e8       0x6c ../../../mesh/lib_51_MBTLE_CORE.a(flash_manager.c.obj)
                0x00000000000290e8                flash_manager_entry_commit
 .text.flash_manager_entry_invalidate
                0x0000000000029154       0xa4 ../../../mesh/lib_51_MBTLE_CORE.a(flash_manager.c.obj)
                0x0000000000029154                flash_manager_entry_invalidate
 .text.flash_manager_add
                0x00000000000291f8      0x3b8 ../../../mesh/lib_51_MBTLE_CORE.a(flash_manager.c.obj)
                0x00000000000291f8                flash_manager_add
 .text.flash_manager_mem_listener_register
                0x00000000000295b0       0x4c ../../../mesh/lib_51_MBTLE_CORE.a(flash_manager.c.obj)
                0x00000000000295b0                flash_manager_mem_listener_register
 .text.flash_manager_is_stable
                0x00000000000295fc       0x24 ../../../mesh/lib_51_MBTLE_CORE.a(flash_manager.c.obj)
                0x00000000000295fc                flash_manager_is_stable
 .text.flash_manager_on_defrag_end
                0x0000000000029620       0x68 ../../../mesh/lib_51_MBTLE_CORE.a(flash_manager.c.obj)
                0x0000000000029620                flash_manager_on_defrag_end
 .text.flash_manager_recovery_page_get
                0x0000000000029688        0x8 ../../../mesh/lib_51_MBTLE_CORE.a(flash_manager.c.obj)
                0x0000000000029688                flash_manager_recovery_page_get
 .text.defrag_on_end
                0x0000000000029690       0x1c ../../../mesh/lib_51_MBTLE_CORE.a(flash_manager_defrag.c.obj)
 .text.execute_procedure_step
                0x00000000000296ac       0xc0 ../../../mesh/lib_51_MBTLE_CORE.a(flash_manager_defrag.c.obj)
 .text.on_flash_op_end
                0x000000000002976c       0x40 ../../../mesh/lib_51_MBTLE_CORE.a(flash_manager_defrag.c.obj)
 .text.erase_source
                0x00000000000297ac       0x30 ../../../mesh/lib_51_MBTLE_CORE.a(flash_manager_defrag.c.obj)
 .text.erase_recovery_area
                0x00000000000297dc       0x30 ../../../mesh/lib_51_MBTLE_CORE.a(flash_manager_defrag.c.obj)
 .text.post_process
                0x000000000002980c       0x6c ../../../mesh/lib_51_MBTLE_CORE.a(flash_manager_defrag.c.obj)
 .text.write_back
                0x0000000000029878       0x48 ../../../mesh/lib_51_MBTLE_CORE.a(flash_manager_defrag.c.obj)
 .text.write_defrag_start_pointer
                0x00000000000298c0       0x38 ../../../mesh/lib_51_MBTLE_CORE.a(flash_manager_defrag.c.obj)
 .text.copy_metadata
                0x00000000000298f8       0x5c ../../../mesh/lib_51_MBTLE_CORE.a(flash_manager_defrag.c.obj)
 .text.seal_storage_page
                0x0000000000029954       0x7c ../../../mesh/lib_51_MBTLE_CORE.a(flash_manager_defrag.c.obj)
 .text.check_for_invalid_entries
                0x00000000000299d0       0x50 ../../../mesh/lib_51_MBTLE_CORE.a(flash_manager_defrag.c.obj)
 .text.invalidate_duplicate_entries
                0x0000000000029a20      0x174 ../../../mesh/lib_51_MBTLE_CORE.a(flash_manager_defrag.c.obj)
 .text.backup_entries
                0x0000000000029b94      0x214 ../../../mesh/lib_51_MBTLE_CORE.a(flash_manager_defrag.c.obj)
 .text.flash_manager_defrag_init
                0x0000000000029da8       0xa8 ../../../mesh/lib_51_MBTLE_CORE.a(flash_manager_defrag.c.obj)
                0x0000000000029da8                flash_manager_defrag_init
 .text.flash_manager_defrag_is_running
                0x0000000000029e50       0x10 ../../../mesh/lib_51_MBTLE_CORE.a(flash_manager_defrag.c.obj)
                0x0000000000029e50                flash_manager_defrag_is_running
 .text.flash_manager_defrag
                0x0000000000029e60       0xec ../../../mesh/lib_51_MBTLE_CORE.a(flash_manager_defrag.c.obj)
                0x0000000000029e60                flash_manager_defrag
 .text.flash_manager_defrag_recovery_page_get
                0x0000000000029f4c        0xc ../../../mesh/lib_51_MBTLE_CORE.a(flash_manager_defrag.c.obj)
                0x0000000000029f4c                flash_manager_defrag_recovery_page_get
 .text.entry_get
                0x0000000000029f58       0x9c ../../../mesh/lib_51_MBTLE_CORE.a(flash_manager_internal.c.obj)
                0x0000000000029f58                entry_get
 .text.sd_ecb_block_encrypt
                0x0000000000029ff4        0x4 ../../../mesh/lib_51_MBTLE_CORE.a(aes.c.obj)
 .text.aes_encrypt
                0x0000000000029ff8       0x78 ../../../mesh/lib_51_MBTLE_CORE.a(aes.c.obj)
                0x0000000000029ff8                aes_encrypt
 .text.queue_init
                0x000000000002a070       0x24 ../../../mesh/lib_51_MBTLE_CORE.a(queue.c.obj)
                0x000000000002a070                queue_init
 .text.queue_push
                0x000000000002a094       0x58 ../../../mesh/lib_51_MBTLE_CORE.a(queue.c.obj)
                0x000000000002a094                queue_push
 .text.queue_pop
                0x000000000002a0ec       0x40 ../../../mesh/lib_51_MBTLE_CORE.a(queue.c.obj)
                0x000000000002a0ec                queue_pop
 .text.sd_radio_session_open
                0x000000000002a12c        0x4 ../../../mesh/lib_51_MBTLE_CORE.a(timeslot.c.obj)
 .text.sd_radio_request
                0x000000000002a130        0x4 ../../../mesh/lib_51_MBTLE_CORE.a(timeslot.c.obj)
 .text.ts_order_earliest
                0x000000000002a134       0x38 ../../../mesh/lib_51_MBTLE_CORE.a(timeslot.c.obj)
 .text.ts_extend
                0x000000000002a16c       0x30 ../../../mesh/lib_51_MBTLE_CORE.a(timeslot.c.obj)
 .text.end_timer_handler
                0x000000000002a19c        0xc ../../../mesh/lib_51_MBTLE_CORE.a(timeslot.c.obj)
 .text.start_time_update
                0x000000000002a1a8       0x84 ../../../mesh/lib_51_MBTLE_CORE.a(timeslot.c.obj)
                0x000000000002a1a8                start_time_update
 .text.timeslot_sd_event_handler
                0x000000000002a22c       0x58 ../../../mesh/lib_51_MBTLE_CORE.a(timeslot.c.obj)
                0x000000000002a22c                timeslot_sd_event_handler
 .text.timeslot_init
                0x000000000002a284       0x94 ../../../mesh/lib_51_MBTLE_CORE.a(timeslot.c.obj)
                0x000000000002a284                timeslot_init
 .text.timeslot_resume
                0x000000000002a318       0x4c ../../../mesh/lib_51_MBTLE_CORE.a(timeslot.c.obj)
                0x000000000002a318                timeslot_resume
 .text.timeslot_end_time_get
                0x000000000002a364       0x24 ../../../mesh/lib_51_MBTLE_CORE.a(timeslot.c.obj)
                0x000000000002a364                timeslot_end_time_get
 .text.timeslot_end
                0x000000000002a388       0x80 ../../../mesh/lib_51_MBTLE_CORE.a(timeslot.c.obj)
 .text.timeslot_remaining_time_get
                0x000000000002a408       0x34 ../../../mesh/lib_51_MBTLE_CORE.a(timeslot.c.obj)
                0x000000000002a408                timeslot_remaining_time_get
 .text.radio_signal_callback
                0x000000000002a43c      0x1f0 ../../../mesh/lib_51_MBTLE_CORE.a(timeslot.c.obj)
 .text.aes_cmac_subkey_generate
                0x000000000002a62c       0xac ../../../mesh/lib_51_MBTLE_CORE.a(aes_cmac.c.obj)
                0x000000000002a62c                aes_cmac_subkey_generate
 .text.aes_cmac
                0x000000000002a6d8       0xf4 ../../../mesh/lib_51_MBTLE_CORE.a(aes_cmac.c.obj)
                0x000000000002a6d8                aes_cmac
 .text.ccm_soft_crypt
                0x000000000002a7cc       0xa2 ../../../mesh/lib_51_MBTLE_CORE.a(ccm_soft.c.obj)
 .text.ccm_soft_authenticate_blocks
                0x000000000002a86e       0x86 ../../../mesh/lib_51_MBTLE_CORE.a(ccm_soft.c.obj)
 .text.ccm_soft_authenticate
                0x000000000002a8f4       0x8c ../../../mesh/lib_51_MBTLE_CORE.a(ccm_soft.c.obj)
 .text.ccm_soft_encrypt
                0x000000000002a980       0x8a ../../../mesh/lib_51_MBTLE_CORE.a(ccm_soft.c.obj)
                0x000000000002a980                ccm_soft_encrypt
 .text.ccm_soft_decrypt
                0x000000000002aa0a      0x166 ../../../mesh/lib_51_MBTLE_CORE.a(ccm_soft.c.obj)
                0x000000000002aa0a                ccm_soft_decrypt
 .text.msg_cache_init
                0x000000000002ab70       0x38 ../../../mesh/lib_51_MBTLE_CORE.a(msg_cache.c.obj)
                0x000000000002ab70                msg_cache_init
 .text.msg_cache_entry_exists
                0x000000000002aba8       0xa8 ../../../mesh/lib_51_MBTLE_CORE.a(msg_cache.c.obj)
                0x000000000002aba8                msg_cache_entry_exists
 .text.msg_cache_entry_add
                0x000000000002ac50       0x40 ../../../mesh/lib_51_MBTLE_CORE.a(msg_cache.c.obj)
                0x000000000002ac50                msg_cache_entry_add
 .text.header_transfuscate
                0x000000000002ac90       0x58 ../../../mesh/lib_51_MBTLE_CORE.a(network.c.obj)
 .text.network_pkt_encrypt
                0x000000000002ace8       0x7a ../../../mesh/lib_51_MBTLE_CORE.a(network.c.obj)
 *fill*         0x000000000002ad62        0x2 
 .text.network_pkt_relay
                0x000000000002ad64      0x1e0 ../../../mesh/lib_51_MBTLE_CORE.a(network.c.obj)
                0x000000000002ad64                network_pkt_relay
 .text.network_init
                0x000000000002af44       0x3c ../../../mesh/lib_51_MBTLE_CORE.a(network.c.obj)
                0x000000000002af44                network_init
 .text.network_pkt_out
                0x000000000002af80      0x170 ../../../mesh/lib_51_MBTLE_CORE.a(network.c.obj)
                0x000000000002af80                network_pkt_out
 .text.network_pkt_in
                0x000000000002b0f0      0x3d4 ../../../mesh/lib_51_MBTLE_CORE.a(network.c.obj)
                0x000000000002b0f0                network_pkt_in
 .text.packet_type_packet_get
                0x000000000002b4c4       0x60 ../../../mesh/lib_51_MBTLE_CORE.a(packet.c.obj)
                0x000000000002b4c4                packet_type_packet_get
 .text.m_index_increment
                0x000000000002b524       0x2c ../../../mesh/lib_51_MBTLE_CORE.a(packet_buffer.c.obj)
 .text.m_free_popped_packet
                0x000000000002b550       0x58 ../../../mesh/lib_51_MBTLE_CORE.a(packet_buffer.c.obj)
 .text.m_adjust_desired_packet_length
                0x000000000002b5a8       0x34 ../../../mesh/lib_51_MBTLE_CORE.a(packet_buffer.c.obj)
 .text.packet_buffer_init
                0x000000000002b5dc       0xe0 ../../../mesh/lib_51_MBTLE_CORE.a(packet_buffer.c.obj)
                0x000000000002b5dc                packet_buffer_init
 .text.packet_buffer_reserve
                0x000000000002b6bc      0x110 ../../../mesh/lib_51_MBTLE_CORE.a(packet_buffer.c.obj)
                0x000000000002b6bc                packet_buffer_reserve
 .text.packet_buffer_commit
                0x000000000002b7cc      0x128 ../../../mesh/lib_51_MBTLE_CORE.a(packet_buffer.c.obj)
                0x000000000002b7cc                packet_buffer_commit
 .text.packet_buffer_pop
                0x000000000002b8f4       0x84 ../../../mesh/lib_51_MBTLE_CORE.a(packet_buffer.c.obj)
                0x000000000002b8f4                packet_buffer_pop
 .text.packet_buffer_can_pop
                0x000000000002b978       0x48 ../../../mesh/lib_51_MBTLE_CORE.a(packet_buffer.c.obj)
                0x000000000002b978                packet_buffer_can_pop
 .text.packet_buffer_free
                0x000000000002b9c0       0x9c ../../../mesh/lib_51_MBTLE_CORE.a(packet_buffer.c.obj)
                0x000000000002b9c0                packet_buffer_free
 .text.replay_cache_add
                0x000000000002ba5c       0x98 ../../../mesh/lib_51_MBTLE_CORE.a(replay_cache.c.obj)
                0x000000000002ba5c                replay_cache_add
 .text.replay_cache_has_room
                0x000000000002baf4       0x44 ../../../mesh/lib_51_MBTLE_CORE.a(replay_cache.c.obj)
                0x000000000002baf4                replay_cache_has_room
 .text.replay_cache_has_elem
                0x000000000002bb38       0x48 ../../../mesh/lib_51_MBTLE_CORE.a(replay_cache.c.obj)
                0x000000000002bb38                replay_cache_has_elem
 .text.replay_cache_clear
                0x000000000002bb80       0x28 ../../../mesh/lib_51_MBTLE_CORE.a(replay_cache.c.obj)
                0x000000000002bb80                replay_cache_clear
 .text.replay_cache_init
                0x000000000002bba8        0x8 ../../../mesh/lib_51_MBTLE_CORE.a(replay_cache.c.obj)
                0x000000000002bba8                replay_cache_init
 .text.send_end_events
                0x000000000002bbb0       0x88 ../../../mesh/lib_51_MBTLE_CORE.a(mesh_flash.c.obj)
 .text.mesh_flash_init
                0x000000000002bc38       0x90 ../../../mesh/lib_51_MBTLE_CORE.a(mesh_flash.c.obj)
                0x000000000002bc38                mesh_flash_init
 .text.mesh_flash_user_callback_set
                0x000000000002bcc8       0x30 ../../../mesh/lib_51_MBTLE_CORE.a(mesh_flash.c.obj)
                0x000000000002bcc8                mesh_flash_user_callback_set
 .text.mesh_flash_op_push
                0x000000000002bcf8      0x168 ../../../mesh/lib_51_MBTLE_CORE.a(mesh_flash.c.obj)
                0x000000000002bcf8                mesh_flash_op_push
 .text.mesh_flash_op_execute
                0x000000000002be60      0x1d0 ../../../mesh/lib_51_MBTLE_CORE.a(mesh_flash.c.obj)
                0x000000000002be60                mesh_flash_op_execute
 .text.nrf_flash_erase
                0x000000000002c030       0x78 ../../../mesh/lib_51_MBTLE_CORE.a(nrf_flash.c.obj)
                0x000000000002c030                nrf_flash_erase
 .text.nrf_flash_write
                0x000000000002c0a8       0x78 ../../../mesh/lib_51_MBTLE_CORE.a(nrf_flash.c.obj)
                0x000000000002c0a8                nrf_flash_write
 .text.msq_get  0x000000000002c120       0x7c ../../../mesh/lib_51_MBTLE_CORE.a(msqueue.c.obj)
                0x000000000002c120                msq_get
 .text.msq_move
                0x000000000002c19c       0x70 ../../../mesh/lib_51_MBTLE_CORE.a(msqueue.c.obj)
                0x000000000002c19c                msq_move
 .text.msq_reset
                0x000000000002c20c       0x34 ../../../mesh/lib_51_MBTLE_CORE.a(msqueue.c.obj)
                0x000000000002c20c                msq_reset
 .text.msq_init
                0x000000000002c240       0x8c ../../../mesh/lib_51_MBTLE_CORE.a(msqueue.c.obj)
                0x000000000002c240                msq_init
 .text.msq_available
                0x000000000002c2cc       0x60 ../../../mesh/lib_51_MBTLE_CORE.a(msqueue.c.obj)
                0x000000000002c2cc                msq_available
 .text.uECC_vli_add
                0x000000000002c32c       0x4a ../../../lib/micro-ecc/lib_51_UECC_LIB.a(uECC.c.obj)
 .text.uECC_vli_sub
                0x000000000002c376       0x4c ../../../lib/micro-ecc/lib_51_UECC_LIB.a(uECC.c.obj)
 .text.uECC_vli_mult
                0x000000000002c3c2       0x90 ../../../lib/micro-ecc/lib_51_UECC_LIB.a(uECC.c.obj)
 .text.uECC_vli_clear
                0x000000000002c452       0x1a ../../../lib/micro-ecc/lib_51_UECC_LIB.a(uECC.c.obj)
 .text.uECC_vli_isZero
                0x000000000002c46c       0x24 ../../../lib/micro-ecc/lib_51_UECC_LIB.a(uECC.c.obj)
 .text.uECC_vli_testBit
                0x000000000002c490       0x12 ../../../lib/micro-ecc/lib_51_UECC_LIB.a(uECC.c.obj)
 *fill*         0x000000000002c4a2        0x2 
 .text.uECC_vli_numBits
                0x000000000002c4a4       0x54 ../../../lib/micro-ecc/lib_51_UECC_LIB.a(uECC.c.obj)
 .text.uECC_vli_set
                0x000000000002c4f8       0x1c ../../../lib/micro-ecc/lib_51_UECC_LIB.a(uECC.c.obj)
 .text.uECC_vli_cmp_unsafe
                0x000000000002c514       0x46 ../../../lib/micro-ecc/lib_51_UECC_LIB.a(uECC.c.obj)
 .text.uECC_vli_cmp
                0x000000000002c55a       0x2c ../../../lib/micro-ecc/lib_51_UECC_LIB.a(uECC.c.obj)
 .text.uECC_vli_rshift1
                0x000000000002c586       0x2c ../../../lib/micro-ecc/lib_51_UECC_LIB.a(uECC.c.obj)
 .text.uECC_vli_modAdd
                0x000000000002c5b2       0x32 ../../../lib/micro-ecc/lib_51_UECC_LIB.a(uECC.c.obj)
 .text.uECC_vli_modSub
                0x000000000002c5e4       0x26 ../../../lib/micro-ecc/lib_51_UECC_LIB.a(uECC.c.obj)
 .text.uECC_vli_modMult_fast
                0x000000000002c60a       0x20 ../../../lib/micro-ecc/lib_51_UECC_LIB.a(uECC.c.obj)
 .text.uECC_vli_modSquare_fast
                0x000000000002c62a        0xc ../../../lib/micro-ecc/lib_51_UECC_LIB.a(uECC.c.obj)
 *fill*         0x000000000002c636        0x2 
 .text.vli_modInv_update
                0x000000000002c638       0x48 ../../../lib/micro-ecc/lib_51_UECC_LIB.a(uECC.c.obj)
 .text.uECC_vli_modInv
                0x000000000002c680      0x134 ../../../lib/micro-ecc/lib_51_UECC_LIB.a(uECC.c.obj)
 .text.double_jacobian_default
                0x000000000002c7b4      0x168 ../../../lib/micro-ecc/lib_51_UECC_LIB.a(uECC.c.obj)
 .text.x_side_default
                0x000000000002c91c       0x58 ../../../lib/micro-ecc/lib_51_UECC_LIB.a(uECC.c.obj)
 .text.vli_mmod_fast_secp256r1
                0x000000000002c974      0x1bc ../../../lib/micro-ecc/lib_51_UECC_LIB.a(uECC.c.obj)
 .text.apply_z  0x000000000002cb30       0x3e ../../../lib/micro-ecc/lib_51_UECC_LIB.a(uECC.c.obj)
 .text.XYcZ_add
                0x000000000002cb6e       0xcc ../../../lib/micro-ecc/lib_51_UECC_LIB.a(uECC.c.obj)
 .text.XYcZ_addC
                0x000000000002cc3a      0x11c ../../../lib/micro-ecc/lib_51_UECC_LIB.a(uECC.c.obj)
 .text.EccPoint_mult
                0x000000000002cd56      0x1cc ../../../lib/micro-ecc/lib_51_UECC_LIB.a(uECC.c.obj)
 .text.regularize_k
                0x000000000002cf22       0x60 ../../../lib/micro-ecc/lib_51_UECC_LIB.a(uECC.c.obj)
 .text.EccPoint_compute_public_key
                0x000000000002cf82       0x4c ../../../lib/micro-ecc/lib_51_UECC_LIB.a(uECC.c.obj)
 .text.uECC_vli_nativeToBytes
                0x000000000002cfce       0x2a ../../../lib/micro-ecc/lib_51_UECC_LIB.a(uECC.c.obj)
 .text.uECC_vli_bytesToNative
                0x000000000002cff8       0x56 ../../../lib/micro-ecc/lib_51_UECC_LIB.a(uECC.c.obj)
 *fill*         0x000000000002d04e        0x2 
 .text.uECC_generate_random_int
                0x000000000002d050       0x84 ../../../lib/micro-ecc/lib_51_UECC_LIB.a(uECC.c.obj)
 .text.default_RNG
                0x000000000002d0d4        0xc ../../../lib/micro-ecc/lib_51_UECC_LIB.a(uECC.c.obj)
 .text.uECC_secp256r1
                0x000000000002d0e0        0x8 ../../../lib/micro-ecc/lib_51_UECC_LIB.a(uECC.c.obj)
                0x000000000002d0e0                uECC_secp256r1
 .text.uECC_make_key
                0x000000000002d0e8       0x88 ../../../lib/micro-ecc/lib_51_UECC_LIB.a(uECC.c.obj)
                0x000000000002d0e8                uECC_make_key
 .text.uECC_shared_secret
                0x000000000002d170       0xc8 ../../../lib/micro-ecc/lib_51_UECC_LIB.a(uECC.c.obj)
                0x000000000002d170                uECC_shared_secret
 .text.uECC_valid_point
                0x000000000002d238       0x92 ../../../lib/micro-ecc/lib_51_UECC_LIB.a(uECC.c.obj)
                0x000000000002d238                uECC_valid_point
 .text.uECC_valid_public_key
                0x000000000002d2ca       0x32 ../../../lib/micro-ecc/lib_51_UECC_LIB.a(uECC.c.obj)
                0x000000000002d2ca                uECC_valid_public_key
 .text._GetAvailWriteSpace
                0x000000000002d2fc       0x18 ../../../lib/rtt/lib_51_RTT_LIB.a(SEGGER_RTT.c.obj)
 .text._WriteNoCheck
                0x000000000002d314       0x3a ../../../lib/rtt/lib_51_RTT_LIB.a(SEGGER_RTT.c.obj)
 .text._WriteBlocking
                0x000000000002d34e       0x6c ../../../lib/rtt/lib_51_RTT_LIB.a(SEGGER_RTT.c.obj)
 *fill*         0x000000000002d3ba        0x2 
 .text._DoInit  0x000000000002d3bc       0x60 ../../../lib/rtt/lib_51_RTT_LIB.a(SEGGER_RTT.c.obj)
 .text.SEGGER_RTT_ReadNoLock
                0x000000000002d41c       0xd8 ../../../lib/rtt/lib_51_RTT_LIB.a(SEGGER_RTT.c.obj)
                0x000000000002d41c                SEGGER_RTT_ReadNoLock
 .text.SEGGER_RTT_Read
                0x000000000002d4f4       0x1a ../../../lib/rtt/lib_51_RTT_LIB.a(SEGGER_RTT.c.obj)
                0x000000000002d4f4                SEGGER_RTT_Read
 *fill*         0x000000000002d50e        0x2 
 .text.SEGGER_RTT_WriteNoLock
                0x000000000002d510       0x70 ../../../lib/rtt/lib_51_RTT_LIB.a(SEGGER_RTT.c.obj)
                0x000000000002d510                SEGGER_RTT_WriteNoLock
 .text.SEGGER_RTT_Write
                0x000000000002d580       0x34 ../../../lib/rtt/lib_51_RTT_LIB.a(SEGGER_RTT.c.obj)
                0x000000000002d580                SEGGER_RTT_Write
 .text.SEGGER_RTT_GetKey
                0x000000000002d5b4       0x22 ../../../lib/rtt/lib_51_RTT_LIB.a(SEGGER_RTT.c.obj)
                0x000000000002d5b4                SEGGER_RTT_GetKey
 .text._StoreChar
                0x000000000002d5d6       0x40 ../../../lib/rtt/lib_51_RTT_LIB.a(SEGGER_RTT_printf.c.obj)
 *fill*         0x000000000002d616        0x2 
 .text._PrintUnsigned
                0x000000000002d618      0x114 ../../../lib/rtt/lib_51_RTT_LIB.a(SEGGER_RTT_printf.c.obj)
 .text.SEGGER_RTT_vprintf
                0x000000000002d72c      0x2ee ../../../lib/rtt/lib_51_RTT_LIB.a(SEGGER_RTT_printf.c.obj)
                0x000000000002d72c                SEGGER_RTT_vprintf
 .text.SEGGER_RTT_printf
                0x000000000002da1a       0x1a ../../../lib/rtt/lib_51_RTT_LIB.a(SEGGER_RTT_printf.c.obj)
                0x000000000002da1a                SEGGER_RTT_printf
 .text          0x000000000002da34      0x114 /usr/bin/../lib/gcc/arm-none-eabi/6.3.1/thumb/v6-m/libgcc.a(_udivsi3.o)
                0x000000000002da34                __udivsi3
                0x000000000002da34                __aeabi_uidiv
                0x000000000002db40                __aeabi_uidivmod
 .text          0x000000000002db48      0x1d4 /usr/bin/../lib/gcc/arm-none-eabi/6.3.1/thumb/v6-m/libgcc.a(_divsi3.o)
                0x000000000002db48                __aeabi_idiv
                0x000000000002db48                __divsi3
                0x000000000002dd14                __aeabi_idivmod
 .text          0x000000000002dd1c        0x4 /usr/bin/../lib/gcc/arm-none-eabi/6.3.1/thumb/v6-m/libgcc.a(_dvmd_tls.o)
                0x000000000002dd1c                __aeabi_ldiv0
                0x000000000002dd1c                __aeabi_idiv0
 .text          0x000000000002dd20       0x54 /usr/bin/../lib/gcc/arm-none-eabi/6.3.1/thumb/v6-m/libgcc.a(_muldi3.o)
                0x000000000002dd20                __aeabi_lmul
                0x000000000002dd20                __muldi3
 .text.exit     0x000000000002dd74       0x2c /usr/bin/../lib/gcc/arm-none-eabi/6.3.1/../../../../arm-none-eabi/lib/thumb/v6-m/libg_nano.a(lib_a-exit.o)
                0x000000000002dd74                exit
 .text.__libc_init_array
                0x000000000002dda0       0x48 /usr/bin/../lib/gcc/arm-none-eabi/6.3.1/../../../../arm-none-eabi/lib/thumb/v6-m/libg_nano.a(lib_a-init.o)
                0x000000000002dda0                __libc_init_array
 .text.malloc   0x000000000002dde8       0x14 /usr/bin/../lib/gcc/arm-none-eabi/6.3.1/../../../../arm-none-eabi/lib/thumb/v6-m/libg_nano.a(lib_a-malloc.o)
                0x000000000002dde8                malloc
 .text.free     0x000000000002ddfc       0x14 /usr/bin/../lib/gcc/arm-none-eabi/6.3.1/../../../../arm-none-eabi/lib/thumb/v6-m/libg_nano.a(lib_a-malloc.o)
                0x000000000002ddfc                free
 .text.memcmp   0x000000000002de10       0x1e /usr/bin/../lib/gcc/arm-none-eabi/6.3.1/../../../../arm-none-eabi/lib/thumb/v6-m/libg_nano.a(lib_a-memcmp.o)
                0x000000000002de10                memcmp
 .text.memcpy   0x000000000002de2e       0x12 /usr/bin/../lib/gcc/arm-none-eabi/6.3.1/../../../../arm-none-eabi/lib/thumb/v6-m/libg_nano.a(lib_a-memcpy-stub.o)
                0x000000000002de2e                memcpy
 .text.memset   0x000000000002de40       0x10 /usr/bin/../lib/gcc/arm-none-eabi/6.3.1/../../../../arm-none-eabi/lib/thumb/v6-m/libg_nano.a(lib_a-memset.o)
                0x000000000002de40                memset
 .text._free_r  0x000000000002de50       0x94 /usr/bin/../lib/gcc/arm-none-eabi/6.3.1/../../../../arm-none-eabi/lib/thumb/v6-m/libg_nano.a(lib_a-nano-freer.o)
                0x000000000002de50                _free_r
 .text._malloc_r
                0x000000000002dee4       0xbc /usr/bin/../lib/gcc/arm-none-eabi/6.3.1/../../../../arm-none-eabi/lib/thumb/v6-m/libg_nano.a(lib_a-nano-mallocr.o)
                0x000000000002dee4                _malloc_r
 .text._sbrk_r  0x000000000002dfa0       0x24 /usr/bin/../lib/gcc/arm-none-eabi/6.3.1/../../../../arm-none-eabi/lib/thumb/v6-m/libg_nano.a(lib_a-sbrkr.o)
                0x000000000002dfa0                _sbrk_r
 .text.strcpy   0x000000000002dfc4       0x10 /usr/bin/../lib/gcc/arm-none-eabi/6.3.1/../../../../arm-none-eabi/lib/thumb/v6-m/libg_nano.a(lib_a-strcpy.o)
                0x000000000002dfc4                strcpy
 .text          0x000000000002dfd4        0xe /usr/bin/../lib/gcc/arm-none-eabi/6.3.1/../../../../arm-none-eabi/lib/thumb/v6-m/libg_nano.a(lib_a-strlen.o)
                0x000000000002dfd4                strlen
 .text.strrchr  0x000000000002dfe2       0x24 /usr/bin/../lib/gcc/arm-none-eabi/6.3.1/../../../../arm-none-eabi/lib/thumb/v6-m/libg_nano.a(lib_a-strrchr.o)
                0x000000000002dfe2                strrchr
 .text.__malloc_lock
                0x000000000002e006        0x2 /usr/bin/../lib/gcc/arm-none-eabi/6.3.1/../../../../arm-none-eabi/lib/thumb/v6-m/libg_nano.a(lib_a-mlock.o)
                0x000000000002e006                __malloc_lock
 .text.__malloc_unlock
                0x000000000002e008        0x2 /usr/bin/../lib/gcc/arm-none-eabi/6.3.1/../../../../arm-none-eabi/lib/thumb/v6-m/libg_nano.a(lib_a-mlock.o)
                0x000000000002e008                __malloc_unlock
 .text.strchr   0x000000000002e00a       0x1c /usr/bin/../lib/gcc/arm-none-eabi/6.3.1/../../../../arm-none-eabi/lib/thumb/v6-m/libg_nano.a(lib_a-strchr.o)
                0x000000000002e00a                strchr
 *fill*         0x000000000002e026        0x2 
 .text._sbrk    0x000000000002e028       0x1c /usr/bin/../lib/gcc/arm-none-eabi/6.3.1/../../../../arm-none-eabi/lib/thumb/v6-m/libnosys.a(sbrk.o)
                0x000000000002e028                _sbrk
 .text._exit    0x000000000002e044        0x4 /usr/bin/../lib/gcc/arm-none-eabi/6.3.1/../../../../arm-none-eabi/lib/thumb/v6-m/libnosys.a(_exit.o)
                0x000000000002e044                _exit
 *(.init)
 .init          0x000000000002e048        0x4 /usr/bin/../lib/gcc/arm-none-eabi/6.3.1/thumb/v6-m/crti.o
                0x000000000002e048                _init
 .init          0x000000000002e04c        0x8 /usr/bin/../lib/gcc/arm-none-eabi/6.3.1/thumb/v6-m/crtn.o
 *(.fini)
 .fini          0x000000000002e054        0x4 /usr/bin/../lib/gcc/arm-none-eabi/6.3.1/thumb/v6-m/crti.o
                0x000000000002e054                _fini
 .fini          0x000000000002e058        0x8 /usr/bin/../lib/gcc/arm-none-eabi/6.3.1/thumb/v6-m/crtn.o
 *crtbegin.o(.ctors)
 *crtbegin?.o(.ctors)
 *(EXCLUDE_FILE(*crtend.o *crtend?.o) .ctors)
 *(SORT(.ctors.*))
 *(.ctors)
 *crtbegin.o(.dtors)
 *crtbegin?.o(.dtors)
 *(EXCLUDE_FILE(*crtend.o *crtend?.o) .dtors)
 *(SORT(.dtors.*))
 *(.dtors)
 *(.rodata*)
 .rodata.main.cst2
                0x000000000002e060        0x2 CMakeFiles/51_light_control_client.dir/src/main.c.obj
 *fill*         0x000000000002e062        0x2 
 .rodata.button_event_handler.str1.4
                0x000000000002e064       0xa2 CMakeFiles/51_light_control_client.dir/src/main.c.obj
 *fill*         0x000000000002e106        0x2 
 .rodata.m_appkey
                0x000000000002e108       0x10 CMakeFiles/51_light_control_client.dir/src/main.c.obj
 .rodata.m_netkey
                0x000000000002e118       0x10 CMakeFiles/51_light_control_client.dir/src/main.c.obj
 .rodata.main.str1.4
                0x000000000002e128       0xa4 CMakeFiles/51_light_control_client.dir/src/main.c.obj
 .rodata.provisioner_config_failed_cb.str1.4
                0x000000000002e1cc       0x23 CMakeFiles/51_light_control_client.dir/src/main.c.obj
 *fill*         0x000000000002e1ef        0x1 
 .rodata.provisioner_config_successful_cb.str1.4
                0x000000000002e1f0       0x27 CMakeFiles/51_light_control_client.dir/src/main.c.obj
 *fill*         0x000000000002e217        0x1 
 .rodata.provisioner_prov_complete_cb.str1.4
                0x000000000002e218       0x2f CMakeFiles/51_light_control_client.dir/src/main.c.obj
 *fill*         0x000000000002e247        0x1 
 .rodata.do_config_step
                0x000000000002e248       0x18 CMakeFiles/51_light_control_client.dir/src/provisioner.c.obj
 .rodata.mesh_evt_handler
                0x000000000002e260       0x30 CMakeFiles/51_light_control_client.dir/src/provisioner.c.obj
 .rodata        0x000000000002e290       0x10 CMakeFiles/51_light_control_client.dir/src/provisioner.c.obj
 .rodata.config_client_event_cb.str1.4
                0x000000000002e2a0       0x1c CMakeFiles/51_light_control_client.dir/src/provisioner.c.obj
 .rodata.do_config_step.str1.4
                0x000000000002e2bc       0xd5 CMakeFiles/51_light_control_client.dir/src/provisioner.c.obj
 *fill*         0x000000000002e391        0x3 
 .rodata.mesh_evt_handler.str1.4
                0x000000000002e394      0x10f CMakeFiles/51_light_control_client.dir/src/provisioner.c.obj
 *fill*         0x000000000002e4a3        0x1 
 .rodata.m_config_message_lut
                0x000000000002e4a4       0x48 CMakeFiles/51_light_control_client.dir/__/__/__/mesh/models/config/src/config_client.c.obj
 .rodata.m_opcode_handlers
                0x000000000002e4ec       0x60 CMakeFiles/51_light_control_client.dir/__/__/__/mesh/models/config/src/config_client.c.obj
 .rodata.mesh_evt_cb.str1.4
                0x000000000002e54c       0x13 CMakeFiles/51_light_control_client.dir/__/__/__/mesh/src/access/access.c.obj
 *fill*         0x000000000002e55f        0x1 
 .rodata.multiply_de_bruijn_bit_position.6706
                0x000000000002e560       0x20 CMakeFiles/51_light_control_client.dir/__/__/__/mesh/src/access/access.c.obj
 .rodata.packet_tx.str1.4
                0x000000000002e580       0x5b CMakeFiles/51_light_control_client.dir/__/__/__/mesh/src/access/access.c.obj
 *fill*         0x000000000002e5db        0x1 
 .rodata.m_flash_groups
                0x000000000002e5dc       0xc0 CMakeFiles/51_light_control_client.dir/__/__/__/mesh/src/access/device_state_manager.c.obj
 .rodata.HardFault_Handler.str1.4
                0x000000000002e69c        0xe CMakeFiles/51_light_control_client.dir/__/__/nrf_mesh_sdk.c.obj
 *fill*         0x000000000002e6aa        0x2 
 .rodata.app_error_handler.str1.4
                0x000000000002e6ac       0x1d CMakeFiles/51_light_control_client.dir/__/__/nrf_mesh_sdk.c.obj
 *fill*         0x000000000002e6c9        0x3 
 .rodata.mesh_assert_handler.str1.4
                0x000000000002e6cc       0x19 CMakeFiles/51_light_control_client.dir/__/__/nrf_mesh_sdk.c.obj
 *fill*         0x000000000002e6e5        0x3 
 .rodata.mesh_softdevice_enable.str1.4
                0x000000000002e6e8       0x65 CMakeFiles/51_light_control_client.dir/__/__/nrf_mesh_sdk.c.obj
 *fill*         0x000000000002e74d        0x3 
 .rodata.softdevice_assert_handler.str1.4
                0x000000000002e750       0x65 CMakeFiles/51_light_control_client.dir/__/__/nrf_mesh_sdk.c.obj
 *fill*         0x000000000002e7b5        0x3 
 .rodata.m_opcode_handlers
                0x000000000002e7b8        0x8 CMakeFiles/51_light_control_client.dir/__/__/models/simple_on_off/src/simple_on_off_client.c.obj
 .rodata.add_active_bearer.str1.4
                0x000000000002e7c0       0x2c ../../../mesh/lib_51_MBTLE_PB_ADV_ER.a(prov_bearer_adv.c.obj)
 .rodata.crctable.8268
                0x000000000002e7ec      0x100 ../../../mesh/lib_51_MBTLE_PB_ADV_ER.a(prov_bearer_adv.c.obj)
 .rodata.interface.8482
                0x000000000002e8ec       0x14 ../../../mesh/lib_51_MBTLE_PB_ADV_ER.a(prov_bearer_adv.c.obj)
 .rodata.prov_bearer_adv_pkt_in.str1.4
                0x000000000002e900      0x283 ../../../mesh/lib_51_MBTLE_PB_ADV_ER.a(prov_bearer_adv.c.obj)
 *fill*         0x000000000002eb83        0x1 
 .rodata.tx_retry_cb.str1.4
                0x000000000002eb84       0x64 ../../../mesh/lib_51_MBTLE_PB_ADV_ER.a(prov_bearer_adv.c.obj)
 .rodata.alphanumeric.8393
                0x000000000002ebe8       0x25 ../../../mesh/lib_51_MBTLE_PB_ADV_ER.a(prov_utils.c.obj)
 *fill*         0x000000000002ec0d        0x3 
 .rodata.numeric_max.8387
                0x000000000002ec10       0x24 ../../../mesh/lib_51_MBTLE_PB_ADV_ER.a(prov_utils.c.obj)
 .rodata.prov_utils_authentication_values_derive.str1.4
                0x000000000002ec34        0x5 ../../../mesh/lib_51_MBTLE_PB_ADV_ER.a(prov_utils.c.obj)
 *fill*         0x000000000002ec39        0x3 
 .rodata.prov_utils_derive_keys.str1.4
                0x000000000002ec3c       0x15 ../../../mesh/lib_51_MBTLE_PB_ADV_ER.a(prov_utils.c.obj)
 *fill*         0x000000000002ec51        0x3 
 .rodata.prov_provisioner_pkt_in
                0x000000000002ec54       0x28 ../../../mesh/lib_51_MBTLE_PB_ADV_ER.a(prov_provisioner.c.obj)
 .rodata.m_prov_callbacks
                0x000000000002ec7c       0x10 ../../../mesh/lib_51_MBTLE_PB_ADV_ER.a(prov_provisioner.c.obj)
 .rodata.pdu_sizes.8302
                0x000000000002ec8c        0xa ../../../mesh/lib_51_MBTLE_PB_ADV_ER.a(provisioning.c.obj)
 *fill*         0x000000000002ec96        0x2 
 .rodata.prov_cb_pkt_in.str1.4
                0x000000000002ec98       0x60 ../../../mesh/lib_51_MBTLE_PB_ADV_ER.a(provisioning.c.obj)
 .rodata        0x000000000002ecf8       0x14 ../../../mesh/lib_51_MBTLE_CORE.a(bearer_adv.c.obj)
 .rodata.bearer_adv_advertiser_init.str1.4
                0x000000000002ed0c       0x39 ../../../mesh/lib_51_MBTLE_CORE.a(bearer_adv.c.obj)
 *fill*         0x000000000002ed45        0x3 
 .rodata.bearer_adv_init.str1.4
                0x000000000002ed48       0x1d ../../../mesh/lib_51_MBTLE_CORE.a(bearer_adv.c.obj)
 *fill*         0x000000000002ed65        0x3 
 .rodata.scan_order.str1.4
                0x000000000002ed68       0x86 ../../../mesh/lib_51_MBTLE_CORE.a(bearer_adv.c.obj)
 *fill*         0x000000000002edee        0x2 
 .rodata.beacon_pkt_in.str1.4
                0x000000000002edf0       0x81 ../../../mesh/lib_51_MBTLE_CORE.a(beacon.c.obj)
                                         0x8c (size before relaxing)
 *fill*         0x000000000002ee71        0x3 
 .rodata        0x000000000002ee74       0x1c ../../../mesh/lib_51_MBTLE_CORE.a(bearer.c.obj)
 .rodata.bearer_rx_cb.str1.4
                0x000000000002ee90       0x76 ../../../mesh/lib_51_MBTLE_CORE.a(bearer.c.obj)
 *fill*         0x000000000002ef06        0x2 
 .rodata        0x000000000002ef08       0x18 ../../../mesh/lib_51_MBTLE_CORE.a(enc.c.obj)
 .rodata.log_callback_rtt.str1.4
                0x000000000002ef20       0x15 ../../../mesh/lib_51_MBTLE_CORE.a(log.c.obj)
 *fill*         0x000000000002ef35        0x3 
 .rodata.str1.4
                0x000000000002ef38       0x11 ../../../mesh/lib_51_MBTLE_CORE.a(log.c.obj)
 *fill*         0x000000000002ef49        0x3 
 .rodata.net_beacon_init.str1.4
                0x000000000002ef4c        0x5 ../../../mesh/lib_51_MBTLE_CORE.a(net_beacon.c.obj)
 *fill*         0x000000000002ef51        0x3 
 .rodata.nrf_mesh_adv_send.str1.4
                0x000000000002ef54       0x78 ../../../mesh/lib_51_MBTLE_CORE.a(nrf_mesh.c.obj)
 .rodata.nrf_mesh_process.str1.4
                0x000000000002efcc       0x76 ../../../mesh/lib_51_MBTLE_CORE.a(nrf_mesh.c.obj)
 *fill*         0x000000000002f042        0x2 
 .rodata        0x000000000002f044        0x7 ../../../mesh/lib_51_MBTLE_CORE.a(nrf_mesh_keygen.c.obj)
 *fill*         0x000000000002f04b        0x1 
 .rodata.types_lookup.6530
                0x000000000002f04c        0x4 ../../../mesh/lib_51_MBTLE_CORE.a(nrf_mesh_utils.c.obj)
 .rodata.channel_rf_offsets.6165
                0x000000000002f050       0x28 ../../../mesh/lib_51_MBTLE_CORE.a(radio_config.c.obj)
 .rodata.sar_segment_send.str1.4
                0x000000000002f078       0x39 ../../../mesh/lib_51_MBTLE_CORE.a(transport.c.obj)
 *fill*         0x000000000002f0b1        0x3 
 .rodata.test_transport_decrypt.str1.4
                0x000000000002f0b4       0x5f ../../../mesh/lib_51_MBTLE_CORE.a(transport.c.obj)
 *fill*         0x000000000002f113        0x1 
 .rodata.transport_pkt_in.str1.4
                0x000000000002f114      0x1b0 ../../../mesh/lib_51_MBTLE_CORE.a(transport.c.obj)
 .rodata.transport_sar_process.str1.4
                0x000000000002f2c4       0xbb ../../../mesh/lib_51_MBTLE_CORE.a(transport.c.obj)
 *fill*         0x000000000002f37f        0x1 
 .rodata.transport_tx.str1.4
                0x000000000002f380       0x30 ../../../mesh/lib_51_MBTLE_CORE.a(transport.c.obj)
 .rodata.transport_tx_sar.str1.4
                0x000000000002f3b0       0x99 ../../../mesh/lib_51_MBTLE_CORE.a(transport.c.obj)
 *fill*         0x000000000002f449        0x3 
 .rodata.trs_sar_drop_session.str1.4
                0x000000000002f44c       0x18 ../../../mesh/lib_51_MBTLE_CORE.a(transport.c.obj)
                                         0x48 (size before relaxing)
 .rodata.trs_sar_pkt_decrypt.str1.4
                0x000000000002f464       0x61 ../../../mesh/lib_51_MBTLE_CORE.a(transport.c.obj)
                                         0x69 (size before relaxing)
 *fill*         0x000000000002f4c5        0x3 
 .rodata.trs_sar_session_cb.str1.4
                0x000000000002f4c8       0x1b ../../../mesh/lib_51_MBTLE_CORE.a(transport.c.obj)
 *fill*         0x000000000002f4e3        0x1 
 .rodata.process_action_queue
                0x000000000002f4e4       0x14 ../../../mesh/lib_51_MBTLE_CORE.a(flash_manager.c.obj)
 .rodata.INVALID_HEADER
                0x000000000002f4f8        0x4 ../../../mesh/lib_51_MBTLE_CORE.a(flash_manager.c.obj)
                0x000000000002f4f8                INVALID_HEADER
 .rodata.PADDING_HEADER
                0x000000000002f4fc        0x4 ../../../mesh/lib_51_MBTLE_CORE.a(flash_manager.c.obj)
                0x000000000002f4fc                PADDING_HEADER
 .rodata.SEAL_HEADER
                0x000000000002f500        0x4 ../../../mesh/lib_51_MBTLE_CORE.a(flash_manager.c.obj)
                0x000000000002f500                SEAL_HEADER
 .rodata.process_action_queue.str1.4
                0x000000000002f504       0x4d ../../../mesh/lib_51_MBTLE_CORE.a(flash_manager.c.obj)
                                         0x7e (size before relaxing)
 *fill*         0x000000000002f551        0x3 
 .rodata.flash_manager_defrag.str1.4
                0x000000000002f554       0x54 ../../../mesh/lib_51_MBTLE_CORE.a(flash_manager_defrag.c.obj)
                                         0x82 (size before relaxing)
 .rodata.m_procedure_steps
                0x000000000002f5a8       0x28 ../../../mesh/lib_51_MBTLE_CORE.a(flash_manager_defrag.c.obj)
 .rodata.timeslot_init
                0x000000000002f5d0       0x20 ../../../mesh/lib_51_MBTLE_CORE.a(timeslot.c.obj)
 .rodata.radio_signal_callback
                0x000000000002f5f0       0x14 ../../../mesh/lib_51_MBTLE_CORE.a(timeslot.c.obj)
 .rodata.Rb.5041
                0x000000000002f604       0x10 ../../../mesh/lib_51_MBTLE_CORE.a(aes_cmac.c.obj)
 .rodata.network_pkt_in.str1.4
                0x000000000002f614       0x13 ../../../mesh/lib_51_MBTLE_CORE.a(network.c.obj)
                                         0x1c (size before relaxing)
 *fill*         0x000000000002f627        0x1 
 .rodata.network_pkt_out.str1.4
                0x000000000002f628       0x25 ../../../mesh/lib_51_MBTLE_CORE.a(network.c.obj)
 *fill*         0x000000000002f64d        0x3 
 .rodata.network_pkt_relay.str1.4
                0x000000000002f650       0x75 ../../../mesh/lib_51_MBTLE_CORE.a(network.c.obj)
                                         0xa6 (size before relaxing)
 *fill*         0x000000000002f6c5        0x3 
 .rodata.m_all_operations
                0x000000000002f6c8       0x10 ../../../mesh/lib_51_MBTLE_CORE.a(mesh_flash.c.obj)
 .rodata.curve_secp256r1
                0x000000000002f6d8       0xb0 ../../../lib/micro-ecc/lib_51_UECC_LIB.a(uECC.c.obj)
 .rodata._DoInit.str1.4
                0x000000000002f788       0x18 ../../../lib/rtt/lib_51_RTT_LIB.a(SEGGER_RTT.c.obj)
                                         0x17 (size before relaxing)
 .rodata._aV2C.4378
                0x000000000002f7a0       0x10 ../../../lib/rtt/lib_51_RTT_LIB.a(SEGGER_RTT_printf.c.obj)
 .rodata._global_impure_ptr
                0x000000000002f7b0        0x4 /usr/bin/../lib/gcc/arm-none-eabi/6.3.1/../../../../arm-none-eabi/lib/thumb/v6-m/libg_nano.a(lib_a-impure.o)
                0x000000000002f7b0                _global_impure_ptr
 *(.eh_frame*)
 .eh_frame      0x000000000002f7b4        0x0 /usr/bin/../lib/gcc/arm-none-eabi/6.3.1/thumb/v6-m/crtbegin.o
 .eh_frame      0x000000000002f7b4        0x4 /usr/bin/../lib/gcc/arm-none-eabi/6.3.1/thumb/v6-m/crtend.o

.glue_7         0x000000000002f7b8        0x0
 .glue_7        0x000000000002f7b8        0x0 linker stubs

.glue_7t        0x000000000002f7b8        0x0
 .glue_7t       0x000000000002f7b8        0x0 linker stubs

.vfp11_veneer   0x000000000002f7b8        0x0
 .vfp11_veneer  0x000000000002f7b8        0x0 linker stubs

.v4_bx          0x000000000002f7b8        0x0
 .v4_bx         0x000000000002f7b8        0x0 linker stubs

.iplt           0x000000000002f7b8        0x0
 .iplt          0x000000000002f7b8        0x0 /usr/bin/../lib/gcc/arm-none-eabi/6.3.1/thumb/v6-m/crtbegin.o

.ARM.extab
 *(.ARM.extab* .gnu.linkonce.armextab.*)
                0x000000000002f7b8                __exidx_start = .

.ARM.exidx      0x000000000002f7b8        0x8
 *(.ARM.exidx* .gnu.linkonce.armexidx.*)
 .ARM.exidx     0x000000000002f7b8        0x8 /usr/bin/../lib/gcc/arm-none-eabi/6.3.1/../../../../arm-none-eabi/lib/thumb/v6-m/crt0.o
                0x000000000002f7c0                __exidx_end = .
                0x000000000002f7c0                __etext = .

.rel.dyn        0x000000000002f7c0        0x0
 .rel.iplt      0x000000000002f7c0        0x0 /usr/bin/../lib/gcc/arm-none-eabi/6.3.1/thumb/v6-m/crtbegin.o

.data           0x00000000200022d8      0x128 load address 0x000000000002f7c0
                0x00000000200022d8                __data_start__ = .
 *(vtable)
 *(.data*)
 .data.flash_add_mem_available_struct.7923
                0x00000000200022d8       0x10 CMakeFiles/51_light_control_client.dir/__/__/__/mesh/src/access/access.c.obj
 .data.flash_clear_mem_available_struct.8012
                0x00000000200022e8       0x10 CMakeFiles/51_light_control_client.dir/__/__/__/mesh/src/access/access.c.obj
 .data.flash_store_mem_available_struct.8036
                0x00000000200022f8       0x10 CMakeFiles/51_light_control_client.dir/__/__/__/mesh/src/access/access.c.obj
 .data.m_default_ttl
                0x0000000020002308        0x1 CMakeFiles/51_light_control_client.dir/__/__/__/mesh/src/access/access.c.obj
 *fill*         0x0000000020002309        0x3 
 .data.mem_listener.8178
                0x000000002000230c       0x10 CMakeFiles/51_light_control_client.dir/__/__/__/mesh/src/access/device_state_manager.c.obj
 .data.mem_listener.8204
                0x000000002000231c       0x10 CMakeFiles/51_light_control_client.dir/__/__/__/mesh/src/access/device_state_manager.c.obj
 .data.SystemCoreClock
                0x000000002000232c        0x4 CMakeFiles/51_light_control_client.dir/__/__/__/toolchain/system_nrf51.c.obj
                0x000000002000232c                SystemCoreClock
 .data.m_unprov_report
                0x0000000020002330        0x1 ../../../mesh/lib_51_MBTLE_PB_ADV_ER.a(prov_beacon.c.obj)
 .data.m_radio_state
                0x0000000020002331        0x1 ../../../mesh/lib_51_MBTLE_CORE.a(radio.c.obj)
 *fill*         0x0000000020002332        0x2 
 .data.g_log_debug_level
                0x0000000020002334        0x4 ../../../mesh/lib_51_MBTLE_CORE.a(log.c.obj)
                0x0000000020002334                g_log_debug_level
 .data.g_log_debug_msk
                0x0000000020002338        0x4 ../../../mesh/lib_51_MBTLE_CORE.a(log.c.obj)
                0x0000000020002338                g_log_debug_msk
 .data.g_log_hex_digits
                0x000000002000233c        0x4 ../../../mesh/lib_51_MBTLE_CORE.a(log.c.obj)
                0x000000002000233c                g_log_hex_digits
 .data.m_log_callback
                0x0000000020002340        0x4 ../../../mesh/lib_51_MBTLE_CORE.a(log.c.obj)
                0x0000000020002340                m_log_callback
 .data.mem_listener.7415
                0x0000000020002344       0x10 ../../../mesh/lib_51_MBTLE_CORE.a(net_state.c.obj)
 .data.mem_listener.7420
                0x0000000020002354       0x10 ../../../mesh/lib_51_MBTLE_CORE.a(net_state.c.obj)
 .data.mem_listener.7434
                0x0000000020002364       0x10 ../../../mesh/lib_51_MBTLE_CORE.a(net_state.c.obj)
 .data.m_lfclk_ppm
                0x0000000020002374        0x4 ../../../mesh/lib_51_MBTLE_CORE.a(timeslot.c.obj)
 .data.m_negotiate_timeslot_length
                0x0000000020002378        0x4 ../../../mesh/lib_51_MBTLE_CORE.a(timeslot.c.obj)
 .data.m_radio_request_earliest
                0x000000002000237c       0x10 ../../../mesh/lib_51_MBTLE_CORE.a(timeslot.c.obj)
 .data.g_rng_function
                0x000000002000238c        0x4 ../../../lib/micro-ecc/lib_51_UECC_LIB.a(uECC.c.obj)
 .data._impure_ptr
                0x0000000020002390        0x4 /usr/bin/../lib/gcc/arm-none-eabi/6.3.1/../../../../arm-none-eabi/lib/thumb/v6-m/libg_nano.a(lib_a-impure.o)
                0x0000000020002390                _impure_ptr
 .data.impure_data
                0x0000000020002394       0x60 /usr/bin/../lib/gcc/arm-none-eabi/6.3.1/../../../../arm-none-eabi/lib/thumb/v6-m/libg_nano.a(lib_a-impure.o)
                0x00000000200023f4                . = ALIGN (0x4)
                0x00000000200023f4                PROVIDE (__preinit_array_start, .)
 *(.preinit_array)
                0x00000000200023f4                PROVIDE (__preinit_array_end, .)
                0x00000000200023f4                . = ALIGN (0x4)
                0x00000000200023f4                PROVIDE (__init_array_start, .)
 *(SORT(.init_array.*))
 *(.init_array)
 .init_array    0x00000000200023f4        0x4 /usr/bin/../lib/gcc/arm-none-eabi/6.3.1/thumb/v6-m/crtbegin.o
                0x00000000200023f8                PROVIDE (__init_array_end, .)
                0x00000000200023f8                . = ALIGN (0x4)
                [!provide]                        PROVIDE (__fini_array_start, .)
 *(SORT(.fini_array.*))
 *(.fini_array)
 .fini_array    0x00000000200023f8        0x4 /usr/bin/../lib/gcc/arm-none-eabi/6.3.1/thumb/v6-m/crtbegin.o
                [!provide]                        PROVIDE (__fini_array_end, .)
 *(.jcr*)
 .jcr           0x00000000200023fc        0x0 /usr/bin/../lib/gcc/arm-none-eabi/6.3.1/thumb/v6-m/crtbegin.o
 .jcr           0x00000000200023fc        0x4 /usr/bin/../lib/gcc/arm-none-eabi/6.3.1/thumb/v6-m/crtend.o
                0x0000000020002400                . = ALIGN (0x4)
                0x0000000020002400                __data_end__ = .

.igot.plt       0x0000000020002400        0x0 load address 0x000000000002f8e8
 .igot.plt      0x0000000020002400        0x0 /usr/bin/../lib/gcc/arm-none-eabi/6.3.1/thumb/v6-m/crtbegin.o

.bss            0x0000000020002400     0x2a5c load address 0x000000000002f8e8
                0x0000000020002400                . = ALIGN (0x4)
                0x0000000020002400                __bss_start__ = .
 *(.bss*)
 .bss           0x0000000020002400       0x1c /usr/bin/../lib/gcc/arm-none-eabi/6.3.1/thumb/v6-m/crtbegin.o
 .bss.m_appkey_handle
                0x000000002000241c        0x2 CMakeFiles/51_light_control_client.dir/src/main.c.obj
 *fill*         0x000000002000241e        0x2 
 .bss.m_clients
                0x0000000020002420       0x30 CMakeFiles/51_light_control_client.dir/src/main.c.obj
 .bss.m_device_state
                0x0000000020002450        0x1 CMakeFiles/51_light_control_client.dir/src/main.c.obj
 *fill*         0x0000000020002451        0x3 
 .bss.m_devkey_handles
                0x0000000020002454        0x6 CMakeFiles/51_light_control_client.dir/src/main.c.obj
 .bss.m_group_handle
                0x000000002000245a        0x2 CMakeFiles/51_light_control_client.dir/src/main.c.obj
 .bss.m_netkey_handle
                0x000000002000245c        0x2 CMakeFiles/51_light_control_client.dir/src/main.c.obj
 *fill*         0x000000002000245e        0x2 
 .bss.m_server_handles
                0x0000000020002460        0x6 CMakeFiles/51_light_control_client.dir/src/main.c.obj
 .bss.m_unprov_index
                0x0000000020002466        0x2 CMakeFiles/51_light_control_client.dir/src/main.c.obj
 .bss.m_evt_handler
                0x0000000020002468        0x8 CMakeFiles/51_light_control_client.dir/src/provisioner.c.obj
 .bss.m_next_unprov_address
                0x0000000020002470        0x2 CMakeFiles/51_light_control_client.dir/src/provisioner.c.obj
 *fill*         0x0000000020002472        0x2 
 .bss.m_private_key
                0x0000000020002474       0x20 CMakeFiles/51_light_control_client.dir/src/provisioner.c.obj
 .bss.m_prov_ctx
                0x0000000020002494      0x2c0 CMakeFiles/51_light_control_client.dir/src/provisioner.c.obj
 .bss.m_prov_state
                0x0000000020002754        0x1 CMakeFiles/51_light_control_client.dir/src/provisioner.c.obj
 *fill*         0x0000000020002755        0x3 
 .bss.m_public_key
                0x0000000020002758       0x40 CMakeFiles/51_light_control_client.dir/src/provisioner.c.obj
 .bss.m_client  0x0000000020002798        0x8 CMakeFiles/51_light_control_client.dir/__/__/__/mesh/models/config/src/config_client.c.obj
 .bss.mp_packet_buffer
                0x00000000200027a0        0x4 CMakeFiles/51_light_control_client.dir/__/__/__/mesh/models/config/src/config_client.c.obj
 .bss.m_element_pool
                0x00000000200027a4       0x18 CMakeFiles/51_light_control_client.dir/__/__/__/mesh/src/access/access.c.obj
 .bss.m_evt_handler
                0x00000000200027bc        0x8 CMakeFiles/51_light_control_client.dir/__/__/__/mesh/src/access/access.c.obj
 .bss.m_flash_manager
                0x00000000200027c4       0x24 CMakeFiles/51_light_control_client.dir/__/__/__/mesh/src/access/access.c.obj
 .bss.m_flash_not_ready
                0x00000000200027e8        0x1 CMakeFiles/51_light_control_client.dir/__/__/__/mesh/src/access/access.c.obj
 .bss.m_metadata_stored
                0x00000000200027e9        0x1 CMakeFiles/51_light_control_client.dir/__/__/__/mesh/src/access/access.c.obj
 *fill*         0x00000000200027ea        0x2 
 .bss.m_model_pool
                0x00000000200027ec      0x104 CMakeFiles/51_light_control_client.dir/__/__/__/mesh/src/access/access.c.obj
 .bss.m_subscription_list_pool
                0x00000000200028f0       0x28 CMakeFiles/51_light_control_client.dir/__/__/__/mesh/src/access/access.c.obj
 .bss.m_reliable
                0x0000000020002918       0xe4 CMakeFiles/51_light_control_client.dir/__/__/__/mesh/src/access/access_reliable.c.obj
 .bss.m_addr_nonvirtual_allocated
                0x00000000200029fc        0x4 CMakeFiles/51_light_control_client.dir/__/__/__/mesh/src/access/device_state_manager.c.obj
 .bss.m_addr_nonvirtual_needs_flashing
                0x0000000020002a00        0x4 CMakeFiles/51_light_control_client.dir/__/__/__/mesh/src/access/device_state_manager.c.obj
 .bss.m_addr_unicast_allocated
                0x0000000020002a04        0x4 CMakeFiles/51_light_control_client.dir/__/__/__/mesh/src/access/device_state_manager.c.obj
 .bss.m_addr_unicast_needs_flashing
                0x0000000020002a08        0x4 CMakeFiles/51_light_control_client.dir/__/__/__/mesh/src/access/device_state_manager.c.obj
 .bss.m_addr_virtual_allocated
                0x0000000020002a0c        0x4 CMakeFiles/51_light_control_client.dir/__/__/__/mesh/src/access/device_state_manager.c.obj
 .bss.m_addr_virtual_needs_flashing
                0x0000000020002a10        0x4 CMakeFiles/51_light_control_client.dir/__/__/__/mesh/src/access/device_state_manager.c.obj
 .bss.m_addresses
                0x0000000020002a14       0x10 CMakeFiles/51_light_control_client.dir/__/__/__/mesh/src/access/device_state_manager.c.obj
 .bss.m_appkey_allocated
                0x0000000020002a24        0x4 CMakeFiles/51_light_control_client.dir/__/__/__/mesh/src/access/device_state_manager.c.obj
 .bss.m_appkey_needs_flashing
                0x0000000020002a28        0x4 CMakeFiles/51_light_control_client.dir/__/__/__/mesh/src/access/device_state_manager.c.obj
 .bss.m_appkeys
                0x0000000020002a2c       0x16 CMakeFiles/51_light_control_client.dir/__/__/__/mesh/src/access/device_state_manager.c.obj
 *fill*         0x0000000020002a42        0x2 
 .bss.m_devkey_allocated
                0x0000000020002a44        0x4 CMakeFiles/51_light_control_client.dir/__/__/__/mesh/src/access/device_state_manager.c.obj
 .bss.m_devkey_needs_flashing
                0x0000000020002a48        0x4 CMakeFiles/51_light_control_client.dir/__/__/__/mesh/src/access/device_state_manager.c.obj
 .bss.m_devkeys
                0x0000000020002a4c       0x58 CMakeFiles/51_light_control_client.dir/__/__/__/mesh/src/access/device_state_manager.c.obj
 .bss.m_flash_is_available
                0x0000000020002aa4        0x1 CMakeFiles/51_light_control_client.dir/__/__/__/mesh/src/access/device_state_manager.c.obj
 *fill*         0x0000000020002aa5        0x3 
 .bss.m_flash_manager
                0x0000000020002aa8       0x24 CMakeFiles/51_light_control_client.dir/__/__/__/mesh/src/access/device_state_manager.c.obj
 .bss.m_flash_mem_listener_update_all
                0x0000000020002acc       0x10 CMakeFiles/51_light_control_client.dir/__/__/__/mesh/src/access/device_state_manager.c.obj
 .bss.m_has_primary_subnet
                0x0000000020002adc        0x1 CMakeFiles/51_light_control_client.dir/__/__/__/mesh/src/access/device_state_manager.c.obj
 *fill*         0x0000000020002add        0x3 
 .bss.m_local_unicast_addr
                0x0000000020002ae0        0x4 CMakeFiles/51_light_control_client.dir/__/__/__/mesh/src/access/device_state_manager.c.obj
 .bss.m_subnet_allocated
                0x0000000020002ae4        0x4 CMakeFiles/51_light_control_client.dir/__/__/__/mesh/src/access/device_state_manager.c.obj
 .bss.m_subnet_needs_flashing
                0x0000000020002ae8        0x4 CMakeFiles/51_light_control_client.dir/__/__/__/mesh/src/access/device_state_manager.c.obj
 .bss.m_subnets
                0x0000000020002aec       0x5c CMakeFiles/51_light_control_client.dir/__/__/__/mesh/src/access/device_state_manager.c.obj
 .bss.m_virtual_addresses
                0x0000000020002b48       0x14 CMakeFiles/51_light_control_client.dir/__/__/__/mesh/src/access/device_state_manager.c.obj
 .bss.m_ble_evt_buffer
                0x0000000020002b5c       0x47 CMakeFiles/51_light_control_client.dir/__/__/nrf_mesh_sdk.c.obj
 *fill*         0x0000000020002ba3        0x1 
 .bss.m_button_handler_cb
                0x0000000020002ba4        0x4 CMakeFiles/51_light_control_client.dir/__/__/hal/src/simple_hal.c.obj
 .bss.m_last_button_press
                0x0000000020002ba8        0x4 CMakeFiles/51_light_control_client.dir/__/__/hal/src/simple_hal.c.obj
 .bss.m_tid     0x0000000020002bac        0x1 CMakeFiles/51_light_control_client.dir/__/__/models/simple_on_off/src/simple_on_off_client.c.obj
 *fill*         0x0000000020002bad        0x3 
 .bss.mp_bearer_head
                0x0000000020002bb0        0x4 ../../../mesh/lib_51_MBTLE_PB_ADV_ER.a(prov_bearer_adv.c.obj)
 .bss.m_offload_ecdh
                0x0000000020002bb4        0x1 ../../../mesh/lib_51_MBTLE_PB_ADV_ER.a(prov_utils.c.obj)
 *fill*         0x0000000020002bb5        0x3 
 .bss.m_default_gap_addr
                0x0000000020002bb8        0x7 ../../../mesh/lib_51_MBTLE_CORE.a(bearer_adv.c.obj)
 .bss.m_is_scanning
                0x0000000020002bbf        0x1 ../../../mesh/lib_51_MBTLE_CORE.a(bearer_adv.c.obj)
 .bss.m_scan_ch
                0x0000000020002bc0        0x1 ../../../mesh/lib_51_MBTLE_CORE.a(bearer_adv.c.obj)
 *fill*         0x0000000020002bc1        0x3 
 .bss.m_scan_config
                0x0000000020002bc4        0xc ../../../mesh/lib_51_MBTLE_CORE.a(bearer_adv.c.obj)
 .bss.m_scan_evt
                0x0000000020002bd0       0x18 ../../../mesh/lib_51_MBTLE_CORE.a(bearer_adv.c.obj)
 .bss.m_scan_window_end_evt
                0x0000000020002be8       0x18 ../../../mesh/lib_51_MBTLE_CORE.a(bearer_adv.c.obj)
 .bss.m_pool    0x0000000020002c00     0x1000 ../../../mesh/lib_51_MBTLE_CORE.a(packet_mgr.c.obj)
 .bss.mp_free_head
                0x0000000020003c00        0x4 ../../../mesh/lib_51_MBTLE_CORE.a(packet_mgr.c.obj)
 .bss.m_idle_cb
                0x0000000020003c04        0x4 ../../../mesh/lib_51_MBTLE_CORE.a(radio.c.obj)
 .bss.m_radio_config
                0x0000000020003c08        0x8 ../../../mesh/lib_51_MBTLE_CORE.a(radio.c.obj)
 .bss.m_radio_fifo
                0x0000000020003c10       0x14 ../../../mesh/lib_51_MBTLE_CORE.a(radio.c.obj)
 .bss.m_radio_fifo_queue
                0x0000000020003c24       0x60 ../../../mesh/lib_51_MBTLE_CORE.a(radio.c.obj)
 .bss.m_rx_cb   0x0000000020003c84        0x4 ../../../mesh/lib_51_MBTLE_CORE.a(radio.c.obj)
 .bss.m_tx_cb   0x0000000020003c88        0x4 ../../../mesh/lib_51_MBTLE_CORE.a(radio.c.obj)
 .bss.s_fifo_reserved.6682
                0x0000000020003c8c        0x4 ../../../mesh/lib_51_MBTLE_CORE.a(radio.c.obj)
 .bss.m_attributes
                0x0000000020003c90        0x3 ../../../mesh/lib_51_MBTLE_CORE.a(timer.c.obj)
 *fill*         0x0000000020003c93        0x1 
 .bss.m_callbacks
                0x0000000020003c94        0xc ../../../mesh/lib_51_MBTLE_CORE.a(timer.c.obj)
 .bss.m_is_in_ts
                0x0000000020003ca0        0x1 ../../../mesh/lib_51_MBTLE_CORE.a(timer.c.obj)
 *fill*         0x0000000020003ca1        0x3 
 .bss.m_reference_time
                0x0000000020003ca4        0x4 ../../../mesh/lib_51_MBTLE_CORE.a(timer.c.obj)
 .bss.m_timeouts
                0x0000000020003ca8        0xc ../../../mesh/lib_51_MBTLE_CORE.a(timer.c.obj)
 .bss.m_timer_mut
                0x0000000020003cb4        0x4 ../../../mesh/lib_51_MBTLE_CORE.a(timer.c.obj)
 .bss.m_ts_end_time
                0x0000000020003cb8        0x4 ../../../mesh/lib_51_MBTLE_CORE.a(timer.c.obj)
 .bss.mp_ppi_tasks
                0x0000000020003cbc        0xc ../../../mesh/lib_51_MBTLE_CORE.a(timer.c.obj)
 .bss.m_event_flag
                0x0000000020003cc8        0x4 ../../../mesh/lib_51_MBTLE_CORE.a(timer_scheduler.c.obj)
 .bss.m_scheduler
                0x0000000020003ccc       0x10 ../../../mesh/lib_51_MBTLE_CORE.a(timer_scheduler.c.obj)
 .bss.m_advertiser
                0x0000000020003cdc       0xe0 ../../../mesh/lib_51_MBTLE_CORE.a(beacon.c.obj)
 .bss.m_addr_filter
                0x0000000020003dbc        0x8 ../../../mesh/lib_51_MBTLE_CORE.a(bearer.c.obj)
 .bss.m_adtype_filter
                0x0000000020003dc4       0x20 ../../../mesh/lib_51_MBTLE_CORE.a(bearer.c.obj)
 .bss.m_adtype_filtering
                0x0000000020003de4        0x1 ../../../mesh/lib_51_MBTLE_CORE.a(bearer.c.obj)
 *fill*         0x0000000020003de5        0x3 
 .bss.m_regular_advertiser
                0x0000000020003de8       0xe0 ../../../mesh/lib_51_MBTLE_CORE.a(bearer.c.obj)
 .bss.m_rx_fifo
                0x0000000020003ec8       0x14 ../../../mesh/lib_51_MBTLE_CORE.a(bearer.c.obj)
 .bss.m_rx_fifo_buffer
                0x0000000020003edc       0xa0 ../../../mesh/lib_51_MBTLE_CORE.a(bearer.c.obj)
 .bss.packets_accepted
                0x0000000020003f7c        0x4 ../../../mesh/lib_51_MBTLE_CORE.a(bearer.c.obj)
 .bss.packets_dropped_invalid_addr
                0x0000000020003f80        0x4 ../../../mesh/lib_51_MBTLE_CORE.a(bearer.c.obj)
 .bss.packets_dropped_invalid_adtype
                0x0000000020003f84        0x4 ../../../mesh/lib_51_MBTLE_CORE.a(bearer.c.obj)
 .bss.packets_dropped_invalid_length
                0x0000000020003f88        0x4 ../../../mesh/lib_51_MBTLE_CORE.a(bearer.c.obj)
 .bss.m_bearer_event_fifo
                0x0000000020003f8c       0x14 ../../../mesh/lib_51_MBTLE_CORE.a(bearer_event.c.obj)
 .bss.m_bearer_event_fifo_buffer
                0x0000000020003fa0      0x100 ../../../mesh/lib_51_MBTLE_CORE.a(bearer_event.c.obj)
 .bss.m_critical
                0x00000000200040a0        0x4 ../../../mesh/lib_51_MBTLE_CORE.a(bearer_event.c.obj)
 .bss.m_flag_count
                0x00000000200040a4        0x4 ../../../mesh/lib_51_MBTLE_CORE.a(bearer_event.c.obj)
 .bss.m_flag_event_callbacks
                0x00000000200040a8       0x10 ../../../mesh/lib_51_MBTLE_CORE.a(bearer_event.c.obj)
 .bss.m_flags   0x00000000200040b8        0x4 ../../../mesh/lib_51_MBTLE_CORE.a(bearer_event.c.obj)
 .bss.m_uuid    0x00000000200040bc       0x10 ../../../mesh/lib_51_MBTLE_CORE.a(nrf_mesh_configure.c.obj)
 .bss.mp_evt_handlers_head
                0x00000000200040cc        0x4 ../../../mesh/lib_51_MBTLE_CORE.a(event.c.obj)
 .bss.m_beacon_salt
                0x00000000200040d0       0x10 ../../../mesh/lib_51_MBTLE_CORE.a(net_beacon.c.obj)
 .bss.m_enabled
                0x00000000200040e0        0x1 ../../../mesh/lib_51_MBTLE_CORE.a(net_beacon.c.obj)
 *fill*         0x00000000200040e1        0x3 
 .bss.m_tx_event
                0x00000000200040e4       0x18 ../../../mesh/lib_51_MBTLE_CORE.a(net_beacon.c.obj)
 .bss.lock_count.7474
                0x00000000200040fc        0x4 ../../../mesh/lib_51_MBTLE_CORE.a(net_state.c.obj)
 .bss.m_flash_manager
                0x0000000020004100       0x24 ../../../mesh/lib_51_MBTLE_CORE.a(net_state.c.obj)
 .bss.m_iv_update_timer
                0x0000000020004124       0x18 ../../../mesh/lib_51_MBTLE_CORE.a(net_state.c.obj)
 .bss.m_net_state
                0x000000002000413c       0x14 ../../../mesh/lib_51_MBTLE_CORE.a(net_state.c.obj)
 .bss.m_seqnum_allocation_in_progress
                0x0000000020004150        0x1 ../../../mesh/lib_51_MBTLE_CORE.a(net_state.c.obj)
 .bss.m_test_mode
                0x0000000020004151        0x1 ../../../mesh/lib_51_MBTLE_CORE.a(net_state.c.obj)
 .bss.m_is_enabled
                0x0000000020004152        0x1 ../../../mesh/lib_51_MBTLE_CORE.a(nrf_mesh.c.obj)
 .bss.m_is_initialized
                0x0000000020004153        0x1 ../../../mesh/lib_51_MBTLE_CORE.a(nrf_mesh.c.obj)
 .bss.m_rx_cb   0x0000000020004154        0x4 ../../../mesh/lib_51_MBTLE_CORE.a(nrf_mesh.c.obj)
 .bss.m_current_time
                0x0000000020004158        0x4 ../../../mesh/lib_51_MBTLE_CORE.a(ticker.c.obj)
 .bss.m_timer   0x000000002000415c       0x18 ../../../mesh/lib_51_MBTLE_CORE.a(ticker.c.obj)
 .bss.m_sar_alloc
                0x0000000020004174        0x4 ../../../mesh/lib_51_MBTLE_CORE.a(transport.c.obj)
 .bss.m_sar_release
                0x0000000020004178        0x4 ../../../mesh/lib_51_MBTLE_CORE.a(transport.c.obj)
 .bss.m_transport_pkt_buf
                0x000000002000417c       0x13 ../../../mesh/lib_51_MBTLE_CORE.a(transport.c.obj)
 *fill*         0x000000002000418f        0x1 
 .bss.m_trs_config
                0x0000000020004190       0x14 ../../../mesh/lib_51_MBTLE_CORE.a(transport.c.obj)
 .bss.m_trs_sar_ack_timeout
                0x00000000200041a4        0x1 ../../../mesh/lib_51_MBTLE_CORE.a(transport.c.obj)
 .bss.m_trs_sar_ack_timer_active
                0x00000000200041a5        0x1 ../../../mesh/lib_51_MBTLE_CORE.a(transport.c.obj)
 *fill*         0x00000000200041a6        0x2 
 .bss.m_trs_sar_rx_ack_timer
                0x00000000200041a8       0x18 ../../../mesh/lib_51_MBTLE_CORE.a(transport.c.obj)
 .bss.m_trs_sar_rx_sessions
                0x00000000200041c0       0x50 ../../../mesh/lib_51_MBTLE_CORE.a(transport.c.obj)
 .bss.m_trs_sar_session_timer
                0x0000000020004210       0x18 ../../../mesh/lib_51_MBTLE_CORE.a(transport.c.obj)
 .bss.m_trs_sar_tx_sessions
                0x0000000020004228       0x50 ../../../mesh/lib_51_MBTLE_CORE.a(transport.c.obj)
 .bss.m_trs_sar_tx_timeout
                0x0000000020004278        0x1 ../../../mesh/lib_51_MBTLE_CORE.a(transport.c.obj)
 *fill*         0x0000000020004279        0x3 
 .bss.m_trs_sar_tx_timer
                0x000000002000427c       0x18 ../../../mesh/lib_51_MBTLE_CORE.a(transport.c.obj)
 .bss.m_internal_event_fifo
                0x0000000020004294       0x14 ../../../mesh/lib_51_MBTLE_CORE.a(internal_event.c.obj)
 .bss.m_internal_event_initialized
                0x00000000200042a8        0x1 ../../../mesh/lib_51_MBTLE_CORE.a(internal_event.c.obj)
 *fill*         0x00000000200042a9        0x3 
 .bss.m_report_cb
                0x00000000200042ac        0x4 ../../../mesh/lib_51_MBTLE_CORE.a(internal_event.c.obj)
 .bss.m_action_queue
                0x00000000200042b0        0xc ../../../mesh/lib_51_MBTLE_CORE.a(flash_manager.c.obj)
 .bss.m_action_queue_buffer
                0x00000000200042bc      0x104 ../../../mesh/lib_51_MBTLE_CORE.a(flash_manager.c.obj)
 .bss.m_action_state
                0x00000000200043c0        0x1 ../../../mesh/lib_51_MBTLE_CORE.a(flash_manager.c.obj)
 *fill*         0x00000000200043c1        0x3 
 .bss.m_memory_listener_queue
                0x00000000200043c4        0x8 ../../../mesh/lib_51_MBTLE_CORE.a(flash_manager.c.obj)
 .bss.m_processing_flag
                0x00000000200043cc        0x4 ../../../mesh/lib_51_MBTLE_CORE.a(flash_manager.c.obj)
 .bss.m_state   0x00000000200043d0        0x1 ../../../mesh/lib_51_MBTLE_CORE.a(flash_manager.c.obj)
 *fill*         0x00000000200043d1        0x1 
 .bss.m_token   0x00000000200043d2        0x2 ../../../mesh/lib_51_MBTLE_CORE.a(flash_manager.c.obj)
 .bss.p_current.8667
                0x00000000200043d4        0x4 ../../../mesh/lib_51_MBTLE_CORE.a(flash_manager.c.obj)
 .bss.result.8668
                0x00000000200043d8        0x1 ../../../mesh/lib_51_MBTLE_CORE.a(flash_manager.c.obj)
 *fill*         0x00000000200043d9        0x3 
 .bss.m_defrag  0x00000000200043dc       0x1c ../../../mesh/lib_51_MBTLE_CORE.a(flash_manager_defrag.c.obj)
 .bss.m_token   0x00000000200043f8        0x2 ../../../mesh/lib_51_MBTLE_CORE.a(flash_manager_defrag.c.obj)
 *fill*         0x00000000200043fa        0x2 
 .bss.mp_recovery_area
                0x00000000200043fc        0x4 ../../../mesh/lib_51_MBTLE_CORE.a(flash_manager_defrag.c.obj)
 .bss.p_null_ptr.7732
                0x0000000020004400        0x4 ../../../mesh/lib_51_MBTLE_CORE.a(flash_manager_defrag.c.obj)
 .bss.m_end_timer_triggered
                0x0000000020004404        0x1 ../../../mesh/lib_51_MBTLE_CORE.a(timeslot.c.obj)
 .bss.m_framework_initialized
                0x0000000020004405        0x1 ../../../mesh/lib_51_MBTLE_CORE.a(timeslot.c.obj)
 .bss.m_is_in_callback
                0x0000000020004406        0x1 ../../../mesh/lib_51_MBTLE_CORE.a(timeslot.c.obj)
 .bss.m_is_in_timeslot
                0x0000000020004407        0x1 ../../../mesh/lib_51_MBTLE_CORE.a(timeslot.c.obj)
 .bss.m_ret_param
                0x0000000020004408        0x8 ../../../mesh/lib_51_MBTLE_CORE.a(timeslot.c.obj)
 .bss.m_start_time
                0x0000000020004410        0x4 ../../../mesh/lib_51_MBTLE_CORE.a(timeslot.c.obj)
 .bss.m_timeslot_count
                0x0000000020004414        0x4 ../../../mesh/lib_51_MBTLE_CORE.a(timeslot.c.obj)
 .bss.m_timeslot_forced_command
                0x0000000020004418        0x1 ../../../mesh/lib_51_MBTLE_CORE.a(timeslot.c.obj)
 *fill*         0x0000000020004419        0x3 
 .bss.m_timeslot_length
                0x000000002000441c        0x4 ../../../mesh/lib_51_MBTLE_CORE.a(timeslot.c.obj)
 .bss.requested_extend_time.8330
                0x0000000020004420        0x4 ../../../mesh/lib_51_MBTLE_CORE.a(timeslot.c.obj)
 *fill*         0x0000000020004424        0x4 
 .bss.s_last_rtc_value.8302
                0x0000000020004428        0x8 ../../../mesh/lib_51_MBTLE_CORE.a(timeslot.c.obj)
 .bss.m_128buf  0x0000000020004430       0x10 ../../../mesh/lib_51_MBTLE_CORE.a(aes_cmac.c.obj)
 .bss.m_subkey1
                0x0000000020004440       0x10 ../../../mesh/lib_51_MBTLE_CORE.a(aes_cmac.c.obj)
 .bss.m_subkey2
                0x0000000020004450       0x10 ../../../mesh/lib_51_MBTLE_CORE.a(aes_cmac.c.obj)
 .bss.m_msg_cache
                0x0000000020004460      0x100 ../../../mesh/lib_51_MBTLE_CORE.a(msg_cache.c.obj)
 .bss.m_msg_cache_head
                0x0000000020004560        0x4 ../../../mesh/lib_51_MBTLE_CORE.a(msg_cache.c.obj)
 .bss.m_relay_check_cb
                0x0000000020004564        0x4 ../../../mesh/lib_51_MBTLE_CORE.a(network.c.obj)
 .bss.m_relay_enable
                0x0000000020004568        0x1 ../../../mesh/lib_51_MBTLE_CORE.a(network.c.obj)
 .bss.m_relay_retransmit_count
                0x0000000020004569        0x1 ../../../mesh/lib_51_MBTLE_CORE.a(network.c.obj)
 .bss.m_cache_full
                0x000000002000456a        0x1 ../../../mesh/lib_51_MBTLE_CORE.a(replay_cache.c.obj)
 .bss.m_cache_index
                0x000000002000456b        0x1 ../../../mesh/lib_51_MBTLE_CORE.a(replay_cache.c.obj)
 .bss.m_replay_cache
                0x000000002000456c      0x200 ../../../mesh/lib_51_MBTLE_CORE.a(replay_cache.c.obj)
 .bss.m_event_flag
                0x000000002000476c        0x4 ../../../mesh/lib_51_MBTLE_CORE.a(mesh_flash.c.obj)
 .bss.m_suspended
                0x0000000020004770        0x1 ../../../mesh/lib_51_MBTLE_CORE.a(mesh_flash.c.obj)
 *fill*         0x0000000020004771        0x3 
 .bss.m_users   0x0000000020004774      0x1d4 ../../../mesh/lib_51_MBTLE_CORE.a(mesh_flash.c.obj)
 .bss._acDownBuffer
                0x0000000020004948       0x80 ../../../lib/rtt/lib_51_RTT_LIB.a(SEGGER_RTT.c.obj)
 .bss._acUpBuffer
                0x00000000200049c8      0x400 ../../../lib/rtt/lib_51_RTT_LIB.a(SEGGER_RTT.c.obj)
 .bss.__malloc_free_list
                0x0000000020004dc8        0x4 /usr/bin/../lib/gcc/arm-none-eabi/6.3.1/../../../../arm-none-eabi/lib/thumb/v6-m/libg_nano.a(lib_a-nano-mallocr.o)
                0x0000000020004dc8                __malloc_free_list
 .bss.__malloc_sbrk_start
                0x0000000020004dcc        0x4 /usr/bin/../lib/gcc/arm-none-eabi/6.3.1/../../../../arm-none-eabi/lib/thumb/v6-m/libg_nano.a(lib_a-nano-mallocr.o)
                0x0000000020004dcc                __malloc_sbrk_start
 .bss.heap_end.4116
                0x0000000020004dd0        0x4 /usr/bin/../lib/gcc/arm-none-eabi/6.3.1/../../../../arm-none-eabi/lib/thumb/v6-m/libnosys.a(sbrk.o)
 *(COMMON)
 COMMON         0x0000000020004dd4        0x8 CMakeFiles/51_light_control_client.dir/__/__/nrf_mesh_sdk.c.obj
                0x0000000020004dd4                nrf_nvic_state
 COMMON         0x0000000020004ddc        0x4 ../../../mesh/lib_51_MBTLE_CORE.a(nrf_mesh.c.obj)
                0x0000000020004ddc                m_assertion_handler
 COMMON         0x0000000020004de0       0x78 ../../../lib/rtt/lib_51_RTT_LIB.a(SEGGER_RTT.c.obj)
                0x0000000020004de0                _SEGGER_RTT
 COMMON         0x0000000020004e58        0x4 /usr/bin/../lib/gcc/arm-none-eabi/6.3.1/../../../../arm-none-eabi/lib/thumb/v6-m/libg_nano.a(lib_a-reent.o)
                0x0000000020004e58                errno
                0x0000000020004e5c                . = ALIGN (0x4)
                0x0000000020004e5c                __bss_end__ = .

.heap           0x0000000020004e60       0x80
                0x0000000020004e60                __HeapBase = .
                0x0000000020004e60                __end__ = .
                0x0000000020004e60                PROVIDE (end, .)
 *(.heap*)
 .heap          0x0000000020004e60       0x80 CMakeFiles/51_light_control_client.dir/__/__/__/toolchain/gcc/gcc_startup_nrf51.S.obj
                0x0000000020004ee0                __HeapLimit = .

.stack_dummy    0x0000000020004e60      0x800
 *(.stack*)
 .stack         0x0000000020004e60      0x800 CMakeFiles/51_light_control_client.dir/__/__/__/toolchain/gcc/gcc_startup_nrf51.S.obj
                0x0000000020007d00                __StackTop = (ORIGIN (RAM) + LENGTH (RAM))
                0x0000000020007500                __StackLimit = (__StackTop - SIZEOF (.stack_dummy))
                0x0000000020007d00                PROVIDE (__stack, __StackTop)
                0x0000000000000001                ASSERT ((__StackLimit >= __HeapLimit), region RAM overflowed with stack)
OUTPUT(51_light_control_client.elf elf32-littlearm)

.ARM.attributes
                0x0000000000000000       0x28
 .ARM.attributes
                0x0000000000000000       0x1e /usr/bin/../lib/gcc/arm-none-eabi/6.3.1/thumb/v6-m/crti.o
 .ARM.attributes
                0x000000000000001e       0x2c /usr/bin/../lib/gcc/arm-none-eabi/6.3.1/thumb/v6-m/crtbegin.o
 .ARM.attributes
                0x000000000000004a       0x1b /usr/bin/../lib/gcc/arm-none-eabi/6.3.1/../../../../arm-none-eabi/lib/thumb/v6-m/crt0.o
 .ARM.attributes
                0x0000000000000065       0x31 CMakeFiles/51_light_control_client.dir/src/main.c.obj
 .ARM.attributes
                0x0000000000000096       0x31 CMakeFiles/51_light_control_client.dir/src/provisioner.c.obj
 .ARM.attributes
                0x00000000000000c7       0x31 CMakeFiles/51_light_control_client.dir/__/__/__/mesh/models/config/src/config_client.c.obj
 .ARM.attributes
                0x00000000000000f8       0x31 CMakeFiles/51_light_control_client.dir/__/__/__/mesh/src/access/access.c.obj
 .ARM.attributes
                0x0000000000000129       0x31 CMakeFiles/51_light_control_client.dir/__/__/__/mesh/src/access/access_reliable.c.obj
 .ARM.attributes
                0x000000000000015a       0x31 CMakeFiles/51_light_control_client.dir/__/__/__/mesh/src/access/device_state_manager.c.obj
 .ARM.attributes
                0x000000000000018b       0x31 CMakeFiles/51_light_control_client.dir/__/__/nrf_mesh_sdk.c.obj
 .ARM.attributes
                0x00000000000001bc       0x31 CMakeFiles/51_light_control_client.dir/__/__/hal/src/simple_hal.c.obj
 .ARM.attributes
                0x00000000000001ed       0x31 CMakeFiles/51_light_control_client.dir/__/__/models/simple_on_off/src/simple_on_off_client.c.obj
 .ARM.attributes
                0x000000000000021e       0x1b CMakeFiles/51_light_control_client.dir/__/__/__/toolchain/gcc/gcc_startup_nrf51.S.obj
 .ARM.attributes
                0x0000000000000239       0x31 CMakeFiles/51_light_control_client.dir/__/__/__/toolchain/system_nrf51.c.obj
 .ARM.attributes
                0x000000000000026a       0x31 ../../../mesh/lib_51_MBTLE_PB_ADV_ER.a(nrf_mesh_prov.c.obj)
 .ARM.attributes
                0x000000000000029b       0x31 ../../../mesh/lib_51_MBTLE_PB_ADV_ER.a(prov_bearer_adv.c.obj)
 .ARM.attributes
                0x00000000000002cc       0x31 ../../../mesh/lib_51_MBTLE_PB_ADV_ER.a(prov_utils.c.obj)
 .ARM.attributes
                0x00000000000002fd       0x31 ../../../mesh/lib_51_MBTLE_PB_ADV_ER.a(prov_beacon.c.obj)
 .ARM.attributes
                0x000000000000032e       0x31 ../../../mesh/lib_51_MBTLE_PB_ADV_ER.a(prov_provisioner.c.obj)
 .ARM.attributes
                0x000000000000035f       0x31 ../../../mesh/lib_51_MBTLE_PB_ADV_ER.a(provisioning.c.obj)
 .ARM.attributes
                0x0000000000000390       0x31 ../../../mesh/lib_51_MBTLE_CORE.a(nrf_mesh_weak.c.obj)
 .ARM.attributes
                0x00000000000003c1       0x31 ../../../mesh/lib_51_MBTLE_CORE.a(bearer_adv.c.obj)
 .ARM.attributes
                0x00000000000003f2       0x31 ../../../mesh/lib_51_MBTLE_CORE.a(fifo.c.obj)
 .ARM.attributes
                0x0000000000000423       0x31 ../../../mesh/lib_51_MBTLE_CORE.a(packet_mgr.c.obj)
 .ARM.attributes
                0x0000000000000454       0x31 ../../../mesh/lib_51_MBTLE_CORE.a(radio.c.obj)
 .ARM.attributes
                0x0000000000000485       0x31 ../../../mesh/lib_51_MBTLE_CORE.a(timer.c.obj)
 .ARM.attributes
                0x00000000000004b6       0x31 ../../../mesh/lib_51_MBTLE_CORE.a(timer_scheduler.c.obj)
 .ARM.attributes
                0x00000000000004e7       0x31 ../../../mesh/lib_51_MBTLE_CORE.a(beacon.c.obj)
 .ARM.attributes
                0x0000000000000518       0x31 ../../../mesh/lib_51_MBTLE_CORE.a(bearer.c.obj)
 .ARM.attributes
                0x0000000000000549       0x31 ../../../mesh/lib_51_MBTLE_CORE.a(bearer_event.c.obj)
 .ARM.attributes
                0x000000000000057a       0x31 ../../../mesh/lib_51_MBTLE_CORE.a(nrf_mesh_configure.c.obj)
 .ARM.attributes
                0x00000000000005ab       0x31 ../../../mesh/lib_51_MBTLE_CORE.a(enc.c.obj)
 .ARM.attributes
                0x00000000000005dc       0x31 ../../../mesh/lib_51_MBTLE_CORE.a(event.c.obj)
 .ARM.attributes
                0x000000000000060d       0x31 ../../../mesh/lib_51_MBTLE_CORE.a(log.c.obj)
 .ARM.attributes
                0x000000000000063e       0x31 ../../../mesh/lib_51_MBTLE_CORE.a(net_beacon.c.obj)
 .ARM.attributes
                0x000000000000066f       0x31 ../../../mesh/lib_51_MBTLE_CORE.a(net_state.c.obj)
 .ARM.attributes
                0x00000000000006a0       0x31 ../../../mesh/lib_51_MBTLE_CORE.a(nrf_mesh.c.obj)
 .ARM.attributes
                0x00000000000006d1       0x31 ../../../mesh/lib_51_MBTLE_CORE.a(nrf_mesh_keygen.c.obj)
 .ARM.attributes
                0x0000000000000702       0x31 ../../../mesh/lib_51_MBTLE_CORE.a(nrf_mesh_utils.c.obj)
 .ARM.attributes
                0x0000000000000733       0x31 ../../../mesh/lib_51_MBTLE_CORE.a(radio_config.c.obj)
 .ARM.attributes
                0x0000000000000764       0x31 ../../../mesh/lib_51_MBTLE_CORE.a(rand.c.obj)
 .ARM.attributes
                0x0000000000000795       0x31 ../../../mesh/lib_51_MBTLE_CORE.a(ticker.c.obj)
 .ARM.attributes
                0x00000000000007c6       0x31 ../../../mesh/lib_51_MBTLE_CORE.a(transport.c.obj)
 .ARM.attributes
                0x00000000000007f7       0x31 ../../../mesh/lib_51_MBTLE_CORE.a(internal_event.c.obj)
 .ARM.attributes
                0x0000000000000828       0x31 ../../../mesh/lib_51_MBTLE_CORE.a(flash_manager.c.obj)
 .ARM.attributes
                0x0000000000000859       0x31 ../../../mesh/lib_51_MBTLE_CORE.a(flash_manager_defrag.c.obj)
 .ARM.attributes
                0x000000000000088a       0x31 ../../../mesh/lib_51_MBTLE_CORE.a(flash_manager_internal.c.obj)
 .ARM.attributes
                0x00000000000008bb       0x31 ../../../mesh/lib_51_MBTLE_CORE.a(aes.c.obj)
 .ARM.attributes
                0x00000000000008ec       0x31 ../../../mesh/lib_51_MBTLE_CORE.a(queue.c.obj)
 .ARM.attributes
                0x000000000000091d       0x31 ../../../mesh/lib_51_MBTLE_CORE.a(timeslot.c.obj)
 .ARM.attributes
                0x000000000000094e       0x31 ../../../mesh/lib_51_MBTLE_CORE.a(aes_cmac.c.obj)
 .ARM.attributes
                0x000000000000097f       0x31 ../../../mesh/lib_51_MBTLE_CORE.a(ccm_soft.c.obj)
 .ARM.attributes
                0x00000000000009b0       0x31 ../../../mesh/lib_51_MBTLE_CORE.a(msg_cache.c.obj)
 .ARM.attributes
                0x00000000000009e1       0x31 ../../../mesh/lib_51_MBTLE_CORE.a(network.c.obj)
 .ARM.attributes
                0x0000000000000a12       0x31 ../../../mesh/lib_51_MBTLE_CORE.a(packet.c.obj)
 .ARM.attributes
                0x0000000000000a43       0x31 ../../../mesh/lib_51_MBTLE_CORE.a(packet_buffer.c.obj)
 .ARM.attributes
                0x0000000000000a74       0x31 ../../../mesh/lib_51_MBTLE_CORE.a(replay_cache.c.obj)
 .ARM.attributes
                0x0000000000000aa5       0x31 ../../../mesh/lib_51_MBTLE_CORE.a(mesh_flash.c.obj)
 .ARM.attributes
                0x0000000000000ad6       0x31 ../../../mesh/lib_51_MBTLE_CORE.a(nrf_flash.c.obj)
 .ARM.attributes
                0x0000000000000b07       0x31 ../../../mesh/lib_51_MBTLE_CORE.a(msqueue.c.obj)
 .ARM.attributes
                0x0000000000000b38       0x31 ../../../lib/micro-ecc/lib_51_UECC_LIB.a(uECC.c.obj)
 .ARM.attributes
                0x0000000000000b69       0x31 ../../../lib/rtt/lib_51_RTT_LIB.a(SEGGER_RTT.c.obj)
 .ARM.attributes
                0x0000000000000b9a       0x31 ../../../lib/rtt/lib_51_RTT_LIB.a(SEGGER_RTT_printf.c.obj)
 .ARM.attributes
                0x0000000000000bcb       0x1e /usr/bin/../lib/gcc/arm-none-eabi/6.3.1/thumb/v6-m/libgcc.a(_udivsi3.o)
 .ARM.attributes
                0x0000000000000be9       0x1e /usr/bin/../lib/gcc/arm-none-eabi/6.3.1/thumb/v6-m/libgcc.a(_divsi3.o)
 .ARM.attributes
                0x0000000000000c07       0x1e /usr/bin/../lib/gcc/arm-none-eabi/6.3.1/thumb/v6-m/libgcc.a(_dvmd_tls.o)
 .ARM.attributes
                0x0000000000000c25       0x2c /usr/bin/../lib/gcc/arm-none-eabi/6.3.1/thumb/v6-m/libgcc.a(_muldi3.o)
 .ARM.attributes
                0x0000000000000c51       0x2c /usr/bin/../lib/gcc/arm-none-eabi/6.3.1/../../../../arm-none-eabi/lib/thumb/v6-m/libg_nano.a(lib_a-exit.o)
 .ARM.attributes
                0x0000000000000c7d       0x2c /usr/bin/../lib/gcc/arm-none-eabi/6.3.1/../../../../arm-none-eabi/lib/thumb/v6-m/libg_nano.a(lib_a-impure.o)
 .ARM.attributes
                0x0000000000000ca9       0x2c /usr/bin/../lib/gcc/arm-none-eabi/6.3.1/../../../../arm-none-eabi/lib/thumb/v6-m/libg_nano.a(lib_a-init.o)
 .ARM.attributes
                0x0000000000000cd5       0x2c /usr/bin/../lib/gcc/arm-none-eabi/6.3.1/../../../../arm-none-eabi/lib/thumb/v6-m/libg_nano.a(lib_a-malloc.o)
 .ARM.attributes
                0x0000000000000d01       0x2c /usr/bin/../lib/gcc/arm-none-eabi/6.3.1/../../../../arm-none-eabi/lib/thumb/v6-m/libg_nano.a(lib_a-memcmp.o)
 .ARM.attributes
                0x0000000000000d2d       0x2c /usr/bin/../lib/gcc/arm-none-eabi/6.3.1/../../../../arm-none-eabi/lib/thumb/v6-m/libg_nano.a(lib_a-memcpy-stub.o)
 .ARM.attributes
                0x0000000000000d59       0x2c /usr/bin/../lib/gcc/arm-none-eabi/6.3.1/../../../../arm-none-eabi/lib/thumb/v6-m/libg_nano.a(lib_a-memset.o)
 .ARM.attributes
                0x0000000000000d85       0x2c /usr/bin/../lib/gcc/arm-none-eabi/6.3.1/../../../../arm-none-eabi/lib/thumb/v6-m/libg_nano.a(lib_a-nano-freer.o)
 .ARM.attributes
                0x0000000000000db1       0x2c /usr/bin/../lib/gcc/arm-none-eabi/6.3.1/../../../../arm-none-eabi/lib/thumb/v6-m/libg_nano.a(lib_a-nano-mallocr.o)
 .ARM.attributes
                0x0000000000000ddd       0x2c /usr/bin/../lib/gcc/arm-none-eabi/6.3.1/../../../../arm-none-eabi/lib/thumb/v6-m/libg_nano.a(lib_a-sbrkr.o)
 .ARM.attributes
                0x0000000000000e09       0x2c /usr/bin/../lib/gcc/arm-none-eabi/6.3.1/../../../../arm-none-eabi/lib/thumb/v6-m/libg_nano.a(lib_a-strcpy.o)
 .ARM.attributes
                0x0000000000000e35       0x1c /usr/bin/../lib/gcc/arm-none-eabi/6.3.1/../../../../arm-none-eabi/lib/thumb/v6-m/libg_nano.a(lib_a-strlen.o)
 .ARM.attributes
                0x0000000000000e51       0x2c /usr/bin/../lib/gcc/arm-none-eabi/6.3.1/../../../../arm-none-eabi/lib/thumb/v6-m/libg_nano.a(lib_a-strrchr.o)
 .ARM.attributes
                0x0000000000000e7d       0x2c /usr/bin/../lib/gcc/arm-none-eabi/6.3.1/../../../../arm-none-eabi/lib/thumb/v6-m/libg_nano.a(lib_a-mlock.o)
 .ARM.attributes
                0x0000000000000ea9       0x2c /usr/bin/../lib/gcc/arm-none-eabi/6.3.1/../../../../arm-none-eabi/lib/thumb/v6-m/libg_nano.a(lib_a-reent.o)
 .ARM.attributes
                0x0000000000000ed5       0x2c /usr/bin/../lib/gcc/arm-none-eabi/6.3.1/../../../../arm-none-eabi/lib/thumb/v6-m/libg_nano.a(lib_a-strchr.o)
 .ARM.attributes
                0x0000000000000f01       0x2c /usr/bin/../lib/gcc/arm-none-eabi/6.3.1/thumb/v6-m/crtend.o
 .ARM.attributes
                0x0000000000000f2d       0x1e /usr/bin/../lib/gcc/arm-none-eabi/6.3.1/thumb/v6-m/crtn.o
 .ARM.attributes
                0x0000000000000f4b       0x2c /usr/bin/../lib/gcc/arm-none-eabi/6.3.1/../../../../arm-none-eabi/lib/thumb/v6-m/libnosys.a(sbrk.o)
 .ARM.attributes
                0x0000000000000f77       0x2c /usr/bin/../lib/gcc/arm-none-eabi/6.3.1/../../../../arm-none-eabi/lib/thumb/v6-m/libnosys.a(_exit.o)

.comment        0x0000000000000000       0x7f
 .comment       0x0000000000000000       0x7f CMakeFiles/51_light_control_client.dir/src/main.c.obj
                                         0x80 (size before relaxing)
 .comment       0x000000000000007f       0x80 CMakeFiles/51_light_control_client.dir/src/provisioner.c.obj
 .comment       0x000000000000007f       0x80 CMakeFiles/51_light_control_client.dir/__/__/__/mesh/models/config/src/config_client.c.obj
 .comment       0x000000000000007f       0x80 CMakeFiles/51_light_control_client.dir/__/__/__/mesh/src/access/access.c.obj
 .comment       0x000000000000007f       0x80 CMakeFiles/51_light_control_client.dir/__/__/__/mesh/src/access/access_reliable.c.obj
 .comment       0x000000000000007f       0x80 CMakeFiles/51_light_control_client.dir/__/__/__/mesh/src/access/device_state_manager.c.obj
 .comment       0x000000000000007f       0x80 CMakeFiles/51_light_control_client.dir/__/__/nrf_mesh_sdk.c.obj
 .comment       0x000000000000007f       0x80 CMakeFiles/51_light_control_client.dir/__/__/hal/src/simple_hal.c.obj
 .comment       0x000000000000007f       0x80 CMakeFiles/51_light_control_client.dir/__/__/models/simple_on_off/src/simple_on_off_client.c.obj
 .comment       0x000000000000007f       0x80 CMakeFiles/51_light_control_client.dir/__/__/__/toolchain/system_nrf51.c.obj
 .comment       0x000000000000007f       0x80 ../../../mesh/lib_51_MBTLE_PB_ADV_ER.a(nrf_mesh_prov.c.obj)
 .comment       0x000000000000007f       0x80 ../../../mesh/lib_51_MBTLE_PB_ADV_ER.a(prov_bearer_adv.c.obj)
 .comment       0x000000000000007f       0x80 ../../../mesh/lib_51_MBTLE_PB_ADV_ER.a(prov_utils.c.obj)
 .comment       0x000000000000007f       0x80 ../../../mesh/lib_51_MBTLE_PB_ADV_ER.a(prov_beacon.c.obj)
 .comment       0x000000000000007f       0x80 ../../../mesh/lib_51_MBTLE_PB_ADV_ER.a(prov_provisioner.c.obj)
 .comment       0x000000000000007f       0x80 ../../../mesh/lib_51_MBTLE_PB_ADV_ER.a(provisioning.c.obj)
 .comment       0x000000000000007f       0x80 ../../../mesh/lib_51_MBTLE_CORE.a(nrf_mesh_weak.c.obj)
 .comment       0x000000000000007f       0x80 ../../../mesh/lib_51_MBTLE_CORE.a(bearer_adv.c.obj)
 .comment       0x000000000000007f       0x80 ../../../mesh/lib_51_MBTLE_CORE.a(fifo.c.obj)
 .comment       0x000000000000007f       0x80 ../../../mesh/lib_51_MBTLE_CORE.a(packet_mgr.c.obj)
 .comment       0x000000000000007f       0x80 ../../../mesh/lib_51_MBTLE_CORE.a(radio.c.obj)
 .comment       0x000000000000007f       0x80 ../../../mesh/lib_51_MBTLE_CORE.a(timer.c.obj)
 .comment       0x000000000000007f       0x80 ../../../mesh/lib_51_MBTLE_CORE.a(timer_scheduler.c.obj)
 .comment       0x000000000000007f       0x80 ../../../mesh/lib_51_MBTLE_CORE.a(beacon.c.obj)
 .comment       0x000000000000007f       0x80 ../../../mesh/lib_51_MBTLE_CORE.a(bearer.c.obj)
 .comment       0x000000000000007f       0x80 ../../../mesh/lib_51_MBTLE_CORE.a(bearer_event.c.obj)
 .comment       0x000000000000007f       0x80 ../../../mesh/lib_51_MBTLE_CORE.a(nrf_mesh_configure.c.obj)
 .comment       0x000000000000007f       0x80 ../../../mesh/lib_51_MBTLE_CORE.a(enc.c.obj)
 .comment       0x000000000000007f       0x80 ../../../mesh/lib_51_MBTLE_CORE.a(event.c.obj)
 .comment       0x000000000000007f       0x80 ../../../mesh/lib_51_MBTLE_CORE.a(log.c.obj)
 .comment       0x000000000000007f       0x80 ../../../mesh/lib_51_MBTLE_CORE.a(net_beacon.c.obj)
 .comment       0x000000000000007f       0x80 ../../../mesh/lib_51_MBTLE_CORE.a(net_state.c.obj)
 .comment       0x000000000000007f       0x80 ../../../mesh/lib_51_MBTLE_CORE.a(nrf_mesh.c.obj)
 .comment       0x000000000000007f       0x80 ../../../mesh/lib_51_MBTLE_CORE.a(nrf_mesh_keygen.c.obj)
 .comment       0x000000000000007f       0x80 ../../../mesh/lib_51_MBTLE_CORE.a(nrf_mesh_utils.c.obj)
 .comment       0x000000000000007f       0x80 ../../../mesh/lib_51_MBTLE_CORE.a(radio_config.c.obj)
 .comment       0x000000000000007f       0x80 ../../../mesh/lib_51_MBTLE_CORE.a(rand.c.obj)
 .comment       0x000000000000007f       0x80 ../../../mesh/lib_51_MBTLE_CORE.a(ticker.c.obj)
 .comment       0x000000000000007f       0x80 ../../../mesh/lib_51_MBTLE_CORE.a(transport.c.obj)
 .comment       0x000000000000007f       0x80 ../../../mesh/lib_51_MBTLE_CORE.a(internal_event.c.obj)
 .comment       0x000000000000007f       0x80 ../../../mesh/lib_51_MBTLE_CORE.a(flash_manager.c.obj)
 .comment       0x000000000000007f       0x80 ../../../mesh/lib_51_MBTLE_CORE.a(flash_manager_defrag.c.obj)
 .comment       0x000000000000007f       0x80 ../../../mesh/lib_51_MBTLE_CORE.a(flash_manager_internal.c.obj)
 .comment       0x000000000000007f       0x80 ../../../mesh/lib_51_MBTLE_CORE.a(aes.c.obj)
 .comment       0x000000000000007f       0x80 ../../../mesh/lib_51_MBTLE_CORE.a(queue.c.obj)
 .comment       0x000000000000007f       0x80 ../../../mesh/lib_51_MBTLE_CORE.a(timeslot.c.obj)
 .comment       0x000000000000007f       0x80 ../../../mesh/lib_51_MBTLE_CORE.a(aes_cmac.c.obj)
 .comment       0x000000000000007f       0x80 ../../../mesh/lib_51_MBTLE_CORE.a(ccm_soft.c.obj)
 .comment       0x000000000000007f       0x80 ../../../mesh/lib_51_MBTLE_CORE.a(msg_cache.c.obj)
 .comment       0x000000000000007f       0x80 ../../../mesh/lib_51_MBTLE_CORE.a(network.c.obj)
 .comment       0x000000000000007f       0x80 ../../../mesh/lib_51_MBTLE_CORE.a(packet.c.obj)
 .comment       0x000000000000007f       0x80 ../../../mesh/lib_51_MBTLE_CORE.a(packet_buffer.c.obj)
 .comment       0x000000000000007f       0x80 ../../../mesh/lib_51_MBTLE_CORE.a(replay_cache.c.obj)
 .comment       0x000000000000007f       0x80 ../../../mesh/lib_51_MBTLE_CORE.a(mesh_flash.c.obj)
 .comment       0x000000000000007f       0x80 ../../../mesh/lib_51_MBTLE_CORE.a(nrf_flash.c.obj)
 .comment       0x000000000000007f       0x80 ../../../mesh/lib_51_MBTLE_CORE.a(msqueue.c.obj)
 .comment       0x000000000000007f       0x80 ../../../lib/micro-ecc/lib_51_UECC_LIB.a(uECC.c.obj)
 .comment       0x000000000000007f       0x80 ../../../lib/rtt/lib_51_RTT_LIB.a(SEGGER_RTT.c.obj)
 .comment       0x000000000000007f       0x80 ../../../lib/rtt/lib_51_RTT_LIB.a(SEGGER_RTT_printf.c.obj)

.debug_info     0x0000000000000000    0x65038
 .debug_info    0x0000000000000000     0x239c CMakeFiles/51_light_control_client.dir/src/main.c.obj
 .debug_info    0x000000000000239c     0x34d4 CMakeFiles/51_light_control_client.dir/src/provisioner.c.obj
 .debug_info    0x0000000000005870     0x38ec CMakeFiles/51_light_control_client.dir/__/__/__/mesh/models/config/src/config_client.c.obj
 .debug_info    0x000000000000915c     0x4718 CMakeFiles/51_light_control_client.dir/__/__/__/mesh/src/access/access.c.obj
 .debug_info    0x000000000000d874     0x1497 CMakeFiles/51_light_control_client.dir/__/__/__/mesh/src/access/access_reliable.c.obj
 .debug_info    0x000000000000ed0b     0x5a79 CMakeFiles/51_light_control_client.dir/__/__/__/mesh/src/access/device_state_manager.c.obj
 .debug_info    0x0000000000014784     0x2e53 CMakeFiles/51_light_control_client.dir/__/__/nrf_mesh_sdk.c.obj
 .debug_info    0x00000000000175d7      0xa34 CMakeFiles/51_light_control_client.dir/__/__/hal/src/simple_hal.c.obj
 .debug_info    0x000000000001800b      0xa31 CMakeFiles/51_light_control_client.dir/__/__/models/simple_on_off/src/simple_on_off_client.c.obj
 .debug_info    0x0000000000018a3c       0xcc CMakeFiles/51_light_control_client.dir/__/__/__/toolchain/gcc/gcc_startup_nrf51.S.obj
 .debug_info    0x0000000000018b08      0x1e1 CMakeFiles/51_light_control_client.dir/__/__/__/toolchain/system_nrf51.c.obj
 .debug_info    0x0000000000018ce9     0x19e0 ../../../mesh/lib_51_MBTLE_PB_ADV_ER.a(nrf_mesh_prov.c.obj)
 .debug_info    0x000000000001a6c9     0x388b ../../../mesh/lib_51_MBTLE_PB_ADV_ER.a(prov_bearer_adv.c.obj)
 .debug_info    0x000000000001df54     0x20fc ../../../mesh/lib_51_MBTLE_PB_ADV_ER.a(prov_utils.c.obj)
 .debug_info    0x0000000000020050     0x1a54 ../../../mesh/lib_51_MBTLE_PB_ADV_ER.a(prov_beacon.c.obj)
 .debug_info    0x0000000000021aa4     0x2fdc ../../../mesh/lib_51_MBTLE_PB_ADV_ER.a(prov_provisioner.c.obj)
 .debug_info    0x0000000000024a80     0x1fdb ../../../mesh/lib_51_MBTLE_PB_ADV_ER.a(provisioning.c.obj)
 .debug_info    0x0000000000026a5b      0x924 ../../../mesh/lib_51_MBTLE_CORE.a(nrf_mesh_weak.c.obj)
 .debug_info    0x000000000002737f     0x3587 ../../../mesh/lib_51_MBTLE_CORE.a(bearer_adv.c.obj)
 .debug_info    0x000000000002a906      0xc92 ../../../mesh/lib_51_MBTLE_CORE.a(fifo.c.obj)
 .debug_info    0x000000000002b598     0x115b ../../../mesh/lib_51_MBTLE_CORE.a(packet_mgr.c.obj)
 .debug_info    0x000000000002c6f3     0x18e9 ../../../mesh/lib_51_MBTLE_CORE.a(radio.c.obj)
 .debug_info    0x000000000002dfdc      0xbbe ../../../mesh/lib_51_MBTLE_CORE.a(timer.c.obj)
 .debug_info    0x000000000002eb9a     0x10aa ../../../mesh/lib_51_MBTLE_CORE.a(timer_scheduler.c.obj)
 .debug_info    0x000000000002fc44     0x151c ../../../mesh/lib_51_MBTLE_CORE.a(beacon.c.obj)
 .debug_info    0x0000000000031160     0x1ee8 ../../../mesh/lib_51_MBTLE_CORE.a(bearer.c.obj)
 .debug_info    0x0000000000033048     0x14cf ../../../mesh/lib_51_MBTLE_CORE.a(bearer_event.c.obj)
 .debug_info    0x0000000000034517      0xb9e ../../../mesh/lib_51_MBTLE_CORE.a(nrf_mesh_configure.c.obj)
 .debug_info    0x00000000000350b5     0x1607 ../../../mesh/lib_51_MBTLE_CORE.a(enc.c.obj)
 .debug_info    0x00000000000366bc     0x1148 ../../../mesh/lib_51_MBTLE_CORE.a(event.c.obj)
 .debug_info    0x0000000000037804      0xe12 ../../../mesh/lib_51_MBTLE_CORE.a(log.c.obj)
 .debug_info    0x0000000000038616     0x1268 ../../../mesh/lib_51_MBTLE_CORE.a(net_beacon.c.obj)
 .debug_info    0x000000000003987e     0x25f5 ../../../mesh/lib_51_MBTLE_CORE.a(net_state.c.obj)
 .debug_info    0x000000000003be73     0x3b2c ../../../mesh/lib_51_MBTLE_CORE.a(nrf_mesh.c.obj)
 .debug_info    0x000000000003f99f      0xcfc ../../../mesh/lib_51_MBTLE_CORE.a(nrf_mesh_keygen.c.obj)
 .debug_info    0x000000000004069b      0xa5f ../../../mesh/lib_51_MBTLE_CORE.a(nrf_mesh_utils.c.obj)
 .debug_info    0x00000000000410fa      0x854 ../../../mesh/lib_51_MBTLE_CORE.a(radio_config.c.obj)
 .debug_info    0x000000000004194e      0x41e ../../../mesh/lib_51_MBTLE_CORE.a(rand.c.obj)
 .debug_info    0x0000000000041d6c      0x204 ../../../mesh/lib_51_MBTLE_CORE.a(ticker.c.obj)
 .debug_info    0x0000000000041f70     0x6fb9 ../../../mesh/lib_51_MBTLE_CORE.a(transport.c.obj)
 .debug_info    0x0000000000048f29      0xc28 ../../../mesh/lib_51_MBTLE_CORE.a(internal_event.c.obj)
 .debug_info    0x0000000000049b51     0x3a47 ../../../mesh/lib_51_MBTLE_CORE.a(flash_manager.c.obj)
 .debug_info    0x000000000004d598     0x248f ../../../mesh/lib_51_MBTLE_CORE.a(flash_manager_defrag.c.obj)
 .debug_info    0x000000000004fa27      0xb72 ../../../mesh/lib_51_MBTLE_CORE.a(flash_manager_internal.c.obj)
 .debug_info    0x0000000000050599      0xd90 ../../../mesh/lib_51_MBTLE_CORE.a(aes.c.obj)
 .debug_info    0x0000000000051329      0xadb ../../../mesh/lib_51_MBTLE_CORE.a(queue.c.obj)
 .debug_info    0x0000000000051e04     0x1aef ../../../mesh/lib_51_MBTLE_CORE.a(timeslot.c.obj)
 .debug_info    0x00000000000538f3      0xe95 ../../../mesh/lib_51_MBTLE_CORE.a(aes_cmac.c.obj)
 .debug_info    0x0000000000054788     0x114a ../../../mesh/lib_51_MBTLE_CORE.a(ccm_soft.c.obj)
 .debug_info    0x00000000000558d2      0xb4d ../../../mesh/lib_51_MBTLE_CORE.a(msg_cache.c.obj)
 .debug_info    0x000000000005641f     0x23ad ../../../mesh/lib_51_MBTLE_CORE.a(network.c.obj)
 .debug_info    0x00000000000587cc      0xadf ../../../mesh/lib_51_MBTLE_CORE.a(packet.c.obj)
 .debug_info    0x00000000000592ab     0x193b ../../../mesh/lib_51_MBTLE_CORE.a(packet_buffer.c.obj)
 .debug_info    0x000000000005abe6      0xae5 ../../../mesh/lib_51_MBTLE_CORE.a(replay_cache.c.obj)
 .debug_info    0x000000000005b6cb     0x14e5 ../../../mesh/lib_51_MBTLE_CORE.a(mesh_flash.c.obj)
 .debug_info    0x000000000005cbb0      0xad9 ../../../mesh/lib_51_MBTLE_CORE.a(nrf_flash.c.obj)
 .debug_info    0x000000000005d689      0xcdb ../../../mesh/lib_51_MBTLE_CORE.a(msqueue.c.obj)
 .debug_info    0x000000000005e364     0x4488 ../../../lib/micro-ecc/lib_51_UECC_LIB.a(uECC.c.obj)
 .debug_info    0x00000000000627ec     0x18aa ../../../lib/rtt/lib_51_RTT_LIB.a(SEGGER_RTT.c.obj)
 .debug_info    0x0000000000064096      0xfa2 ../../../lib/rtt/lib_51_RTT_LIB.a(SEGGER_RTT_printf.c.obj)

.debug_abbrev   0x0000000000000000     0xca63
 .debug_abbrev  0x0000000000000000      0x429 CMakeFiles/51_light_control_client.dir/src/main.c.obj
 .debug_abbrev  0x0000000000000429      0x45e CMakeFiles/51_light_control_client.dir/src/provisioner.c.obj
 .debug_abbrev  0x0000000000000887      0x4df CMakeFiles/51_light_control_client.dir/__/__/__/mesh/models/config/src/config_client.c.obj
 .debug_abbrev  0x0000000000000d66      0x624 CMakeFiles/51_light_control_client.dir/__/__/__/mesh/src/access/access.c.obj
 .debug_abbrev  0x000000000000138a      0x3e7 CMakeFiles/51_light_control_client.dir/__/__/__/mesh/src/access/access_reliable.c.obj
 .debug_abbrev  0x0000000000001771      0x59b CMakeFiles/51_light_control_client.dir/__/__/__/mesh/src/access/device_state_manager.c.obj
 .debug_abbrev  0x0000000000001d0c      0x482 CMakeFiles/51_light_control_client.dir/__/__/nrf_mesh_sdk.c.obj
 .debug_abbrev  0x000000000000218e      0x265 CMakeFiles/51_light_control_client.dir/__/__/hal/src/simple_hal.c.obj
 .debug_abbrev  0x00000000000023f3      0x242 CMakeFiles/51_light_control_client.dir/__/__/models/simple_on_off/src/simple_on_off_client.c.obj
 .debug_abbrev  0x0000000000002635       0x14 CMakeFiles/51_light_control_client.dir/__/__/__/toolchain/gcc/gcc_startup_nrf51.S.obj
 .debug_abbrev  0x0000000000002649      0x106 CMakeFiles/51_light_control_client.dir/__/__/__/toolchain/system_nrf51.c.obj
 .debug_abbrev  0x000000000000274f      0x2a9 ../../../mesh/lib_51_MBTLE_PB_ADV_ER.a(nrf_mesh_prov.c.obj)
 .debug_abbrev  0x00000000000029f8      0x4f3 ../../../mesh/lib_51_MBTLE_PB_ADV_ER.a(prov_bearer_adv.c.obj)
 .debug_abbrev  0x0000000000002eeb      0x3c8 ../../../mesh/lib_51_MBTLE_PB_ADV_ER.a(prov_utils.c.obj)
 .debug_abbrev  0x00000000000032b3      0x322 ../../../mesh/lib_51_MBTLE_PB_ADV_ER.a(prov_beacon.c.obj)
 .debug_abbrev  0x00000000000035d5      0x415 ../../../mesh/lib_51_MBTLE_PB_ADV_ER.a(prov_provisioner.c.obj)
 .debug_abbrev  0x00000000000039ea      0x32e ../../../mesh/lib_51_MBTLE_PB_ADV_ER.a(provisioning.c.obj)
 .debug_abbrev  0x0000000000003d18      0x1a7 ../../../mesh/lib_51_MBTLE_CORE.a(nrf_mesh_weak.c.obj)
 .debug_abbrev  0x0000000000003ebf      0x4d2 ../../../mesh/lib_51_MBTLE_CORE.a(bearer_adv.c.obj)
 .debug_abbrev  0x0000000000004391      0x2d8 ../../../mesh/lib_51_MBTLE_CORE.a(fifo.c.obj)
 .debug_abbrev  0x0000000000004669      0x3e2 ../../../mesh/lib_51_MBTLE_CORE.a(packet_mgr.c.obj)
 .debug_abbrev  0x0000000000004a4b      0x40b ../../../mesh/lib_51_MBTLE_CORE.a(radio.c.obj)
 .debug_abbrev  0x0000000000004e56      0x2d3 ../../../mesh/lib_51_MBTLE_CORE.a(timer.c.obj)
 .debug_abbrev  0x0000000000005129      0x3d1 ../../../mesh/lib_51_MBTLE_CORE.a(timer_scheduler.c.obj)
 .debug_abbrev  0x00000000000054fa      0x365 ../../../mesh/lib_51_MBTLE_CORE.a(beacon.c.obj)
 .debug_abbrev  0x000000000000585f      0x454 ../../../mesh/lib_51_MBTLE_CORE.a(bearer.c.obj)
 .debug_abbrev  0x0000000000005cb3      0x49e ../../../mesh/lib_51_MBTLE_CORE.a(bearer_event.c.obj)
 .debug_abbrev  0x0000000000006151      0x240 ../../../mesh/lib_51_MBTLE_CORE.a(nrf_mesh_configure.c.obj)
 .debug_abbrev  0x0000000000006391      0x324 ../../../mesh/lib_51_MBTLE_CORE.a(enc.c.obj)
 .debug_abbrev  0x00000000000066b5      0x2ab ../../../mesh/lib_51_MBTLE_CORE.a(event.c.obj)
 .debug_abbrev  0x0000000000006960      0x24e ../../../mesh/lib_51_MBTLE_CORE.a(log.c.obj)
 .debug_abbrev  0x0000000000006bae      0x3b5 ../../../mesh/lib_51_MBTLE_CORE.a(net_beacon.c.obj)
 .debug_abbrev  0x0000000000006f63      0x4f5 ../../../mesh/lib_51_MBTLE_CORE.a(net_state.c.obj)
 .debug_abbrev  0x0000000000007458      0x49d ../../../mesh/lib_51_MBTLE_CORE.a(nrf_mesh.c.obj)
 .debug_abbrev  0x00000000000078f5      0x20d ../../../mesh/lib_51_MBTLE_CORE.a(nrf_mesh_keygen.c.obj)
 .debug_abbrev  0x0000000000007b02      0x24a ../../../mesh/lib_51_MBTLE_CORE.a(nrf_mesh_utils.c.obj)
 .debug_abbrev  0x0000000000007d4c      0x1a8 ../../../mesh/lib_51_MBTLE_CORE.a(radio_config.c.obj)
 .debug_abbrev  0x0000000000007ef4      0x1af ../../../mesh/lib_51_MBTLE_CORE.a(rand.c.obj)
 .debug_abbrev  0x00000000000080a3      0x14d ../../../mesh/lib_51_MBTLE_CORE.a(ticker.c.obj)
 .debug_abbrev  0x00000000000081f0      0x68c ../../../mesh/lib_51_MBTLE_CORE.a(transport.c.obj)
 .debug_abbrev  0x000000000000887c      0x24a ../../../mesh/lib_51_MBTLE_CORE.a(internal_event.c.obj)
 .debug_abbrev  0x0000000000008ac6      0x53e ../../../mesh/lib_51_MBTLE_CORE.a(flash_manager.c.obj)
 .debug_abbrev  0x0000000000009004      0x504 ../../../mesh/lib_51_MBTLE_CORE.a(flash_manager_defrag.c.obj)
 .debug_abbrev  0x0000000000009508      0x283 ../../../mesh/lib_51_MBTLE_CORE.a(flash_manager_internal.c.obj)
 .debug_abbrev  0x000000000000978b      0x2f8 ../../../mesh/lib_51_MBTLE_CORE.a(aes.c.obj)
 .debug_abbrev  0x0000000000009a83      0x222 ../../../mesh/lib_51_MBTLE_CORE.a(queue.c.obj)
 .debug_abbrev  0x0000000000009ca5      0x496 ../../../mesh/lib_51_MBTLE_CORE.a(timeslot.c.obj)
 .debug_abbrev  0x000000000000a13b      0x2a4 ../../../mesh/lib_51_MBTLE_CORE.a(aes_cmac.c.obj)
 .debug_abbrev  0x000000000000a3df      0x29c ../../../mesh/lib_51_MBTLE_CORE.a(ccm_soft.c.obj)
 .debug_abbrev  0x000000000000a67b      0x278 ../../../mesh/lib_51_MBTLE_CORE.a(msg_cache.c.obj)
 .debug_abbrev  0x000000000000a8f3      0x50c ../../../mesh/lib_51_MBTLE_CORE.a(network.c.obj)
 .debug_abbrev  0x000000000000adff      0x242 ../../../mesh/lib_51_MBTLE_CORE.a(packet.c.obj)
 .debug_abbrev  0x000000000000b041      0x417 ../../../mesh/lib_51_MBTLE_CORE.a(packet_buffer.c.obj)
 .debug_abbrev  0x000000000000b458      0x24c ../../../mesh/lib_51_MBTLE_CORE.a(replay_cache.c.obj)
 .debug_abbrev  0x000000000000b6a4      0x3f6 ../../../mesh/lib_51_MBTLE_CORE.a(mesh_flash.c.obj)
 .debug_abbrev  0x000000000000ba9a      0x22b ../../../mesh/lib_51_MBTLE_CORE.a(nrf_flash.c.obj)
 .debug_abbrev  0x000000000000bcc5      0x2a5 ../../../mesh/lib_51_MBTLE_CORE.a(msqueue.c.obj)
 .debug_abbrev  0x000000000000bf6a      0x44a ../../../lib/micro-ecc/lib_51_UECC_LIB.a(uECC.c.obj)
 .debug_abbrev  0x000000000000c3b4      0x34b ../../../lib/rtt/lib_51_RTT_LIB.a(SEGGER_RTT.c.obj)
 .debug_abbrev  0x000000000000c6ff      0x364 ../../../lib/rtt/lib_51_RTT_LIB.a(SEGGER_RTT_printf.c.obj)

.debug_loc      0x0000000000000000    0x20dd0
 .debug_loc     0x0000000000000000      0x454 CMakeFiles/51_light_control_client.dir/src/main.c.obj
 .debug_loc     0x0000000000000454      0x50c CMakeFiles/51_light_control_client.dir/src/provisioner.c.obj
 .debug_loc     0x0000000000000960     0x1407 CMakeFiles/51_light_control_client.dir/__/__/__/mesh/models/config/src/config_client.c.obj
 .debug_loc     0x0000000000001d67     0x26cc CMakeFiles/51_light_control_client.dir/__/__/__/mesh/src/access/access.c.obj
 .debug_loc     0x0000000000004433      0x7f9 CMakeFiles/51_light_control_client.dir/__/__/__/mesh/src/access/access_reliable.c.obj
 .debug_loc     0x0000000000004c2c     0x3745 CMakeFiles/51_light_control_client.dir/__/__/__/mesh/src/access/device_state_manager.c.obj
 .debug_loc     0x0000000000008371      0x35a CMakeFiles/51_light_control_client.dir/__/__/nrf_mesh_sdk.c.obj
 .debug_loc     0x00000000000086cb      0x243 CMakeFiles/51_light_control_client.dir/__/__/hal/src/simple_hal.c.obj
 .debug_loc     0x000000000000890e      0x668 CMakeFiles/51_light_control_client.dir/__/__/models/simple_on_off/src/simple_on_off_client.c.obj
 .debug_loc     0x0000000000008f76      0x889 ../../../mesh/lib_51_MBTLE_PB_ADV_ER.a(nrf_mesh_prov.c.obj)
 .debug_loc     0x00000000000097ff     0x14aa ../../../mesh/lib_51_MBTLE_PB_ADV_ER.a(prov_bearer_adv.c.obj)
 .debug_loc     0x000000000000aca9      0x5a0 ../../../mesh/lib_51_MBTLE_PB_ADV_ER.a(prov_utils.c.obj)
 .debug_loc     0x000000000000b249      0x1c9 ../../../mesh/lib_51_MBTLE_PB_ADV_ER.a(prov_beacon.c.obj)
 .debug_loc     0x000000000000b412      0x759 ../../../mesh/lib_51_MBTLE_PB_ADV_ER.a(prov_provisioner.c.obj)
 .debug_loc     0x000000000000bb6b      0x826 ../../../mesh/lib_51_MBTLE_PB_ADV_ER.a(provisioning.c.obj)
 .debug_loc     0x000000000000c391     0x1082 ../../../mesh/lib_51_MBTLE_CORE.a(bearer_adv.c.obj)
 .debug_loc     0x000000000000d413      0x584 ../../../mesh/lib_51_MBTLE_CORE.a(fifo.c.obj)
 .debug_loc     0x000000000000d997      0x730 ../../../mesh/lib_51_MBTLE_CORE.a(packet_mgr.c.obj)
 .debug_loc     0x000000000000e0c7      0x39a ../../../mesh/lib_51_MBTLE_CORE.a(radio.c.obj)
 .debug_loc     0x000000000000e461      0x7b7 ../../../mesh/lib_51_MBTLE_CORE.a(timer.c.obj)
 .debug_loc     0x000000000000ec18      0x5ed ../../../mesh/lib_51_MBTLE_CORE.a(timer_scheduler.c.obj)
 .debug_loc     0x000000000000f205      0x5d9 ../../../mesh/lib_51_MBTLE_CORE.a(beacon.c.obj)
 .debug_loc     0x000000000000f7de      0x8c7 ../../../mesh/lib_51_MBTLE_CORE.a(bearer.c.obj)
 .debug_loc     0x00000000000100a5      0x545 ../../../mesh/lib_51_MBTLE_CORE.a(bearer_event.c.obj)
 .debug_loc     0x00000000000105ea       0x2c ../../../mesh/lib_51_MBTLE_CORE.a(nrf_mesh_configure.c.obj)
 .debug_loc     0x0000000000010616      0xc1f ../../../mesh/lib_51_MBTLE_CORE.a(enc.c.obj)
 .debug_loc     0x0000000000011235      0x312 ../../../mesh/lib_51_MBTLE_CORE.a(event.c.obj)
 .debug_loc     0x0000000000011547      0x2f0 ../../../mesh/lib_51_MBTLE_CORE.a(log.c.obj)
 .debug_loc     0x0000000000011837      0x3e5 ../../../mesh/lib_51_MBTLE_CORE.a(net_beacon.c.obj)
 .debug_loc     0x0000000000011c1c      0x729 ../../../mesh/lib_51_MBTLE_CORE.a(net_state.c.obj)
 .debug_loc     0x0000000000012345      0x3dc ../../../mesh/lib_51_MBTLE_CORE.a(nrf_mesh.c.obj)
 .debug_loc     0x0000000000012721      0x226 ../../../mesh/lib_51_MBTLE_CORE.a(nrf_mesh_keygen.c.obj)
 .debug_loc     0x0000000000012947      0x12a ../../../mesh/lib_51_MBTLE_CORE.a(nrf_mesh_utils.c.obj)
 .debug_loc     0x0000000000012a71      0x2e2 ../../../mesh/lib_51_MBTLE_CORE.a(radio_config.c.obj)
 .debug_loc     0x0000000000012d53      0x1b2 ../../../mesh/lib_51_MBTLE_CORE.a(rand.c.obj)
 .debug_loc     0x0000000000012f05     0x248a ../../../mesh/lib_51_MBTLE_CORE.a(transport.c.obj)
 .debug_loc     0x000000000001538f      0x135 ../../../mesh/lib_51_MBTLE_CORE.a(internal_event.c.obj)
 .debug_loc     0x00000000000154c4     0x2190 ../../../mesh/lib_51_MBTLE_CORE.a(flash_manager.c.obj)
 .debug_loc     0x0000000000017654      0xc03 ../../../mesh/lib_51_MBTLE_CORE.a(flash_manager_defrag.c.obj)
 .debug_loc     0x0000000000018257      0x149 ../../../mesh/lib_51_MBTLE_CORE.a(flash_manager_internal.c.obj)
 .debug_loc     0x00000000000183a0       0xcb ../../../mesh/lib_51_MBTLE_CORE.a(aes.c.obj)
 .debug_loc     0x000000000001846b      0x251 ../../../mesh/lib_51_MBTLE_CORE.a(queue.c.obj)
 .debug_loc     0x00000000000186bc      0x31f ../../../mesh/lib_51_MBTLE_CORE.a(timeslot.c.obj)
 .debug_loc     0x00000000000189db      0x4c9 ../../../mesh/lib_51_MBTLE_CORE.a(aes_cmac.c.obj)
 .debug_loc     0x0000000000018ea4      0x88b ../../../mesh/lib_51_MBTLE_CORE.a(ccm_soft.c.obj)
 .debug_loc     0x000000000001972f      0x139 ../../../mesh/lib_51_MBTLE_CORE.a(msg_cache.c.obj)
 .debug_loc     0x0000000000019868      0xafd ../../../mesh/lib_51_MBTLE_CORE.a(network.c.obj)
 .debug_loc     0x000000000001a365      0x144 ../../../mesh/lib_51_MBTLE_CORE.a(packet.c.obj)
 .debug_loc     0x000000000001a4a9      0xe4d ../../../mesh/lib_51_MBTLE_CORE.a(packet_buffer.c.obj)
 .debug_loc     0x000000000001b2f6      0x248 ../../../mesh/lib_51_MBTLE_CORE.a(replay_cache.c.obj)
 .debug_loc     0x000000000001b53e      0xa6a ../../../mesh/lib_51_MBTLE_CORE.a(mesh_flash.c.obj)
 .debug_loc     0x000000000001bfa8       0xf4 ../../../mesh/lib_51_MBTLE_CORE.a(nrf_flash.c.obj)
 .debug_loc     0x000000000001c09c      0x4d7 ../../../mesh/lib_51_MBTLE_CORE.a(msqueue.c.obj)
 .debug_loc     0x000000000001c573     0x27fd ../../../lib/micro-ecc/lib_51_UECC_LIB.a(uECC.c.obj)
 .debug_loc     0x000000000001ed70     0x18a4 ../../../lib/rtt/lib_51_RTT_LIB.a(SEGGER_RTT.c.obj)
 .debug_loc     0x0000000000020614      0x7bc ../../../lib/rtt/lib_51_RTT_LIB.a(SEGGER_RTT_printf.c.obj)

.debug_aranges  0x0000000000000000     0x1ba8
 .debug_aranges
                0x0000000000000000       0x48 CMakeFiles/51_light_control_client.dir/src/main.c.obj
 .debug_aranges
                0x0000000000000048       0x48 CMakeFiles/51_light_control_client.dir/src/provisioner.c.obj
 .debug_aranges
                0x0000000000000090      0x188 CMakeFiles/51_light_control_client.dir/__/__/__/mesh/models/config/src/config_client.c.obj
 .debug_aranges
                0x0000000000000218      0x190 CMakeFiles/51_light_control_client.dir/__/__/__/mesh/src/access/access.c.obj
 .debug_aranges
                0x00000000000003a8       0x50 CMakeFiles/51_light_control_client.dir/__/__/__/mesh/src/access/access_reliable.c.obj
 .debug_aranges
                0x00000000000003f8      0x298 CMakeFiles/51_light_control_client.dir/__/__/__/mesh/src/access/device_state_manager.c.obj
 .debug_aranges
                0x0000000000000690       0x78 CMakeFiles/51_light_control_client.dir/__/__/nrf_mesh_sdk.c.obj
 .debug_aranges
                0x0000000000000708       0x50 CMakeFiles/51_light_control_client.dir/__/__/hal/src/simple_hal.c.obj
 .debug_aranges
                0x0000000000000758       0x48 CMakeFiles/51_light_control_client.dir/__/__/models/simple_on_off/src/simple_on_off_client.c.obj
 .debug_aranges
                0x00000000000007a0       0x20 CMakeFiles/51_light_control_client.dir/__/__/__/toolchain/gcc/gcc_startup_nrf51.S.obj
 .debug_aranges
                0x00000000000007c0       0x28 CMakeFiles/51_light_control_client.dir/__/__/__/toolchain/system_nrf51.c.obj
 .debug_aranges
                0x00000000000007e8       0x58 ../../../mesh/lib_51_MBTLE_PB_ADV_ER.a(nrf_mesh_prov.c.obj)
 .debug_aranges
                0x0000000000000840       0xb8 ../../../mesh/lib_51_MBTLE_PB_ADV_ER.a(prov_bearer_adv.c.obj)
 .debug_aranges
                0x00000000000008f8       0x70 ../../../mesh/lib_51_MBTLE_PB_ADV_ER.a(prov_utils.c.obj)
 .debug_aranges
                0x0000000000000968       0x30 ../../../mesh/lib_51_MBTLE_PB_ADV_ER.a(prov_beacon.c.obj)
 .debug_aranges
                0x0000000000000998       0x70 ../../../mesh/lib_51_MBTLE_PB_ADV_ER.a(prov_provisioner.c.obj)
 .debug_aranges
                0x0000000000000a08       0xc8 ../../../mesh/lib_51_MBTLE_PB_ADV_ER.a(provisioning.c.obj)
 .debug_aranges
                0x0000000000000ad0       0x28 ../../../mesh/lib_51_MBTLE_CORE.a(nrf_mesh_weak.c.obj)
 .debug_aranges
                0x0000000000000af8      0x100 ../../../mesh/lib_51_MBTLE_CORE.a(bearer_adv.c.obj)
 .debug_aranges
                0x0000000000000bf8       0x60 ../../../mesh/lib_51_MBTLE_CORE.a(fifo.c.obj)
 .debug_aranges
                0x0000000000000c58       0x48 ../../../mesh/lib_51_MBTLE_CORE.a(packet_mgr.c.obj)
 .debug_aranges
                0x0000000000000ca0       0x98 ../../../mesh/lib_51_MBTLE_CORE.a(radio.c.obj)
 .debug_aranges
                0x0000000000000d38       0x58 ../../../mesh/lib_51_MBTLE_CORE.a(timer.c.obj)
 .debug_aranges
                0x0000000000000d90       0x60 ../../../mesh/lib_51_MBTLE_CORE.a(timer_scheduler.c.obj)
 .debug_aranges
                0x0000000000000df0       0x38 ../../../mesh/lib_51_MBTLE_CORE.a(beacon.c.obj)
 .debug_aranges
                0x0000000000000e28       0x90 ../../../mesh/lib_51_MBTLE_CORE.a(bearer.c.obj)
 .debug_aranges
                0x0000000000000eb8       0x70 ../../../mesh/lib_51_MBTLE_CORE.a(bearer_event.c.obj)
 .debug_aranges
                0x0000000000000f28       0x30 ../../../mesh/lib_51_MBTLE_CORE.a(nrf_mesh_configure.c.obj)
 .debug_aranges
                0x0000000000000f58       0x70 ../../../mesh/lib_51_MBTLE_CORE.a(enc.c.obj)
 .debug_aranges
                0x0000000000000fc8       0x30 ../../../mesh/lib_51_MBTLE_CORE.a(event.c.obj)
 .debug_aranges
                0x0000000000000ff8       0x48 ../../../mesh/lib_51_MBTLE_CORE.a(log.c.obj)
 .debug_aranges
                0x0000000000001040       0x40 ../../../mesh/lib_51_MBTLE_CORE.a(net_beacon.c.obj)
 .debug_aranges
                0x0000000000001080       0xb8 ../../../mesh/lib_51_MBTLE_CORE.a(net_state.c.obj)
 .debug_aranges
                0x0000000000001138       0x80 ../../../mesh/lib_51_MBTLE_CORE.a(nrf_mesh.c.obj)
 .debug_aranges
                0x00000000000011b8       0x40 ../../../mesh/lib_51_MBTLE_CORE.a(nrf_mesh_keygen.c.obj)
 .debug_aranges
                0x00000000000011f8       0x30 ../../../mesh/lib_51_MBTLE_CORE.a(nrf_mesh_utils.c.obj)
 .debug_aranges
                0x0000000000001228       0x40 ../../../mesh/lib_51_MBTLE_CORE.a(radio_config.c.obj)
 .debug_aranges
                0x0000000000001268       0x40 ../../../mesh/lib_51_MBTLE_CORE.a(rand.c.obj)
 .debug_aranges
                0x00000000000012a8       0x30 ../../../mesh/lib_51_MBTLE_CORE.a(ticker.c.obj)
 .debug_aranges
                0x00000000000012d8       0xd8 ../../../mesh/lib_51_MBTLE_CORE.a(transport.c.obj)
 .debug_aranges
                0x00000000000013b0       0x30 ../../../mesh/lib_51_MBTLE_CORE.a(internal_event.c.obj)
 .debug_aranges
                0x00000000000013e0       0xb8 ../../../mesh/lib_51_MBTLE_CORE.a(flash_manager.c.obj)
 .debug_aranges
                0x0000000000001498       0xa8 ../../../mesh/lib_51_MBTLE_CORE.a(flash_manager_defrag.c.obj)
 .debug_aranges
                0x0000000000001540       0x20 ../../../mesh/lib_51_MBTLE_CORE.a(flash_manager_internal.c.obj)
 .debug_aranges
                0x0000000000001560       0x28 ../../../mesh/lib_51_MBTLE_CORE.a(aes.c.obj)
 .debug_aranges
                0x0000000000001588       0x38 ../../../mesh/lib_51_MBTLE_CORE.a(queue.c.obj)
 .debug_aranges
                0x00000000000015c0       0xa8 ../../../mesh/lib_51_MBTLE_CORE.a(timeslot.c.obj)
 .debug_aranges
                0x0000000000001668       0x28 ../../../mesh/lib_51_MBTLE_CORE.a(aes_cmac.c.obj)
 .debug_aranges
                0x0000000000001690       0x40 ../../../mesh/lib_51_MBTLE_CORE.a(ccm_soft.c.obj)
 .debug_aranges
                0x00000000000016d0       0x38 ../../../mesh/lib_51_MBTLE_CORE.a(msg_cache.c.obj)
 .debug_aranges
                0x0000000000001708       0x58 ../../../mesh/lib_51_MBTLE_CORE.a(network.c.obj)
 .debug_aranges
                0x0000000000001760       0x20 ../../../mesh/lib_51_MBTLE_CORE.a(packet.c.obj)
 .debug_aranges
                0x0000000000001780       0x68 ../../../mesh/lib_51_MBTLE_CORE.a(packet_buffer.c.obj)
 .debug_aranges
                0x00000000000017e8       0x48 ../../../mesh/lib_51_MBTLE_CORE.a(replay_cache.c.obj)
 .debug_aranges
                0x0000000000001830       0x58 ../../../mesh/lib_51_MBTLE_CORE.a(mesh_flash.c.obj)
 .debug_aranges
                0x0000000000001888       0x28 ../../../mesh/lib_51_MBTLE_CORE.a(nrf_flash.c.obj)
 .debug_aranges
                0x00000000000018b0       0x40 ../../../mesh/lib_51_MBTLE_CORE.a(msqueue.c.obj)
 .debug_aranges
                0x00000000000018f0      0x1a8 ../../../lib/micro-ecc/lib_51_UECC_LIB.a(uECC.c.obj)
 .debug_aranges
                0x0000000000001a98       0xd8 ../../../lib/rtt/lib_51_RTT_LIB.a(SEGGER_RTT.c.obj)
 .debug_aranges
                0x0000000000001b70       0x38 ../../../lib/rtt/lib_51_RTT_LIB.a(SEGGER_RTT_printf.c.obj)

.debug_ranges   0x0000000000000000     0x4e68
 .debug_ranges  0x0000000000000000      0x268 CMakeFiles/51_light_control_client.dir/src/main.c.obj
 .debug_ranges  0x0000000000000268      0x110 CMakeFiles/51_light_control_client.dir/src/provisioner.c.obj
 .debug_ranges  0x0000000000000378      0x3b8 CMakeFiles/51_light_control_client.dir/__/__/__/mesh/models/config/src/config_client.c.obj
 .debug_ranges  0x0000000000000730      0x688 CMakeFiles/51_light_control_client.dir/__/__/__/mesh/src/access/access.c.obj
 .debug_ranges  0x0000000000000db8      0x1f8 CMakeFiles/51_light_control_client.dir/__/__/__/mesh/src/access/access_reliable.c.obj
 .debug_ranges  0x0000000000000fb0      0x858 CMakeFiles/51_light_control_client.dir/__/__/__/mesh/src/access/device_state_manager.c.obj
 .debug_ranges  0x0000000000001808       0xc8 CMakeFiles/51_light_control_client.dir/__/__/nrf_mesh_sdk.c.obj
 .debug_ranges  0x00000000000018d0       0x80 CMakeFiles/51_light_control_client.dir/__/__/hal/src/simple_hal.c.obj
 .debug_ranges  0x0000000000001950       0x50 CMakeFiles/51_light_control_client.dir/__/__/models/simple_on_off/src/simple_on_off_client.c.obj
 .debug_ranges  0x00000000000019a0       0x70 CMakeFiles/51_light_control_client.dir/__/__/__/toolchain/system_nrf51.c.obj
 .debug_ranges  0x0000000000001a10       0x60 ../../../mesh/lib_51_MBTLE_PB_ADV_ER.a(nrf_mesh_prov.c.obj)
 .debug_ranges  0x0000000000001a70      0x258 ../../../mesh/lib_51_MBTLE_PB_ADV_ER.a(prov_bearer_adv.c.obj)
 .debug_ranges  0x0000000000001cc8       0x90 ../../../mesh/lib_51_MBTLE_PB_ADV_ER.a(prov_utils.c.obj)
 .debug_ranges  0x0000000000001d58       0x50 ../../../mesh/lib_51_MBTLE_PB_ADV_ER.a(prov_beacon.c.obj)
 .debug_ranges  0x0000000000001da8       0x78 ../../../mesh/lib_51_MBTLE_PB_ADV_ER.a(prov_provisioner.c.obj)
 .debug_ranges  0x0000000000001e20       0xb8 ../../../mesh/lib_51_MBTLE_PB_ADV_ER.a(provisioning.c.obj)
 .debug_ranges  0x0000000000001ed8       0x18 ../../../mesh/lib_51_MBTLE_CORE.a(nrf_mesh_weak.c.obj)
 .debug_ranges  0x0000000000001ef0      0x198 ../../../mesh/lib_51_MBTLE_CORE.a(bearer_adv.c.obj)
 .debug_ranges  0x0000000000002088       0x80 ../../../mesh/lib_51_MBTLE_CORE.a(fifo.c.obj)
 .debug_ranges  0x0000000000002108      0x148 ../../../mesh/lib_51_MBTLE_CORE.a(packet_mgr.c.obj)
 .debug_ranges  0x0000000000002250      0x110 ../../../mesh/lib_51_MBTLE_CORE.a(radio.c.obj)
 .debug_ranges  0x0000000000002360       0xa8 ../../../mesh/lib_51_MBTLE_CORE.a(timer.c.obj)
 .debug_ranges  0x0000000000002408      0x250 ../../../mesh/lib_51_MBTLE_CORE.a(timer_scheduler.c.obj)
 .debug_ranges  0x0000000000002658       0x58 ../../../mesh/lib_51_MBTLE_CORE.a(beacon.c.obj)
 .debug_ranges  0x00000000000026b0      0x1c0 ../../../mesh/lib_51_MBTLE_CORE.a(bearer.c.obj)
 .debug_ranges  0x0000000000002870       0xf8 ../../../mesh/lib_51_MBTLE_CORE.a(bearer_event.c.obj)
 .debug_ranges  0x0000000000002968       0x20 ../../../mesh/lib_51_MBTLE_CORE.a(nrf_mesh_configure.c.obj)
 .debug_ranges  0x0000000000002988       0x60 ../../../mesh/lib_51_MBTLE_CORE.a(enc.c.obj)
 .debug_ranges  0x00000000000029e8       0xa8 ../../../mesh/lib_51_MBTLE_CORE.a(event.c.obj)
 .debug_ranges  0x0000000000002a90       0x38 ../../../mesh/lib_51_MBTLE_CORE.a(log.c.obj)
 .debug_ranges  0x0000000000002ac8       0xa8 ../../../mesh/lib_51_MBTLE_CORE.a(net_beacon.c.obj)
 .debug_ranges  0x0000000000002b70      0x170 ../../../mesh/lib_51_MBTLE_CORE.a(net_state.c.obj)
 .debug_ranges  0x0000000000002ce0       0xa8 ../../../mesh/lib_51_MBTLE_CORE.a(nrf_mesh.c.obj)
 .debug_ranges  0x0000000000002d88       0x30 ../../../mesh/lib_51_MBTLE_CORE.a(nrf_mesh_keygen.c.obj)
 .debug_ranges  0x0000000000002db8       0x20 ../../../mesh/lib_51_MBTLE_CORE.a(nrf_mesh_utils.c.obj)
 .debug_ranges  0x0000000000002dd8       0xf8 ../../../mesh/lib_51_MBTLE_CORE.a(radio_config.c.obj)
 .debug_ranges  0x0000000000002ed0       0x30 ../../../mesh/lib_51_MBTLE_CORE.a(rand.c.obj)
 .debug_ranges  0x0000000000002f00       0x20 ../../../mesh/lib_51_MBTLE_CORE.a(ticker.c.obj)
 .debug_ranges  0x0000000000002f20      0x518 ../../../mesh/lib_51_MBTLE_CORE.a(transport.c.obj)
 .debug_ranges  0x0000000000003438       0x20 ../../../mesh/lib_51_MBTLE_CORE.a(internal_event.c.obj)
 .debug_ranges  0x0000000000003458      0x998 ../../../mesh/lib_51_MBTLE_CORE.a(flash_manager.c.obj)
 .debug_ranges  0x0000000000003df0      0x340 ../../../mesh/lib_51_MBTLE_CORE.a(flash_manager_defrag.c.obj)
 .debug_ranges  0x0000000000004130       0x68 ../../../mesh/lib_51_MBTLE_CORE.a(flash_manager_internal.c.obj)
 .debug_ranges  0x0000000000004198       0x18 ../../../mesh/lib_51_MBTLE_CORE.a(aes.c.obj)
 .debug_ranges  0x00000000000041b0       0x28 ../../../mesh/lib_51_MBTLE_CORE.a(queue.c.obj)
 .debug_ranges  0x00000000000041d8       0xc8 ../../../mesh/lib_51_MBTLE_CORE.a(timeslot.c.obj)
 .debug_ranges  0x00000000000042a0       0x18 ../../../mesh/lib_51_MBTLE_CORE.a(aes_cmac.c.obj)
 .debug_ranges  0x00000000000042b8       0x30 ../../../mesh/lib_51_MBTLE_CORE.a(ccm_soft.c.obj)
 .debug_ranges  0x00000000000042e8       0x40 ../../../mesh/lib_51_MBTLE_CORE.a(msg_cache.c.obj)
 .debug_ranges  0x0000000000004328      0x110 ../../../mesh/lib_51_MBTLE_CORE.a(network.c.obj)
 .debug_ranges  0x0000000000004438       0x28 ../../../mesh/lib_51_MBTLE_CORE.a(packet.c.obj)
 .debug_ranges  0x0000000000004460      0x220 ../../../mesh/lib_51_MBTLE_CORE.a(packet_buffer.c.obj)
 .debug_ranges  0x0000000000004680       0x88 ../../../mesh/lib_51_MBTLE_CORE.a(replay_cache.c.obj)
 .debug_ranges  0x0000000000004708      0x268 ../../../mesh/lib_51_MBTLE_CORE.a(mesh_flash.c.obj)
 .debug_ranges  0x0000000000004970       0x48 ../../../mesh/lib_51_MBTLE_CORE.a(nrf_flash.c.obj)
 .debug_ranges  0x00000000000049b8       0xf0 ../../../mesh/lib_51_MBTLE_CORE.a(msqueue.c.obj)
 .debug_ranges  0x0000000000004aa8      0x250 ../../../lib/micro-ecc/lib_51_UECC_LIB.a(uECC.c.obj)
 .debug_ranges  0x0000000000004cf8      0x148 ../../../lib/rtt/lib_51_RTT_LIB.a(SEGGER_RTT.c.obj)
 .debug_ranges  0x0000000000004e40       0x28 ../../../lib/rtt/lib_51_RTT_LIB.a(SEGGER_RTT_printf.c.obj)

.debug_line     0x0000000000000000    0x1478f
 .debug_line    0x0000000000000000      0x89c CMakeFiles/51_light_control_client.dir/src/main.c.obj
 .debug_line    0x000000000000089c      0x8de CMakeFiles/51_light_control_client.dir/src/provisioner.c.obj
 .debug_line    0x000000000000117a      0xa45 CMakeFiles/51_light_control_client.dir/__/__/__/mesh/models/config/src/config_client.c.obj
 .debug_line    0x0000000000001bbf      0xece CMakeFiles/51_light_control_client.dir/__/__/__/mesh/src/access/access.c.obj
 .debug_line    0x0000000000002a8d      0x4ef CMakeFiles/51_light_control_client.dir/__/__/__/mesh/src/access/access_reliable.c.obj
 .debug_line    0x0000000000002f7c     0x1462 CMakeFiles/51_light_control_client.dir/__/__/__/mesh/src/access/device_state_manager.c.obj
 .debug_line    0x00000000000043de      0x63e CMakeFiles/51_light_control_client.dir/__/__/nrf_mesh_sdk.c.obj
 .debug_line    0x0000000000004a1c      0x31b CMakeFiles/51_light_control_client.dir/__/__/hal/src/simple_hal.c.obj
 .debug_line    0x0000000000004d37      0x3da CMakeFiles/51_light_control_client.dir/__/__/models/simple_on_off/src/simple_on_off_client.c.obj
 .debug_line    0x0000000000005111       0xac CMakeFiles/51_light_control_client.dir/__/__/__/toolchain/gcc/gcc_startup_nrf51.S.obj
 .debug_line    0x00000000000051bd      0x17c CMakeFiles/51_light_control_client.dir/__/__/__/toolchain/system_nrf51.c.obj
 .debug_line    0x0000000000005339      0x4b9 ../../../mesh/lib_51_MBTLE_PB_ADV_ER.a(nrf_mesh_prov.c.obj)
 .debug_line    0x00000000000057f2      0xae8 ../../../mesh/lib_51_MBTLE_PB_ADV_ER.a(prov_bearer_adv.c.obj)
 .debug_line    0x00000000000062da      0x53b ../../../mesh/lib_51_MBTLE_PB_ADV_ER.a(prov_utils.c.obj)
 .debug_line    0x0000000000006815      0x39f ../../../mesh/lib_51_MBTLE_PB_ADV_ER.a(prov_beacon.c.obj)
 .debug_line    0x0000000000006bb4      0x602 ../../../mesh/lib_51_MBTLE_PB_ADV_ER.a(prov_provisioner.c.obj)
 .debug_line    0x00000000000071b6      0x5f5 ../../../mesh/lib_51_MBTLE_PB_ADV_ER.a(provisioning.c.obj)
 .debug_line    0x00000000000077ab      0x231 ../../../mesh/lib_51_MBTLE_CORE.a(nrf_mesh_weak.c.obj)
 .debug_line    0x00000000000079dc      0x974 ../../../mesh/lib_51_MBTLE_CORE.a(bearer_adv.c.obj)
 .debug_line    0x0000000000008350      0x405 ../../../mesh/lib_51_MBTLE_CORE.a(fifo.c.obj)
 .debug_line    0x0000000000008755      0x4af ../../../mesh/lib_51_MBTLE_CORE.a(packet_mgr.c.obj)
 .debug_line    0x0000000000008c04      0x564 ../../../mesh/lib_51_MBTLE_CORE.a(radio.c.obj)
 .debug_line    0x0000000000009168      0x4a5 ../../../mesh/lib_51_MBTLE_CORE.a(timer.c.obj)
 .debug_line    0x000000000000960d      0x501 ../../../mesh/lib_51_MBTLE_CORE.a(timer_scheduler.c.obj)
 .debug_line    0x0000000000009b0e      0x506 ../../../mesh/lib_51_MBTLE_CORE.a(beacon.c.obj)
 .debug_line    0x000000000000a014      0x63a ../../../mesh/lib_51_MBTLE_CORE.a(bearer.c.obj)
 .debug_line    0x000000000000a64e      0x53b ../../../mesh/lib_51_MBTLE_CORE.a(bearer_event.c.obj)
 .debug_line    0x000000000000ab89      0x21c ../../../mesh/lib_51_MBTLE_CORE.a(nrf_mesh_configure.c.obj)
 .debug_line    0x000000000000ada5      0x44e ../../../mesh/lib_51_MBTLE_CORE.a(enc.c.obj)
 .debug_line    0x000000000000b1f3      0x31a ../../../mesh/lib_51_MBTLE_CORE.a(event.c.obj)
 .debug_line    0x000000000000b50d      0x28c ../../../mesh/lib_51_MBTLE_CORE.a(log.c.obj)
 .debug_line    0x000000000000b799      0x399 ../../../mesh/lib_51_MBTLE_CORE.a(net_beacon.c.obj)
 .debug_line    0x000000000000bb32      0x6df ../../../mesh/lib_51_MBTLE_CORE.a(net_state.c.obj)
 .debug_line    0x000000000000c211      0x77c ../../../mesh/lib_51_MBTLE_CORE.a(nrf_mesh.c.obj)
 .debug_line    0x000000000000c98d      0x2cd ../../../mesh/lib_51_MBTLE_CORE.a(nrf_mesh_keygen.c.obj)
 .debug_line    0x000000000000cc5a      0x27b ../../../mesh/lib_51_MBTLE_CORE.a(nrf_mesh_utils.c.obj)
 .debug_line    0x000000000000ced5      0x355 ../../../mesh/lib_51_MBTLE_CORE.a(radio_config.c.obj)
 .debug_line    0x000000000000d22a      0x2ab ../../../mesh/lib_51_MBTLE_CORE.a(rand.c.obj)
 .debug_line    0x000000000000d4d5      0x163 ../../../mesh/lib_51_MBTLE_CORE.a(ticker.c.obj)
 .debug_line    0x000000000000d638     0x1513 ../../../mesh/lib_51_MBTLE_CORE.a(transport.c.obj)
 .debug_line    0x000000000000eb4b      0x2a8 ../../../mesh/lib_51_MBTLE_CORE.a(internal_event.c.obj)
 .debug_line    0x000000000000edf3      0xbb2 ../../../mesh/lib_51_MBTLE_CORE.a(flash_manager.c.obj)
 .debug_line    0x000000000000f9a5      0x828 ../../../mesh/lib_51_MBTLE_CORE.a(flash_manager_defrag.c.obj)
 .debug_line    0x00000000000101cd      0x2a8 ../../../mesh/lib_51_MBTLE_CORE.a(flash_manager_internal.c.obj)
 .debug_line    0x0000000000010475      0x313 ../../../mesh/lib_51_MBTLE_CORE.a(aes.c.obj)
 .debug_line    0x0000000000010788      0x329 ../../../mesh/lib_51_MBTLE_CORE.a(queue.c.obj)
 .debug_line    0x0000000000010ab1      0x5f4 ../../../mesh/lib_51_MBTLE_CORE.a(timeslot.c.obj)
 .debug_line    0x00000000000110a5      0x2b1 ../../../mesh/lib_51_MBTLE_CORE.a(aes_cmac.c.obj)
 .debug_line    0x0000000000011356      0x323 ../../../mesh/lib_51_MBTLE_CORE.a(ccm_soft.c.obj)
 .debug_line    0x0000000000011679      0x2b4 ../../../mesh/lib_51_MBTLE_CORE.a(msg_cache.c.obj)
 .debug_line    0x000000000001192d      0x6f9 ../../../mesh/lib_51_MBTLE_CORE.a(network.c.obj)
 .debug_line    0x0000000000012026      0x27a ../../../mesh/lib_51_MBTLE_CORE.a(packet.c.obj)
 .debug_line    0x00000000000122a0      0x6a4 ../../../mesh/lib_51_MBTLE_CORE.a(packet_buffer.c.obj)
 .debug_line    0x0000000000012944      0x20f ../../../mesh/lib_51_MBTLE_CORE.a(replay_cache.c.obj)
 .debug_line    0x0000000000012b53      0x546 ../../../mesh/lib_51_MBTLE_CORE.a(mesh_flash.c.obj)
 .debug_line    0x0000000000013099      0x2e7 ../../../mesh/lib_51_MBTLE_CORE.a(nrf_flash.c.obj)
 .debug_line    0x0000000000013380      0x397 ../../../mesh/lib_51_MBTLE_CORE.a(msqueue.c.obj)
 .debug_line    0x0000000000013717      0x908 ../../../lib/micro-ecc/lib_51_UECC_LIB.a(uECC.c.obj)
 .debug_line    0x000000000001401f      0x4b5 ../../../lib/rtt/lib_51_RTT_LIB.a(SEGGER_RTT.c.obj)
 .debug_line    0x00000000000144d4      0x2bb ../../../lib/rtt/lib_51_RTT_LIB.a(SEGGER_RTT_printf.c.obj)

.debug_str      0x0000000000000000    0x108d2
 .debug_str     0x0000000000000000      0xea4 CMakeFiles/51_light_control_client.dir/src/main.c.obj
                                       0x1017 (size before relaxing)
 .debug_str     0x0000000000000ea4     0x298b CMakeFiles/51_light_control_client.dir/src/provisioner.c.obj
                                       0x340f (size before relaxing)
 .debug_str     0x000000000000382f      0xca4 CMakeFiles/51_light_control_client.dir/__/__/__/mesh/models/config/src/config_client.c.obj
                                       0x26ab (size before relaxing)
 .debug_str     0x00000000000044d3     0x116d CMakeFiles/51_light_control_client.dir/__/__/__/mesh/src/access/access.c.obj
                                       0x3149 (size before relaxing)
 .debug_str     0x0000000000005640      0x2ad CMakeFiles/51_light_control_client.dir/__/__/__/mesh/src/access/access_reliable.c.obj
                                        0xc41 (size before relaxing)
 .debug_str     0x00000000000058ed     0x107b CMakeFiles/51_light_control_client.dir/__/__/__/mesh/src/access/device_state_manager.c.obj
                                       0x3372 (size before relaxing)
 .debug_str     0x0000000000006968     0x15db CMakeFiles/51_light_control_client.dir/__/__/nrf_mesh_sdk.c.obj
                                       0x1f23 (size before relaxing)
 .debug_str     0x0000000000007f43      0x185 CMakeFiles/51_light_control_client.dir/__/__/hal/src/simple_hal.c.obj
                                        0x6af (size before relaxing)
 .debug_str     0x00000000000080c8      0x1b5 CMakeFiles/51_light_control_client.dir/__/__/models/simple_on_off/src/simple_on_off_client.c.obj
                                        0x8e6 (size before relaxing)
 .debug_str     0x000000000000827d      0x116 CMakeFiles/51_light_control_client.dir/__/__/__/toolchain/system_nrf51.c.obj
                                        0x2c4 (size before relaxing)
 .debug_str     0x0000000000008393      0xc17 ../../../mesh/lib_51_MBTLE_PB_ADV_ER.a(nrf_mesh_prov.c.obj)
                                       0x1a10 (size before relaxing)
 .debug_str     0x0000000000008faa      0x602 ../../../mesh/lib_51_MBTLE_PB_ADV_ER.a(prov_bearer_adv.c.obj)
                                       0x16b9 (size before relaxing)
 .debug_str     0x00000000000095ac      0x658 ../../../mesh/lib_51_MBTLE_PB_ADV_ER.a(prov_utils.c.obj)
                                       0x1ee2 (size before relaxing)
 .debug_str     0x0000000000009c04      0x112 ../../../mesh/lib_51_MBTLE_PB_ADV_ER.a(prov_beacon.c.obj)
                                       0x1c1c (size before relaxing)
 .debug_str     0x0000000000009d16      0x418 ../../../mesh/lib_51_MBTLE_PB_ADV_ER.a(prov_provisioner.c.obj)
                                       0x2d20 (size before relaxing)
 .debug_str     0x000000000000a12e      0x15d ../../../mesh/lib_51_MBTLE_PB_ADV_ER.a(provisioning.c.obj)
                                       0x16bd (size before relaxing)
 .debug_str     0x000000000000a28b       0x68 ../../../mesh/lib_51_MBTLE_CORE.a(nrf_mesh_weak.c.obj)
                                        0x670 (size before relaxing)
 .debug_str     0x000000000000a2f3      0x753 ../../../mesh/lib_51_MBTLE_CORE.a(bearer_adv.c.obj)
                                       0x2b92 (size before relaxing)
 .debug_str     0x000000000000aa46       0x7a ../../../mesh/lib_51_MBTLE_CORE.a(fifo.c.obj)
                                        0x6d8 (size before relaxing)
 .debug_str     0x000000000000aac0      0x291 ../../../mesh/lib_51_MBTLE_CORE.a(packet_mgr.c.obj)
                                        0x9e5 (size before relaxing)
 .debug_str     0x000000000000ad51      0x482 ../../../mesh/lib_51_MBTLE_CORE.a(radio.c.obj)
                                       0x1066 (size before relaxing)
 .debug_str     0x000000000000b1d3      0x279 ../../../mesh/lib_51_MBTLE_CORE.a(timer.c.obj)
                                        0x72b (size before relaxing)
 .debug_str     0x000000000000b44c      0x188 ../../../mesh/lib_51_MBTLE_CORE.a(timer_scheduler.c.obj)
                                        0x931 (size before relaxing)
 .debug_str     0x000000000000b5d4       0xcc ../../../mesh/lib_51_MBTLE_CORE.a(beacon.c.obj)
                                        0xd16 (size before relaxing)
 .debug_str     0x000000000000b6a0      0x664 ../../../mesh/lib_51_MBTLE_CORE.a(bearer.c.obj)
                                       0x149f (size before relaxing)
 .debug_str     0x000000000000bd04      0x222 ../../../mesh/lib_51_MBTLE_CORE.a(bearer_event.c.obj)
                                        0xbe4 (size before relaxing)
 .debug_str     0x000000000000bf26       0xa1 ../../../mesh/lib_51_MBTLE_CORE.a(nrf_mesh_configure.c.obj)
                                        0x737 (size before relaxing)
 .debug_str     0x000000000000bfc7      0x1e5 ../../../mesh/lib_51_MBTLE_CORE.a(enc.c.obj)
                                        0x917 (size before relaxing)
 .debug_str     0x000000000000c1ac       0xef ../../../mesh/lib_51_MBTLE_CORE.a(event.c.obj)
                                       0x1742 (size before relaxing)
 .debug_str     0x000000000000c29b      0x11c ../../../mesh/lib_51_MBTLE_CORE.a(log.c.obj)
                                        0x7f3 (size before relaxing)
 .debug_str     0x000000000000c3b7      0x252 ../../../mesh/lib_51_MBTLE_CORE.a(net_beacon.c.obj)
                                        0xc04 (size before relaxing)
 .debug_str     0x000000000000c609      0x339 ../../../mesh/lib_51_MBTLE_CORE.a(net_state.c.obj)
                                       0x246b (size before relaxing)
 .debug_str     0x000000000000c942      0x37c ../../../mesh/lib_51_MBTLE_CORE.a(nrf_mesh.c.obj)
                                       0x2f64 (size before relaxing)
 .debug_str     0x000000000000ccbe       0x7a ../../../mesh/lib_51_MBTLE_CORE.a(nrf_mesh_keygen.c.obj)
                                        0x7e8 (size before relaxing)
 .debug_str     0x000000000000cd38       0xa7 ../../../mesh/lib_51_MBTLE_CORE.a(nrf_mesh_utils.c.obj)
                                        0x74e (size before relaxing)
 .debug_str     0x000000000000cddf       0xc0 ../../../mesh/lib_51_MBTLE_CORE.a(radio_config.c.obj)
                                        0x700 (size before relaxing)
 .debug_str     0x000000000000ce9f       0xab ../../../mesh/lib_51_MBTLE_CORE.a(rand.c.obj)
                                        0x70d (size before relaxing)
 .debug_str     0x000000000000cf4a       0x68 ../../../mesh/lib_51_MBTLE_CORE.a(ticker.c.obj)
                                        0x34e (size before relaxing)
 .debug_str     0x000000000000cfb2      0x9f1 ../../../mesh/lib_51_MBTLE_CORE.a(transport.c.obj)
                                       0x3285 (size before relaxing)
 .debug_str     0x000000000000d9a3       0xec ../../../mesh/lib_51_MBTLE_CORE.a(internal_event.c.obj)
                                        0xa9b (size before relaxing)
 .debug_str     0x000000000000da8f      0x8df ../../../mesh/lib_51_MBTLE_CORE.a(flash_manager.c.obj)
                                       0x1994 (size before relaxing)
 .debug_str     0x000000000000e36e      0x3d6 ../../../mesh/lib_51_MBTLE_CORE.a(flash_manager_defrag.c.obj)
                                       0x1507 (size before relaxing)
 .debug_str     0x000000000000e744       0x64 ../../../mesh/lib_51_MBTLE_CORE.a(flash_manager_internal.c.obj)
                                        0x7e1 (size before relaxing)
 .debug_str     0x000000000000e7a8      0x16d ../../../mesh/lib_51_MBTLE_CORE.a(aes.c.obj)
                                        0xb80 (size before relaxing)
 .debug_str     0x000000000000e915       0x50 ../../../mesh/lib_51_MBTLE_CORE.a(queue.c.obj)
                                        0x680 (size before relaxing)
 .debug_str     0x000000000000e965      0x798 ../../../mesh/lib_51_MBTLE_CORE.a(timeslot.c.obj)
                                       0x1787 (size before relaxing)
 .debug_str     0x000000000000f0fd       0xf6 ../../../mesh/lib_51_MBTLE_CORE.a(aes_cmac.c.obj)
                                        0x738 (size before relaxing)
 .debug_str     0x000000000000f1f3       0xb1 ../../../mesh/lib_51_MBTLE_CORE.a(ccm_soft.c.obj)
                                        0x780 (size before relaxing)
 .debug_str     0x000000000000f2a4       0xbf ../../../mesh/lib_51_MBTLE_CORE.a(msg_cache.c.obj)
                                        0x750 (size before relaxing)
 .debug_str     0x000000000000f363      0x282 ../../../mesh/lib_51_MBTLE_CORE.a(network.c.obj)
                                       0x15cd (size before relaxing)
 .debug_str     0x000000000000f5e5       0x46 ../../../mesh/lib_51_MBTLE_CORE.a(packet.c.obj)
                                        0x732 (size before relaxing)
 .debug_str     0x000000000000f62b      0x2ae ../../../mesh/lib_51_MBTLE_CORE.a(packet_buffer.c.obj)
                                        0xba6 (size before relaxing)
 .debug_str     0x000000000000f8d9       0xcb ../../../mesh/lib_51_MBTLE_CORE.a(replay_cache.c.obj)
                                        0x6b2 (size before relaxing)
 .debug_str     0x000000000000f9a4      0x345 ../../../mesh/lib_51_MBTLE_CORE.a(mesh_flash.c.obj)
                                        0xbf7 (size before relaxing)
 .debug_str     0x000000000000fce9       0xa1 ../../../mesh/lib_51_MBTLE_CORE.a(nrf_flash.c.obj)
                                        0x6a6 (size before relaxing)
 .debug_str     0x000000000000fd8a       0x7f ../../../mesh/lib_51_MBTLE_CORE.a(msqueue.c.obj)
                                        0x6bc (size before relaxing)
 .debug_str     0x000000000000fe09      0x6a0 ../../../lib/micro-ecc/lib_51_UECC_LIB.a(uECC.c.obj)
                                        0x87d (size before relaxing)
 .debug_str     0x00000000000104a9      0x2e6 ../../../lib/rtt/lib_51_RTT_LIB.a(SEGGER_RTT.c.obj)
                                        0x91f (size before relaxing)
 .debug_str     0x000000000001078f      0x143 ../../../lib/rtt/lib_51_RTT_LIB.a(SEGGER_RTT_printf.c.obj)
                                        0x7cc (size before relaxing)

.debug_frame    0x0000000000000000     0x4fe4
 .debug_frame   0x0000000000000000       0xb8 CMakeFiles/51_light_control_client.dir/src/main.c.obj
 .debug_frame   0x00000000000000b8       0xb0 CMakeFiles/51_light_control_client.dir/src/provisioner.c.obj
 .debug_frame   0x0000000000000168      0x4a4 CMakeFiles/51_light_control_client.dir/__/__/__/mesh/models/config/src/config_client.c.obj
 .debug_frame   0x000000000000060c      0x4b8 CMakeFiles/51_light_control_client.dir/__/__/__/mesh/src/access/access.c.obj
 .debug_frame   0x0000000000000ac4       0xe8 CMakeFiles/51_light_control_client.dir/__/__/__/mesh/src/access/access_reliable.c.obj
 .debug_frame   0x0000000000000bac      0x830 CMakeFiles/51_light_control_client.dir/__/__/__/mesh/src/access/device_state_manager.c.obj
 .debug_frame   0x00000000000013dc      0x124 CMakeFiles/51_light_control_client.dir/__/__/nrf_mesh_sdk.c.obj
 .debug_frame   0x0000000000001500       0xa4 CMakeFiles/51_light_control_client.dir/__/__/hal/src/simple_hal.c.obj
 .debug_frame   0x00000000000015a4       0xbc CMakeFiles/51_light_control_client.dir/__/__/models/simple_on_off/src/simple_on_off_client.c.obj
 .debug_frame   0x0000000000001660       0x30 CMakeFiles/51_light_control_client.dir/__/__/__/toolchain/system_nrf51.c.obj
 .debug_frame   0x0000000000001690       0xe0 ../../../mesh/lib_51_MBTLE_PB_ADV_ER.a(nrf_mesh_prov.c.obj)
 .debug_frame   0x0000000000001770      0x260 ../../../mesh/lib_51_MBTLE_PB_ADV_ER.a(prov_bearer_adv.c.obj)
 .debug_frame   0x00000000000019d0      0x134 ../../../mesh/lib_51_MBTLE_PB_ADV_ER.a(prov_utils.c.obj)
 .debug_frame   0x0000000000001b04       0x60 ../../../mesh/lib_51_MBTLE_PB_ADV_ER.a(prov_beacon.c.obj)
 .debug_frame   0x0000000000001b64      0x148 ../../../mesh/lib_51_MBTLE_PB_ADV_ER.a(prov_provisioner.c.obj)
 .debug_frame   0x0000000000001cac      0x240 ../../../mesh/lib_51_MBTLE_PB_ADV_ER.a(provisioning.c.obj)
 .debug_frame   0x0000000000001eec       0x30 ../../../mesh/lib_51_MBTLE_CORE.a(nrf_mesh_weak.c.obj)
 .debug_frame   0x0000000000001f1c      0x324 ../../../mesh/lib_51_MBTLE_CORE.a(bearer_adv.c.obj)
 .debug_frame   0x0000000000002240       0xd4 ../../../mesh/lib_51_MBTLE_CORE.a(fifo.c.obj)
 .debug_frame   0x0000000000002314       0xa4 ../../../mesh/lib_51_MBTLE_CORE.a(packet_mgr.c.obj)
 .debug_frame   0x00000000000023b8      0x16c ../../../mesh/lib_51_MBTLE_CORE.a(radio.c.obj)
 .debug_frame   0x0000000000002524       0xf8 ../../../mesh/lib_51_MBTLE_CORE.a(timer.c.obj)
 .debug_frame   0x000000000000261c      0x11c ../../../mesh/lib_51_MBTLE_CORE.a(timer_scheduler.c.obj)
 .debug_frame   0x0000000000002738       0x90 ../../../mesh/lib_51_MBTLE_CORE.a(beacon.c.obj)
 .debug_frame   0x00000000000027c8      0x188 ../../../mesh/lib_51_MBTLE_CORE.a(bearer.c.obj)
 .debug_frame   0x0000000000002950      0x128 ../../../mesh/lib_51_MBTLE_CORE.a(bearer_event.c.obj)
 .debug_frame   0x0000000000002a78       0x50 ../../../mesh/lib_51_MBTLE_CORE.a(nrf_mesh_configure.c.obj)
 .debug_frame   0x0000000000002ac8      0x150 ../../../mesh/lib_51_MBTLE_CORE.a(enc.c.obj)
 .debug_frame   0x0000000000002c18       0x64 ../../../mesh/lib_51_MBTLE_CORE.a(event.c.obj)
 .debug_frame   0x0000000000002c7c       0xa0 ../../../mesh/lib_51_MBTLE_CORE.a(log.c.obj)
 .debug_frame   0x0000000000002d1c       0xa4 ../../../mesh/lib_51_MBTLE_CORE.a(net_beacon.c.obj)
 .debug_frame   0x0000000000002dc0      0x1d8 ../../../mesh/lib_51_MBTLE_CORE.a(net_state.c.obj)
 .debug_frame   0x0000000000002f98      0x140 ../../../mesh/lib_51_MBTLE_CORE.a(nrf_mesh.c.obj)
 .debug_frame   0x00000000000030d8       0xa0 ../../../mesh/lib_51_MBTLE_CORE.a(nrf_mesh_keygen.c.obj)
 .debug_frame   0x0000000000003178       0x50 ../../../mesh/lib_51_MBTLE_CORE.a(nrf_mesh_utils.c.obj)
 .debug_frame   0x00000000000031c8       0x84 ../../../mesh/lib_51_MBTLE_CORE.a(radio_config.c.obj)
 .debug_frame   0x000000000000324c       0x90 ../../../mesh/lib_51_MBTLE_CORE.a(rand.c.obj)
 .debug_frame   0x00000000000032dc       0x48 ../../../mesh/lib_51_MBTLE_CORE.a(ticker.c.obj)
 .debug_frame   0x0000000000003324      0x2c8 ../../../mesh/lib_51_MBTLE_CORE.a(transport.c.obj)
 .debug_frame   0x00000000000035ec       0x58 ../../../mesh/lib_51_MBTLE_CORE.a(internal_event.c.obj)
 .debug_frame   0x0000000000003644      0x264 ../../../mesh/lib_51_MBTLE_CORE.a(flash_manager.c.obj)
 .debug_frame   0x00000000000038a8      0x1e8 ../../../mesh/lib_51_MBTLE_CORE.a(flash_manager_defrag.c.obj)
 .debug_frame   0x0000000000003a90       0x38 ../../../mesh/lib_51_MBTLE_CORE.a(flash_manager_internal.c.obj)
 .debug_frame   0x0000000000003ac8       0x3c ../../../mesh/lib_51_MBTLE_CORE.a(aes.c.obj)
 .debug_frame   0x0000000000003b04       0x74 ../../../mesh/lib_51_MBTLE_CORE.a(queue.c.obj)
 .debug_frame   0x0000000000003b78      0x178 ../../../mesh/lib_51_MBTLE_CORE.a(timeslot.c.obj)
 .debug_frame   0x0000000000003cf0       0x50 ../../../mesh/lib_51_MBTLE_CORE.a(aes_cmac.c.obj)
 .debug_frame   0x0000000000003d40       0xe0 ../../../mesh/lib_51_MBTLE_CORE.a(ccm_soft.c.obj)
 .debug_frame   0x0000000000003e20       0x84 ../../../mesh/lib_51_MBTLE_CORE.a(msg_cache.c.obj)
 .debug_frame   0x0000000000003ea4       0xfc ../../../mesh/lib_51_MBTLE_CORE.a(network.c.obj)
 .debug_frame   0x0000000000003fa0       0x30 ../../../mesh/lib_51_MBTLE_CORE.a(packet.c.obj)
 .debug_frame   0x0000000000003fd0      0x124 ../../../mesh/lib_51_MBTLE_CORE.a(packet_buffer.c.obj)
 .debug_frame   0x00000000000040f4       0xa8 ../../../mesh/lib_51_MBTLE_CORE.a(replay_cache.c.obj)
 .debug_frame   0x000000000000419c      0x10c ../../../mesh/lib_51_MBTLE_CORE.a(mesh_flash.c.obj)
 .debug_frame   0x00000000000042a8       0x48 ../../../mesh/lib_51_MBTLE_CORE.a(nrf_flash.c.obj)
 .debug_frame   0x00000000000042f0       0x94 ../../../mesh/lib_51_MBTLE_CORE.a(msqueue.c.obj)
 .debug_frame   0x0000000000004384      0x5c4 ../../../lib/micro-ecc/lib_51_UECC_LIB.a(uECC.c.obj)
 .debug_frame   0x0000000000004948      0x2dc ../../../lib/rtt/lib_51_RTT_LIB.a(SEGGER_RTT.c.obj)
 .debug_frame   0x0000000000004c24       0x9c ../../../lib/rtt/lib_51_RTT_LIB.a(SEGGER_RTT_printf.c.obj)
 .debug_frame   0x0000000000004cc0       0x20 /usr/bin/../lib/gcc/arm-none-eabi/6.3.1/thumb/v6-m/libgcc.a(_udivsi3.o)
 .debug_frame   0x0000000000004ce0       0x20 /usr/bin/../lib/gcc/arm-none-eabi/6.3.1/thumb/v6-m/libgcc.a(_divsi3.o)
 .debug_frame   0x0000000000004d00       0x34 /usr/bin/../lib/gcc/arm-none-eabi/6.3.1/thumb/v6-m/libgcc.a(_muldi3.o)
 .debug_frame   0x0000000000004d34       0x28 /usr/bin/../lib/gcc/arm-none-eabi/6.3.1/../../../../arm-none-eabi/lib/thumb/v6-m/libg_nano.a(lib_a-exit.o)
 .debug_frame   0x0000000000004d5c       0x2c /usr/bin/../lib/gcc/arm-none-eabi/6.3.1/../../../../arm-none-eabi/lib/thumb/v6-m/libg_nano.a(lib_a-init.o)
 .debug_frame   0x0000000000004d88       0x40 /usr/bin/../lib/gcc/arm-none-eabi/6.3.1/../../../../arm-none-eabi/lib/thumb/v6-m/libg_nano.a(lib_a-malloc.o)
 .debug_frame   0x0000000000004dc8       0x2c /usr/bin/../lib/gcc/arm-none-eabi/6.3.1/../../../../arm-none-eabi/lib/thumb/v6-m/libg_nano.a(lib_a-memcmp.o)
 .debug_frame   0x0000000000004df4       0x28 /usr/bin/../lib/gcc/arm-none-eabi/6.3.1/../../../../arm-none-eabi/lib/thumb/v6-m/libg_nano.a(lib_a-memcpy-stub.o)
 .debug_frame   0x0000000000004e1c       0x20 /usr/bin/../lib/gcc/arm-none-eabi/6.3.1/../../../../arm-none-eabi/lib/thumb/v6-m/libg_nano.a(lib_a-memset.o)
 .debug_frame   0x0000000000004e3c       0x2c /usr/bin/../lib/gcc/arm-none-eabi/6.3.1/../../../../arm-none-eabi/lib/thumb/v6-m/libg_nano.a(lib_a-nano-freer.o)
 .debug_frame   0x0000000000004e68       0x2c /usr/bin/../lib/gcc/arm-none-eabi/6.3.1/../../../../arm-none-eabi/lib/thumb/v6-m/libg_nano.a(lib_a-nano-mallocr.o)
 .debug_frame   0x0000000000004e94       0x2c /usr/bin/../lib/gcc/arm-none-eabi/6.3.1/../../../../arm-none-eabi/lib/thumb/v6-m/libg_nano.a(lib_a-sbrkr.o)
 .debug_frame   0x0000000000004ec0       0x20 /usr/bin/../lib/gcc/arm-none-eabi/6.3.1/../../../../arm-none-eabi/lib/thumb/v6-m/libg_nano.a(lib_a-strcpy.o)
 .debug_frame   0x0000000000004ee0       0x2c /usr/bin/../lib/gcc/arm-none-eabi/6.3.1/../../../../arm-none-eabi/lib/thumb/v6-m/libg_nano.a(lib_a-strrchr.o)
 .debug_frame   0x0000000000004f0c       0x30 /usr/bin/../lib/gcc/arm-none-eabi/6.3.1/../../../../arm-none-eabi/lib/thumb/v6-m/libg_nano.a(lib_a-mlock.o)
 .debug_frame   0x0000000000004f3c       0x48 /usr/bin/../lib/gcc/arm-none-eabi/6.3.1/../../../../arm-none-eabi/lib/thumb/v6-m/libg_nano.a(lib_a-reent.o)
 .debug_frame   0x0000000000004f84       0x20 /usr/bin/../lib/gcc/arm-none-eabi/6.3.1/../../../../arm-none-eabi/lib/thumb/v6-m/libg_nano.a(lib_a-strchr.o)
 .debug_frame   0x0000000000004fa4       0x20 /usr/bin/../lib/gcc/arm-none-eabi/6.3.1/../../../../arm-none-eabi/lib/thumb/v6-m/libnosys.a(sbrk.o)
 .debug_frame   0x0000000000004fc4       0x20 /usr/bin/../lib/gcc/arm-none-eabi/6.3.1/../../../../arm-none-eabi/lib/thumb/v6-m/libnosys.a(_exit.o)
