Archive member included to satisfy reference by file (symbol)

../../mesh/lib_51_MBTLE_CORE.a(nrf_mesh_weak.c.obj)
                              CMakeFiles/51_serial.dir/__/__/mesh/src/serial/serial_handler_dfu.c.obj (nrf_mesh_dfu_state_get)
../../mesh/lib_51_MBTLE_CORE.a(bearer_adv.c.obj)
                              CMakeFiles/51_serial.dir/__/__/mesh/src/serial/serial_handler_device.c.obj (bearer_adv_advertiser_init)
../../mesh/lib_51_MBTLE_CORE.a(fifo.c.obj)
                              ../../mesh/lib_51_MBTLE_CORE.a(bearer_adv.c.obj) (fifo_init)
../../mesh/lib_51_MBTLE_CORE.a(packet_mgr.c.obj)
                              CMakeFiles/51_serial.dir/__/__/mesh/src/serial/serial_handler_device.c.obj (packet_mgr_alloc)
../../mesh/lib_51_MBTLE_CORE.a(radio.c.obj)
                              ../../mesh/lib_51_MBTLE_CORE.a(bearer_adv.c.obj) (radio_init)
../../mesh/lib_51_MBTLE_CORE.a(timer.c.obj)
                              CMakeFiles/51_serial.dir/__/__/mesh/src/access/access_publish.c.obj (timer_now)
../../mesh/lib_51_MBTLE_CORE.a(timer_scheduler.c.obj)
                              CMakeFiles/51_serial.dir/__/__/mesh/src/access/access_publish.c.obj (timer_sch_schedule)
../../mesh/lib_51_MBTLE_CORE.a(beacon.c.obj)
                              CMakeFiles/51_serial.dir/__/__/mesh/src/prov/prov_beacon.c.obj (beacon_create)
../../mesh/lib_51_MBTLE_CORE.a(bearer.c.obj)
                              ../../mesh/lib_51_MBTLE_CORE.a(bearer_adv.c.obj) (bearer_adtype_filtering_set)
../../mesh/lib_51_MBTLE_CORE.a(bearer_event.c.obj)
                              CMakeFiles/51_serial.dir/__/__/mesh/src/serial/serial.c.obj (bearer_event_generic_post)
../../mesh/lib_51_MBTLE_CORE.a(nrf_mesh_configure.c.obj)
                              CMakeFiles/51_serial.dir/__/__/mesh/src/serial/serial_handler_config.c.obj (nrf_mesh_configure_device_uuid_set)
../../mesh/lib_51_MBTLE_CORE.a(enc.c.obj)
                              CMakeFiles/51_serial.dir/__/__/mesh/src/prov/prov_utils.c.obj (enc_aes_cmac)
../../mesh/lib_51_MBTLE_CORE.a(event.c.obj)
                              CMakeFiles/51_serial.dir/__/__/mesh/src/access/access.c.obj (event_handle)
../../mesh/lib_51_MBTLE_CORE.a(hal.c.obj)
                              CMakeFiles/51_serial.dir/__/__/mesh/src/serial/serial_handler_device.c.obj (hal_device_reset)
../../mesh/lib_51_MBTLE_CORE.a(log.c.obj)
                              CMakeFiles/51_serial.dir/src/main.c.obj (log_callback_rtt)
../../mesh/lib_51_MBTLE_CORE.a(net_beacon.c.obj)
                              CMakeFiles/51_serial.dir/__/__/mesh/models/config/src/config_server.c.obj (net_beacon_state_set)
../../mesh/lib_51_MBTLE_CORE.a(net_state.c.obj)
                              CMakeFiles/51_serial.dir/__/__/mesh/src/access/nrf_mesh_node_config.c.obj (net_state_reset)
../../mesh/lib_51_MBTLE_CORE.a(nrf_mesh.c.obj)
                              CMakeFiles/51_serial.dir/src/main.c.obj (nrf_mesh_init)
../../mesh/lib_51_MBTLE_CORE.a(nrf_mesh_keygen.c.obj)
                              CMakeFiles/51_serial.dir/__/__/mesh/src/access/device_state_manager.c.obj (nrf_mesh_keygen_aid)
../../mesh/lib_51_MBTLE_CORE.a(nrf_mesh_utils.c.obj)
                              CMakeFiles/51_serial.dir/__/__/mesh/src/access/device_state_manager.c.obj (nrf_mesh_address_type_get)
../../mesh/lib_51_MBTLE_CORE.a(nrf_mesh_opt.c.obj)
                              CMakeFiles/51_serial.dir/src/main.c.obj (nrf_mesh_opt_set)
../../mesh/lib_51_MBTLE_CORE.a(radio_config.c.obj)
                              ../../mesh/lib_51_MBTLE_CORE.a(radio.c.obj) (radio_config_reset)
../../mesh/lib_51_MBTLE_CORE.a(packet_buffer.c.obj)
                              CMakeFiles/51_serial.dir/__/__/mesh/src/serial/serial_bearer.c.obj (packet_buffer_max_packet_len_get)
../../mesh/lib_51_MBTLE_CORE.a(rand.c.obj)
                              ../../mesh/lib_51_MBTLE_CORE.a(bearer_adv.c.obj) (rand_prng_get)
../../mesh/lib_51_MBTLE_CORE.a(ticker.c.obj)
                              ../../mesh/lib_51_MBTLE_CORE.a(nrf_mesh.c.obj) (ticker_init)
../../mesh/lib_51_MBTLE_CORE.a(transport.c.obj)
                              ../../mesh/lib_51_MBTLE_CORE.a(nrf_mesh.c.obj) (transport_init)
../../mesh/lib_51_MBTLE_CORE.a(internal_event.c.obj)
                              CMakeFiles/51_serial.dir/__/__/mesh/src/serial/serial_handler_device.c.obj (internal_event_init)
../../mesh/lib_51_MBTLE_CORE.a(flash_manager.c.obj)
                              ../../mesh/lib_51_MBTLE_CORE.a(nrf_mesh.c.obj) (flash_manager_init)
../../mesh/lib_51_MBTLE_CORE.a(flash_manager_defrag.c.obj)
                              ../../mesh/lib_51_MBTLE_CORE.a(flash_manager.c.obj) (flash_manager_defrag_init)
../../mesh/lib_51_MBTLE_CORE.a(flash_manager_internal.c.obj)
                              ../../mesh/lib_51_MBTLE_CORE.a(flash_manager.c.obj) (entry_get)
../../mesh/lib_51_MBTLE_CORE.a(aes.c.obj)
                              ../../mesh/lib_51_MBTLE_CORE.a(enc.c.obj) (aes_encrypt)
../../mesh/lib_51_MBTLE_CORE.a(queue.c.obj)
                              ../../mesh/lib_51_MBTLE_CORE.a(flash_manager.c.obj) (queue_init)
../../mesh/lib_51_MBTLE_CORE.a(timeslot.c.obj)
                              ../../mesh/lib_51_MBTLE_CORE.a(nrf_mesh.c.obj) (timeslot_sd_event_handler)
../../mesh/lib_51_MBTLE_CORE.a(aes_cmac.c.obj)
                              ../../mesh/lib_51_MBTLE_CORE.a(enc.c.obj) (aes_cmac)
../../mesh/lib_51_MBTLE_CORE.a(ccm_soft.c.obj)
                              ../../mesh/lib_51_MBTLE_CORE.a(enc.c.obj) (ccm_soft_encrypt)
../../mesh/lib_51_MBTLE_CORE.a(msg_cache.c.obj)
                              ../../mesh/lib_51_MBTLE_CORE.a(nrf_mesh.c.obj) (msg_cache_init)
../../mesh/lib_51_MBTLE_CORE.a(network.c.obj)
                              ../../mesh/lib_51_MBTLE_CORE.a(transport.c.obj) (network_pkt_relay)
../../mesh/lib_51_MBTLE_CORE.a(packet.c.obj)
                              ../../mesh/lib_51_MBTLE_CORE.a(network.c.obj) (packet_type_packet_get)
../../mesh/lib_51_MBTLE_CORE.a(replay_cache.c.obj)
                              ../../mesh/lib_51_MBTLE_CORE.a(transport.c.obj) (replay_cache_add)
../../mesh/lib_51_MBTLE_CORE.a(mesh_flash.c.obj)
                              ../../mesh/lib_51_MBTLE_CORE.a(flash_manager.c.obj) (mesh_flash_user_callback_set)
../../mesh/lib_51_MBTLE_CORE.a(nrf_flash.c.obj)
                              ../../mesh/lib_51_MBTLE_CORE.a(mesh_flash.c.obj) (nrf_flash_erase)
../../mesh/lib_51_MBTLE_CORE.a(msqueue.c.obj)
                              ../../mesh/lib_51_MBTLE_CORE.a(mesh_flash.c.obj) (msq_get)
../../lib/micro-ecc/lib_51_UECC_LIB.a(uECC.c.obj)
                              CMakeFiles/51_serial.dir/__/__/mesh/src/prov/prov_utils.c.obj (uECC_secp256r1)
../../lib/rtt/lib_51_RTT_LIB.a(SEGGER_RTT.c.obj)
                              ../../mesh/lib_51_MBTLE_CORE.a(log.c.obj) (SEGGER_RTT_Write)
../../lib/rtt/lib_51_RTT_LIB.a(SEGGER_RTT_printf.c.obj)
                              ../../mesh/lib_51_MBTLE_CORE.a(log.c.obj) (SEGGER_RTT_vprintf)
/usr/bin/../lib/gcc/arm-none-eabi/6.3.1/thumb/v6-m/libgcc.a(_udivsi3.o)
                              CMakeFiles/51_serial.dir/__/__/mesh/src/access/access_publish.c.obj (__aeabi_uidiv)
/usr/bin/../lib/gcc/arm-none-eabi/6.3.1/thumb/v6-m/libgcc.a(_divsi3.o)
                              CMakeFiles/51_serial.dir/__/__/mesh/src/access/access_reliable.c.obj (__aeabi_idiv)
/usr/bin/../lib/gcc/arm-none-eabi/6.3.1/thumb/v6-m/libgcc.a(_dvmd_tls.o)
                              /usr/bin/../lib/gcc/arm-none-eabi/6.3.1/thumb/v6-m/libgcc.a(_udivsi3.o) (__aeabi_idiv0)
/usr/bin/../lib/gcc/arm-none-eabi/6.3.1/thumb/v6-m/libgcc.a(_muldi3.o)
                              ../../mesh/lib_51_MBTLE_CORE.a(timeslot.c.obj) (__aeabi_lmul)
/usr/bin/../lib/gcc/arm-none-eabi/6.3.1/../../../../arm-none-eabi/lib/thumb/v6-m/libg_nano.a(lib_a-exit.o)
                              /usr/bin/../lib/gcc/arm-none-eabi/6.3.1/../../../../arm-none-eabi/lib/thumb/v6-m/crt0.o (exit)
/usr/bin/../lib/gcc/arm-none-eabi/6.3.1/../../../../arm-none-eabi/lib/thumb/v6-m/libg_nano.a(lib_a-impure.o)
                              /usr/bin/../lib/gcc/arm-none-eabi/6.3.1/../../../../arm-none-eabi/lib/thumb/v6-m/libg_nano.a(lib_a-exit.o) (_global_impure_ptr)
/usr/bin/../lib/gcc/arm-none-eabi/6.3.1/../../../../arm-none-eabi/lib/thumb/v6-m/libg_nano.a(lib_a-init.o)
                              /usr/bin/../lib/gcc/arm-none-eabi/6.3.1/../../../../arm-none-eabi/lib/thumb/v6-m/crt0.o (__libc_init_array)
/usr/bin/../lib/gcc/arm-none-eabi/6.3.1/../../../../arm-none-eabi/lib/thumb/v6-m/libg_nano.a(lib_a-malloc.o)
                              ../../mesh/lib_51_MBTLE_CORE.a(transport.c.obj) (malloc)
/usr/bin/../lib/gcc/arm-none-eabi/6.3.1/../../../../arm-none-eabi/lib/thumb/v6-m/libg_nano.a(lib_a-memcmp.o)
                              CMakeFiles/51_serial.dir/__/__/mesh/src/access/device_state_manager.c.obj (memcmp)
/usr/bin/../lib/gcc/arm-none-eabi/6.3.1/../../../../arm-none-eabi/lib/thumb/v6-m/libg_nano.a(lib_a-memcpy-stub.o)
                              CMakeFiles/51_serial.dir/__/__/mesh/src/access/access.c.obj (memcpy)
/usr/bin/../lib/gcc/arm-none-eabi/6.3.1/../../../../arm-none-eabi/lib/thumb/v6-m/libg_nano.a(lib_a-memset.o)
                              /usr/bin/../lib/gcc/arm-none-eabi/6.3.1/../../../../arm-none-eabi/lib/thumb/v6-m/crt0.o (memset)
/usr/bin/../lib/gcc/arm-none-eabi/6.3.1/../../../../arm-none-eabi/lib/thumb/v6-m/libg_nano.a(lib_a-nano-freer.o)
                              /usr/bin/../lib/gcc/arm-none-eabi/6.3.1/../../../../arm-none-eabi/lib/thumb/v6-m/libg_nano.a(lib_a-malloc.o) (_free_r)
/usr/bin/../lib/gcc/arm-none-eabi/6.3.1/../../../../arm-none-eabi/lib/thumb/v6-m/libg_nano.a(lib_a-nano-mallocr.o)
                              /usr/bin/../lib/gcc/arm-none-eabi/6.3.1/../../../../arm-none-eabi/lib/thumb/v6-m/libg_nano.a(lib_a-malloc.o) (_malloc_r)
/usr/bin/../lib/gcc/arm-none-eabi/6.3.1/../../../../arm-none-eabi/lib/thumb/v6-m/libg_nano.a(lib_a-sbrkr.o)
                              /usr/bin/../lib/gcc/arm-none-eabi/6.3.1/../../../../arm-none-eabi/lib/thumb/v6-m/libg_nano.a(lib_a-nano-mallocr.o) (_sbrk_r)
/usr/bin/../lib/gcc/arm-none-eabi/6.3.1/../../../../arm-none-eabi/lib/thumb/v6-m/libg_nano.a(lib_a-strcpy.o)
                              ../../lib/rtt/lib_51_RTT_LIB.a(SEGGER_RTT.c.obj) (strcpy)
/usr/bin/../lib/gcc/arm-none-eabi/6.3.1/../../../../arm-none-eabi/lib/thumb/v6-m/libg_nano.a(lib_a-strlen.o)
                              CMakeFiles/51_serial.dir/__/__/mesh/src/prov/prov_beacon.c.obj (strlen)
/usr/bin/../lib/gcc/arm-none-eabi/6.3.1/../../../../arm-none-eabi/lib/thumb/v6-m/libg_nano.a(lib_a-strrchr.o)
                              CMakeFiles/51_serial.dir/src/main.c.obj (strrchr)
/usr/bin/../lib/gcc/arm-none-eabi/6.3.1/../../../../arm-none-eabi/lib/thumb/v6-m/libg_nano.a(lib_a-mlock.o)
                              /usr/bin/../lib/gcc/arm-none-eabi/6.3.1/../../../../arm-none-eabi/lib/thumb/v6-m/libg_nano.a(lib_a-nano-freer.o) (__malloc_lock)
/usr/bin/../lib/gcc/arm-none-eabi/6.3.1/../../../../arm-none-eabi/lib/thumb/v6-m/libg_nano.a(lib_a-reent.o)
                              /usr/bin/../lib/gcc/arm-none-eabi/6.3.1/../../../../arm-none-eabi/lib/thumb/v6-m/libg_nano.a(lib_a-sbrkr.o) (errno)
/usr/bin/../lib/gcc/arm-none-eabi/6.3.1/../../../../arm-none-eabi/lib/thumb/v6-m/libg_nano.a(lib_a-strchr.o)
                              /usr/bin/../lib/gcc/arm-none-eabi/6.3.1/../../../../arm-none-eabi/lib/thumb/v6-m/libg_nano.a(lib_a-strrchr.o) (strchr)
/usr/bin/../lib/gcc/arm-none-eabi/6.3.1/../../../../arm-none-eabi/lib/thumb/v6-m/libnosys.a(sbrk.o)
                              /usr/bin/../lib/gcc/arm-none-eabi/6.3.1/../../../../arm-none-eabi/lib/thumb/v6-m/libg_nano.a(lib_a-sbrkr.o) (_sbrk)
/usr/bin/../lib/gcc/arm-none-eabi/6.3.1/../../../../arm-none-eabi/lib/thumb/v6-m/libnosys.a(_exit.o)
                              /usr/bin/../lib/gcc/arm-none-eabi/6.3.1/../../../../arm-none-eabi/lib/thumb/v6-m/libg_nano.a(lib_a-exit.o) (_exit)

Allocating common symbols
Common symbol       size              file

nrf_nvic_state      0x8               CMakeFiles/51_serial.dir/__/nrf_mesh_sdk.c.obj
errno               0x4               /usr/bin/../lib/gcc/arm-none-eabi/6.3.1/../../../../arm-none-eabi/lib/thumb/v6-m/libg_nano.a(lib_a-reent.o)
m_assertion_handler
                    0x4               ../../mesh/lib_51_MBTLE_CORE.a(nrf_mesh.c.obj)
_SEGGER_RTT         0x78              ../../lib/rtt/lib_51_RTT_LIB.a(SEGGER_RTT.c.obj)

Discarded input sections

 .text          0x0000000000000000        0x0 /usr/bin/../lib/gcc/arm-none-eabi/6.3.1/thumb/v6-m/crti.o
 .data          0x0000000000000000        0x0 /usr/bin/../lib/gcc/arm-none-eabi/6.3.1/thumb/v6-m/crti.o
 .bss           0x0000000000000000        0x0 /usr/bin/../lib/gcc/arm-none-eabi/6.3.1/thumb/v6-m/crti.o
 .data          0x0000000000000000        0x4 /usr/bin/../lib/gcc/arm-none-eabi/6.3.1/thumb/v6-m/crtbegin.o
 .data          0x0000000000000000        0x0 /usr/bin/../lib/gcc/arm-none-eabi/6.3.1/../../../../arm-none-eabi/lib/thumb/v6-m/crt0.o
 .bss           0x0000000000000000        0x0 /usr/bin/../lib/gcc/arm-none-eabi/6.3.1/../../../../arm-none-eabi/lib/thumb/v6-m/crt0.o
 .ARM.extab     0x0000000000000000        0x0 /usr/bin/../lib/gcc/arm-none-eabi/6.3.1/../../../../arm-none-eabi/lib/thumb/v6-m/crt0.o
 .text          0x0000000000000000        0x0 CMakeFiles/51_serial.dir/src/main.c.obj
 .data          0x0000000000000000        0x0 CMakeFiles/51_serial.dir/src/main.c.obj
 .bss           0x0000000000000000        0x0 CMakeFiles/51_serial.dir/src/main.c.obj
 .text          0x0000000000000000        0x0 CMakeFiles/51_serial.dir/__/nrf_mesh_sdk.c.obj
 .data          0x0000000000000000        0x0 CMakeFiles/51_serial.dir/__/nrf_mesh_sdk.c.obj
 .bss           0x0000000000000000        0x0 CMakeFiles/51_serial.dir/__/nrf_mesh_sdk.c.obj
 .text          0x0000000000000000        0x0 CMakeFiles/51_serial.dir/__/__/mesh/src/access/access.c.obj
 .data          0x0000000000000000        0x0 CMakeFiles/51_serial.dir/__/__/mesh/src/access/access.c.obj
 .bss           0x0000000000000000        0x0 CMakeFiles/51_serial.dir/__/__/mesh/src/access/access.c.obj
 .text.restore_acquired_subscription
                0x0000000000000000       0x24 CMakeFiles/51_serial.dir/__/__/mesh/src/access/access.c.obj
 .text.restore_acquired_element
                0x0000000000000000       0x1c CMakeFiles/51_serial.dir/__/__/mesh/src/access/access.c.obj
 .text.restore_flash_data
                0x0000000000000000       0x64 CMakeFiles/51_serial.dir/__/__/mesh/src/access/access.c.obj
 .text.restore_acquired_model
                0x0000000000000000       0x88 CMakeFiles/51_serial.dir/__/__/mesh/src/access/access.c.obj
 .text.access_flash_config_load
                0x0000000000000000      0x17c CMakeFiles/51_serial.dir/__/__/mesh/src/access/access.c.obj
 .text.access_model_add
                0x0000000000000000      0x194 CMakeFiles/51_serial.dir/__/__/mesh/src/access/access.c.obj
 .text.access_model_reply
                0x0000000000000000       0x20 CMakeFiles/51_serial.dir/__/__/mesh/src/access/access.c.obj
 .text.access_model_subscription_list_alloc
                0x0000000000000000       0x44 CMakeFiles/51_serial.dir/__/__/mesh/src/access/access.c.obj
 .text.access_model_subscription_lists_share
                0x0000000000000000       0x30 CMakeFiles/51_serial.dir/__/__/mesh/src/access/access.c.obj
 .text.access_default_ttl_set
                0x0000000000000000       0x10 CMakeFiles/51_serial.dir/__/__/mesh/src/access/access.c.obj
 .text.access_default_ttl_get
                0x0000000000000000        0xc CMakeFiles/51_serial.dir/__/__/mesh/src/access/access.c.obj
 .rodata.multiply_de_bruijn_bit_position.6706
                0x0000000000000000       0x20 CMakeFiles/51_serial.dir/__/__/mesh/src/access/access.c.obj
 .text          0x0000000000000000        0x0 CMakeFiles/51_serial.dir/__/__/mesh/src/access/access_publish.c.obj
 .data          0x0000000000000000        0x0 CMakeFiles/51_serial.dir/__/__/mesh/src/access/access_publish.c.obj
 .bss           0x0000000000000000        0x0 CMakeFiles/51_serial.dir/__/__/mesh/src/access/access_publish.c.obj
 .text.publish_timer_tick
                0x0000000000000000       0xe0 CMakeFiles/51_serial.dir/__/__/mesh/src/access/access_publish.c.obj
 .text.access_publish_init
                0x0000000000000000       0x38 CMakeFiles/51_serial.dir/__/__/mesh/src/access/access_publish.c.obj
 .text          0x0000000000000000        0x0 CMakeFiles/51_serial.dir/__/__/mesh/src/access/access_reliable.c.obj
 .data          0x0000000000000000        0x0 CMakeFiles/51_serial.dir/__/__/mesh/src/access/access_reliable.c.obj
 .bss           0x0000000000000000        0x0 CMakeFiles/51_serial.dir/__/__/mesh/src/access/access_reliable.c.obj
 .text.access_model_reliable_cancel
                0x0000000000000000       0x34 CMakeFiles/51_serial.dir/__/__/mesh/src/access/access_reliable.c.obj
 .text.access_model_reliable_publish
                0x0000000000000000      0x17c CMakeFiles/51_serial.dir/__/__/mesh/src/access/access_reliable.c.obj
 .text          0x0000000000000000        0x0 CMakeFiles/51_serial.dir/__/__/mesh/src/access/device_state_manager.c.obj
 .data          0x0000000000000000        0x0 CMakeFiles/51_serial.dir/__/__/mesh/src/access/device_state_manager.c.obj
 .bss           0x0000000000000000        0x0 CMakeFiles/51_serial.dir/__/__/mesh/src/access/device_state_manager.c.obj
 .text.dsm_flash_config_load
                0x0000000000000000      0x140 CMakeFiles/51_serial.dir/__/__/mesh/src/access/device_state_manager.c.obj
 .text.dsm_has_unflashed_data
                0x0000000000000000       0x5c CMakeFiles/51_serial.dir/__/__/mesh/src/access/device_state_manager.c.obj
 .text.dsm_address_publish_add_handle
                0x0000000000000000       0x78 CMakeFiles/51_serial.dir/__/__/mesh/src/access/device_state_manager.c.obj
 .text.dsm_address_subscription_add_handle
                0x0000000000000000       0x78 CMakeFiles/51_serial.dir/__/__/mesh/src/access/device_state_manager.c.obj
 .text.dsm_address_subscription_count_get
                0x0000000000000000       0x98 CMakeFiles/51_serial.dir/__/__/mesh/src/access/device_state_manager.c.obj
 .text.dsm_net_key_index_to_subnet_handle
                0x0000000000000000       0x60 CMakeFiles/51_serial.dir/__/__/mesh/src/access/device_state_manager.c.obj
 .text.dsm_subnet_handle_to_netkey_index
                0x0000000000000000       0x40 CMakeFiles/51_serial.dir/__/__/mesh/src/access/device_state_manager.c.obj
 .text.dsm_app_key_index_to_appkey_handle
                0x0000000000000000       0x20 CMakeFiles/51_serial.dir/__/__/mesh/src/access/device_state_manager.c.obj
 .text.dsm_appkey_handle_to_appkey_index
                0x0000000000000000       0x40 CMakeFiles/51_serial.dir/__/__/mesh/src/access/device_state_manager.c.obj
 .text.dsm_devkey_handle_get
                0x0000000000000000       0x3a CMakeFiles/51_serial.dir/__/__/mesh/src/access/device_state_manager.c.obj
 .text.dsm_beacon_secmat_get
                0x0000000000000000       0x44 CMakeFiles/51_serial.dir/__/__/mesh/src/access/device_state_manager.c.obj
 .text.dsm_proxy_identity_get
                0x0000000000000000        0x4 CMakeFiles/51_serial.dir/__/__/mesh/src/access/device_state_manager.c.obj
 .text          0x0000000000000000        0x0 CMakeFiles/51_serial.dir/__/__/mesh/src/access/nrf_mesh_node_config.c.obj
 .data          0x0000000000000000        0x0 CMakeFiles/51_serial.dir/__/__/mesh/src/access/nrf_mesh_node_config.c.obj
 .bss           0x0000000000000000        0x0 CMakeFiles/51_serial.dir/__/__/mesh/src/access/nrf_mesh_node_config.c.obj
 .text.sd_softdevice_enable
                0x0000000000000000        0x4 CMakeFiles/51_serial.dir/__/__/mesh/src/access/nrf_mesh_node_config.c.obj
 .text.default_mesh_assertion_handler
                0x0000000000000000       0x88 CMakeFiles/51_serial.dir/__/__/mesh/src/access/nrf_mesh_node_config.c.obj
 .text.start_provisionee
                0x0000000000000000       0x1c CMakeFiles/51_serial.dir/__/__/mesh/src/access/nrf_mesh_node_config.c.obj
 .text.mesh_evt_handler
                0x0000000000000000      0x10c CMakeFiles/51_serial.dir/__/__/mesh/src/access/nrf_mesh_node_config.c.obj
 .text.default_softdevice_assertion_handler
                0x0000000000000000       0x90 CMakeFiles/51_serial.dir/__/__/mesh/src/access/nrf_mesh_node_config.c.obj
 .text.softdevice_setup
                0x0000000000000000       0x74 CMakeFiles/51_serial.dir/__/__/mesh/src/access/nrf_mesh_node_config.c.obj
 .text.nrf_mesh_node_config
                0x0000000000000000       0xf8 CMakeFiles/51_serial.dir/__/__/mesh/src/access/nrf_mesh_node_config.c.obj
 .text.nrf_mesh_node_config_clear
                0x0000000000000000       0x1c CMakeFiles/51_serial.dir/__/__/mesh/src/access/nrf_mesh_node_config.c.obj
 .bss.m_evt_handler
                0x0000000000000000        0x8 CMakeFiles/51_serial.dir/__/__/mesh/src/access/nrf_mesh_node_config.c.obj
 .bss.m_node_provisioned
                0x0000000000000000        0x1 CMakeFiles/51_serial.dir/__/__/mesh/src/access/nrf_mesh_node_config.c.obj
 .bss.m_private_key
                0x0000000000000000       0x20 CMakeFiles/51_serial.dir/__/__/mesh/src/access/nrf_mesh_node_config.c.obj
 .bss.m_prov_ctx
                0x0000000000000000      0x2c0 CMakeFiles/51_serial.dir/__/__/mesh/src/access/nrf_mesh_node_config.c.obj
 .bss.m_public_key
                0x0000000000000000       0x40 CMakeFiles/51_serial.dir/__/__/mesh/src/access/nrf_mesh_node_config.c.obj
 .bss.m_sd_initialized
                0x0000000000000000        0x1 CMakeFiles/51_serial.dir/__/__/mesh/src/access/nrf_mesh_node_config.c.obj
 .bss.mp_init_params
                0x0000000000000000        0x4 CMakeFiles/51_serial.dir/__/__/mesh/src/access/nrf_mesh_node_config.c.obj
 .rodata.default_mesh_assertion_handler.str1.4
                0x0000000000000000       0x71 CMakeFiles/51_serial.dir/__/__/mesh/src/access/nrf_mesh_node_config.c.obj
 .rodata.default_softdevice_assertion_handler.str1.4
                0x0000000000000000       0x1d CMakeFiles/51_serial.dir/__/__/mesh/src/access/nrf_mesh_node_config.c.obj
 .debug_info    0x0000000000000000     0x277f CMakeFiles/51_serial.dir/__/__/mesh/src/access/nrf_mesh_node_config.c.obj
 .debug_abbrev  0x0000000000000000      0x526 CMakeFiles/51_serial.dir/__/__/mesh/src/access/nrf_mesh_node_config.c.obj
 .debug_loc     0x0000000000000000      0x44c CMakeFiles/51_serial.dir/__/__/mesh/src/access/nrf_mesh_node_config.c.obj
 .debug_aranges
                0x0000000000000000       0x58 CMakeFiles/51_serial.dir/__/__/mesh/src/access/nrf_mesh_node_config.c.obj
 .debug_ranges  0x0000000000000000       0xd8 CMakeFiles/51_serial.dir/__/__/mesh/src/access/nrf_mesh_node_config.c.obj
 .debug_line    0x0000000000000000      0x681 CMakeFiles/51_serial.dir/__/__/mesh/src/access/nrf_mesh_node_config.c.obj
 .debug_str     0x0000000000000000     0x24db CMakeFiles/51_serial.dir/__/__/mesh/src/access/nrf_mesh_node_config.c.obj
 .comment       0x0000000000000000       0x80 CMakeFiles/51_serial.dir/__/__/mesh/src/access/nrf_mesh_node_config.c.obj
 .debug_frame   0x0000000000000000       0xdc CMakeFiles/51_serial.dir/__/__/mesh/src/access/nrf_mesh_node_config.c.obj
 .ARM.attributes
                0x0000000000000000       0x31 CMakeFiles/51_serial.dir/__/__/mesh/src/access/nrf_mesh_node_config.c.obj
 .text          0x0000000000000000        0x0 CMakeFiles/51_serial.dir/__/__/mesh/models/config/src/config_server.c.obj
 .data          0x0000000000000000        0x0 CMakeFiles/51_serial.dir/__/__/mesh/models/config/src/config_server.c.obj
 .bss           0x0000000000000000        0x0 CMakeFiles/51_serial.dir/__/__/mesh/models/config/src/config_server.c.obj
 .text.get_element_index
                0x0000000000000000       0x2c CMakeFiles/51_serial.dir/__/__/mesh/models/config/src/config_server.c.obj
 .text.send_reply
                0x0000000000000000       0x20 CMakeFiles/51_serial.dir/__/__/mesh/models/config/src/config_server.c.obj
 .text.send_generic_error_reply
                0x0000000000000000       0x3e CMakeFiles/51_serial.dir/__/__/mesh/models/config/src/config_server.c.obj
 .text.handle_model_app_get
                0x0000000000000000      0x208 CMakeFiles/51_serial.dir/__/__/mesh/models/config/src/config_server.c.obj
 .text.handle_node_reset
                0x0000000000000000       0x20 CMakeFiles/51_serial.dir/__/__/mesh/models/config/src/config_server.c.obj
 .text.handle_node_identity_set
                0x0000000000000000       0x38 CMakeFiles/51_serial.dir/__/__/mesh/models/config/src/config_server.c.obj
 .text.handle_node_identity_get
                0x0000000000000000       0x38 CMakeFiles/51_serial.dir/__/__/mesh/models/config/src/config_server.c.obj
 .text.handle_heartbeat_subscription_set
                0x0000000000000000       0x30 CMakeFiles/51_serial.dir/__/__/mesh/models/config/src/config_server.c.obj
 .text.handle_heartbeat_subscription_get
                0x0000000000000000       0x30 CMakeFiles/51_serial.dir/__/__/mesh/models/config/src/config_server.c.obj
 .text.handle_heartbeat_publication_set
                0x0000000000000000       0x2a CMakeFiles/51_serial.dir/__/__/mesh/models/config/src/config_server.c.obj
 .text.handle_heartbeat_publication_get
                0x0000000000000000       0x2a CMakeFiles/51_serial.dir/__/__/mesh/models/config/src/config_server.c.obj
 .text.send_subscription_status
                0x0000000000000000       0x50 CMakeFiles/51_serial.dir/__/__/mesh/models/config/src/config_server.c.obj
 .text.handle_config_gatt_proxy_set
                0x0000000000000000       0x24 CMakeFiles/51_serial.dir/__/__/mesh/models/config/src/config_server.c.obj
 .text.handle_config_gatt_proxy_get
                0x0000000000000000       0x24 CMakeFiles/51_serial.dir/__/__/mesh/models/config/src/config_server.c.obj
 .text.handle_config_friend_set
                0x0000000000000000       0x24 CMakeFiles/51_serial.dir/__/__/mesh/models/config/src/config_server.c.obj
 .text.handle_config_friend_get
                0x0000000000000000       0x24 CMakeFiles/51_serial.dir/__/__/mesh/models/config/src/config_server.c.obj
 .text.handle_netkey_get
                0x0000000000000000       0x74 CMakeFiles/51_serial.dir/__/__/mesh/models/config/src/config_server.c.obj
 .text.handle_netkey_delete
                0x0000000000000000       0x7c CMakeFiles/51_serial.dir/__/__/mesh/models/config/src/config_server.c.obj
 .text.handle_model_app_bind_unbind
                0x0000000000000000      0x16c CMakeFiles/51_serial.dir/__/__/mesh/models/config/src/config_server.c.obj
 .text.handle_config_vendor_model_subscription_get
                0x0000000000000000      0x124 CMakeFiles/51_serial.dir/__/__/mesh/models/config/src/config_server.c.obj
 .text.send_relay_status
                0x0000000000000000       0x8c CMakeFiles/51_serial.dir/__/__/mesh/models/config/src/config_server.c.obj
 .text.handle_config_relay_set
                0x0000000000000000       0xa0 CMakeFiles/51_serial.dir/__/__/mesh/models/config/src/config_server.c.obj
 .text.handle_config_relay_get
                0x0000000000000000       0x10 CMakeFiles/51_serial.dir/__/__/mesh/models/config/src/config_server.c.obj
 .text.handle_config_model_subscription_virtual_address_add
                0x0000000000000000      0x190 CMakeFiles/51_serial.dir/__/__/mesh/models/config/src/config_server.c.obj
 .text.delete_all_subscriptions
                0x0000000000000000       0xa0 CMakeFiles/51_serial.dir/__/__/mesh/models/config/src/config_server.c.obj
 .text.handle_config_model_subscription_virtual_address_overwrite
                0x0000000000000000      0x1c4 CMakeFiles/51_serial.dir/__/__/mesh/models/config/src/config_server.c.obj
 .text.handle_config_model_subscription_delete_all
                0x0000000000000000       0xfc CMakeFiles/51_serial.dir/__/__/mesh/models/config/src/config_server.c.obj
 .text.handle_config_model_subscription_virtual_address_delete
                0x0000000000000000      0x190 CMakeFiles/51_serial.dir/__/__/mesh/models/config/src/config_server.c.obj
 .text.handle_config_model_subscription_delete
                0x0000000000000000      0x204 CMakeFiles/51_serial.dir/__/__/mesh/models/config/src/config_server.c.obj
 .text.handle_config_model_subscription_overwrite
                0x0000000000000000      0x1f0 CMakeFiles/51_serial.dir/__/__/mesh/models/config/src/config_server.c.obj
 .text.handle_config_model_subscription_add
                0x0000000000000000      0x1bc CMakeFiles/51_serial.dir/__/__/mesh/models/config/src/config_server.c.obj
 .text.send_publication_status
                0x0000000000000000      0x1b0 CMakeFiles/51_serial.dir/__/__/mesh/models/config/src/config_server.c.obj
 .text.handle_config_model_publication_get
                0x0000000000000000       0xa8 CMakeFiles/51_serial.dir/__/__/mesh/models/config/src/config_server.c.obj
 .text.handle_config_default_ttl_getset
                0x0000000000000000       0x58 CMakeFiles/51_serial.dir/__/__/mesh/models/config/src/config_server.c.obj
 .text.send_net_beacon_state
                0x0000000000000000       0x2c CMakeFiles/51_serial.dir/__/__/mesh/models/config/src/config_server.c.obj
 .text.handle_config_beacon_set
                0x0000000000000000       0x2a CMakeFiles/51_serial.dir/__/__/mesh/models/config/src/config_server.c.obj
 .text.handle_config_beacon_get
                0x0000000000000000       0x10 CMakeFiles/51_serial.dir/__/__/mesh/models/config/src/config_server.c.obj
 .text.handle_composition_data_get
                0x0000000000000000       0x54 CMakeFiles/51_serial.dir/__/__/mesh/models/config/src/config_server.c.obj
 .text.handle_appkey_get
                0x0000000000000000       0xd0 CMakeFiles/51_serial.dir/__/__/mesh/models/config/src/config_server.c.obj
 .text.handle_appkey_delete
                0x0000000000000000       0x80 CMakeFiles/51_serial.dir/__/__/mesh/models/config/src/config_server.c.obj
 .text.handle_config_model_publication_set
                0x0000000000000000      0x2b8 CMakeFiles/51_serial.dir/__/__/mesh/models/config/src/config_server.c.obj
 .text.handle_config_sig_model_subscription_get
                0x0000000000000000       0xfc CMakeFiles/51_serial.dir/__/__/mesh/models/config/src/config_server.c.obj
 .text.handle_netkey_add_update
                0x0000000000000000       0xa0 CMakeFiles/51_serial.dir/__/__/mesh/models/config/src/config_server.c.obj
 .text.handle_appkey_add_update
                0x0000000000000000       0xbc CMakeFiles/51_serial.dir/__/__/mesh/models/config/src/config_server.c.obj
 .text.config_server_init
                0x0000000000000000       0x54 CMakeFiles/51_serial.dir/__/__/mesh/models/config/src/config_server.c.obj
 .text.config_server_bind
                0x0000000000000000       0x14 CMakeFiles/51_serial.dir/__/__/mesh/models/config/src/config_server.c.obj
 .data.m_config_server_handle
                0x0000000000000000        0x2 CMakeFiles/51_serial.dir/__/__/mesh/models/config/src/config_server.c.obj
 .rodata.opcode_handlers
                0x0000000000000000      0x150 CMakeFiles/51_serial.dir/__/__/mesh/models/config/src/config_server.c.obj
 .debug_info    0x0000000000000000     0x5a6c CMakeFiles/51_serial.dir/__/__/mesh/models/config/src/config_server.c.obj
 .debug_abbrev  0x0000000000000000      0x4d8 CMakeFiles/51_serial.dir/__/__/mesh/models/config/src/config_server.c.obj
 .debug_loc     0x0000000000000000     0x3f2b CMakeFiles/51_serial.dir/__/__/mesh/models/config/src/config_server.c.obj
 .debug_aranges
                0x0000000000000000      0x188 CMakeFiles/51_serial.dir/__/__/mesh/models/config/src/config_server.c.obj
 .debug_ranges  0x0000000000000000      0x680 CMakeFiles/51_serial.dir/__/__/mesh/models/config/src/config_server.c.obj
 .debug_line    0x0000000000000000      0xfa2 CMakeFiles/51_serial.dir/__/__/mesh/models/config/src/config_server.c.obj
 .debug_str     0x0000000000000000     0x305e CMakeFiles/51_serial.dir/__/__/mesh/models/config/src/config_server.c.obj
 .comment       0x0000000000000000       0x80 CMakeFiles/51_serial.dir/__/__/mesh/models/config/src/config_server.c.obj
 .debug_frame   0x0000000000000000      0x600 CMakeFiles/51_serial.dir/__/__/mesh/models/config/src/config_server.c.obj
 .ARM.attributes
                0x0000000000000000       0x31 CMakeFiles/51_serial.dir/__/__/mesh/models/config/src/config_server.c.obj
 .text          0x0000000000000000        0x0 CMakeFiles/51_serial.dir/__/__/mesh/models/config/src/packed_index_list.c.obj
 .data          0x0000000000000000        0x0 CMakeFiles/51_serial.dir/__/__/mesh/models/config/src/packed_index_list.c.obj
 .bss           0x0000000000000000        0x0 CMakeFiles/51_serial.dir/__/__/mesh/models/config/src/packed_index_list.c.obj
 .text.packed_index_list_size
                0x0000000000000000       0x12 CMakeFiles/51_serial.dir/__/__/mesh/models/config/src/packed_index_list.c.obj
 .text.packed_index_list_create
                0x0000000000000000       0x36 CMakeFiles/51_serial.dir/__/__/mesh/models/config/src/packed_index_list.c.obj
 .debug_info    0x0000000000000000      0x149 CMakeFiles/51_serial.dir/__/__/mesh/models/config/src/packed_index_list.c.obj
 .debug_abbrev  0x0000000000000000       0xad CMakeFiles/51_serial.dir/__/__/mesh/models/config/src/packed_index_list.c.obj
 .debug_loc     0x0000000000000000       0xcb CMakeFiles/51_serial.dir/__/__/mesh/models/config/src/packed_index_list.c.obj
 .debug_aranges
                0x0000000000000000       0x28 CMakeFiles/51_serial.dir/__/__/mesh/models/config/src/packed_index_list.c.obj
 .debug_ranges  0x0000000000000000       0x18 CMakeFiles/51_serial.dir/__/__/mesh/models/config/src/packed_index_list.c.obj
 .debug_line    0x0000000000000000      0x10b CMakeFiles/51_serial.dir/__/__/mesh/models/config/src/packed_index_list.c.obj
 .debug_str     0x0000000000000000      0x26b CMakeFiles/51_serial.dir/__/__/mesh/models/config/src/packed_index_list.c.obj
 .comment       0x0000000000000000       0x80 CMakeFiles/51_serial.dir/__/__/mesh/models/config/src/packed_index_list.c.obj
 .debug_frame   0x0000000000000000       0x40 CMakeFiles/51_serial.dir/__/__/mesh/models/config/src/packed_index_list.c.obj
 .ARM.attributes
                0x0000000000000000       0x31 CMakeFiles/51_serial.dir/__/__/mesh/models/config/src/packed_index_list.c.obj
 .text          0x0000000000000000        0x0 CMakeFiles/51_serial.dir/__/__/mesh/models/config/src/composition_data.c.obj
 .data          0x0000000000000000        0x0 CMakeFiles/51_serial.dir/__/__/mesh/models/config/src/composition_data.c.obj
 .bss           0x0000000000000000        0x0 CMakeFiles/51_serial.dir/__/__/mesh/models/config/src/composition_data.c.obj
 .text.config_composition_data_get
                0x0000000000000000      0x1d8 CMakeFiles/51_serial.dir/__/__/mesh/models/config/src/composition_data.c.obj
 .debug_info    0x0000000000000000      0xe4f CMakeFiles/51_serial.dir/__/__/mesh/models/config/src/composition_data.c.obj
 .debug_abbrev  0x0000000000000000      0x2d2 CMakeFiles/51_serial.dir/__/__/mesh/models/config/src/composition_data.c.obj
 .debug_loc     0x0000000000000000      0x328 CMakeFiles/51_serial.dir/__/__/mesh/models/config/src/composition_data.c.obj
 .debug_aranges
                0x0000000000000000       0x20 CMakeFiles/51_serial.dir/__/__/mesh/models/config/src/composition_data.c.obj
 .debug_ranges  0x0000000000000000       0xd0 CMakeFiles/51_serial.dir/__/__/mesh/models/config/src/composition_data.c.obj
 .debug_line    0x0000000000000000      0x353 CMakeFiles/51_serial.dir/__/__/mesh/models/config/src/composition_data.c.obj
 .debug_str     0x0000000000000000      0x8ed CMakeFiles/51_serial.dir/__/__/mesh/models/config/src/composition_data.c.obj
 .comment       0x0000000000000000       0x80 CMakeFiles/51_serial.dir/__/__/mesh/models/config/src/composition_data.c.obj
 .debug_frame   0x0000000000000000       0x3c CMakeFiles/51_serial.dir/__/__/mesh/models/config/src/composition_data.c.obj
 .ARM.attributes
                0x0000000000000000       0x31 CMakeFiles/51_serial.dir/__/__/mesh/models/config/src/composition_data.c.obj
 .text          0x0000000000000000        0x0 CMakeFiles/51_serial.dir/__/__/mesh/src/serial/nrf_mesh_serial.c.obj
 .data          0x0000000000000000        0x0 CMakeFiles/51_serial.dir/__/__/mesh/src/serial/nrf_mesh_serial.c.obj
 .bss           0x0000000000000000        0x0 CMakeFiles/51_serial.dir/__/__/mesh/src/serial/nrf_mesh_serial.c.obj
 .text.nrf_mesh_serial_state_get
                0x0000000000000000        0x8 CMakeFiles/51_serial.dir/__/__/mesh/src/serial/nrf_mesh_serial.c.obj
 .text.nrf_mesh_serial_tx
                0x0000000000000000       0x68 CMakeFiles/51_serial.dir/__/__/mesh/src/serial/nrf_mesh_serial.c.obj
 .text          0x0000000000000000        0x0 CMakeFiles/51_serial.dir/__/__/mesh/src/serial/serial.c.obj
 .data          0x0000000000000000        0x0 CMakeFiles/51_serial.dir/__/__/mesh/src/serial/serial.c.obj
 .bss           0x0000000000000000        0x0 CMakeFiles/51_serial.dir/__/__/mesh/src/serial/serial.c.obj
 .text          0x0000000000000000        0x0 CMakeFiles/51_serial.dir/__/__/mesh/src/serial/serial_bearer.c.obj
 .data          0x0000000000000000        0x0 CMakeFiles/51_serial.dir/__/__/mesh/src/serial/serial_bearer.c.obj
 .bss           0x0000000000000000        0x0 CMakeFiles/51_serial.dir/__/__/mesh/src/serial/serial_bearer.c.obj
 .text.serial_bearer_rx_pending
                0x0000000000000000       0x10 CMakeFiles/51_serial.dir/__/__/mesh/src/serial/serial_bearer.c.obj
 .text          0x0000000000000000        0x0 CMakeFiles/51_serial.dir/__/__/mesh/src/serial/serial_handler_common.c.obj
 .data          0x0000000000000000        0x0 CMakeFiles/51_serial.dir/__/__/mesh/src/serial/serial_handler_common.c.obj
 .bss           0x0000000000000000        0x0 CMakeFiles/51_serial.dir/__/__/mesh/src/serial/serial_handler_common.c.obj
 .text          0x0000000000000000        0x0 CMakeFiles/51_serial.dir/__/__/mesh/src/serial/serial_handler_access.c.obj
 .data          0x0000000000000000        0x0 CMakeFiles/51_serial.dir/__/__/mesh/src/serial/serial_handler_access.c.obj
 .bss           0x0000000000000000        0x0 CMakeFiles/51_serial.dir/__/__/mesh/src/serial/serial_handler_access.c.obj
 .text          0x0000000000000000        0x0 CMakeFiles/51_serial.dir/__/__/mesh/src/serial/serial_handler_app.c.obj
 .data          0x0000000000000000        0x0 CMakeFiles/51_serial.dir/__/__/mesh/src/serial/serial_handler_app.c.obj
 .bss           0x0000000000000000        0x0 CMakeFiles/51_serial.dir/__/__/mesh/src/serial/serial_handler_app.c.obj
 .text          0x0000000000000000        0x0 CMakeFiles/51_serial.dir/__/__/mesh/src/serial/serial_handler_config.c.obj
 .data          0x0000000000000000        0x0 CMakeFiles/51_serial.dir/__/__/mesh/src/serial/serial_handler_config.c.obj
 .bss           0x0000000000000000        0x0 CMakeFiles/51_serial.dir/__/__/mesh/src/serial/serial_handler_config.c.obj
 .text          0x0000000000000000        0x0 CMakeFiles/51_serial.dir/__/__/mesh/src/serial/serial_handler_device.c.obj
 .data          0x0000000000000000        0x0 CMakeFiles/51_serial.dir/__/__/mesh/src/serial/serial_handler_device.c.obj
 .bss           0x0000000000000000        0x0 CMakeFiles/51_serial.dir/__/__/mesh/src/serial/serial_handler_device.c.obj
 .text          0x0000000000000000        0x0 CMakeFiles/51_serial.dir/__/__/mesh/src/serial/serial_handler_dfu.c.obj
 .data          0x0000000000000000        0x0 CMakeFiles/51_serial.dir/__/__/mesh/src/serial/serial_handler_dfu.c.obj
 .bss           0x0000000000000000        0x0 CMakeFiles/51_serial.dir/__/__/mesh/src/serial/serial_handler_dfu.c.obj
 .text          0x0000000000000000        0x0 CMakeFiles/51_serial.dir/__/__/mesh/src/serial/serial_handler_mesh.c.obj
 .data          0x0000000000000000        0x0 CMakeFiles/51_serial.dir/__/__/mesh/src/serial/serial_handler_mesh.c.obj
 .bss           0x0000000000000000        0x0 CMakeFiles/51_serial.dir/__/__/mesh/src/serial/serial_handler_mesh.c.obj
 .text          0x0000000000000000        0x0 CMakeFiles/51_serial.dir/__/__/mesh/src/serial/serial_handler_models.c.obj
 .data          0x0000000000000000        0x0 CMakeFiles/51_serial.dir/__/__/mesh/src/serial/serial_handler_models.c.obj
 .bss           0x0000000000000000        0x0 CMakeFiles/51_serial.dir/__/__/mesh/src/serial/serial_handler_models.c.obj
 .text.serial_handler_models_register
                0x0000000000000000       0x40 CMakeFiles/51_serial.dir/__/__/mesh/src/serial/serial_handler_models.c.obj
 .text          0x0000000000000000        0x0 CMakeFiles/51_serial.dir/__/__/mesh/src/serial/serial_handler_openmesh.c.obj
 .data          0x0000000000000000        0x0 CMakeFiles/51_serial.dir/__/__/mesh/src/serial/serial_handler_openmesh.c.obj
 .bss           0x0000000000000000        0x0 CMakeFiles/51_serial.dir/__/__/mesh/src/serial/serial_handler_openmesh.c.obj
 .text          0x0000000000000000        0x0 CMakeFiles/51_serial.dir/__/__/mesh/src/serial/serial_handler_prov.c.obj
 .data          0x0000000000000000        0x0 CMakeFiles/51_serial.dir/__/__/mesh/src/serial/serial_handler_prov.c.obj
 .bss           0x0000000000000000        0x0 CMakeFiles/51_serial.dir/__/__/mesh/src/serial/serial_handler_prov.c.obj
 .text.serial_handler_prov_context_get
                0x0000000000000000       0x20 CMakeFiles/51_serial.dir/__/__/mesh/src/serial/serial_handler_prov.c.obj
 .text.serial_handler_prov_keys_get
                0x0000000000000000       0x14 CMakeFiles/51_serial.dir/__/__/mesh/src/serial/serial_handler_prov.c.obj
 .text.serial_handler_prov_oob_caps_get
                0x0000000000000000        0xc CMakeFiles/51_serial.dir/__/__/mesh/src/serial/serial_handler_prov.c.obj
 .text          0x0000000000000000        0x0 CMakeFiles/51_serial.dir/__/__/mesh/src/serial/serial_uart.c.obj
 .data          0x0000000000000000        0x0 CMakeFiles/51_serial.dir/__/__/mesh/src/serial/serial_uart.c.obj
 .bss           0x0000000000000000        0x0 CMakeFiles/51_serial.dir/__/__/mesh/src/serial/serial_uart.c.obj
 .text          0x0000000000000000        0x0 CMakeFiles/51_serial.dir/__/__/mesh/src/prov/provisioning.c.obj
 .data          0x0000000000000000        0x0 CMakeFiles/51_serial.dir/__/__/mesh/src/prov/provisioning.c.obj
 .bss           0x0000000000000000        0x0 CMakeFiles/51_serial.dir/__/__/mesh/src/prov/provisioning.c.obj
 .text.prov_listen_stop
                0x0000000000000000        0xe CMakeFiles/51_serial.dir/__/__/mesh/src/prov/provisioning.c.obj
 .text.prov_tx  0x0000000000000000        0x8 CMakeFiles/51_serial.dir/__/__/mesh/src/prov/provisioning.c.obj
 .text          0x0000000000000000        0x0 CMakeFiles/51_serial.dir/__/__/mesh/src/prov/nrf_mesh_prov.c.obj
 .data          0x0000000000000000        0x0 CMakeFiles/51_serial.dir/__/__/mesh/src/prov/nrf_mesh_prov.c.obj
 .bss           0x0000000000000000        0x0 CMakeFiles/51_serial.dir/__/__/mesh/src/prov/nrf_mesh_prov.c.obj
 .text.nrf_mesh_prov_pubkey_provide
                0x0000000000000000       0x1c CMakeFiles/51_serial.dir/__/__/mesh/src/prov/nrf_mesh_prov.c.obj
 .text          0x0000000000000000        0x0 CMakeFiles/51_serial.dir/__/__/mesh/src/prov/prov_bearer_adv.c.obj
 .data          0x0000000000000000        0x0 CMakeFiles/51_serial.dir/__/__/mesh/src/prov/prov_bearer_adv.c.obj
 .bss           0x0000000000000000        0x0 CMakeFiles/51_serial.dir/__/__/mesh/src/prov/prov_bearer_adv.c.obj
 .text          0x0000000000000000        0x0 CMakeFiles/51_serial.dir/__/__/mesh/src/prov/prov_utils.c.obj
 .data          0x0000000000000000        0x0 CMakeFiles/51_serial.dir/__/__/mesh/src/prov/prov_utils.c.obj
 .bss           0x0000000000000000        0x0 CMakeFiles/51_serial.dir/__/__/mesh/src/prov/prov_utils.c.obj
 .text.prov_utils_opt_get
                0x0000000000000000       0x1c CMakeFiles/51_serial.dir/__/__/mesh/src/prov/prov_utils.c.obj
 .text          0x0000000000000000        0x0 CMakeFiles/51_serial.dir/__/__/mesh/src/prov/prov_beacon.c.obj
 .data          0x0000000000000000        0x0 CMakeFiles/51_serial.dir/__/__/mesh/src/prov/prov_beacon.c.obj
 .bss           0x0000000000000000        0x0 CMakeFiles/51_serial.dir/__/__/mesh/src/prov/prov_beacon.c.obj
 .text.prov_beacon_unprov_report
                0x0000000000000000        0xc CMakeFiles/51_serial.dir/__/__/mesh/src/prov/prov_beacon.c.obj
 .text          0x0000000000000000        0x0 CMakeFiles/51_serial.dir/__/__/mesh/src/prov/prov_provisioner.c.obj
 .data          0x0000000000000000        0x0 CMakeFiles/51_serial.dir/__/__/mesh/src/prov/prov_provisioner.c.obj
 .bss           0x0000000000000000        0x0 CMakeFiles/51_serial.dir/__/__/mesh/src/prov/prov_provisioner.c.obj
 .text.prov_provisioner_oob_pubkey
                0x0000000000000000       0x40 CMakeFiles/51_serial.dir/__/__/mesh/src/prov/prov_provisioner.c.obj
 .text          0x0000000000000000        0x0 CMakeFiles/51_serial.dir/__/__/mesh/src/prov/prov_provisionee.c.obj
 .data          0x0000000000000000        0x0 CMakeFiles/51_serial.dir/__/__/mesh/src/prov/prov_provisionee.c.obj
 .bss           0x0000000000000000        0x0 CMakeFiles/51_serial.dir/__/__/mesh/src/prov/prov_provisionee.c.obj
 .data          0x0000000000000000        0x0 CMakeFiles/51_serial.dir/__/__/toolchain/gcc/gcc_startup_nrf51.S.obj
 .bss           0x0000000000000000        0x0 CMakeFiles/51_serial.dir/__/__/toolchain/gcc/gcc_startup_nrf51.S.obj
 .text          0x0000000000000000        0x0 CMakeFiles/51_serial.dir/__/__/toolchain/system_nrf51.c.obj
 .data          0x0000000000000000        0x0 CMakeFiles/51_serial.dir/__/__/toolchain/system_nrf51.c.obj
 .bss           0x0000000000000000        0x0 CMakeFiles/51_serial.dir/__/__/toolchain/system_nrf51.c.obj
 .text.SystemCoreClockUpdate
                0x0000000000000000       0x10 CMakeFiles/51_serial.dir/__/__/toolchain/system_nrf51.c.obj
 .text          0x0000000000000000        0x0 ../../mesh/lib_51_MBTLE_CORE.a(nrf_mesh_weak.c.obj)
 .data          0x0000000000000000        0x0 ../../mesh/lib_51_MBTLE_CORE.a(nrf_mesh_weak.c.obj)
 .bss           0x0000000000000000        0x0 ../../mesh/lib_51_MBTLE_CORE.a(nrf_mesh_weak.c.obj)
 .text._weak_handler_ptr
                0x0000000000000000        0x4 ../../mesh/lib_51_MBTLE_CORE.a(nrf_mesh_weak.c.obj)
 .text          0x0000000000000000        0x0 ../../mesh/lib_51_MBTLE_CORE.a(bearer_adv.c.obj)
 .data          0x0000000000000000        0x0 ../../mesh/lib_51_MBTLE_CORE.a(bearer_adv.c.obj)
 .bss           0x0000000000000000        0x0 ../../mesh/lib_51_MBTLE_CORE.a(bearer_adv.c.obj)
 .text.bearer_adv_opt_get
                0x0000000000000000       0xd8 ../../mesh/lib_51_MBTLE_CORE.a(bearer_adv.c.obj)
 .rodata.bearer_adv_opt_get
                0x0000000000000000       0x1c ../../mesh/lib_51_MBTLE_CORE.a(bearer_adv.c.obj)
 .text.bearer_adv_available
                0x0000000000000000       0x10 ../../mesh/lib_51_MBTLE_CORE.a(bearer_adv.c.obj)
 .text.bearer_adv_tx_raw
                0x0000000000000000       0x30 ../../mesh/lib_51_MBTLE_CORE.a(bearer_adv.c.obj)
 .text.bearer_adv_addr_set
                0x0000000000000000       0x3c ../../mesh/lib_51_MBTLE_CORE.a(bearer_adv.c.obj)
 .text          0x0000000000000000        0x0 ../../mesh/lib_51_MBTLE_CORE.a(fifo.c.obj)
 .data          0x0000000000000000        0x0 ../../mesh/lib_51_MBTLE_CORE.a(fifo.c.obj)
 .bss           0x0000000000000000        0x0 ../../mesh/lib_51_MBTLE_CORE.a(fifo.c.obj)
 .text.fifo_flush
                0x0000000000000000        0x6 ../../mesh/lib_51_MBTLE_CORE.a(fifo.c.obj)
 .text.fifo_is_full
                0x0000000000000000       0x14 ../../mesh/lib_51_MBTLE_CORE.a(fifo.c.obj)
 .text          0x0000000000000000        0x0 ../../mesh/lib_51_MBTLE_CORE.a(packet_mgr.c.obj)
 .data          0x0000000000000000        0x0 ../../mesh/lib_51_MBTLE_CORE.a(packet_mgr.c.obj)
 .bss           0x0000000000000000        0x0 ../../mesh/lib_51_MBTLE_CORE.a(packet_mgr.c.obj)
 .text.packet_mgr_get_free_space
                0x0000000000000000       0x1c ../../mesh/lib_51_MBTLE_CORE.a(packet_mgr.c.obj)
 .text.packet_mgr_refcount_get
                0x0000000000000000        0x6 ../../mesh/lib_51_MBTLE_CORE.a(packet_mgr.c.obj)
 .text.packet_mgr_size_get
                0x0000000000000000        0x6 ../../mesh/lib_51_MBTLE_CORE.a(packet_mgr.c.obj)
 .text          0x0000000000000000        0x0 ../../mesh/lib_51_MBTLE_CORE.a(radio.c.obj)
 .data          0x0000000000000000        0x0 ../../mesh/lib_51_MBTLE_CORE.a(radio.c.obj)
 .bss           0x0000000000000000        0x0 ../../mesh/lib_51_MBTLE_CORE.a(radio.c.obj)
 .text.radio_mode_get
                0x0000000000000000        0xc ../../mesh/lib_51_MBTLE_CORE.a(radio.c.obj)
 .text.radio_access_addr_get
                0x0000000000000000        0xc ../../mesh/lib_51_MBTLE_CORE.a(radio.c.obj)
 .text.radio_resume
                0x0000000000000000       0x40 ../../mesh/lib_51_MBTLE_CORE.a(radio.c.obj)
 .text          0x0000000000000000        0x0 ../../mesh/lib_51_MBTLE_CORE.a(timer.c.obj)
 .data          0x0000000000000000        0x0 ../../mesh/lib_51_MBTLE_CORE.a(timer.c.obj)
 .bss           0x0000000000000000        0x0 ../../mesh/lib_51_MBTLE_CORE.a(timer.c.obj)
 .text.timer_order_cb_ppi
                0x0000000000000000       0xd0 ../../mesh/lib_51_MBTLE_CORE.a(timer.c.obj)
 .text.timer_order_ppi
                0x0000000000000000       0x90 ../../mesh/lib_51_MBTLE_CORE.a(timer.c.obj)
 .text          0x0000000000000000        0x0 ../../mesh/lib_51_MBTLE_CORE.a(timer_scheduler.c.obj)
 .data          0x0000000000000000        0x0 ../../mesh/lib_51_MBTLE_CORE.a(timer_scheduler.c.obj)
 .bss           0x0000000000000000        0x0 ../../mesh/lib_51_MBTLE_CORE.a(timer_scheduler.c.obj)
 .text          0x0000000000000000        0x0 ../../mesh/lib_51_MBTLE_CORE.a(beacon.c.obj)
 .data          0x0000000000000000        0x0 ../../mesh/lib_51_MBTLE_CORE.a(beacon.c.obj)
 .bss           0x0000000000000000        0x0 ../../mesh/lib_51_MBTLE_CORE.a(beacon.c.obj)
 .text          0x0000000000000000        0x0 ../../mesh/lib_51_MBTLE_CORE.a(bearer.c.obj)
 .data          0x0000000000000000        0x0 ../../mesh/lib_51_MBTLE_CORE.a(bearer.c.obj)
 .bss           0x0000000000000000        0x0 ../../mesh/lib_51_MBTLE_CORE.a(bearer.c.obj)
 .text.gap_addr_filter_set
                0x0000000000000000       0x40 ../../mesh/lib_51_MBTLE_CORE.a(bearer.c.obj)
 .text.bearer_filter_gap_addr_whitelist_set
                0x0000000000000000        0xa ../../mesh/lib_51_MBTLE_CORE.a(bearer.c.obj)
 .text.bearer_filter_gap_addr_blacklist_set
                0x0000000000000000        0xa ../../mesh/lib_51_MBTLE_CORE.a(bearer.c.obj)
 .text.bearer_filter_gap_addr_range_set
                0x0000000000000000       0x36 ../../mesh/lib_51_MBTLE_CORE.a(bearer.c.obj)
 .text.bearer_filter_gap_addr_clear
                0x0000000000000000       0x28 ../../mesh/lib_51_MBTLE_CORE.a(bearer.c.obj)
 .text.bearer_stats_get
                0x0000000000000000       0x2c ../../mesh/lib_51_MBTLE_CORE.a(bearer.c.obj)
 .text          0x0000000000000000        0x0 ../../mesh/lib_51_MBTLE_CORE.a(bearer_event.c.obj)
 .data          0x0000000000000000        0x0 ../../mesh/lib_51_MBTLE_CORE.a(bearer_event.c.obj)
 .bss           0x0000000000000000        0x0 ../../mesh/lib_51_MBTLE_CORE.a(bearer_event.c.obj)
 .text.bearer_event_timer_sch_post
                0x0000000000000000       0x3c ../../mesh/lib_51_MBTLE_CORE.a(bearer_event.c.obj)
 .text.bearer_event_in_progress
                0x0000000000000000       0x18 ../../mesh/lib_51_MBTLE_CORE.a(bearer_event.c.obj)
 .text          0x0000000000000000        0x0 ../../mesh/lib_51_MBTLE_CORE.a(nrf_mesh_configure.c.obj)
 .data          0x0000000000000000        0x0 ../../mesh/lib_51_MBTLE_CORE.a(nrf_mesh_configure.c.obj)
 .bss           0x0000000000000000        0x0 ../../mesh/lib_51_MBTLE_CORE.a(nrf_mesh_configure.c.obj)
 .text          0x0000000000000000        0x0 ../../mesh/lib_51_MBTLE_CORE.a(enc.c.obj)
 .data          0x0000000000000000        0x0 ../../mesh/lib_51_MBTLE_CORE.a(enc.c.obj)
 .bss           0x0000000000000000        0x0 ../../mesh/lib_51_MBTLE_CORE.a(enc.c.obj)
 .text.enc_key_generate
                0x0000000000000000        0xa ../../mesh/lib_51_MBTLE_CORE.a(enc.c.obj)
 .text          0x0000000000000000        0x0 ../../mesh/lib_51_MBTLE_CORE.a(event.c.obj)
 .data          0x0000000000000000        0x0 ../../mesh/lib_51_MBTLE_CORE.a(event.c.obj)
 .bss           0x0000000000000000        0x0 ../../mesh/lib_51_MBTLE_CORE.a(event.c.obj)
 .text.event_handler_remove
                0x0000000000000000       0x7c ../../mesh/lib_51_MBTLE_CORE.a(event.c.obj)
 .text          0x0000000000000000        0x0 ../../mesh/lib_51_MBTLE_CORE.a(hal.c.obj)
 .data          0x0000000000000000        0x0 ../../mesh/lib_51_MBTLE_CORE.a(hal.c.obj)
 .bss           0x0000000000000000        0x0 ../../mesh/lib_51_MBTLE_CORE.a(hal.c.obj)
 .text          0x0000000000000000        0x0 ../../mesh/lib_51_MBTLE_CORE.a(log.c.obj)
 .data          0x0000000000000000        0x0 ../../mesh/lib_51_MBTLE_CORE.a(log.c.obj)
 .bss           0x0000000000000000        0x0 ../../mesh/lib_51_MBTLE_CORE.a(log.c.obj)
 .text.log_callback_logview
                0x0000000000000000       0x38 ../../mesh/lib_51_MBTLE_CORE.a(log.c.obj)
 .text.log_set_callback
                0x0000000000000000        0xc ../../mesh/lib_51_MBTLE_CORE.a(log.c.obj)
 .rodata.log_callback_logview.str1.4
                0x0000000000000000       0x12 ../../mesh/lib_51_MBTLE_CORE.a(log.c.obj)
 .text          0x0000000000000000        0x0 ../../mesh/lib_51_MBTLE_CORE.a(net_beacon.c.obj)
 .data          0x0000000000000000        0x0 ../../mesh/lib_51_MBTLE_CORE.a(net_beacon.c.obj)
 .bss           0x0000000000000000        0x0 ../../mesh/lib_51_MBTLE_CORE.a(net_beacon.c.obj)
 .text.net_beacon_state_set
                0x0000000000000000       0x40 ../../mesh/lib_51_MBTLE_CORE.a(net_beacon.c.obj)
 .text.net_beacon_state_get
                0x0000000000000000        0xc ../../mesh/lib_51_MBTLE_CORE.a(net_beacon.c.obj)
 .text          0x0000000000000000        0x0 ../../mesh/lib_51_MBTLE_CORE.a(net_state.c.obj)
 .data          0x0000000000000000        0x0 ../../mesh/lib_51_MBTLE_CORE.a(net_state.c.obj)
 .bss           0x0000000000000000        0x0 ../../mesh/lib_51_MBTLE_CORE.a(net_state.c.obj)
 .text.net_state_iv_update_test_mode_set
                0x0000000000000000        0xc ../../mesh/lib_51_MBTLE_CORE.a(net_state.c.obj)
 .text          0x0000000000000000        0x0 ../../mesh/lib_51_MBTLE_CORE.a(nrf_mesh.c.obj)
 .data          0x0000000000000000        0x0 ../../mesh/lib_51_MBTLE_CORE.a(nrf_mesh.c.obj)
 .bss           0x0000000000000000        0x0 ../../mesh/lib_51_MBTLE_CORE.a(nrf_mesh.c.obj)
 .text.nrf_mesh_adv_send
                0x0000000000000000       0xbc ../../mesh/lib_51_MBTLE_CORE.a(nrf_mesh.c.obj)
 .text.nrf_mesh_evt_handler_remove
                0x0000000000000000        0x8 ../../mesh/lib_51_MBTLE_CORE.a(nrf_mesh.c.obj)
 .text.nrf_mesh_rx_cb_set
                0x0000000000000000        0xc ../../mesh/lib_51_MBTLE_CORE.a(nrf_mesh.c.obj)
 .text.nrf_mesh_rx_cb_clear
                0x0000000000000000        0xc ../../mesh/lib_51_MBTLE_CORE.a(nrf_mesh.c.obj)
 .text          0x0000000000000000        0x0 ../../mesh/lib_51_MBTLE_CORE.a(nrf_mesh_keygen.c.obj)
 .data          0x0000000000000000        0x0 ../../mesh/lib_51_MBTLE_CORE.a(nrf_mesh_keygen.c.obj)
 .bss           0x0000000000000000        0x0 ../../mesh/lib_51_MBTLE_CORE.a(nrf_mesh_keygen.c.obj)
 .text.nrf_mesh_keygen_identitykey
                0x0000000000000000       0x50 ../../mesh/lib_51_MBTLE_CORE.a(nrf_mesh_keygen.c.obj)
 .text          0x0000000000000000        0x0 ../../mesh/lib_51_MBTLE_CORE.a(nrf_mesh_utils.c.obj)
 .data          0x0000000000000000        0x0 ../../mesh/lib_51_MBTLE_CORE.a(nrf_mesh_utils.c.obj)
 .bss           0x0000000000000000        0x0 ../../mesh/lib_51_MBTLE_CORE.a(nrf_mesh_utils.c.obj)
 .text.nrf_mesh_rand_get
                0x0000000000000000       0x14 ../../mesh/lib_51_MBTLE_CORE.a(nrf_mesh_utils.c.obj)
 .text          0x0000000000000000        0x0 ../../mesh/lib_51_MBTLE_CORE.a(nrf_mesh_opt.c.obj)
 .data          0x0000000000000000        0x0 ../../mesh/lib_51_MBTLE_CORE.a(nrf_mesh_opt.c.obj)
 .bss           0x0000000000000000        0x0 ../../mesh/lib_51_MBTLE_CORE.a(nrf_mesh_opt.c.obj)
 .text.nrf_mesh_opt_get
                0x0000000000000000       0x4e ../../mesh/lib_51_MBTLE_CORE.a(nrf_mesh_opt.c.obj)
 .text          0x0000000000000000        0x0 ../../mesh/lib_51_MBTLE_CORE.a(radio_config.c.obj)
 .data          0x0000000000000000        0x0 ../../mesh/lib_51_MBTLE_CORE.a(radio_config.c.obj)
 .bss           0x0000000000000000        0x0 ../../mesh/lib_51_MBTLE_CORE.a(radio_config.c.obj)
 .text.radio_config_access_addr_set
                0x0000000000000000       0x78 ../../mesh/lib_51_MBTLE_CORE.a(radio_config.c.obj)
 .text.radio_config_access_addr_get
                0x0000000000000000       0x7c ../../mesh/lib_51_MBTLE_CORE.a(radio_config.c.obj)
 .text          0x0000000000000000        0x0 ../../mesh/lib_51_MBTLE_CORE.a(packet_buffer.c.obj)
 .data          0x0000000000000000        0x0 ../../mesh/lib_51_MBTLE_CORE.a(packet_buffer.c.obj)
 .bss           0x0000000000000000        0x0 ../../mesh/lib_51_MBTLE_CORE.a(packet_buffer.c.obj)
 .text          0x0000000000000000        0x0 ../../mesh/lib_51_MBTLE_CORE.a(rand.c.obj)
 .data          0x0000000000000000        0x0 ../../mesh/lib_51_MBTLE_CORE.a(rand.c.obj)
 .bss           0x0000000000000000        0x0 ../../mesh/lib_51_MBTLE_CORE.a(rand.c.obj)
 .text          0x0000000000000000        0x0 ../../mesh/lib_51_MBTLE_CORE.a(ticker.c.obj)
 .data          0x0000000000000000        0x0 ../../mesh/lib_51_MBTLE_CORE.a(ticker.c.obj)
 .bss           0x0000000000000000        0x0 ../../mesh/lib_51_MBTLE_CORE.a(ticker.c.obj)
 .text.ticker_get
                0x0000000000000000        0xc ../../mesh/lib_51_MBTLE_CORE.a(ticker.c.obj)
 .text          0x0000000000000000        0x0 ../../mesh/lib_51_MBTLE_CORE.a(transport.c.obj)
 .data          0x0000000000000000        0x0 ../../mesh/lib_51_MBTLE_CORE.a(transport.c.obj)
 .bss           0x0000000000000000        0x0 ../../mesh/lib_51_MBTLE_CORE.a(transport.c.obj)
 .text.transport_opt_get
                0x0000000000000000       0x80 ../../mesh/lib_51_MBTLE_CORE.a(transport.c.obj)
 .rodata.transport_opt_get
                0x0000000000000000       0x1c ../../mesh/lib_51_MBTLE_CORE.a(transport.c.obj)
 .text          0x0000000000000000        0x0 ../../mesh/lib_51_MBTLE_CORE.a(internal_event.c.obj)
 .data          0x0000000000000000        0x0 ../../mesh/lib_51_MBTLE_CORE.a(internal_event.c.obj)
 .bss           0x0000000000000000        0x0 ../../mesh/lib_51_MBTLE_CORE.a(internal_event.c.obj)
 .text.internal_event_pop
                0x0000000000000000       0x20 ../../mesh/lib_51_MBTLE_CORE.a(internal_event.c.obj)
 .text          0x0000000000000000        0x0 ../../mesh/lib_51_MBTLE_CORE.a(flash_manager.c.obj)
 .data          0x0000000000000000        0x0 ../../mesh/lib_51_MBTLE_CORE.a(flash_manager.c.obj)
 .bss           0x0000000000000000        0x0 ../../mesh/lib_51_MBTLE_CORE.a(flash_manager.c.obj)
 .text.flash_manager_entry_get
                0x0000000000000000       0x54 ../../mesh/lib_51_MBTLE_CORE.a(flash_manager.c.obj)
 .text.flash_manager_entry_count_get
                0x0000000000000000       0xc4 ../../mesh/lib_51_MBTLE_CORE.a(flash_manager.c.obj)
 .text.flash_manager_entry_release
                0x0000000000000000       0x58 ../../mesh/lib_51_MBTLE_CORE.a(flash_manager.c.obj)
 .text          0x0000000000000000        0x0 ../../mesh/lib_51_MBTLE_CORE.a(flash_manager_defrag.c.obj)
 .data          0x0000000000000000        0x0 ../../mesh/lib_51_MBTLE_CORE.a(flash_manager_defrag.c.obj)
 .bss           0x0000000000000000        0x0 ../../mesh/lib_51_MBTLE_CORE.a(flash_manager_defrag.c.obj)
 .text.flash_manager_defragging
                0x0000000000000000       0x54 ../../mesh/lib_51_MBTLE_CORE.a(flash_manager_defrag.c.obj)
 .text          0x0000000000000000        0x0 ../../mesh/lib_51_MBTLE_CORE.a(flash_manager_internal.c.obj)
 .data          0x0000000000000000        0x0 ../../mesh/lib_51_MBTLE_CORE.a(flash_manager_internal.c.obj)
 .bss           0x0000000000000000        0x0 ../../mesh/lib_51_MBTLE_CORE.a(flash_manager_internal.c.obj)
 .text          0x0000000000000000        0x0 ../../mesh/lib_51_MBTLE_CORE.a(aes.c.obj)
 .data          0x0000000000000000        0x0 ../../mesh/lib_51_MBTLE_CORE.a(aes.c.obj)
 .bss           0x0000000000000000        0x0 ../../mesh/lib_51_MBTLE_CORE.a(aes.c.obj)
 .text          0x0000000000000000        0x0 ../../mesh/lib_51_MBTLE_CORE.a(queue.c.obj)
 .data          0x0000000000000000        0x0 ../../mesh/lib_51_MBTLE_CORE.a(queue.c.obj)
 .bss           0x0000000000000000        0x0 ../../mesh/lib_51_MBTLE_CORE.a(queue.c.obj)
 .text.queue_peek
                0x0000000000000000       0x20 ../../mesh/lib_51_MBTLE_CORE.a(queue.c.obj)
 .text          0x0000000000000000        0x0 ../../mesh/lib_51_MBTLE_CORE.a(timeslot.c.obj)
 .data          0x0000000000000000        0x0 ../../mesh/lib_51_MBTLE_CORE.a(timeslot.c.obj)
 .bss           0x0000000000000000        0x0 ../../mesh/lib_51_MBTLE_CORE.a(timeslot.c.obj)
 .text.timeslot_restart
                0x0000000000000000       0x34 ../../mesh/lib_51_MBTLE_CORE.a(timeslot.c.obj)
 .text.timeslot_start_time_get
                0x0000000000000000        0xc ../../mesh/lib_51_MBTLE_CORE.a(timeslot.c.obj)
 .text.timeslot_is_in_ts
                0x0000000000000000        0xc ../../mesh/lib_51_MBTLE_CORE.a(timeslot.c.obj)
 .text          0x0000000000000000        0x0 ../../mesh/lib_51_MBTLE_CORE.a(aes_cmac.c.obj)
 .data          0x0000000000000000        0x0 ../../mesh/lib_51_MBTLE_CORE.a(aes_cmac.c.obj)
 .bss           0x0000000000000000        0x0 ../../mesh/lib_51_MBTLE_CORE.a(aes_cmac.c.obj)
 .text          0x0000000000000000        0x0 ../../mesh/lib_51_MBTLE_CORE.a(ccm_soft.c.obj)
 .data          0x0000000000000000        0x0 ../../mesh/lib_51_MBTLE_CORE.a(ccm_soft.c.obj)
 .bss           0x0000000000000000        0x0 ../../mesh/lib_51_MBTLE_CORE.a(ccm_soft.c.obj)
 .text          0x0000000000000000        0x0 ../../mesh/lib_51_MBTLE_CORE.a(msg_cache.c.obj)
 .data          0x0000000000000000        0x0 ../../mesh/lib_51_MBTLE_CORE.a(msg_cache.c.obj)
 .bss           0x0000000000000000        0x0 ../../mesh/lib_51_MBTLE_CORE.a(msg_cache.c.obj)
 .text.msg_cache_clear
                0x0000000000000000       0x20 ../../mesh/lib_51_MBTLE_CORE.a(msg_cache.c.obj)
 .text          0x0000000000000000        0x0 ../../mesh/lib_51_MBTLE_CORE.a(network.c.obj)
 .data          0x0000000000000000        0x0 ../../mesh/lib_51_MBTLE_CORE.a(network.c.obj)
 .bss           0x0000000000000000        0x0 ../../mesh/lib_51_MBTLE_CORE.a(network.c.obj)
 .text.network_opt_get
                0x0000000000000000       0x48 ../../mesh/lib_51_MBTLE_CORE.a(network.c.obj)
 .text          0x0000000000000000        0x0 ../../mesh/lib_51_MBTLE_CORE.a(packet.c.obj)
 .data          0x0000000000000000        0x0 ../../mesh/lib_51_MBTLE_CORE.a(packet.c.obj)
 .bss           0x0000000000000000        0x0 ../../mesh/lib_51_MBTLE_CORE.a(packet.c.obj)
 .text          0x0000000000000000        0x0 ../../mesh/lib_51_MBTLE_CORE.a(replay_cache.c.obj)
 .data          0x0000000000000000        0x0 ../../mesh/lib_51_MBTLE_CORE.a(replay_cache.c.obj)
 .bss           0x0000000000000000        0x0 ../../mesh/lib_51_MBTLE_CORE.a(replay_cache.c.obj)
 .text.replay_cache_on_iv_update
                0x0000000000000000       0x28 ../../mesh/lib_51_MBTLE_CORE.a(replay_cache.c.obj)
 .text          0x0000000000000000        0x0 ../../mesh/lib_51_MBTLE_CORE.a(mesh_flash.c.obj)
 .data          0x0000000000000000        0x0 ../../mesh/lib_51_MBTLE_CORE.a(mesh_flash.c.obj)
 .bss           0x0000000000000000        0x0 ../../mesh/lib_51_MBTLE_CORE.a(mesh_flash.c.obj)
 .text.mesh_flash_op_available_slots
                0x0000000000000000       0x30 ../../mesh/lib_51_MBTLE_CORE.a(mesh_flash.c.obj)
 .text.mesh_flash_in_progress
                0x0000000000000000       0x3c ../../mesh/lib_51_MBTLE_CORE.a(mesh_flash.c.obj)
 .text.mesh_flash_set_suspended
                0x0000000000000000       0x58 ../../mesh/lib_51_MBTLE_CORE.a(mesh_flash.c.obj)
 .bss.suspend_count.7574
                0x0000000000000000        0x4 ../../mesh/lib_51_MBTLE_CORE.a(mesh_flash.c.obj)
 .text          0x0000000000000000        0x0 ../../mesh/lib_51_MBTLE_CORE.a(nrf_flash.c.obj)
 .data          0x0000000000000000        0x0 ../../mesh/lib_51_MBTLE_CORE.a(nrf_flash.c.obj)
 .bss           0x0000000000000000        0x0 ../../mesh/lib_51_MBTLE_CORE.a(nrf_flash.c.obj)
 .text          0x0000000000000000        0x0 ../../mesh/lib_51_MBTLE_CORE.a(msqueue.c.obj)
 .data          0x0000000000000000        0x0 ../../mesh/lib_51_MBTLE_CORE.a(msqueue.c.obj)
 .bss           0x0000000000000000        0x0 ../../mesh/lib_51_MBTLE_CORE.a(msqueue.c.obj)
 .text          0x0000000000000000        0x0 ../../lib/micro-ecc/lib_51_UECC_LIB.a(uECC.c.obj)
 .data          0x0000000000000000        0x0 ../../lib/micro-ecc/lib_51_UECC_LIB.a(uECC.c.obj)
 .bss           0x0000000000000000        0x0 ../../lib/micro-ecc/lib_51_UECC_LIB.a(uECC.c.obj)
 .text.uECC_vli_modMult
                0x0000000000000000      0x180 ../../lib/micro-ecc/lib_51_UECC_LIB.a(uECC.c.obj)
 .text.bits2int
                0x0000000000000000       0xa8 ../../lib/micro-ecc/lib_51_UECC_LIB.a(uECC.c.obj)
 .text.uECC_sign_with_k
                0x0000000000000000      0x184 ../../lib/micro-ecc/lib_51_UECC_LIB.a(uECC.c.obj)
 .text.HMAC_init
                0x0000000000000000       0x48 ../../lib/micro-ecc/lib_51_UECC_LIB.a(uECC.c.obj)
 .text.HMAC_update
                0x0000000000000000        0x8 ../../lib/micro-ecc/lib_51_UECC_LIB.a(uECC.c.obj)
 .text.HMAC_finish
                0x0000000000000000       0x64 ../../lib/micro-ecc/lib_51_UECC_LIB.a(uECC.c.obj)
 .text.update_V
                0x0000000000000000       0x22 ../../lib/micro-ecc/lib_51_UECC_LIB.a(uECC.c.obj)
 .text.uECC_set_rng
                0x0000000000000000        0xc ../../lib/micro-ecc/lib_51_UECC_LIB.a(uECC.c.obj)
 .text.uECC_get_rng
                0x0000000000000000        0xc ../../lib/micro-ecc/lib_51_UECC_LIB.a(uECC.c.obj)
 .text.uECC_curve_private_key_size
                0x0000000000000000       0x12 ../../lib/micro-ecc/lib_51_UECC_LIB.a(uECC.c.obj)
 .text.uECC_curve_public_key_size
                0x0000000000000000        0x8 ../../lib/micro-ecc/lib_51_UECC_LIB.a(uECC.c.obj)
 .text.uECC_compute_public_key
                0x0000000000000000       0x8a ../../lib/micro-ecc/lib_51_UECC_LIB.a(uECC.c.obj)
 .text.uECC_sign
                0x0000000000000000       0x5a ../../lib/micro-ecc/lib_51_UECC_LIB.a(uECC.c.obj)
 .text.uECC_sign_deterministic
                0x0000000000000000      0x1d6 ../../lib/micro-ecc/lib_51_UECC_LIB.a(uECC.c.obj)
 .text.uECC_verify
                0x0000000000000000      0x310 ../../lib/micro-ecc/lib_51_UECC_LIB.a(uECC.c.obj)
 .text          0x0000000000000000        0x0 ../../lib/rtt/lib_51_RTT_LIB.a(SEGGER_RTT.c.obj)
 .data          0x0000000000000000        0x0 ../../lib/rtt/lib_51_RTT_LIB.a(SEGGER_RTT.c.obj)
 .bss           0x0000000000000000        0x0 ../../lib/rtt/lib_51_RTT_LIB.a(SEGGER_RTT.c.obj)
 .text._PostTerminalSwitch
                0x0000000000000000       0x20 ../../lib/rtt/lib_51_RTT_LIB.a(SEGGER_RTT.c.obj)
 .text.SEGGER_RTT_ReadNoLock
                0x0000000000000000       0xd8 ../../lib/rtt/lib_51_RTT_LIB.a(SEGGER_RTT.c.obj)
 .text.SEGGER_RTT_Read
                0x0000000000000000       0x1a ../../lib/rtt/lib_51_RTT_LIB.a(SEGGER_RTT.c.obj)
 .text.SEGGER_RTT_WriteSkipNoLock
                0x0000000000000000      0x124 ../../lib/rtt/lib_51_RTT_LIB.a(SEGGER_RTT.c.obj)
 .text.SEGGER_RTT_WriteString
                0x0000000000000000       0x18 ../../lib/rtt/lib_51_RTT_LIB.a(SEGGER_RTT.c.obj)
 .text.SEGGER_RTT_GetKey
                0x0000000000000000       0x22 ../../lib/rtt/lib_51_RTT_LIB.a(SEGGER_RTT.c.obj)
 .text.SEGGER_RTT_WaitKey
                0x0000000000000000        0xc ../../lib/rtt/lib_51_RTT_LIB.a(SEGGER_RTT.c.obj)
 .text.SEGGER_RTT_HasKey
                0x0000000000000000       0x24 ../../lib/rtt/lib_51_RTT_LIB.a(SEGGER_RTT.c.obj)
 .text.SEGGER_RTT_HasData
                0x0000000000000000       0x1c ../../lib/rtt/lib_51_RTT_LIB.a(SEGGER_RTT.c.obj)
 .text.SEGGER_RTT_AllocDownBuffer
                0x0000000000000000       0x78 ../../lib/rtt/lib_51_RTT_LIB.a(SEGGER_RTT.c.obj)
 .text.SEGGER_RTT_AllocUpBuffer
                0x0000000000000000       0x98 ../../lib/rtt/lib_51_RTT_LIB.a(SEGGER_RTT.c.obj)
 .text.SEGGER_RTT_ConfigUpBuffer
                0x0000000000000000       0x80 ../../lib/rtt/lib_51_RTT_LIB.a(SEGGER_RTT.c.obj)
 .text.SEGGER_RTT_ConfigDownBuffer
                0x0000000000000000       0x64 ../../lib/rtt/lib_51_RTT_LIB.a(SEGGER_RTT.c.obj)
 .text.SEGGER_RTT_SetNameUpBuffer
                0x0000000000000000       0x44 ../../lib/rtt/lib_51_RTT_LIB.a(SEGGER_RTT.c.obj)
 .text.SEGGER_RTT_SetNameDownBuffer
                0x0000000000000000       0x44 ../../lib/rtt/lib_51_RTT_LIB.a(SEGGER_RTT.c.obj)
 .text.SEGGER_RTT_Init
                0x0000000000000000       0x18 ../../lib/rtt/lib_51_RTT_LIB.a(SEGGER_RTT.c.obj)
 .text.SEGGER_RTT_SetTerminal
                0x0000000000000000       0x8c ../../lib/rtt/lib_51_RTT_LIB.a(SEGGER_RTT.c.obj)
 .text.SEGGER_RTT_TerminalOut
                0x0000000000000000       0xf0 ../../lib/rtt/lib_51_RTT_LIB.a(SEGGER_RTT.c.obj)
 .bss._ActiveTerminal
                0x0000000000000000        0x1 ../../lib/rtt/lib_51_RTT_LIB.a(SEGGER_RTT.c.obj)
 .rodata._aTerminalId
                0x0000000000000000       0x10 ../../lib/rtt/lib_51_RTT_LIB.a(SEGGER_RTT.c.obj)
 .text          0x0000000000000000        0x0 ../../lib/rtt/lib_51_RTT_LIB.a(SEGGER_RTT_printf.c.obj)
 .data          0x0000000000000000        0x0 ../../lib/rtt/lib_51_RTT_LIB.a(SEGGER_RTT_printf.c.obj)
 .bss           0x0000000000000000        0x0 ../../lib/rtt/lib_51_RTT_LIB.a(SEGGER_RTT_printf.c.obj)
 .data          0x0000000000000000        0x0 /usr/bin/../lib/gcc/arm-none-eabi/6.3.1/thumb/v6-m/libgcc.a(_udivsi3.o)
 .bss           0x0000000000000000        0x0 /usr/bin/../lib/gcc/arm-none-eabi/6.3.1/thumb/v6-m/libgcc.a(_udivsi3.o)
 .data          0x0000000000000000        0x0 /usr/bin/../lib/gcc/arm-none-eabi/6.3.1/thumb/v6-m/libgcc.a(_divsi3.o)
 .bss           0x0000000000000000        0x0 /usr/bin/../lib/gcc/arm-none-eabi/6.3.1/thumb/v6-m/libgcc.a(_divsi3.o)
 .data          0x0000000000000000        0x0 /usr/bin/../lib/gcc/arm-none-eabi/6.3.1/thumb/v6-m/libgcc.a(_dvmd_tls.o)
 .bss           0x0000000000000000        0x0 /usr/bin/../lib/gcc/arm-none-eabi/6.3.1/thumb/v6-m/libgcc.a(_dvmd_tls.o)
 .data          0x0000000000000000        0x0 /usr/bin/../lib/gcc/arm-none-eabi/6.3.1/thumb/v6-m/libgcc.a(_muldi3.o)
 .bss           0x0000000000000000        0x0 /usr/bin/../lib/gcc/arm-none-eabi/6.3.1/thumb/v6-m/libgcc.a(_muldi3.o)
 .text          0x0000000000000000        0x0 /usr/bin/../lib/gcc/arm-none-eabi/6.3.1/../../../../arm-none-eabi/lib/thumb/v6-m/libg_nano.a(lib_a-exit.o)
 .data          0x0000000000000000        0x0 /usr/bin/../lib/gcc/arm-none-eabi/6.3.1/../../../../arm-none-eabi/lib/thumb/v6-m/libg_nano.a(lib_a-exit.o)
 .bss           0x0000000000000000        0x0 /usr/bin/../lib/gcc/arm-none-eabi/6.3.1/../../../../arm-none-eabi/lib/thumb/v6-m/libg_nano.a(lib_a-exit.o)
 .text          0x0000000000000000        0x0 /usr/bin/../lib/gcc/arm-none-eabi/6.3.1/../../../../arm-none-eabi/lib/thumb/v6-m/libg_nano.a(lib_a-impure.o)
 .data          0x0000000000000000        0x0 /usr/bin/../lib/gcc/arm-none-eabi/6.3.1/../../../../arm-none-eabi/lib/thumb/v6-m/libg_nano.a(lib_a-impure.o)
 .bss           0x0000000000000000        0x0 /usr/bin/../lib/gcc/arm-none-eabi/6.3.1/../../../../arm-none-eabi/lib/thumb/v6-m/libg_nano.a(lib_a-impure.o)
 .text          0x0000000000000000        0x0 /usr/bin/../lib/gcc/arm-none-eabi/6.3.1/../../../../arm-none-eabi/lib/thumb/v6-m/libg_nano.a(lib_a-init.o)
 .data          0x0000000000000000        0x0 /usr/bin/../lib/gcc/arm-none-eabi/6.3.1/../../../../arm-none-eabi/lib/thumb/v6-m/libg_nano.a(lib_a-init.o)
 .bss           0x0000000000000000        0x0 /usr/bin/../lib/gcc/arm-none-eabi/6.3.1/../../../../arm-none-eabi/lib/thumb/v6-m/libg_nano.a(lib_a-init.o)
 .text          0x0000000000000000        0x0 /usr/bin/../lib/gcc/arm-none-eabi/6.3.1/../../../../arm-none-eabi/lib/thumb/v6-m/libg_nano.a(lib_a-malloc.o)
 .data          0x0000000000000000        0x0 /usr/bin/../lib/gcc/arm-none-eabi/6.3.1/../../../../arm-none-eabi/lib/thumb/v6-m/libg_nano.a(lib_a-malloc.o)
 .bss           0x0000000000000000        0x0 /usr/bin/../lib/gcc/arm-none-eabi/6.3.1/../../../../arm-none-eabi/lib/thumb/v6-m/libg_nano.a(lib_a-malloc.o)
 .text          0x0000000000000000        0x0 /usr/bin/../lib/gcc/arm-none-eabi/6.3.1/../../../../arm-none-eabi/lib/thumb/v6-m/libg_nano.a(lib_a-memcmp.o)
 .data          0x0000000000000000        0x0 /usr/bin/../lib/gcc/arm-none-eabi/6.3.1/../../../../arm-none-eabi/lib/thumb/v6-m/libg_nano.a(lib_a-memcmp.o)
 .bss           0x0000000000000000        0x0 /usr/bin/../lib/gcc/arm-none-eabi/6.3.1/../../../../arm-none-eabi/lib/thumb/v6-m/libg_nano.a(lib_a-memcmp.o)
 .text          0x0000000000000000        0x0 /usr/bin/../lib/gcc/arm-none-eabi/6.3.1/../../../../arm-none-eabi/lib/thumb/v6-m/libg_nano.a(lib_a-memcpy-stub.o)
 .data          0x0000000000000000        0x0 /usr/bin/../lib/gcc/arm-none-eabi/6.3.1/../../../../arm-none-eabi/lib/thumb/v6-m/libg_nano.a(lib_a-memcpy-stub.o)
 .bss           0x0000000000000000        0x0 /usr/bin/../lib/gcc/arm-none-eabi/6.3.1/../../../../arm-none-eabi/lib/thumb/v6-m/libg_nano.a(lib_a-memcpy-stub.o)
 .text          0x0000000000000000        0x0 /usr/bin/../lib/gcc/arm-none-eabi/6.3.1/../../../../arm-none-eabi/lib/thumb/v6-m/libg_nano.a(lib_a-memset.o)
 .data          0x0000000000000000        0x0 /usr/bin/../lib/gcc/arm-none-eabi/6.3.1/../../../../arm-none-eabi/lib/thumb/v6-m/libg_nano.a(lib_a-memset.o)
 .bss           0x0000000000000000        0x0 /usr/bin/../lib/gcc/arm-none-eabi/6.3.1/../../../../arm-none-eabi/lib/thumb/v6-m/libg_nano.a(lib_a-memset.o)
 .text          0x0000000000000000        0x0 /usr/bin/../lib/gcc/arm-none-eabi/6.3.1/../../../../arm-none-eabi/lib/thumb/v6-m/libg_nano.a(lib_a-nano-freer.o)
 .data          0x0000000000000000        0x0 /usr/bin/../lib/gcc/arm-none-eabi/6.3.1/../../../../arm-none-eabi/lib/thumb/v6-m/libg_nano.a(lib_a-nano-freer.o)
 .bss           0x0000000000000000        0x0 /usr/bin/../lib/gcc/arm-none-eabi/6.3.1/../../../../arm-none-eabi/lib/thumb/v6-m/libg_nano.a(lib_a-nano-freer.o)
 .text          0x0000000000000000        0x0 /usr/bin/../lib/gcc/arm-none-eabi/6.3.1/../../../../arm-none-eabi/lib/thumb/v6-m/libg_nano.a(lib_a-nano-mallocr.o)
 .data          0x0000000000000000        0x0 /usr/bin/../lib/gcc/arm-none-eabi/6.3.1/../../../../arm-none-eabi/lib/thumb/v6-m/libg_nano.a(lib_a-nano-mallocr.o)
 .bss           0x0000000000000000        0x0 /usr/bin/../lib/gcc/arm-none-eabi/6.3.1/../../../../arm-none-eabi/lib/thumb/v6-m/libg_nano.a(lib_a-nano-mallocr.o)
 .text          0x0000000000000000        0x0 /usr/bin/../lib/gcc/arm-none-eabi/6.3.1/../../../../arm-none-eabi/lib/thumb/v6-m/libg_nano.a(lib_a-sbrkr.o)
 .data          0x0000000000000000        0x0 /usr/bin/../lib/gcc/arm-none-eabi/6.3.1/../../../../arm-none-eabi/lib/thumb/v6-m/libg_nano.a(lib_a-sbrkr.o)
 .bss           0x0000000000000000        0x0 /usr/bin/../lib/gcc/arm-none-eabi/6.3.1/../../../../arm-none-eabi/lib/thumb/v6-m/libg_nano.a(lib_a-sbrkr.o)
 .text          0x0000000000000000        0x0 /usr/bin/../lib/gcc/arm-none-eabi/6.3.1/../../../../arm-none-eabi/lib/thumb/v6-m/libg_nano.a(lib_a-strcpy.o)
 .data          0x0000000000000000        0x0 /usr/bin/../lib/gcc/arm-none-eabi/6.3.1/../../../../arm-none-eabi/lib/thumb/v6-m/libg_nano.a(lib_a-strcpy.o)
 .bss           0x0000000000000000        0x0 /usr/bin/../lib/gcc/arm-none-eabi/6.3.1/../../../../arm-none-eabi/lib/thumb/v6-m/libg_nano.a(lib_a-strcpy.o)
 .data          0x0000000000000000        0x0 /usr/bin/../lib/gcc/arm-none-eabi/6.3.1/../../../../arm-none-eabi/lib/thumb/v6-m/libg_nano.a(lib_a-strlen.o)
 .bss           0x0000000000000000        0x0 /usr/bin/../lib/gcc/arm-none-eabi/6.3.1/../../../../arm-none-eabi/lib/thumb/v6-m/libg_nano.a(lib_a-strlen.o)
 .text          0x0000000000000000        0x0 /usr/bin/../lib/gcc/arm-none-eabi/6.3.1/../../../../arm-none-eabi/lib/thumb/v6-m/libg_nano.a(lib_a-strrchr.o)
 .data          0x0000000000000000        0x0 /usr/bin/../lib/gcc/arm-none-eabi/6.3.1/../../../../arm-none-eabi/lib/thumb/v6-m/libg_nano.a(lib_a-strrchr.o)
 .bss           0x0000000000000000        0x0 /usr/bin/../lib/gcc/arm-none-eabi/6.3.1/../../../../arm-none-eabi/lib/thumb/v6-m/libg_nano.a(lib_a-strrchr.o)
 .text          0x0000000000000000        0x0 /usr/bin/../lib/gcc/arm-none-eabi/6.3.1/../../../../arm-none-eabi/lib/thumb/v6-m/libg_nano.a(lib_a-mlock.o)
 .data          0x0000000000000000        0x0 /usr/bin/../lib/gcc/arm-none-eabi/6.3.1/../../../../arm-none-eabi/lib/thumb/v6-m/libg_nano.a(lib_a-mlock.o)
 .bss           0x0000000000000000        0x0 /usr/bin/../lib/gcc/arm-none-eabi/6.3.1/../../../../arm-none-eabi/lib/thumb/v6-m/libg_nano.a(lib_a-mlock.o)
 .text          0x0000000000000000        0x0 /usr/bin/../lib/gcc/arm-none-eabi/6.3.1/../../../../arm-none-eabi/lib/thumb/v6-m/libg_nano.a(lib_a-reent.o)
 .data          0x0000000000000000        0x0 /usr/bin/../lib/gcc/arm-none-eabi/6.3.1/../../../../arm-none-eabi/lib/thumb/v6-m/libg_nano.a(lib_a-reent.o)
 .bss           0x0000000000000000        0x0 /usr/bin/../lib/gcc/arm-none-eabi/6.3.1/../../../../arm-none-eabi/lib/thumb/v6-m/libg_nano.a(lib_a-reent.o)
 .text.cleanup_glue
                0x0000000000000000       0x1a /usr/bin/../lib/gcc/arm-none-eabi/6.3.1/../../../../arm-none-eabi/lib/thumb/v6-m/libg_nano.a(lib_a-reent.o)
 .text._reclaim_reent
                0x0000000000000000       0xcc /usr/bin/../lib/gcc/arm-none-eabi/6.3.1/../../../../arm-none-eabi/lib/thumb/v6-m/libg_nano.a(lib_a-reent.o)
 .text          0x0000000000000000        0x0 /usr/bin/../lib/gcc/arm-none-eabi/6.3.1/../../../../arm-none-eabi/lib/thumb/v6-m/libg_nano.a(lib_a-strchr.o)
 .data          0x0000000000000000        0x0 /usr/bin/../lib/gcc/arm-none-eabi/6.3.1/../../../../arm-none-eabi/lib/thumb/v6-m/libg_nano.a(lib_a-strchr.o)
 .bss           0x0000000000000000        0x0 /usr/bin/../lib/gcc/arm-none-eabi/6.3.1/../../../../arm-none-eabi/lib/thumb/v6-m/libg_nano.a(lib_a-strchr.o)
 .text          0x0000000000000000        0x0 /usr/bin/../lib/gcc/arm-none-eabi/6.3.1/thumb/v6-m/crtend.o
 .data          0x0000000000000000        0x0 /usr/bin/../lib/gcc/arm-none-eabi/6.3.1/thumb/v6-m/crtend.o
 .bss           0x0000000000000000        0x0 /usr/bin/../lib/gcc/arm-none-eabi/6.3.1/thumb/v6-m/crtend.o
 .text          0x0000000000000000        0x0 /usr/bin/../lib/gcc/arm-none-eabi/6.3.1/thumb/v6-m/crtn.o
 .data          0x0000000000000000        0x0 /usr/bin/../lib/gcc/arm-none-eabi/6.3.1/thumb/v6-m/crtn.o
 .bss           0x0000000000000000        0x0 /usr/bin/../lib/gcc/arm-none-eabi/6.3.1/thumb/v6-m/crtn.o
 .text          0x0000000000000000        0x0 /usr/bin/../lib/gcc/arm-none-eabi/6.3.1/../../../../arm-none-eabi/lib/thumb/v6-m/libnosys.a(sbrk.o)
 .data          0x0000000000000000        0x0 /usr/bin/../lib/gcc/arm-none-eabi/6.3.1/../../../../arm-none-eabi/lib/thumb/v6-m/libnosys.a(sbrk.o)
 .bss           0x0000000000000000        0x0 /usr/bin/../lib/gcc/arm-none-eabi/6.3.1/../../../../arm-none-eabi/lib/thumb/v6-m/libnosys.a(sbrk.o)
 .text          0x0000000000000000        0x0 /usr/bin/../lib/gcc/arm-none-eabi/6.3.1/../../../../arm-none-eabi/lib/thumb/v6-m/libnosys.a(_exit.o)
 .data          0x0000000000000000        0x0 /usr/bin/../lib/gcc/arm-none-eabi/6.3.1/../../../../arm-none-eabi/lib/thumb/v6-m/libnosys.a(_exit.o)
 .bss           0x0000000000000000        0x0 /usr/bin/../lib/gcc/arm-none-eabi/6.3.1/../../../../arm-none-eabi/lib/thumb/v6-m/libnosys.a(_exit.o)

Memory Configuration

Name             Origin             Length             Attributes
FLASH            0x000000000001b000 0x000000000001f000 xr
RAM              0x00000000200022d8 0x0000000000005a28 xrw
*default*        0x0000000000000000 0xffffffffffffffff

Linker script and memory map

LOAD /usr/bin/../lib/gcc/arm-none-eabi/6.3.1/thumb/v6-m/crti.o
LOAD /usr/bin/../lib/gcc/arm-none-eabi/6.3.1/thumb/v6-m/crtbegin.o
LOAD /usr/bin/../lib/gcc/arm-none-eabi/6.3.1/../../../../arm-none-eabi/lib/thumb/v6-m/crt0.o
LOAD CMakeFiles/51_serial.dir/src/main.c.obj
LOAD CMakeFiles/51_serial.dir/__/nrf_mesh_sdk.c.obj
LOAD CMakeFiles/51_serial.dir/__/__/mesh/src/access/access.c.obj
LOAD CMakeFiles/51_serial.dir/__/__/mesh/src/access/access_publish.c.obj
LOAD CMakeFiles/51_serial.dir/__/__/mesh/src/access/access_reliable.c.obj
LOAD CMakeFiles/51_serial.dir/__/__/mesh/src/access/device_state_manager.c.obj
LOAD CMakeFiles/51_serial.dir/__/__/mesh/src/access/nrf_mesh_node_config.c.obj
LOAD CMakeFiles/51_serial.dir/__/__/mesh/models/config/src/config_server.c.obj
LOAD CMakeFiles/51_serial.dir/__/__/mesh/models/config/src/packed_index_list.c.obj
LOAD CMakeFiles/51_serial.dir/__/__/mesh/models/config/src/composition_data.c.obj
LOAD CMakeFiles/51_serial.dir/__/__/mesh/src/serial/nrf_mesh_serial.c.obj
LOAD CMakeFiles/51_serial.dir/__/__/mesh/src/serial/serial.c.obj
LOAD CMakeFiles/51_serial.dir/__/__/mesh/src/serial/serial_bearer.c.obj
LOAD CMakeFiles/51_serial.dir/__/__/mesh/src/serial/serial_handler_common.c.obj
LOAD CMakeFiles/51_serial.dir/__/__/mesh/src/serial/serial_handler_access.c.obj
LOAD CMakeFiles/51_serial.dir/__/__/mesh/src/serial/serial_handler_app.c.obj
LOAD CMakeFiles/51_serial.dir/__/__/mesh/src/serial/serial_handler_config.c.obj
LOAD CMakeFiles/51_serial.dir/__/__/mesh/src/serial/serial_handler_device.c.obj
LOAD CMakeFiles/51_serial.dir/__/__/mesh/src/serial/serial_handler_dfu.c.obj
LOAD CMakeFiles/51_serial.dir/__/__/mesh/src/serial/serial_handler_mesh.c.obj
LOAD CMakeFiles/51_serial.dir/__/__/mesh/src/serial/serial_handler_models.c.obj
LOAD CMakeFiles/51_serial.dir/__/__/mesh/src/serial/serial_handler_openmesh.c.obj
LOAD CMakeFiles/51_serial.dir/__/__/mesh/src/serial/serial_handler_prov.c.obj
LOAD CMakeFiles/51_serial.dir/__/__/mesh/src/serial/serial_uart.c.obj
LOAD CMakeFiles/51_serial.dir/__/__/mesh/src/prov/provisioning.c.obj
LOAD CMakeFiles/51_serial.dir/__/__/mesh/src/prov/nrf_mesh_prov.c.obj
LOAD CMakeFiles/51_serial.dir/__/__/mesh/src/prov/prov_bearer_adv.c.obj
LOAD CMakeFiles/51_serial.dir/__/__/mesh/src/prov/prov_utils.c.obj
LOAD CMakeFiles/51_serial.dir/__/__/mesh/src/prov/prov_beacon.c.obj
LOAD CMakeFiles/51_serial.dir/__/__/mesh/src/prov/prov_provisioner.c.obj
LOAD CMakeFiles/51_serial.dir/__/__/mesh/src/prov/prov_provisionee.c.obj
LOAD CMakeFiles/51_serial.dir/__/__/toolchain/gcc/gcc_startup_nrf51.S.obj
LOAD CMakeFiles/51_serial.dir/__/__/toolchain/system_nrf51.c.obj
LOAD ../../mesh/lib_51_MBTLE_CORE.a
LOAD ../../lib/micro-ecc/lib_51_UECC_LIB.a
LOAD ../../lib/rtt/lib_51_RTT_LIB.a
START GROUP
LOAD /usr/bin/../lib/gcc/arm-none-eabi/6.3.1/thumb/v6-m/libgcc.a
LOAD /usr/bin/../lib/gcc/arm-none-eabi/6.3.1/../../../../arm-none-eabi/lib/thumb/v6-m/libg_nano.a
LOAD /usr/bin/../lib/gcc/arm-none-eabi/6.3.1/../../../../arm-none-eabi/lib/thumb/v6-m/libc_nano.a
END GROUP
START GROUP
LOAD /usr/bin/../lib/gcc/arm-none-eabi/6.3.1/thumb/v6-m/libgcc.a
LOAD /usr/bin/../lib/gcc/arm-none-eabi/6.3.1/../../../../arm-none-eabi/lib/thumb/v6-m/libc_nano.a
END GROUP
LOAD /usr/bin/../lib/gcc/arm-none-eabi/6.3.1/thumb/v6-m/crtend.o
LOAD /usr/bin/../lib/gcc/arm-none-eabi/6.3.1/thumb/v6-m/crtn.o
START GROUP
LOAD /usr/bin/../lib/gcc/arm-none-eabi/6.3.1/thumb/v6-m/libgcc.a
LOAD /usr/bin/../lib/gcc/arm-none-eabi/6.3.1/../../../../arm-none-eabi/lib/thumb/v6-m/libc.a
LOAD /usr/bin/../lib/gcc/arm-none-eabi/6.3.1/../../../../arm-none-eabi/lib/thumb/v6-m/libnosys.a
END GROUP

.text           0x000000000001b000    0x16860
 *(.isr_vector)
 .isr_vector    0x000000000001b000       0xc0 CMakeFiles/51_serial.dir/__/__/toolchain/gcc/gcc_startup_nrf51.S.obj
                0x000000000001b000                __isr_vector
 *(.text*)
 .text          0x000000000001b0c0       0x60 /usr/bin/../lib/gcc/arm-none-eabi/6.3.1/thumb/v6-m/crtbegin.o
 .text          0x000000000001b120       0x78 /usr/bin/../lib/gcc/arm-none-eabi/6.3.1/../../../../arm-none-eabi/lib/thumb/v6-m/crt0.o
                0x000000000001b120                _mainCRTStartup
                0x000000000001b120                _start
 .text.main     0x000000000001b198      0x35c CMakeFiles/51_serial.dir/src/main.c.obj
                0x000000000001b198                main
 .text.sd_evt_get
                0x000000000001b4f4        0x4 CMakeFiles/51_serial.dir/__/nrf_mesh_sdk.c.obj
 .text.sd_softdevice_enable
                0x000000000001b4f8        0x4 CMakeFiles/51_serial.dir/__/nrf_mesh_sdk.c.obj
 .text.sd_ble_enable
                0x000000000001b4fc        0x4 CMakeFiles/51_serial.dir/__/nrf_mesh_sdk.c.obj
 .text.sd_ble_evt_get
                0x000000000001b500        0x4 CMakeFiles/51_serial.dir/__/nrf_mesh_sdk.c.obj
 .text.sleep_forever
                0x000000000001b504       0x24 CMakeFiles/51_serial.dir/__/nrf_mesh_sdk.c.obj
 .text.softdevice_assert_handler
                0x000000000001b528       0x88 CMakeFiles/51_serial.dir/__/nrf_mesh_sdk.c.obj
                0x000000000001b528                softdevice_assert_handler
 .text.app_error_handler
                0x000000000001b5b0       0x88 CMakeFiles/51_serial.dir/__/nrf_mesh_sdk.c.obj
                0x000000000001b5b0                app_error_handler
 .text.mesh_assert_handler
                0x000000000001b638       0x80 CMakeFiles/51_serial.dir/__/nrf_mesh_sdk.c.obj
                0x000000000001b638                mesh_assert_handler
 .text.HardFault_Handler
                0x000000000001b6b8       0x7c CMakeFiles/51_serial.dir/__/nrf_mesh_sdk.c.obj
                0x000000000001b6b8                HardFault_Handler
 .text.SWI2_IRQHandler
                0x000000000001b734       0x44 CMakeFiles/51_serial.dir/__/nrf_mesh_sdk.c.obj
                0x000000000001b734                SWI2_IRQHandler
 .text.mesh_softdevice_enable
                0x000000000001b778      0x154 CMakeFiles/51_serial.dir/__/nrf_mesh_sdk.c.obj
                0x000000000001b778                mesh_softdevice_enable
 .text.mesh_softdevice_setup
                0x000000000001b8cc       0x94 CMakeFiles/51_serial.dir/__/nrf_mesh_sdk.c.obj
                0x000000000001b8cc                mesh_softdevice_setup
 .text.is_valid_opcode
                0x000000000001b960       0x58 CMakeFiles/51_serial.dir/__/__/mesh/src/access/access.c.obj
 .text.flash_invalidate_complete
                0x000000000001b9b8       0x18 CMakeFiles/51_serial.dir/__/__/mesh/src/access/access.c.obj
 .text.flash_manager_mem_available
                0x000000000001b9d0        0x6 CMakeFiles/51_serial.dir/__/__/mesh/src/access/access.c.obj
 *fill*         0x000000000001b9d6        0x2 
 .text.access_flash_config_clear
                0x000000000001b9d8       0x28 CMakeFiles/51_serial.dir/__/__/mesh/src/access/access.c.obj
 .text.access_flash_config_store
                0x000000000001ba00      0x104 CMakeFiles/51_serial.dir/__/__/mesh/src/access/access.c.obj
                0x000000000001ba00                access_flash_config_store
 .text.access_state_clear
                0x000000000001bb04       0x40 CMakeFiles/51_serial.dir/__/__/mesh/src/access/access.c.obj
 .text.add_flash_manager
                0x000000000001bb44       0x64 CMakeFiles/51_serial.dir/__/__/mesh/src/access/access.c.obj
 .text.flash_remove_complete
                0x000000000001bba8       0x4c CMakeFiles/51_serial.dir/__/__/mesh/src/access/access.c.obj
 .text.flash_write_complete
                0x000000000001bbf4       0x68 CMakeFiles/51_serial.dir/__/__/mesh/src/access/access.c.obj
 .text.packet_tx
                0x000000000001bc5c      0x230 CMakeFiles/51_serial.dir/__/__/mesh/src/access/access.c.obj
 .text.mesh_evt_cb
                0x000000000001be8c      0x2d0 CMakeFiles/51_serial.dir/__/__/mesh/src/access/access.c.obj
 .text.access_clear
                0x000000000001c15c       0x10 CMakeFiles/51_serial.dir/__/__/mesh/src/access/access.c.obj
                0x000000000001c15c                access_clear
 .text.access_init
                0x000000000001c16c       0x24 CMakeFiles/51_serial.dir/__/__/mesh/src/access/access.c.obj
                0x000000000001c16c                access_init
 .text.access_model_publish
                0x000000000001c190       0x14 CMakeFiles/51_serial.dir/__/__/mesh/src/access/access.c.obj
                0x000000000001c190                access_model_publish
 .text.access_model_publish_address_set
                0x000000000001c1a4       0x3c CMakeFiles/51_serial.dir/__/__/mesh/src/access/access.c.obj
                0x000000000001c1a4                access_model_publish_address_set
 .text.access_model_publish_address_get
                0x000000000001c1e0       0x2c CMakeFiles/51_serial.dir/__/__/mesh/src/access/access.c.obj
                0x000000000001c1e0                access_model_publish_address_get
 .text.access_model_publish_period_set
                0x000000000001c20c       0x74 CMakeFiles/51_serial.dir/__/__/mesh/src/access/access.c.obj
                0x000000000001c20c                access_model_publish_period_set
 .text.access_model_publish_period_get
                0x000000000001c280       0x44 CMakeFiles/51_serial.dir/__/__/mesh/src/access/access.c.obj
                0x000000000001c280                access_model_publish_period_get
 .text.access_model_subscription_add
                0x000000000001c2c4       0x64 CMakeFiles/51_serial.dir/__/__/mesh/src/access/access.c.obj
                0x000000000001c2c4                access_model_subscription_add
 .text.access_model_subscription_remove
                0x000000000001c328       0x64 CMakeFiles/51_serial.dir/__/__/mesh/src/access/access.c.obj
                0x000000000001c328                access_model_subscription_remove
 .text.access_model_subscriptions_get
                0x000000000001c38c       0x98 CMakeFiles/51_serial.dir/__/__/mesh/src/access/access.c.obj
                0x000000000001c38c                access_model_subscriptions_get
 .text.access_model_application_bind
                0x000000000001c424       0x50 CMakeFiles/51_serial.dir/__/__/mesh/src/access/access.c.obj
                0x000000000001c424                access_model_application_bind
 .text.access_model_application_unbind
                0x000000000001c474       0x50 CMakeFiles/51_serial.dir/__/__/mesh/src/access/access.c.obj
                0x000000000001c474                access_model_application_unbind
 .text.access_model_applications_get
                0x000000000001c4c4       0x7c CMakeFiles/51_serial.dir/__/__/mesh/src/access/access.c.obj
                0x000000000001c4c4                access_model_applications_get
 .text.access_model_publish_application_set
                0x000000000001c540       0x3c CMakeFiles/51_serial.dir/__/__/mesh/src/access/access.c.obj
                0x000000000001c540                access_model_publish_application_set
 .text.access_model_publish_application_get
                0x000000000001c57c       0x2c CMakeFiles/51_serial.dir/__/__/mesh/src/access/access.c.obj
                0x000000000001c57c                access_model_publish_application_get
 .text.access_model_publish_ttl_set
                0x000000000001c5a8       0x44 CMakeFiles/51_serial.dir/__/__/mesh/src/access/access.c.obj
                0x000000000001c5a8                access_model_publish_ttl_set
 .text.access_model_publish_ttl_get
                0x000000000001c5ec       0x2c CMakeFiles/51_serial.dir/__/__/mesh/src/access/access.c.obj
                0x000000000001c5ec                access_model_publish_ttl_get
 .text.access_element_location_set
                0x000000000001c618       0x2c CMakeFiles/51_serial.dir/__/__/mesh/src/access/access.c.obj
                0x000000000001c618                access_element_location_set
 .text.access_element_location_get
                0x000000000001c644       0x20 CMakeFiles/51_serial.dir/__/__/mesh/src/access/access.c.obj
                0x000000000001c644                access_element_location_get
 .text.access_element_sig_model_count_get
                0x000000000001c664       0x20 CMakeFiles/51_serial.dir/__/__/mesh/src/access/access.c.obj
                0x000000000001c664                access_element_sig_model_count_get
 .text.access_element_vendor_model_count_get
                0x000000000001c684       0x20 CMakeFiles/51_serial.dir/__/__/mesh/src/access/access.c.obj
                0x000000000001c684                access_element_vendor_model_count_get
 .text.access_model_id_get
                0x000000000001c6a4       0x3c CMakeFiles/51_serial.dir/__/__/mesh/src/access/access.c.obj
                0x000000000001c6a4                access_model_id_get
 .text.access_handle_get
                0x000000000001c6e0       0x4c CMakeFiles/51_serial.dir/__/__/mesh/src/access/access.c.obj
                0x000000000001c6e0                access_handle_get
 .text.access_element_models_get
                0x000000000001c72c       0x48 CMakeFiles/51_serial.dir/__/__/mesh/src/access/access.c.obj
                0x000000000001c72c                access_element_models_get
 .text.access_model_p_args_get
                0x000000000001c774       0x2c CMakeFiles/51_serial.dir/__/__/mesh/src/access/access.c.obj
                0x000000000001c774                access_model_p_args_get
 .text.add_to_publication_list
                0x000000000001c7a0       0xb0 CMakeFiles/51_serial.dir/__/__/mesh/src/access/access_publish.c.obj
 .text.schedule_publication_timer
                0x000000000001c850      0x308 CMakeFiles/51_serial.dir/__/__/mesh/src/access/access_publish.c.obj
 .text.access_publish_period_set
                0x000000000001cb58       0xe4 CMakeFiles/51_serial.dir/__/__/mesh/src/access/access_publish.c.obj
                0x000000000001cb58                access_publish_period_set
 .text.access_publish_period_get
                0x000000000001cc3c       0x34 CMakeFiles/51_serial.dir/__/__/mesh/src/access/access_publish.c.obj
                0x000000000001cc3c                access_publish_period_get
 .text.remove_and_reschedule
                0x000000000001cc70       0xe0 CMakeFiles/51_serial.dir/__/__/mesh/src/access/access_reliable.c.obj
 .text.reliable_timer_cb
                0x000000000001cd50      0x148 CMakeFiles/51_serial.dir/__/__/mesh/src/access/access_reliable.c.obj
 .text.access_reliable_message_rx_cb
                0x000000000001ce98       0x64 CMakeFiles/51_serial.dir/__/__/mesh/src/access/access_reliable.c.obj
                0x000000000001ce98                access_reliable_message_rx_cb
 .text.access_reliable_init
                0x000000000001cefc       0x1c CMakeFiles/51_serial.dir/__/__/mesh/src/access/access_reliable.c.obj
                0x000000000001cefc                access_reliable_init
 .text.access_reliable_cancel_all
                0x000000000001cf18       0x34 CMakeFiles/51_serial.dir/__/__/mesh/src/access/access_reliable.c.obj
                0x000000000001cf18                access_reliable_cancel_all
 .text.dev_key_handle_get
                0x000000000001cf4c       0x7c CMakeFiles/51_serial.dir/__/__/mesh/src/access/device_state_manager.c.obj
 .text.app_key_handle_get
                0x000000000001cfc8       0x70 CMakeFiles/51_serial.dir/__/__/mesh/src/access/device_state_manager.c.obj
 .text.get_subnet_handle
                0x000000000001d038       0x50 CMakeFiles/51_serial.dir/__/__/mesh/src/access/device_state_manager.c.obj
 .text.get_app_handle
                0x000000000001d088       0x74 CMakeFiles/51_serial.dir/__/__/mesh/src/access/device_state_manager.c.obj
 .text.nonvirtual_address_set
                0x000000000001d0fc       0x3c CMakeFiles/51_serial.dir/__/__/mesh/src/access/device_state_manager.c.obj
 .text.addr_nonvirtual_to_dsm_entry
                0x000000000001d138        0xe CMakeFiles/51_serial.dir/__/__/mesh/src/access/device_state_manager.c.obj
 *fill*         0x000000000001d146        0x2 
 .text.addr_nonvirtual_to_flash_entry
                0x000000000001d148       0x10 CMakeFiles/51_serial.dir/__/__/mesh/src/access/device_state_manager.c.obj
 .text.flash_mem_listener_callback
                0x000000000001d158       0x20 CMakeFiles/51_serial.dir/__/__/mesh/src/access/device_state_manager.c.obj
 .text.devkey_set
                0x000000000001d178       0x60 CMakeFiles/51_serial.dir/__/__/mesh/src/access/device_state_manager.c.obj
 .text.devkey_to_dsm_entry
                0x000000000001d1d8       0x14 CMakeFiles/51_serial.dir/__/__/mesh/src/access/device_state_manager.c.obj
 .text.devkey_to_flash_entry
                0x000000000001d1ec       0x28 CMakeFiles/51_serial.dir/__/__/mesh/src/access/device_state_manager.c.obj
 .text.appkey_to_flash_entry
                0x000000000001d214       0x28 CMakeFiles/51_serial.dir/__/__/mesh/src/access/device_state_manager.c.obj
 .text.subnet_to_flash_entry
                0x000000000001d23c       0x20 CMakeFiles/51_serial.dir/__/__/mesh/src/access/device_state_manager.c.obj
 .text.addr_virtual_to_flash_entry
                0x000000000001d25c       0x20 CMakeFiles/51_serial.dir/__/__/mesh/src/access/device_state_manager.c.obj
 .text.addr_unicast_to_dsm_entry
                0x000000000001d27c       0x10 CMakeFiles/51_serial.dir/__/__/mesh/src/access/device_state_manager.c.obj
 .text.addr_unicast_to_flash_entry
                0x000000000001d28c       0x14 CMakeFiles/51_serial.dir/__/__/mesh/src/access/device_state_manager.c.obj
 .text.appkey_set
                0x000000000001d2a0       0x8c CMakeFiles/51_serial.dir/__/__/mesh/src/access/device_state_manager.c.obj
 .text.appkey_to_dsm_entry
                0x000000000001d32c       0x12 CMakeFiles/51_serial.dir/__/__/mesh/src/access/device_state_manager.c.obj
 *fill*         0x000000000001d33e        0x2 
 .text.subnet_set
                0x000000000001d340       0xb4 CMakeFiles/51_serial.dir/__/__/mesh/src/access/device_state_manager.c.obj
 .text.subnet_to_dsm_entry
                0x000000000001d3f4       0x10 CMakeFiles/51_serial.dir/__/__/mesh/src/access/device_state_manager.c.obj
 .text.virtual_address_set
                0x000000000001d404       0x6c CMakeFiles/51_serial.dir/__/__/mesh/src/access/device_state_manager.c.obj
 .text.addr_virtual_to_dsm_entry
                0x000000000001d470       0x12 CMakeFiles/51_serial.dir/__/__/mesh/src/access/device_state_manager.c.obj
 *fill*         0x000000000001d482        0x2 
 .text.flash_save
                0x000000000001d484       0x94 CMakeFiles/51_serial.dir/__/__/mesh/src/access/device_state_manager.c.obj
 .text.flash_invalidate
                0x000000000001d518       0x80 CMakeFiles/51_serial.dir/__/__/mesh/src/access/device_state_manager.c.obj
 .text.flash_update_all
                0x000000000001d598       0xd4 CMakeFiles/51_serial.dir/__/__/mesh/src/access/device_state_manager.c.obj
 .text.address_delete_if_unused
                0x000000000001d66c       0xc8 CMakeFiles/51_serial.dir/__/__/mesh/src/access/device_state_manager.c.obj
 .text.flash_operation_complete
                0x000000000001d734       0x6c CMakeFiles/51_serial.dir/__/__/mesh/src/access/device_state_manager.c.obj
 .text.flash_invalidate_complete
                0x000000000001d7a0        0xc CMakeFiles/51_serial.dir/__/__/mesh/src/access/device_state_manager.c.obj
 .text.flash_write_complete
                0x000000000001d7ac        0xc CMakeFiles/51_serial.dir/__/__/mesh/src/access/device_state_manager.c.obj
 .text.reset_flash_area
                0x000000000001d7b8       0x28 CMakeFiles/51_serial.dir/__/__/mesh/src/access/device_state_manager.c.obj
 .text.add_address
                0x000000000001d7e0      0x160 CMakeFiles/51_serial.dir/__/__/mesh/src/access/device_state_manager.c.obj
 .text.virtual_address_uuid_index_get
                0x000000000001d940       0x7c CMakeFiles/51_serial.dir/__/__/mesh/src/access/device_state_manager.c.obj
 .text.add_address_virtual
                0x000000000001d9bc       0x94 CMakeFiles/51_serial.dir/__/__/mesh/src/access/device_state_manager.c.obj
 .text.dsm_flash_area_get
                0x000000000001da50       0x14 CMakeFiles/51_serial.dir/__/__/mesh/src/access/device_state_manager.c.obj
                0x000000000001da50                dsm_flash_area_get
 .text.build_flash_area
                0x000000000001da64       0x90 CMakeFiles/51_serial.dir/__/__/mesh/src/access/device_state_manager.c.obj
 .text.dsm_init
                0x000000000001daf4       0x28 CMakeFiles/51_serial.dir/__/__/mesh/src/access/device_state_manager.c.obj
                0x000000000001daf4                dsm_init
 .text.flash_remove_complete
                0x000000000001db1c        0x8 CMakeFiles/51_serial.dir/__/__/mesh/src/access/device_state_manager.c.obj
 .text.dsm_clear
                0x000000000001db24       0x74 CMakeFiles/51_serial.dir/__/__/mesh/src/access/device_state_manager.c.obj
                0x000000000001db24                dsm_clear
 .text.dsm_local_unicast_addresses_set
                0x000000000001db98       0x84 CMakeFiles/51_serial.dir/__/__/mesh/src/access/device_state_manager.c.obj
                0x000000000001db98                dsm_local_unicast_addresses_set
 .text.dsm_local_unicast_addresses_get
                0x000000000001dc1c       0x2c CMakeFiles/51_serial.dir/__/__/mesh/src/access/device_state_manager.c.obj
                0x000000000001dc1c                dsm_local_unicast_addresses_get
 .text.dsm_address_publish_add
                0x000000000001dc48        0xa CMakeFiles/51_serial.dir/__/__/mesh/src/access/device_state_manager.c.obj
                0x000000000001dc48                dsm_address_publish_add
 .text.dsm_address_publish_virtual_add
                0x000000000001dc52        0xa CMakeFiles/51_serial.dir/__/__/mesh/src/access/device_state_manager.c.obj
                0x000000000001dc52                dsm_address_publish_virtual_add
 .text.dsm_address_publish_remove
                0x000000000001dc5c       0x80 CMakeFiles/51_serial.dir/__/__/mesh/src/access/device_state_manager.c.obj
                0x000000000001dc5c                dsm_address_publish_remove
 .text.dsm_address_subscription_add
                0x000000000001dcdc        0xa CMakeFiles/51_serial.dir/__/__/mesh/src/access/device_state_manager.c.obj
                0x000000000001dcdc                dsm_address_subscription_add
 .text.dsm_address_subscription_virtual_add
                0x000000000001dce6        0xa CMakeFiles/51_serial.dir/__/__/mesh/src/access/device_state_manager.c.obj
                0x000000000001dce6                dsm_address_subscription_virtual_add
 .text.dsm_address_subscription_get
                0x000000000001dcf0       0x7c CMakeFiles/51_serial.dir/__/__/mesh/src/access/device_state_manager.c.obj
                0x000000000001dcf0                dsm_address_subscription_get
 .text.dsm_address_get
                0x000000000001dd6c       0x90 CMakeFiles/51_serial.dir/__/__/mesh/src/access/device_state_manager.c.obj
                0x000000000001dd6c                dsm_address_get
 .text.dsm_address_subscription_remove
                0x000000000001ddfc       0xbc CMakeFiles/51_serial.dir/__/__/mesh/src/access/device_state_manager.c.obj
                0x000000000001ddfc                dsm_address_subscription_remove
 .text.dsm_address_get_all
                0x000000000001deb8       0xac CMakeFiles/51_serial.dir/__/__/mesh/src/access/device_state_manager.c.obj
                0x000000000001deb8                dsm_address_get_all
 .text.dsm_address_handle_get
                0x000000000001df64       0xc8 CMakeFiles/51_serial.dir/__/__/mesh/src/access/device_state_manager.c.obj
                0x000000000001df64                dsm_address_handle_get
 .text.dsm_subnet_handle_get
                0x000000000001e02c       0x14 CMakeFiles/51_serial.dir/__/__/mesh/src/access/device_state_manager.c.obj
                0x000000000001e02c                dsm_subnet_handle_get
 .text.dsm_appkey_handle_get
                0x000000000001e040       0x14 CMakeFiles/51_serial.dir/__/__/mesh/src/access/device_state_manager.c.obj
                0x000000000001e040                dsm_appkey_handle_get
 .text.dsm_subnet_add
                0x000000000001e054       0xac CMakeFiles/51_serial.dir/__/__/mesh/src/access/device_state_manager.c.obj
                0x000000000001e054                dsm_subnet_add
 .text.dsm_subnet_update
                0x000000000001e100       0x4c CMakeFiles/51_serial.dir/__/__/mesh/src/access/device_state_manager.c.obj
                0x000000000001e100                dsm_subnet_update
 .text.dsm_subnet_get_all
                0x000000000001e14c       0x78 CMakeFiles/51_serial.dir/__/__/mesh/src/access/device_state_manager.c.obj
                0x000000000001e14c                dsm_subnet_get_all
 .text.dsm_devkey_add
                0x000000000001e1c4       0x8c CMakeFiles/51_serial.dir/__/__/mesh/src/access/device_state_manager.c.obj
                0x000000000001e1c4                dsm_devkey_add
 .text.dsm_devkey_delete
                0x000000000001e250       0x48 CMakeFiles/51_serial.dir/__/__/mesh/src/access/device_state_manager.c.obj
                0x000000000001e250                dsm_devkey_delete
 .text.dsm_appkey_add
                0x000000000001e298       0x8c CMakeFiles/51_serial.dir/__/__/mesh/src/access/device_state_manager.c.obj
                0x000000000001e298                dsm_appkey_add
 .text.dsm_appkey_update
                0x000000000001e324       0x54 CMakeFiles/51_serial.dir/__/__/mesh/src/access/device_state_manager.c.obj
                0x000000000001e324                dsm_appkey_update
 .text.dsm_appkey_delete
                0x000000000001e378       0x38 CMakeFiles/51_serial.dir/__/__/mesh/src/access/device_state_manager.c.obj
                0x000000000001e378                dsm_appkey_delete
 .text.dsm_subnet_delete
                0x000000000001e3b0       0xdc CMakeFiles/51_serial.dir/__/__/mesh/src/access/device_state_manager.c.obj
                0x000000000001e3b0                dsm_subnet_delete
 .text.dsm_appkey_get_all
                0x000000000001e48c       0xb0 CMakeFiles/51_serial.dir/__/__/mesh/src/access/device_state_manager.c.obj
                0x000000000001e48c                dsm_appkey_get_all
 .text.dsm_tx_secmat_get
                0x000000000001e53c      0x144 CMakeFiles/51_serial.dir/__/__/mesh/src/access/device_state_manager.c.obj
                0x000000000001e53c                dsm_tx_secmat_get
 .text.nrf_mesh_net_secmat_next_get
                0x000000000001e680       0xa4 CMakeFiles/51_serial.dir/__/__/mesh/src/access/device_state_manager.c.obj
                0x000000000001e680                nrf_mesh_net_secmat_next_get
 .text.nrf_mesh_app_secmat_next_get
                0x000000000001e724       0xe0 CMakeFiles/51_serial.dir/__/__/mesh/src/access/device_state_manager.c.obj
                0x000000000001e724                nrf_mesh_app_secmat_next_get
 .text.nrf_mesh_devkey_secmat_get
                0x000000000001e804       0x60 CMakeFiles/51_serial.dir/__/__/mesh/src/access/device_state_manager.c.obj
                0x000000000001e804                nrf_mesh_devkey_secmat_get
 .text.nrf_mesh_beacon_info_next_get
                0x000000000001e864       0xf0 CMakeFiles/51_serial.dir/__/__/mesh/src/access/device_state_manager.c.obj
                0x000000000001e864                nrf_mesh_beacon_info_next_get
 .text.nrf_mesh_rx_address_get
                0x000000000001e954      0x170 CMakeFiles/51_serial.dir/__/__/mesh/src/access/device_state_manager.c.obj
                0x000000000001e954                nrf_mesh_rx_address_get
 .text.nrf_mesh_serial_init
                0x000000000001eac4       0x3a CMakeFiles/51_serial.dir/__/__/mesh/src/serial/nrf_mesh_serial.c.obj
                0x000000000001eac4                nrf_mesh_serial_init
 .text.nrf_mesh_serial_enable
                0x000000000001eafe        0x8 CMakeFiles/51_serial.dir/__/__/mesh/src/serial/nrf_mesh_serial.c.obj
                0x000000000001eafe                nrf_mesh_serial_enable
 *fill*         0x000000000001eb06        0x2 
 .text.serial_init
                0x000000000001eb08       0x20 CMakeFiles/51_serial.dir/__/__/mesh/src/serial/serial.c.obj
                0x000000000001eb08                serial_init
 .text.serial_packet_buffer_get
                0x000000000001eb28       0x1c CMakeFiles/51_serial.dir/__/__/mesh/src/serial/serial.c.obj
                0x000000000001eb28                serial_packet_buffer_get
 .text.serial_tx
                0x000000000001eb44       0x2c CMakeFiles/51_serial.dir/__/__/mesh/src/serial/serial.c.obj
                0x000000000001eb44                serial_tx
 .text.serial_start
                0x000000000001eb70      0x12c CMakeFiles/51_serial.dir/__/__/mesh/src/serial/serial.c.obj
                0x000000000001eb70                serial_start
 .text.serial_process_cmd
                0x000000000001ec9c      0x144 CMakeFiles/51_serial.dir/__/__/mesh/src/serial/serial.c.obj
 .text.serial_process
                0x000000000001ede0       0x3c CMakeFiles/51_serial.dir/__/__/mesh/src/serial/serial.c.obj
                0x000000000001ede0                serial_process
 .text.serial_translate_error
                0x000000000001ee1c       0x88 CMakeFiles/51_serial.dir/__/__/mesh/src/serial/serial.c.obj
                0x000000000001ee1c                serial_translate_error
 .text.serial_state_get
                0x000000000001eea4        0xc CMakeFiles/51_serial.dir/__/__/mesh/src/serial/serial.c.obj
                0x000000000001eea4                serial_state_get
 .text.serial_cmd_rsp_send
                0x000000000001eeb0       0x74 CMakeFiles/51_serial.dir/__/__/mesh/src/serial/serial.c.obj
                0x000000000001eeb0                serial_cmd_rsp_send
 .text.do_transmit
                0x000000000001ef24       0x54 CMakeFiles/51_serial.dir/__/__/mesh/src/serial/serial_bearer.c.obj
 .text.char_tx  0x000000000001ef78       0xa0 CMakeFiles/51_serial.dir/__/__/mesh/src/serial/serial_bearer.c.obj
 .text.serial_bearer_init
                0x000000000001f018       0x84 CMakeFiles/51_serial.dir/__/__/mesh/src/serial/serial_bearer.c.obj
                0x000000000001f018                serial_bearer_init
 .text.serial_bearer_packet_buffer_get
                0x000000000001f09c       0x28 CMakeFiles/51_serial.dir/__/__/mesh/src/serial/serial_bearer.c.obj
                0x000000000001f09c                serial_bearer_packet_buffer_get
 .text.serial_bearer_blocking_buffer_get
                0x000000000001f0c4       0x40 CMakeFiles/51_serial.dir/__/__/mesh/src/serial/serial_bearer.c.obj
                0x000000000001f0c4                serial_bearer_blocking_buffer_get
 .text.serial_bearer_tx
                0x000000000001f104       0x70 CMakeFiles/51_serial.dir/__/__/mesh/src/serial/serial_bearer.c.obj
                0x000000000001f104                serial_bearer_tx
 .text.send_cmd_response
                0x000000000001f174       0x2e CMakeFiles/51_serial.dir/__/__/mesh/src/serial/serial_bearer.c.obj
 *fill*         0x000000000001f1a2        0x2 
 .text.char_rx  0x000000000001f1a4       0xb8 CMakeFiles/51_serial.dir/__/__/mesh/src/serial/serial_bearer.c.obj
 .text.serial_bearer_rx_get
                0x000000000001f25c       0x3c CMakeFiles/51_serial.dir/__/__/mesh/src/serial/serial_bearer.c.obj
                0x000000000001f25c                serial_bearer_rx_get
 .text.serial_handler_common_cmd_rsp_nodata_on_error
                0x000000000001f298       0x34 CMakeFiles/51_serial.dir/__/__/mesh/src/serial/serial_handler_common.c.obj
                0x000000000001f298                serial_handler_common_cmd_rsp_nodata_on_error
 .text.serial_handler_common_rx
                0x000000000001f2cc       0x5c CMakeFiles/51_serial.dir/__/__/mesh/src/serial/serial_handler_common.c.obj
                0x000000000001f2cc                serial_handler_common_rx
 .text.access_flash_store
                0x000000000001f328       0x16 CMakeFiles/51_serial.dir/__/__/mesh/src/serial/serial_handler_access.c.obj
 .text.elem_models_get
                0x000000000001f33e       0x4c CMakeFiles/51_serial.dir/__/__/mesh/src/serial/serial_handler_access.c.obj
 .text.handle_get
                0x000000000001f38a       0x3a CMakeFiles/51_serial.dir/__/__/mesh/src/serial/serial_handler_access.c.obj
 .text.model_id_get
                0x000000000001f3c4       0x24 CMakeFiles/51_serial.dir/__/__/mesh/src/serial/serial_handler_access.c.obj
 .text.elem_vendor_model_cnt_get
                0x000000000001f3e8       0x24 CMakeFiles/51_serial.dir/__/__/mesh/src/serial/serial_handler_access.c.obj
 .text.elem_sig_model_cnt_get
                0x000000000001f40c       0x24 CMakeFiles/51_serial.dir/__/__/mesh/src/serial/serial_handler_access.c.obj
 .text.elem_loc_get
                0x000000000001f430       0x24 CMakeFiles/51_serial.dir/__/__/mesh/src/serial/serial_handler_access.c.obj
 .text.elem_loc_set
                0x000000000001f454       0x2c CMakeFiles/51_serial.dir/__/__/mesh/src/serial/serial_handler_access.c.obj
 .text.model_pub_ttl_get
                0x000000000001f480       0x24 CMakeFiles/51_serial.dir/__/__/mesh/src/serial/serial_handler_access.c.obj
 .text.model_pub_ttl_set
                0x000000000001f4a4       0x26 CMakeFiles/51_serial.dir/__/__/mesh/src/serial/serial_handler_access.c.obj
 .text.model_pub_app_get
                0x000000000001f4ca       0x24 CMakeFiles/51_serial.dir/__/__/mesh/src/serial/serial_handler_access.c.obj
 .text.model_pub_app_set
                0x000000000001f4ee       0x2c CMakeFiles/51_serial.dir/__/__/mesh/src/serial/serial_handler_access.c.obj
 .text.model_app_get
                0x000000000001f51a       0x4c CMakeFiles/51_serial.dir/__/__/mesh/src/serial/serial_handler_access.c.obj
 .text.model_app_unbind
                0x000000000001f566       0x2c CMakeFiles/51_serial.dir/__/__/mesh/src/serial/serial_handler_access.c.obj
 .text.model_app_bind
                0x000000000001f592       0x2c CMakeFiles/51_serial.dir/__/__/mesh/src/serial/serial_handler_access.c.obj
 .text.model_subs_get
                0x000000000001f5be       0x4c CMakeFiles/51_serial.dir/__/__/mesh/src/serial/serial_handler_access.c.obj
 .text.model_subs_remove
                0x000000000001f60a       0x2c CMakeFiles/51_serial.dir/__/__/mesh/src/serial/serial_handler_access.c.obj
 .text.model_subs_add
                0x000000000001f636       0x2c CMakeFiles/51_serial.dir/__/__/mesh/src/serial/serial_handler_access.c.obj
 .text.model_pub_period_get
                0x000000000001f662       0x28 CMakeFiles/51_serial.dir/__/__/mesh/src/serial/serial_handler_access.c.obj
 .text.model_pub_period_set
                0x000000000001f68a       0x28 CMakeFiles/51_serial.dir/__/__/mesh/src/serial/serial_handler_access.c.obj
 .text.model_pub_addr_get
                0x000000000001f6b2       0x24 CMakeFiles/51_serial.dir/__/__/mesh/src/serial/serial_handler_access.c.obj
 .text.model_pub_addr_set
                0x000000000001f6d6       0x2c CMakeFiles/51_serial.dir/__/__/mesh/src/serial/serial_handler_access.c.obj
 *fill*         0x000000000001f702        0x2 
 .text.serial_handler_access_rx
                0x000000000001f704       0x30 CMakeFiles/51_serial.dir/__/__/mesh/src/serial/serial_handler_access.c.obj
                0x000000000001f704                serial_handler_access_rx
 .text.serial_handler_app_cb_set
                0x000000000001f734        0xc CMakeFiles/51_serial.dir/__/__/mesh/src/serial/serial_handler_app.c.obj
                0x000000000001f734                serial_handler_app_cb_set
 .text.serial_handler_app_rx
                0x000000000001f740       0x34 CMakeFiles/51_serial.dir/__/__/mesh/src/serial/serial_handler_app.c.obj
                0x000000000001f740                serial_handler_app_rx
 .text.serial_handler_config_rx
                0x000000000001f774       0xec CMakeFiles/51_serial.dir/__/__/mesh/src/serial/serial_handler_config.c.obj
                0x000000000001f774                serial_handler_config_rx
 .text.handle_cmd_device_fw_info_get
                0x000000000001f860       0x10 CMakeFiles/51_serial.dir/__/__/mesh/src/serial/serial_handler_device.c.obj
 .text.handle_cmd_device_serial_version_get
                0x000000000001f870       0x18 CMakeFiles/51_serial.dir/__/__/mesh/src/serial/serial_handler_device.c.obj
 .text.handle_cmd_device_beacon_params_get
                0x000000000001f888       0x58 CMakeFiles/51_serial.dir/__/__/mesh/src/serial/serial_handler_device.c.obj
 .text.handle_cmd_device_beacon_params_set
                0x000000000001f8e0       0x64 CMakeFiles/51_serial.dir/__/__/mesh/src/serial/serial_handler_device.c.obj
 .text.handle_cmd_device_beacon_stop
                0x000000000001f944       0x48 CMakeFiles/51_serial.dir/__/__/mesh/src/serial/serial_handler_device.c.obj
 .text.handle_cmd_device_beacon_start
                0x000000000001f98c       0x7c CMakeFiles/51_serial.dir/__/__/mesh/src/serial/serial_handler_device.c.obj
 .text.handle_cmd_device_radio_reset
                0x000000000001fa08       0x18 CMakeFiles/51_serial.dir/__/__/mesh/src/serial/serial_handler_device.c.obj
 .text.handle_cmd_device_internal_events_report
                0x000000000001fa20       0x1c CMakeFiles/51_serial.dir/__/__/mesh/src/serial/serial_handler_device.c.obj
 .text.event_report_cb
                0x000000000001fa3c       0x60 CMakeFiles/51_serial.dir/__/__/mesh/src/serial/serial_handler_device.c.obj
 .text.handle_cmd_device_echo
                0x000000000001fa9c       0x44 CMakeFiles/51_serial.dir/__/__/mesh/src/serial/serial_handler_device.c.obj
 .text.serial_handler_device_init
                0x000000000001fae0       0x24 CMakeFiles/51_serial.dir/__/__/mesh/src/serial/serial_handler_device.c.obj
                0x000000000001fae0                serial_handler_device_init
 .text.serial_handler_device_rx
                0x000000000001fb04       0x30 CMakeFiles/51_serial.dir/__/__/mesh/src/serial/serial_handler_device.c.obj
                0x000000000001fb04                serial_handler_device_rx
 .text.serial_handler_mesh_evt_handle
                0x000000000001fb34      0x214 CMakeFiles/51_serial.dir/__/__/mesh/src/serial/serial_handler_dfu.c.obj
 .text.serial_handler_dfu_init
                0x000000000001fd48       0x18 CMakeFiles/51_serial.dir/__/__/mesh/src/serial/serial_handler_dfu.c.obj
                0x000000000001fd48                serial_handler_dfu_init
 .text.serial_handler_dfu_rx
                0x000000000001fd60      0x1e4 CMakeFiles/51_serial.dir/__/__/mesh/src/serial/serial_handler_dfu.c.obj
                0x000000000001fd60                serial_handler_dfu_rx
 .text.serial_handler_mesh_evt_handle
                0x000000000001ff44      0x190 CMakeFiles/51_serial.dir/__/__/mesh/src/serial/serial_handler_mesh.c.obj
 .text.handle_cmd_clear
                0x00000000000200d4       0x1e CMakeFiles/51_serial.dir/__/__/mesh/src/serial/serial_handler_mesh.c.obj
 .text.handle_cmd_packet_send
                0x00000000000200f2       0x9a CMakeFiles/51_serial.dir/__/__/mesh/src/serial/serial_handler_mesh.c.obj
 .text.handle_cmd_addr_virtual_count_max_get
                0x000000000002018c       0x18 CMakeFiles/51_serial.dir/__/__/mesh/src/serial/serial_handler_mesh.c.obj
 .text.handle_cmd_addr_nonvirtual_count_max_get
                0x00000000000201a4       0x18 CMakeFiles/51_serial.dir/__/__/mesh/src/serial/serial_handler_mesh.c.obj
 .text.handle_cmd_addr_local_unicast_get
                0x00000000000201bc       0x26 CMakeFiles/51_serial.dir/__/__/mesh/src/serial/serial_handler_mesh.c.obj
 .text.handle_cmd_devkey_count_max_get
                0x00000000000201e2       0x18 CMakeFiles/51_serial.dir/__/__/mesh/src/serial/serial_handler_mesh.c.obj
 .text.handle_cmd_appkey_count_max_get
                0x00000000000201fa       0x18 CMakeFiles/51_serial.dir/__/__/mesh/src/serial/serial_handler_mesh.c.obj
 .text.handle_cmd_subnet_count_max_get
                0x0000000000020212       0x18 CMakeFiles/51_serial.dir/__/__/mesh/src/serial/serial_handler_mesh.c.obj
 .text.handle_cmd_addr_get_all
                0x000000000002022a       0x26 CMakeFiles/51_serial.dir/__/__/mesh/src/serial/serial_handler_mesh.c.obj
 .text.handle_cmd_addr_get
                0x0000000000020250       0x70 CMakeFiles/51_serial.dir/__/__/mesh/src/serial/serial_handler_mesh.c.obj
 .text.handle_cmd_addr_publication_remove
                0x00000000000202c0       0x2c CMakeFiles/51_serial.dir/__/__/mesh/src/serial/serial_handler_mesh.c.obj
 .text.handle_cmd_addr_publication_add_virtual
                0x00000000000202ec       0x26 CMakeFiles/51_serial.dir/__/__/mesh/src/serial/serial_handler_mesh.c.obj
 .text.handle_cmd_addr_publication_add
                0x0000000000020312       0x2c CMakeFiles/51_serial.dir/__/__/mesh/src/serial/serial_handler_mesh.c.obj
 .text.handle_cmd_addr_subscription_remove
                0x000000000002033e       0x2c CMakeFiles/51_serial.dir/__/__/mesh/src/serial/serial_handler_mesh.c.obj
 .text.handle_cmd_addr_subscription_add_virtual
                0x000000000002036a       0x26 CMakeFiles/51_serial.dir/__/__/mesh/src/serial/serial_handler_mesh.c.obj
 .text.handle_cmd_addr_subscription_add
                0x0000000000020390       0x2c CMakeFiles/51_serial.dir/__/__/mesh/src/serial/serial_handler_mesh.c.obj
 .text.handle_cmd_addr_local_unicast_set
                0x00000000000203bc       0x30 CMakeFiles/51_serial.dir/__/__/mesh/src/serial/serial_handler_mesh.c.obj
 .text.handle_cmd_devkey_delete
                0x00000000000203ec       0x2c CMakeFiles/51_serial.dir/__/__/mesh/src/serial/serial_handler_mesh.c.obj
 .text.handle_cmd_devkey_add
                0x0000000000020418       0x2e CMakeFiles/51_serial.dir/__/__/mesh/src/serial/serial_handler_mesh.c.obj
 .text.handle_cmd_appkey_get_all
                0x0000000000020446       0x44 CMakeFiles/51_serial.dir/__/__/mesh/src/serial/serial_handler_mesh.c.obj
 .text.handle_cmd_appkey_delete
                0x000000000002048a       0x2c CMakeFiles/51_serial.dir/__/__/mesh/src/serial/serial_handler_mesh.c.obj
 .text.handle_cmd_appkey_update
                0x00000000000204b6       0x2e CMakeFiles/51_serial.dir/__/__/mesh/src/serial/serial_handler_mesh.c.obj
 .text.handle_cmd_appkey_add
                0x00000000000204e4       0x36 CMakeFiles/51_serial.dir/__/__/mesh/src/serial/serial_handler_mesh.c.obj
 .text.handle_cmd_subnet_get_all
                0x000000000002051a       0x34 CMakeFiles/51_serial.dir/__/__/mesh/src/serial/serial_handler_mesh.c.obj
 .text.handle_cmd_subnet_delete
                0x000000000002054e       0x2c CMakeFiles/51_serial.dir/__/__/mesh/src/serial/serial_handler_mesh.c.obj
 .text.handle_cmd_subnet_update
                0x000000000002057a       0x2e CMakeFiles/51_serial.dir/__/__/mesh/src/serial/serial_handler_mesh.c.obj
 .text.handle_cmd_subnet_add
                0x00000000000205a8       0x2e CMakeFiles/51_serial.dir/__/__/mesh/src/serial/serial_handler_mesh.c.obj
 .text.handle_cmd_disable
                0x00000000000205d6       0x16 CMakeFiles/51_serial.dir/__/__/mesh/src/serial/serial_handler_mesh.c.obj
 .text.handle_cmd_enable
                0x00000000000205ec       0x16 CMakeFiles/51_serial.dir/__/__/mesh/src/serial/serial_handler_mesh.c.obj
 *fill*         0x0000000000020602        0x2 
 .text.serial_handler_mesh_init
                0x0000000000020604       0x18 CMakeFiles/51_serial.dir/__/__/mesh/src/serial/serial_handler_mesh.c.obj
                0x0000000000020604                serial_handler_mesh_init
 .text.serial_handler_mesh_rx
                0x000000000002061c       0x90 CMakeFiles/51_serial.dir/__/__/mesh/src/serial/serial_handler_mesh.c.obj
                0x000000000002061c                serial_handler_mesh_rx
 .text.registered_model_get
                0x00000000000206ac       0x28 CMakeFiles/51_serial.dir/__/__/mesh/src/serial/serial_handler_models.c.obj
 .text.model_command
                0x00000000000206d4       0x68 CMakeFiles/51_serial.dir/__/__/mesh/src/serial/serial_handler_models.c.obj
 .text.model_init
                0x000000000002073c       0x3e CMakeFiles/51_serial.dir/__/__/mesh/src/serial/serial_handler_models.c.obj
 *fill*         0x000000000002077a        0x2 
 .text.models_get
                0x000000000002077c       0x5c CMakeFiles/51_serial.dir/__/__/mesh/src/serial/serial_handler_models.c.obj
 .text.serial_handler_models_rx
                0x00000000000207d8       0x30 CMakeFiles/51_serial.dir/__/__/mesh/src/serial/serial_handler_models.c.obj
                0x00000000000207d8                serial_handler_models_rx
 .text.serial_handler_openmesh_rx
                0x0000000000020808       0x34 CMakeFiles/51_serial.dir/__/__/mesh/src/serial/serial_handler_openmesh.c.obj
                0x0000000000020808                serial_handler_openmesh_rx
 .text.find_context_id
                0x000000000002083c       0x28 CMakeFiles/51_serial.dir/__/__/mesh/src/serial/serial_handler_prov.c.obj
 .text.serial_handler_prov_evt_in
                0x0000000000020864      0x310 CMakeFiles/51_serial.dir/__/__/mesh/src/serial/serial_handler_prov.c.obj
 .text.serial_handler_prov_init
                0x0000000000020b74       0xa0 CMakeFiles/51_serial.dir/__/__/mesh/src/serial/serial_handler_prov.c.obj
                0x0000000000020b74                serial_handler_prov_init
 .text.serial_handler_prov_pkt_in
                0x0000000000020c14      0x250 CMakeFiles/51_serial.dir/__/__/mesh/src/serial/serial_handler_prov.c.obj
                0x0000000000020c14                serial_handler_prov_pkt_in
 .text.serial_uart_init
                0x0000000000020e64       0xd4 CMakeFiles/51_serial.dir/__/__/mesh/src/serial/serial_uart.c.obj
                0x0000000000020e64                serial_uart_init
 .text.serial_uart_process
                0x0000000000020f38       0x64 CMakeFiles/51_serial.dir/__/__/mesh/src/serial/serial_uart.c.obj
                0x0000000000020f38                serial_uart_process
 .text.UART0_IRQHandler
                0x0000000000020f9c        0x8 CMakeFiles/51_serial.dir/__/__/mesh/src/serial/serial_uart.c.obj
                0x0000000000020f9c                UART0_IRQHandler
 .text.serial_uart_receive_set
                0x0000000000020fa4        0xc CMakeFiles/51_serial.dir/__/__/mesh/src/serial/serial_uart.c.obj
                0x0000000000020fa4                serial_uart_receive_set
 .text.send_data
                0x0000000000020fb0       0x4c CMakeFiles/51_serial.dir/__/__/mesh/src/prov/provisioning.c.obj
 .text.prov_packet_length_valid
                0x0000000000020ffc       0x24 CMakeFiles/51_serial.dir/__/__/mesh/src/prov/provisioning.c.obj
                0x0000000000020ffc                prov_packet_length_valid
 .text.prov_init
                0x0000000000021020       0x40 CMakeFiles/51_serial.dir/__/__/mesh/src/prov/provisioning.c.obj
                0x0000000000021020                prov_init
 .text.prov_listen_start
                0x0000000000021060       0x14 CMakeFiles/51_serial.dir/__/__/mesh/src/prov/provisioning.c.obj
                0x0000000000021060                prov_listen_start
 .text.prov_link_open
                0x0000000000021074       0x12 CMakeFiles/51_serial.dir/__/__/mesh/src/prov/provisioning.c.obj
                0x0000000000021074                prov_link_open
 .text.prov_link_close
                0x0000000000021086        0xe CMakeFiles/51_serial.dir/__/__/mesh/src/prov/provisioning.c.obj
                0x0000000000021086                prov_link_close
 .text.prov_tx_invite
                0x0000000000021094       0x28 CMakeFiles/51_serial.dir/__/__/mesh/src/prov/provisioning.c.obj
                0x0000000000021094                prov_tx_invite
 .text.prov_tx_capabilities
                0x00000000000210bc       0x1c CMakeFiles/51_serial.dir/__/__/mesh/src/prov/provisioning.c.obj
                0x00000000000210bc                prov_tx_capabilities
 .text.prov_tx_start
                0x00000000000210d8       0x1e CMakeFiles/51_serial.dir/__/__/mesh/src/prov/provisioning.c.obj
                0x00000000000210d8                prov_tx_start
 .text.prov_tx_public_key
                0x00000000000210f6       0x24 CMakeFiles/51_serial.dir/__/__/mesh/src/prov/provisioning.c.obj
                0x00000000000210f6                prov_tx_public_key
 .text.prov_tx_input_complete
                0x000000000002111a       0x14 CMakeFiles/51_serial.dir/__/__/mesh/src/prov/provisioning.c.obj
                0x000000000002111a                prov_tx_input_complete
 .text.prov_tx_confirmation
                0x000000000002112e       0x24 CMakeFiles/51_serial.dir/__/__/mesh/src/prov/provisioning.c.obj
                0x000000000002112e                prov_tx_confirmation
 .text.prov_tx_random
                0x0000000000021152       0x24 CMakeFiles/51_serial.dir/__/__/mesh/src/prov/provisioning.c.obj
                0x0000000000021152                prov_tx_random
 .text.prov_tx_complete
                0x0000000000021176       0x14 CMakeFiles/51_serial.dir/__/__/mesh/src/prov/provisioning.c.obj
                0x0000000000021176                prov_tx_complete
 .text.prov_tx_failed
                0x000000000002118a       0x18 CMakeFiles/51_serial.dir/__/__/mesh/src/prov/provisioning.c.obj
                0x000000000002118a                prov_tx_failed
 .text.prov_tx_data
                0x00000000000211a2        0xa CMakeFiles/51_serial.dir/__/__/mesh/src/prov/provisioning.c.obj
                0x00000000000211a2                prov_tx_data
 .text.prov_cb_link_opened
                0x00000000000211ac        0xe CMakeFiles/51_serial.dir/__/__/mesh/src/prov/provisioning.c.obj
                0x00000000000211ac                prov_cb_link_opened
 .text.prov_cb_link_closed
                0x00000000000211ba        0xe CMakeFiles/51_serial.dir/__/__/mesh/src/prov/provisioning.c.obj
                0x00000000000211ba                prov_cb_link_closed
 .text.prov_cb_pkt_in
                0x00000000000211c8       0x90 CMakeFiles/51_serial.dir/__/__/mesh/src/prov/provisioning.c.obj
                0x00000000000211c8                prov_cb_pkt_in
 .text.prov_cb_ack_in
                0x0000000000021258        0xe CMakeFiles/51_serial.dir/__/__/mesh/src/prov/provisioning.c.obj
                0x0000000000021258                prov_cb_ack_in
 *fill*         0x0000000000021266        0x2 
 .text.nrf_mesh_prov_init
                0x0000000000021268       0x38 CMakeFiles/51_serial.dir/__/__/mesh/src/prov/nrf_mesh_prov.c.obj
                0x0000000000021268                nrf_mesh_prov_init
 .text.nrf_mesh_prov_generate_keys
                0x00000000000212a0        0x8 CMakeFiles/51_serial.dir/__/__/mesh/src/prov/nrf_mesh_prov.c.obj
                0x00000000000212a0                nrf_mesh_prov_generate_keys
 .text.nrf_mesh_prov_listen
                0x00000000000212a8       0x28 CMakeFiles/51_serial.dir/__/__/mesh/src/prov/nrf_mesh_prov.c.obj
                0x00000000000212a8                nrf_mesh_prov_listen
 .text.nrf_mesh_prov_provision
                0x00000000000212d0       0x6c CMakeFiles/51_serial.dir/__/__/mesh/src/prov/nrf_mesh_prov.c.obj
                0x00000000000212d0                nrf_mesh_prov_provision
 .text.nrf_mesh_prov_oob_use
                0x000000000002133c       0x1c CMakeFiles/51_serial.dir/__/__/mesh/src/prov/nrf_mesh_prov.c.obj
                0x000000000002133c                nrf_mesh_prov_oob_use
 .text.nrf_mesh_prov_auth_data_provide
                0x0000000000021358       0x1c CMakeFiles/51_serial.dir/__/__/mesh/src/prov/nrf_mesh_prov.c.obj
                0x0000000000021358                nrf_mesh_prov_auth_data_provide
 .text.nrf_mesh_prov_shared_secret_provide
                0x0000000000021374       0x1c CMakeFiles/51_serial.dir/__/__/mesh/src/prov/nrf_mesh_prov.c.obj
                0x0000000000021374                nrf_mesh_prov_shared_secret_provide
 .text.remove_active_bearer
                0x0000000000021390       0x88 CMakeFiles/51_serial.dir/__/__/mesh/src/prov/prov_bearer_adv.c.obj
 .text.send_packet
                0x0000000000021418       0x64 CMakeFiles/51_serial.dir/__/__/mesh/src/prov/prov_bearer_adv.c.obj
 .text.send_link_close
                0x000000000002147c       0x3e CMakeFiles/51_serial.dir/__/__/mesh/src/prov/prov_bearer_adv.c.obj
 *fill*         0x00000000000214ba        0x2 
 .text.prov_buffer_tx
                0x00000000000214bc      0x1f0 CMakeFiles/51_serial.dir/__/__/mesh/src/prov/prov_bearer_adv.c.obj
 .text.send_transaction_ack
                0x00000000000216ac       0x48 CMakeFiles/51_serial.dir/__/__/mesh/src/prov/prov_bearer_adv.c.obj
 .text.send_link_ack
                0x00000000000216f4       0x3c CMakeFiles/51_serial.dir/__/__/mesh/src/prov/prov_bearer_adv.c.obj
 .text.prov_bearer_adv_listen_stop
                0x0000000000021730       0x40 CMakeFiles/51_serial.dir/__/__/mesh/src/prov/prov_bearer_adv.c.obj
 .text.close_link
                0x0000000000021770       0x68 CMakeFiles/51_serial.dir/__/__/mesh/src/prov/prov_bearer_adv.c.obj
 .text.prov_bearer_adv_link_close
                0x00000000000217d8       0x78 CMakeFiles/51_serial.dir/__/__/mesh/src/prov/prov_bearer_adv.c.obj
 .text.adv_queue_empty_cb
                0x0000000000021850       0x3c CMakeFiles/51_serial.dir/__/__/mesh/src/prov/prov_bearer_adv.c.obj
 .text.link_timeout_cb
                0x000000000002188c        0xc CMakeFiles/51_serial.dir/__/__/mesh/src/prov/prov_bearer_adv.c.obj
 .text.tx_retry_cb
                0x0000000000021898       0xe8 CMakeFiles/51_serial.dir/__/__/mesh/src/prov/prov_bearer_adv.c.obj
 .text.add_active_bearer
                0x0000000000021980       0x98 CMakeFiles/51_serial.dir/__/__/mesh/src/prov/prov_bearer_adv.c.obj
 .text.prov_bearer_adv_link_open
                0x0000000000021a18      0x11c CMakeFiles/51_serial.dir/__/__/mesh/src/prov/prov_bearer_adv.c.obj
 .text.prov_bearer_adv_listen
                0x0000000000021b34       0xe8 CMakeFiles/51_serial.dir/__/__/mesh/src/prov/prov_bearer_adv.c.obj
 .text.calculate_3GPP_CRC
                0x0000000000021c1c       0x28 CMakeFiles/51_serial.dir/__/__/mesh/src/prov/prov_bearer_adv.c.obj
                0x0000000000021c1c                calculate_3GPP_CRC
 .text.prov_bearer_adv_tx
                0x0000000000021c44       0xc8 CMakeFiles/51_serial.dir/__/__/mesh/src/prov/prov_bearer_adv.c.obj
 .text.prov_buffer_rx
                0x0000000000021d0c       0x90 CMakeFiles/51_serial.dir/__/__/mesh/src/prov/prov_bearer_adv.c.obj
 .text.prov_bearer_adv_interface_get
                0x0000000000021d9c        0x8 CMakeFiles/51_serial.dir/__/__/mesh/src/prov/prov_bearer_adv.c.obj
                0x0000000000021d9c                prov_bearer_adv_interface_get
 .text.prov_bearer_adv_pkt_in
                0x0000000000021da4      0xa24 CMakeFiles/51_serial.dir/__/__/mesh/src/prov/prov_bearer_adv.c.obj
                0x0000000000021da4                prov_bearer_adv_pkt_in
 .text.oob_gen_alphanumeric
                0x00000000000227c8       0x38 CMakeFiles/51_serial.dir/__/__/mesh/src/prov/prov_utils.c.obj
 .text.oob_gen_numeric
                0x0000000000022800       0x4c CMakeFiles/51_serial.dir/__/__/mesh/src/prov/prov_utils.c.obj
 .text.prov_utils_opt_set
                0x000000000002284c       0x28 CMakeFiles/51_serial.dir/__/__/mesh/src/prov/prov_utils.c.obj
                0x000000000002284c                prov_utils_opt_set
 .text.prov_utils_use_ecdh_offloading
                0x0000000000022874        0xc CMakeFiles/51_serial.dir/__/__/mesh/src/prov/prov_utils.c.obj
                0x0000000000022874                prov_utils_use_ecdh_offloading
 .text.prov_utils_authentication_values_derive
                0x0000000000022880       0xd4 CMakeFiles/51_serial.dir/__/__/mesh/src/prov/prov_utils.c.obj
                0x0000000000022880                prov_utils_authentication_values_derive
 .text.prov_utils_keys_generate
                0x0000000000022954       0x20 CMakeFiles/51_serial.dir/__/__/mesh/src/prov/prov_utils.c.obj
                0x0000000000022954                prov_utils_keys_generate
 .text.prov_utils_derive_keys
                0x0000000000022974       0xc0 CMakeFiles/51_serial.dir/__/__/mesh/src/prov/prov_utils.c.obj
                0x0000000000022974                prov_utils_derive_keys
 .text.prov_utils_calculate_shared_secret
                0x0000000000022a34       0x44 CMakeFiles/51_serial.dir/__/__/mesh/src/prov/prov_utils.c.obj
                0x0000000000022a34                prov_utils_calculate_shared_secret
 .text.prov_utils_generate_oob_data
                0x0000000000022a78       0xe0 CMakeFiles/51_serial.dir/__/__/mesh/src/prov/prov_utils.c.obj
                0x0000000000022a78                prov_utils_generate_oob_data
 .text.prov_utils_confirmation_check
                0x0000000000022b58       0x6c CMakeFiles/51_serial.dir/__/__/mesh/src/prov/prov_utils.c.obj
                0x0000000000022b58                prov_utils_confirmation_check
 .text.prov_beacon_unprov_build
                0x0000000000022bc4       0x52 CMakeFiles/51_serial.dir/__/__/mesh/src/prov/prov_beacon.c.obj
                0x0000000000022bc4                prov_beacon_unprov_build
 *fill*         0x0000000000022c16        0x2 
 .text.prov_beacon_unprov_pkt_in
                0x0000000000022c18       0xd4 CMakeFiles/51_serial.dir/__/__/mesh/src/prov/prov_beacon.c.obj
                0x0000000000022c18                prov_beacon_unprov_pkt_in
 .text.prov_provisioner_cb_link_closed
                0x0000000000022cec       0x2c CMakeFiles/51_serial.dir/__/__/mesh/src/prov/prov_provisioner.c.obj
 .text.prov_provisioner_cb_link_established
                0x0000000000022d18       0x4c CMakeFiles/51_serial.dir/__/__/mesh/src/prov/prov_provisioner.c.obj
 .text.prov_provisioner_cb_ack_received
                0x0000000000022d64       0x58 CMakeFiles/51_serial.dir/__/__/mesh/src/prov/prov_provisioner.c.obj
 .text.send_confirmation
                0x0000000000022dbc       0x38 CMakeFiles/51_serial.dir/__/__/mesh/src/prov/prov_provisioner.c.obj
 .text.request_authentication
                0x0000000000022df4       0xb4 CMakeFiles/51_serial.dir/__/__/mesh/src/prov/prov_provisioner.c.obj
 .text.prov_provisioner_pkt_in
                0x0000000000022ea8      0x360 CMakeFiles/51_serial.dir/__/__/mesh/src/prov/prov_provisioner.c.obj
 .text.prov_provisioner_provision
                0x0000000000023208       0x58 CMakeFiles/51_serial.dir/__/__/mesh/src/prov/prov_provisioner.c.obj
                0x0000000000023208                prov_provisioner_provision
 .text.prov_provisioner_oob_use
                0x0000000000023260       0xe0 CMakeFiles/51_serial.dir/__/__/mesh/src/prov/prov_provisioner.c.obj
                0x0000000000023260                prov_provisioner_oob_use
 .text.prov_provisioner_auth_data
                0x0000000000023340       0x50 CMakeFiles/51_serial.dir/__/__/mesh/src/prov/prov_provisioner.c.obj
                0x0000000000023340                prov_provisioner_auth_data
 .text.prov_provisioner_shared_secret
                0x0000000000023390       0x30 CMakeFiles/51_serial.dir/__/__/mesh/src/prov/prov_provisioner.c.obj
                0x0000000000023390                prov_provisioner_shared_secret
 .text.complete_provisioning
                0x00000000000233c0       0x74 CMakeFiles/51_serial.dir/__/__/mesh/src/prov/prov_provisionee.c.obj
 .text.prov_provisionee_cb_link_closed
                0x0000000000023434       0x38 CMakeFiles/51_serial.dir/__/__/mesh/src/prov/prov_provisionee.c.obj
 .text.prov_provisionee_cb_link_established
                0x000000000002346c       0x20 CMakeFiles/51_serial.dir/__/__/mesh/src/prov/prov_provisionee.c.obj
 .text.request_authentication
                0x000000000002348c       0xb4 CMakeFiles/51_serial.dir/__/__/mesh/src/prov/prov_provisionee.c.obj
 .text.send_failed
                0x0000000000023540       0x4c CMakeFiles/51_serial.dir/__/__/mesh/src/prov/prov_provisionee.c.obj
 .text.start_authentication
                0x000000000002358c       0x6c CMakeFiles/51_serial.dir/__/__/mesh/src/prov/prov_provisionee.c.obj
 .text.prov_provisionee_cb_ack_received
                0x00000000000235f8       0xcc CMakeFiles/51_serial.dir/__/__/mesh/src/prov/prov_provisionee.c.obj
 .text.prov_provisionee_pkt_in
                0x00000000000236c4      0x3b0 CMakeFiles/51_serial.dir/__/__/mesh/src/prov/prov_provisionee.c.obj
 .text.prov_provisionee_init
                0x0000000000023a74       0x4c CMakeFiles/51_serial.dir/__/__/mesh/src/prov/prov_provisionee.c.obj
                0x0000000000023a74                prov_provisionee_init
 .text.prov_provisionee_auth_data
                0x0000000000023ac0       0x90 CMakeFiles/51_serial.dir/__/__/mesh/src/prov/prov_provisionee.c.obj
                0x0000000000023ac0                prov_provisionee_auth_data
 .text.prov_provisionee_shared_secret
                0x0000000000023b50       0x30 CMakeFiles/51_serial.dir/__/__/mesh/src/prov/prov_provisionee.c.obj
                0x0000000000023b50                prov_provisionee_shared_secret
 .text          0x0000000000023b80       0x4c CMakeFiles/51_serial.dir/__/__/toolchain/gcc/gcc_startup_nrf51.S.obj
                0x0000000000023b80                Reset_Handler
                0x0000000000023bc0                NMI_Handler
                0x0000000000023bc4                SVC_Handler
                0x0000000000023bc6                PendSV_Handler
                0x0000000000023bc8                SysTick_Handler
                0x0000000000023bca                TIMER2_IRQHandler
                0x0000000000023bca                SPI0_TWI0_IRQHandler
                0x0000000000023bca                RTC0_IRQHandler
                0x0000000000023bca                GPIOTE_IRQHandler
                0x0000000000023bca                POWER_CLOCK_IRQHandler
                0x0000000000023bca                RADIO_IRQHandler
                0x0000000000023bca                LPCOMP_IRQHandler
                0x0000000000023bca                SWI4_IRQHandler
                0x0000000000023bca                TEMP_IRQHandler
                0x0000000000023bca                SWI5_IRQHandler
                0x0000000000023bca                TIMER0_IRQHandler
                0x0000000000023bca                SWI0_IRQHandler
                0x0000000000023bca                TIMER1_IRQHandler
                0x0000000000023bca                ECB_IRQHandler
                0x0000000000023bca                Default_Handler
                0x0000000000023bca                ADC_IRQHandler
                0x0000000000023bca                SWI3_IRQHandler
                0x0000000000023bca                CCM_AAR_IRQHandler
                0x0000000000023bca                WDT_IRQHandler
                0x0000000000023bca                RNG_IRQHandler
                0x0000000000023bca                SPI1_TWI1_IRQHandler
                0x0000000000023bca                RTC1_IRQHandler
                0x0000000000023bca                SWI1_IRQHandler
 .text.SystemInit
                0x0000000000023bcc      0x104 CMakeFiles/51_serial.dir/__/__/toolchain/system_nrf51.c.obj
                0x0000000000023bcc                SystemInit
 .text._weak_handler
                0x0000000000023cd0        0x4 ../../mesh/lib_51_MBTLE_CORE.a(nrf_mesh_weak.c.obj)
                0x0000000000023cd0                nrf_mesh_dfu_init
                0x0000000000023cd0                nrf_mesh_dfu_jump_to_bootloader
                0x0000000000023cd0                prov_provisioner_cb_link_established
                0x0000000000023cd0                nrf_mesh_dfu_rx
                0x0000000000023cd0                prov_provisionee_pkt_in
                0x0000000000023cd0                prov_provisioner_cb_ack_received
                0x0000000000023cd0                nrf_mesh_dfu_bank_info_get
                0x0000000000023cd0                prov_provisionee_cb_ack_received
                0x0000000000023cd0                nrf_mesh_dfu_request
                0x0000000000023cd0                nrf_mesh_dfu_bank_flash
                0x0000000000023cd0                _weak_handler
                0x0000000000023cd0                prov_provisioner_pkt_in
                0x0000000000023cd0                prov_provisioner_init
                0x0000000000023cd0                nrf_mesh_dfu_relay
                0x0000000000023cd0                prov_provisionee_accept
                0x0000000000023cd0                nrf_mesh_dfu_abort
                0x0000000000023cd0                nrf_mesh_dfu_state_get
 .text.is_valid_gap_addr
                0x0000000000023cd4       0x7c ../../mesh/lib_51_MBTLE_CORE.a(bearer_adv.c.obj)
 .text.packet_tx
                0x0000000000023d50       0xaa ../../mesh/lib_51_MBTLE_CORE.a(bearer_adv.c.obj)
 *fill*         0x0000000000023dfa        0x2 
 .text.scan_order
                0x0000000000023dfc       0xb0 ../../mesh/lib_51_MBTLE_CORE.a(bearer_adv.c.obj)
 .text.radio_idle_cb
                0x0000000000023eac       0x18 ../../mesh/lib_51_MBTLE_CORE.a(bearer_adv.c.obj)
 .text.scan_begin_timer_cb
                0x0000000000023ec4       0x44 ../../mesh/lib_51_MBTLE_CORE.a(bearer_adv.c.obj)
 .text.radio_tx_cb
                0x0000000000023f08       0x34 ../../mesh/lib_51_MBTLE_CORE.a(bearer_adv.c.obj)
 .text.tx_event_send
                0x0000000000023f3c       0x22 ../../mesh/lib_51_MBTLE_CORE.a(bearer_adv.c.obj)
 *fill*         0x0000000000023f5e        0x2 
 .text.radio_rx_cb
                0x0000000000023f60       0x44 ../../mesh/lib_51_MBTLE_CORE.a(bearer_adv.c.obj)
 .text.adv_evt_timeout
                0x0000000000023fa4      0x168 ../../mesh/lib_51_MBTLE_CORE.a(bearer_adv.c.obj)
 .text.next_adv_schedule
                0x000000000002410c       0x80 ../../mesh/lib_51_MBTLE_CORE.a(bearer_adv.c.obj)
 .text.scan_end_timer_cb
                0x000000000002418c       0x14 ../../mesh/lib_51_MBTLE_CORE.a(bearer_adv.c.obj)
 .text.bearer_adv_advertiser_init
                0x00000000000241a0      0x13c ../../mesh/lib_51_MBTLE_CORE.a(bearer_adv.c.obj)
                0x00000000000241a0                bearer_adv_advertiser_init
 .text.bearer_adv_reconfig
                0x00000000000242dc       0x50 ../../mesh/lib_51_MBTLE_CORE.a(bearer_adv.c.obj)
                0x00000000000242dc                bearer_adv_reconfig
 .text.bearer_adv_tx
                0x000000000002432c       0x58 ../../mesh/lib_51_MBTLE_CORE.a(bearer_adv.c.obj)
                0x000000000002432c                bearer_adv_tx
 .text.bearer_adv_adv_stop
                0x0000000000024384       0x1a ../../mesh/lib_51_MBTLE_CORE.a(bearer_adv.c.obj)
                0x0000000000024384                bearer_adv_adv_stop
 .text.bearer_adv_adv_start
                0x000000000002439e       0x26 ../../mesh/lib_51_MBTLE_CORE.a(bearer_adv.c.obj)
                0x000000000002439e                bearer_adv_adv_start
 .text.bearer_adv_flush_tx
                0x00000000000243c4       0x56 ../../mesh/lib_51_MBTLE_CORE.a(bearer_adv.c.obj)
                0x00000000000243c4                bearer_adv_flush_tx
 .text.bearer_adv_interval_reset
                0x000000000002441a       0x30 ../../mesh/lib_51_MBTLE_CORE.a(bearer_adv.c.obj)
                0x000000000002441a                bearer_adv_interval_reset
 *fill*         0x000000000002444a        0x2 
 .text.bearer_adv_scan_start
                0x000000000002444c       0x60 ../../mesh/lib_51_MBTLE_CORE.a(bearer_adv.c.obj)
                0x000000000002444c                bearer_adv_scan_start
 .text.bearer_adv_opt_set
                0x00000000000244ac      0x124 ../../mesh/lib_51_MBTLE_CORE.a(bearer_adv.c.obj)
                0x00000000000244ac                bearer_adv_opt_set
 .text.bearer_adv_scan_stop
                0x00000000000245d0       0x28 ../../mesh/lib_51_MBTLE_CORE.a(bearer_adv.c.obj)
                0x00000000000245d0                bearer_adv_scan_stop
 .text.bearer_adv_gap_type_set
                0x00000000000245f8       0x60 ../../mesh/lib_51_MBTLE_CORE.a(bearer_adv.c.obj)
                0x00000000000245f8                bearer_adv_gap_type_set
 .text.bearer_adv_addr_get
                0x0000000000024658       0x28 ../../mesh/lib_51_MBTLE_CORE.a(bearer_adv.c.obj)
                0x0000000000024658                bearer_adv_addr_get
 .text.bearer_adv_addr_default_set
                0x0000000000024680       0x30 ../../mesh/lib_51_MBTLE_CORE.a(bearer_adv.c.obj)
                0x0000000000024680                bearer_adv_addr_default_set
 .text.bearer_adv_init
                0x00000000000246b0       0xf4 ../../mesh/lib_51_MBTLE_CORE.a(bearer_adv.c.obj)
                0x00000000000246b0                bearer_adv_init
 .text.fifo_init
                0x00000000000247a4       0x60 ../../mesh/lib_51_MBTLE_CORE.a(fifo.c.obj)
                0x00000000000247a4                fifo_init
 .text.fifo_push
                0x0000000000024804       0x64 ../../mesh/lib_51_MBTLE_CORE.a(fifo.c.obj)
                0x0000000000024804                fifo_push
 .text.fifo_pop
                0x0000000000024868       0x62 ../../mesh/lib_51_MBTLE_CORE.a(fifo.c.obj)
                0x0000000000024868                fifo_pop
 .text.fifo_peek_at
                0x00000000000248ca       0x62 ../../mesh/lib_51_MBTLE_CORE.a(fifo.c.obj)
                0x00000000000248ca                fifo_peek_at
 .text.fifo_peek
                0x000000000002492c        0xa ../../mesh/lib_51_MBTLE_CORE.a(fifo.c.obj)
                0x000000000002492c                fifo_peek
 .text.fifo_get_len
                0x0000000000024936        0x8 ../../mesh/lib_51_MBTLE_CORE.a(fifo.c.obj)
                0x0000000000024936                fifo_get_len
 .text.fifo_is_empty
                0x000000000002493e        0xe ../../mesh/lib_51_MBTLE_CORE.a(fifo.c.obj)
                0x000000000002493e                fifo_is_empty
 .text.packet_mgr_init
                0x000000000002494c       0x5c ../../mesh/lib_51_MBTLE_CORE.a(packet_mgr.c.obj)
                0x000000000002494c                packet_mgr_init
 .text.packet_mgr_alloc
                0x00000000000249a8      0x1f4 ../../mesh/lib_51_MBTLE_CORE.a(packet_mgr.c.obj)
                0x00000000000249a8                packet_mgr_alloc
 .text.packet_mgr_free
                0x0000000000024b9c       0x74 ../../mesh/lib_51_MBTLE_CORE.a(packet_mgr.c.obj)
                0x0000000000024b9c                packet_mgr_free
 .text.radio_init
                0x0000000000024c10       0x60 ../../mesh/lib_51_MBTLE_CORE.a(radio.c.obj)
                0x0000000000024c10                radio_init
 .text.radio_mode_set
                0x0000000000024c70       0x14 ../../mesh/lib_51_MBTLE_CORE.a(radio.c.obj)
                0x0000000000024c70                radio_mode_set
 .text.radio_access_addr_set
                0x0000000000024c84        0xc ../../mesh/lib_51_MBTLE_CORE.a(radio.c.obj)
                0x0000000000024c84                radio_access_addr_set
 .text.radio_tx_power_set
                0x0000000000024c90        0xc ../../mesh/lib_51_MBTLE_CORE.a(radio.c.obj)
                0x0000000000024c90                radio_tx_power_set
 .text.radio_tx_power_get
                0x0000000000024c9c        0xc ../../mesh/lib_51_MBTLE_CORE.a(radio.c.obj)
                0x0000000000024c9c                radio_tx_power_get
 .text.radio_order
                0x0000000000024ca8      0x13c ../../mesh/lib_51_MBTLE_CORE.a(radio.c.obj)
                0x0000000000024ca8                radio_order
 .text.radio_invoke
                0x0000000000024de4       0x28 ../../mesh/lib_51_MBTLE_CORE.a(radio.c.obj)
                0x0000000000024de4                radio_invoke
 .text.radio_stop
                0x0000000000024e0c       0x28 ../../mesh/lib_51_MBTLE_CORE.a(radio.c.obj)
                0x0000000000024e0c                radio_stop
 .text.purge_preemptable
                0x0000000000024e34       0x7c ../../mesh/lib_51_MBTLE_CORE.a(radio.c.obj)
 .text.radio_preemptable_cancel
                0x0000000000024eb0       0x2c ../../mesh/lib_51_MBTLE_CORE.a(radio.c.obj)
                0x0000000000024eb0                radio_preemptable_cancel
 .text.radio_event_handler
                0x0000000000024edc      0x134 ../../mesh/lib_51_MBTLE_CORE.a(radio.c.obj)
                0x0000000000024edc                radio_event_handler
 .text.radio_on_ts_begin
                0x0000000000025010       0x50 ../../mesh/lib_51_MBTLE_CORE.a(radio.c.obj)
                0x0000000000025010                radio_on_ts_begin
 .text.radio_on_ts_end
                0x0000000000025060        0x8 ../../mesh/lib_51_MBTLE_CORE.a(radio.c.obj)
                0x0000000000025060                radio_on_ts_end
 .text.timer_order_cb
                0x0000000000025068       0x9c ../../mesh/lib_51_MBTLE_CORE.a(timer.c.obj)
                0x0000000000025068                timer_order_cb
 .text.timer_abort
                0x0000000000025104       0x8c ../../mesh/lib_51_MBTLE_CORE.a(timer.c.obj)
                0x0000000000025104                timer_abort
 .text.timer_now
                0x0000000000025190       0x58 ../../mesh/lib_51_MBTLE_CORE.a(timer.c.obj)
                0x0000000000025190                timer_now
 .text.timer_event_handler
                0x00000000000251e8       0xa0 ../../mesh/lib_51_MBTLE_CORE.a(timer.c.obj)
                0x00000000000251e8                timer_event_handler
 .text.timer_on_ts_begin
                0x0000000000025288      0x138 ../../mesh/lib_51_MBTLE_CORE.a(timer.c.obj)
                0x0000000000025288                timer_on_ts_begin
 .text.timer_on_ts_end
                0x00000000000253c0       0x48 ../../mesh/lib_51_MBTLE_CORE.a(timer.c.obj)
                0x00000000000253c0                timer_on_ts_end
 .text.add_evt  0x0000000000025408       0x90 ../../mesh/lib_51_MBTLE_CORE.a(timer_scheduler.c.obj)
 .text.process_add_list
                0x0000000000025498       0x50 ../../mesh/lib_51_MBTLE_CORE.a(timer_scheduler.c.obj)
 .text.process_dirty_events
                0x00000000000254e8       0xb8 ../../mesh/lib_51_MBTLE_CORE.a(timer_scheduler.c.obj)
 .text.flag_event_cb
                0x00000000000255a0      0x138 ../../mesh/lib_51_MBTLE_CORE.a(timer_scheduler.c.obj)
 .text.timer_cb
                0x00000000000256d8       0x10 ../../mesh/lib_51_MBTLE_CORE.a(timer_scheduler.c.obj)
 .text.timer_sch_init
                0x00000000000256e8       0x24 ../../mesh/lib_51_MBTLE_CORE.a(timer_scheduler.c.obj)
                0x00000000000256e8                timer_sch_init
 .text.timer_sch_schedule
                0x000000000002570c       0x94 ../../mesh/lib_51_MBTLE_CORE.a(timer_scheduler.c.obj)
                0x000000000002570c                timer_sch_schedule
 .text.timer_sch_abort
                0x00000000000257a0       0x6c ../../mesh/lib_51_MBTLE_CORE.a(timer_scheduler.c.obj)
                0x00000000000257a0                timer_sch_abort
 .text.timer_sch_reschedule
                0x000000000002580c       0xb4 ../../mesh/lib_51_MBTLE_CORE.a(timer_scheduler.c.obj)
                0x000000000002580c                timer_sch_reschedule
 .text.beacon_init
                0x00000000000258c0       0x44 ../../mesh/lib_51_MBTLE_CORE.a(beacon.c.obj)
                0x00000000000258c0                beacon_init
 .text.beacon_create
                0x0000000000025904       0x5e ../../mesh/lib_51_MBTLE_CORE.a(beacon.c.obj)
                0x0000000000025904                beacon_create
 *fill*         0x0000000000025962        0x2 
 .text.beacon_tx
                0x0000000000025964       0x48 ../../mesh/lib_51_MBTLE_CORE.a(beacon.c.obj)
                0x0000000000025964                beacon_tx
 .text.beacon_pkt_in
                0x00000000000259ac      0x19c ../../mesh/lib_51_MBTLE_CORE.a(beacon.c.obj)
                0x00000000000259ac                beacon_pkt_in
 .text.bearer_rx_cb
                0x0000000000025b48      0x3a0 ../../mesh/lib_51_MBTLE_CORE.a(bearer.c.obj)
 .text.bearer_init
                0x0000000000025ee8       0x68 ../../mesh/lib_51_MBTLE_CORE.a(bearer.c.obj)
                0x0000000000025ee8                bearer_init
 .text.bearer_adtype_filtering_set
                0x0000000000025f50        0xc ../../mesh/lib_51_MBTLE_CORE.a(bearer.c.obj)
                0x0000000000025f50                bearer_adtype_filtering_set
 .text.bearer_adtype_add
                0x0000000000025f5c       0x1c ../../mesh/lib_51_MBTLE_CORE.a(bearer.c.obj)
                0x0000000000025f5c                bearer_adtype_add
 .text.bearer_adtype_remove
                0x0000000000025f78       0x1c ../../mesh/lib_51_MBTLE_CORE.a(bearer.c.obj)
                0x0000000000025f78                bearer_adtype_remove
 .text.bearer_enable
                0x0000000000025f94        0xa ../../mesh/lib_51_MBTLE_CORE.a(bearer.c.obj)
                0x0000000000025f94                bearer_enable
 *fill*         0x0000000000025f9e        0x2 
 .text.bearer_disable
                0x0000000000025fa0       0x14 ../../mesh/lib_51_MBTLE_CORE.a(bearer.c.obj)
                0x0000000000025fa0                bearer_disable
 .text.bearer_tx
                0x0000000000025fb4       0x50 ../../mesh/lib_51_MBTLE_CORE.a(bearer.c.obj)
                0x0000000000025fb4                bearer_tx
 .text.bearer_rx
                0x0000000000026004       0x3c ../../mesh/lib_51_MBTLE_CORE.a(bearer.c.obj)
                0x0000000000026004                bearer_rx
 .text.evt_push
                0x0000000000026040       0x28 ../../mesh/lib_51_MBTLE_CORE.a(bearer_event.c.obj)
 .text.QDEC_IRQHandler
                0x0000000000026068       0xb4 ../../mesh/lib_51_MBTLE_CORE.a(bearer_event.c.obj)
                0x0000000000026068                QDEC_IRQHandler
 .text.bearer_event_init
                0x000000000002611c       0x40 ../../mesh/lib_51_MBTLE_CORE.a(bearer_event.c.obj)
                0x000000000002611c                bearer_event_init
 .text.bearer_event_generic_post
                0x000000000002615c       0x38 ../../mesh/lib_51_MBTLE_CORE.a(bearer_event.c.obj)
                0x000000000002615c                bearer_event_generic_post
 .text.bearer_event_timer_post
                0x0000000000026194       0x38 ../../mesh/lib_51_MBTLE_CORE.a(bearer_event.c.obj)
                0x0000000000026194                bearer_event_timer_post
 .text.bearer_event_critical_section_begin
                0x00000000000261cc       0x48 ../../mesh/lib_51_MBTLE_CORE.a(bearer_event.c.obj)
                0x00000000000261cc                bearer_event_critical_section_begin
 .text.bearer_event_critical_section_end
                0x0000000000026214       0x50 ../../mesh/lib_51_MBTLE_CORE.a(bearer_event.c.obj)
                0x0000000000026214                bearer_event_critical_section_end
 .text.bearer_event_flag_add
                0x0000000000026264       0x58 ../../mesh/lib_51_MBTLE_CORE.a(bearer_event.c.obj)
                0x0000000000026264                bearer_event_flag_add
 .text.bearer_event_flag_set
                0x00000000000262bc       0x5c ../../mesh/lib_51_MBTLE_CORE.a(bearer_event.c.obj)
                0x00000000000262bc                bearer_event_flag_set
 .text.nrf_mesh_configure_device_uuid_set
                0x0000000000026318       0x14 ../../mesh/lib_51_MBTLE_CORE.a(nrf_mesh_configure.c.obj)
                0x0000000000026318                nrf_mesh_configure_device_uuid_set
 .text.nrf_mesh_configure_device_uuid_reset
                0x000000000002632c       0x28 ../../mesh/lib_51_MBTLE_CORE.a(nrf_mesh_configure.c.obj)
                0x000000000002632c                nrf_mesh_configure_device_uuid_reset
 .text.nrf_mesh_configure_device_uuid_get
                0x0000000000026354        0x8 ../../mesh/lib_51_MBTLE_CORE.a(nrf_mesh_configure.c.obj)
                0x0000000000026354                nrf_mesh_configure_device_uuid_get
 .text.enc_aes_encrypt
                0x000000000002635c        0x8 ../../mesh/lib_51_MBTLE_CORE.a(enc.c.obj)
                0x000000000002635c                enc_aes_encrypt
 .text.enc_aes_cmac
                0x0000000000026364        0x8 ../../mesh/lib_51_MBTLE_CORE.a(enc.c.obj)
                0x0000000000026364                enc_aes_cmac
 .text.enc_aes_ccm_encrypt
                0x000000000002636c        0x8 ../../mesh/lib_51_MBTLE_CORE.a(enc.c.obj)
                0x000000000002636c                enc_aes_ccm_encrypt
 .text.enc_aes_ccm_decrypt
                0x0000000000026374        0x8 ../../mesh/lib_51_MBTLE_CORE.a(enc.c.obj)
                0x0000000000026374                enc_aes_ccm_decrypt
 .text.enc_nonce_generate
                0x000000000002637c       0xcc ../../mesh/lib_51_MBTLE_CORE.a(enc.c.obj)
                0x000000000002637c                enc_nonce_generate
 .text.enc_s1   0x0000000000026448       0x44 ../../mesh/lib_51_MBTLE_CORE.a(enc.c.obj)
                0x0000000000026448                enc_s1
 .text.enc_k1   0x000000000002648c       0x58 ../../mesh/lib_51_MBTLE_CORE.a(enc.c.obj)
                0x000000000002648c                enc_k1
 .text.enc_k2   0x00000000000264e4       0xfc ../../mesh/lib_51_MBTLE_CORE.a(enc.c.obj)
                0x00000000000264e4                enc_k2
 .text.enc_k3   0x00000000000265e0       0x68 ../../mesh/lib_51_MBTLE_CORE.a(enc.c.obj)
                0x00000000000265e0                enc_k3
 .text.enc_k4   0x0000000000026648       0x64 ../../mesh/lib_51_MBTLE_CORE.a(enc.c.obj)
                0x0000000000026648                enc_k4
 .text.event_handle
                0x00000000000266ac       0x38 ../../mesh/lib_51_MBTLE_CORE.a(event.c.obj)
                0x00000000000266ac                event_handle
 .text.event_handler_add
                0x00000000000266e4       0x98 ../../mesh/lib_51_MBTLE_CORE.a(event.c.obj)
                0x00000000000266e4                event_handler_add
 .text.sd_power_reset_reason_clr
                0x000000000002677c        0x4 ../../mesh/lib_51_MBTLE_CORE.a(hal.c.obj)
 .text.sd_power_gpregret_set
                0x0000000000026780        0x4 ../../mesh/lib_51_MBTLE_CORE.a(hal.c.obj)
 .text.hal_device_reset
                0x0000000000026784       0x2c ../../mesh/lib_51_MBTLE_CORE.a(hal.c.obj)
                0x0000000000026784                hal_device_reset
 .text.log_callback_rtt
                0x00000000000267b0       0x2c ../../mesh/lib_51_MBTLE_CORE.a(log.c.obj)
                0x00000000000267b0                log_callback_rtt
 .text.log_init
                0x00000000000267dc       0x1c ../../mesh/lib_51_MBTLE_CORE.a(log.c.obj)
                0x00000000000267dc                log_init
 .text.log_vprintf
                0x00000000000267f8       0x20 ../../mesh/lib_51_MBTLE_CORE.a(log.c.obj)
                0x00000000000267f8                log_vprintf
 .text.log_printf
                0x0000000000026818       0x16 ../../mesh/lib_51_MBTLE_CORE.a(log.c.obj)
                0x0000000000026818                log_printf
 *fill*         0x000000000002682e        0x2 
 .text.network_beacon_tx_cb
                0x0000000000026830      0x124 ../../mesh/lib_51_MBTLE_CORE.a(net_beacon.c.obj)
 .text.net_beacon_init
                0x0000000000026954       0x60 ../../mesh/lib_51_MBTLE_CORE.a(net_beacon.c.obj)
                0x0000000000026954                net_beacon_init
 .text.net_beacon_pkt_in
                0x00000000000269b4       0xe8 ../../mesh/lib_51_MBTLE_CORE.a(net_beacon.c.obj)
                0x00000000000269b4                net_beacon_pkt_in
 .text.flash_mem_available
                0x0000000000026a9c       0x20 ../../mesh/lib_51_MBTLE_CORE.a(net_state.c.obj)
 .text.flash_store_iv_index
                0x0000000000026abc       0x34 ../../mesh/lib_51_MBTLE_CORE.a(net_state.c.obj)
 .text.seqnum_block_allocate
                0x0000000000026af0       0x54 ../../mesh/lib_51_MBTLE_CORE.a(net_state.c.obj)
 .text.net_state_reset
                0x0000000000026b44       0x3c ../../mesh/lib_51_MBTLE_CORE.a(net_state.c.obj)
                0x0000000000026b44                net_state_reset
 .text.flash_write_complete
                0x0000000000026b80       0x84 ../../mesh/lib_51_MBTLE_CORE.a(net_state.c.obj)
 .text.net_state_recover_from_flash
                0x0000000000026c04       0x98 ../../mesh/lib_51_MBTLE_CORE.a(net_state.c.obj)
                0x0000000000026c04                net_state_recover_from_flash
 .text.net_state_flash_area_get
                0x0000000000026c9c       0x14 ../../mesh/lib_51_MBTLE_CORE.a(net_state.c.obj)
                0x0000000000026c9c                net_state_flash_area_get
 .text.init_flash_storage
                0x0000000000026cb0       0x44 ../../mesh/lib_51_MBTLE_CORE.a(net_state.c.obj)
 .text.net_state_init
                0x0000000000026cf4       0x48 ../../mesh/lib_51_MBTLE_CORE.a(net_state.c.obj)
                0x0000000000026cf4                net_state_init
 .text.net_state_iv_update_start
                0x0000000000026d3c       0x70 ../../mesh/lib_51_MBTLE_CORE.a(net_state.c.obj)
                0x0000000000026d3c                net_state_iv_update_start
 .text.iv_update_trigger_if_pending
                0x0000000000026dac       0x98 ../../mesh/lib_51_MBTLE_CORE.a(net_state.c.obj)
 .text.iv_update_timer_handler
                0x0000000000026e44       0x8c ../../mesh/lib_51_MBTLE_CORE.a(net_state.c.obj)
 .text.net_state_seqnum_alloc
                0x0000000000026ed0       0x74 ../../mesh/lib_51_MBTLE_CORE.a(net_state.c.obj)
                0x0000000000026ed0                net_state_seqnum_alloc
 .text.net_state_iv_index_lock
                0x0000000000026f44       0x5c ../../mesh/lib_51_MBTLE_CORE.a(net_state.c.obj)
                0x0000000000026f44                net_state_iv_index_lock
 .text.net_state_beacon_received
                0x0000000000026fa0       0xc0 ../../mesh/lib_51_MBTLE_CORE.a(net_state.c.obj)
                0x0000000000026fa0                net_state_beacon_received
 .text.net_state_beacon_iv_index_get
                0x0000000000027060        0xc ../../mesh/lib_51_MBTLE_CORE.a(net_state.c.obj)
                0x0000000000027060                net_state_beacon_iv_index_get
 .text.net_state_tx_iv_index_get
                0x000000000002706c       0x1c ../../mesh/lib_51_MBTLE_CORE.a(net_state.c.obj)
                0x000000000002706c                net_state_tx_iv_index_get
 .text.net_state_rx_iv_index_get
                0x0000000000027088       0x18 ../../mesh/lib_51_MBTLE_CORE.a(net_state.c.obj)
                0x0000000000027088                net_state_rx_iv_index_get
 .text.net_state_iv_update_get
                0x00000000000270a0        0xc ../../mesh/lib_51_MBTLE_CORE.a(net_state.c.obj)
                0x00000000000270a0                net_state_iv_update_get
 .text.sd_softdevice_is_enabled
                0x00000000000270ac        0x4 ../../mesh/lib_51_MBTLE_CORE.a(nrf_mesh.c.obj)
 .text.nrf_mesh_init
                0x00000000000270b0       0xb0 ../../mesh/lib_51_MBTLE_CORE.a(nrf_mesh.c.obj)
                0x00000000000270b0                nrf_mesh_init
 .text.nrf_mesh_enable
                0x0000000000027160       0x4c ../../mesh/lib_51_MBTLE_CORE.a(nrf_mesh.c.obj)
                0x0000000000027160                nrf_mesh_enable
 .text.nrf_mesh_disable
                0x00000000000271ac       0x28 ../../mesh/lib_51_MBTLE_CORE.a(nrf_mesh.c.obj)
                0x00000000000271ac                nrf_mesh_disable
 .text.nrf_mesh_packet_send
                0x00000000000271d4       0x54 ../../mesh/lib_51_MBTLE_CORE.a(nrf_mesh.c.obj)
                0x00000000000271d4                nrf_mesh_packet_send
 .text.nrf_mesh_process
                0x0000000000027228      0x23c ../../mesh/lib_51_MBTLE_CORE.a(nrf_mesh.c.obj)
                0x0000000000027228                nrf_mesh_process
 .text.nrf_mesh_on_ble_evt
                0x0000000000027464        0x4 ../../mesh/lib_51_MBTLE_CORE.a(nrf_mesh.c.obj)
                0x0000000000027464                nrf_mesh_on_ble_evt
 .text.nrf_mesh_on_sd_evt
                0x0000000000027468        0xa ../../mesh/lib_51_MBTLE_CORE.a(nrf_mesh.c.obj)
                0x0000000000027468                nrf_mesh_on_sd_evt
 .text.nrf_mesh_evt_handler_add
                0x0000000000027472        0x8 ../../mesh/lib_51_MBTLE_CORE.a(nrf_mesh.c.obj)
                0x0000000000027472                nrf_mesh_evt_handler_add
 .text.nrf_mesh_keygen_aid
                0x000000000002747a       0x1a ../../mesh/lib_51_MBTLE_CORE.a(nrf_mesh_keygen.c.obj)
                0x000000000002747a                nrf_mesh_keygen_aid
 .text.nrf_mesh_keygen_network_secmat
                0x0000000000027494       0x2a ../../mesh/lib_51_MBTLE_CORE.a(nrf_mesh_keygen.c.obj)
                0x0000000000027494                nrf_mesh_keygen_network_secmat
 *fill*         0x00000000000274be        0x2 
 .text.nrf_mesh_keygen_beacon_secmat
                0x00000000000274c0       0x58 ../../mesh/lib_51_MBTLE_CORE.a(nrf_mesh_keygen.c.obj)
                0x00000000000274c0                nrf_mesh_keygen_beacon_secmat
 .text.nrf_mesh_keygen_virtual_address
                0x0000000000027518       0x54 ../../mesh/lib_51_MBTLE_CORE.a(nrf_mesh_keygen.c.obj)
                0x0000000000027518                nrf_mesh_keygen_virtual_address
 .text.nrf_mesh_address_type_get
                0x000000000002756c       0x14 ../../mesh/lib_51_MBTLE_CORE.a(nrf_mesh_utils.c.obj)
                0x000000000002756c                nrf_mesh_address_type_get
 .text.nrf_mesh_gap_address_type_get
                0x0000000000027580       0x48 ../../mesh/lib_51_MBTLE_CORE.a(nrf_mesh_utils.c.obj)
                0x0000000000027580                nrf_mesh_gap_address_type_get
 .text.nrf_mesh_opt_set
                0x00000000000275c8       0x4e ../../mesh/lib_51_MBTLE_CORE.a(nrf_mesh_opt.c.obj)
                0x00000000000275c8                nrf_mesh_opt_set
 *fill*         0x0000000000027616        0x2 
 .text.radio_config_reset
                0x0000000000027618       0x48 ../../mesh/lib_51_MBTLE_CORE.a(radio_config.c.obj)
                0x0000000000027618                radio_config_reset
 .text.radio_config_channel_set
                0x0000000000027660       0x40 ../../mesh/lib_51_MBTLE_CORE.a(radio_config.c.obj)
                0x0000000000027660                radio_config_channel_set
 .text.radio_config_config
                0x00000000000276a0       0xd8 ../../mesh/lib_51_MBTLE_CORE.a(radio_config.c.obj)
                0x00000000000276a0                radio_config_config
 .text.m_index_increment
                0x0000000000027778       0x2c ../../mesh/lib_51_MBTLE_CORE.a(packet_buffer.c.obj)
 .text.m_free_popped_packet
                0x00000000000277a4       0x58 ../../mesh/lib_51_MBTLE_CORE.a(packet_buffer.c.obj)
 .text.m_adjust_desired_packet_length
                0x00000000000277fc       0x34 ../../mesh/lib_51_MBTLE_CORE.a(packet_buffer.c.obj)
 .text.packet_buffer_max_packet_len_get
                0x0000000000027830       0x3c ../../mesh/lib_51_MBTLE_CORE.a(packet_buffer.c.obj)
                0x0000000000027830                packet_buffer_max_packet_len_get
 .text.packet_buffer_init
                0x000000000002786c       0xe0 ../../mesh/lib_51_MBTLE_CORE.a(packet_buffer.c.obj)
                0x000000000002786c                packet_buffer_init
 .text.packet_buffer_reserve
                0x000000000002794c      0x110 ../../mesh/lib_51_MBTLE_CORE.a(packet_buffer.c.obj)
                0x000000000002794c                packet_buffer_reserve
 .text.packet_buffer_commit
                0x0000000000027a5c      0x128 ../../mesh/lib_51_MBTLE_CORE.a(packet_buffer.c.obj)
                0x0000000000027a5c                packet_buffer_commit
 .text.packet_buffer_pop
                0x0000000000027b84       0x84 ../../mesh/lib_51_MBTLE_CORE.a(packet_buffer.c.obj)
                0x0000000000027b84                packet_buffer_pop
 .text.packet_buffer_can_pop
                0x0000000000027c08       0x48 ../../mesh/lib_51_MBTLE_CORE.a(packet_buffer.c.obj)
                0x0000000000027c08                packet_buffer_can_pop
 .text.packet_buffer_free
                0x0000000000027c50       0x9c ../../mesh/lib_51_MBTLE_CORE.a(packet_buffer.c.obj)
                0x0000000000027c50                packet_buffer_free
 .text.sd_rand_application_bytes_available_get
                0x0000000000027cec        0x4 ../../mesh/lib_51_MBTLE_CORE.a(rand.c.obj)
 .text.sd_rand_application_vector_get
                0x0000000000027cf0        0x4 ../../mesh/lib_51_MBTLE_CORE.a(rand.c.obj)
 .text.rand_prng_get
                0x0000000000027cf4       0x2e ../../mesh/lib_51_MBTLE_CORE.a(rand.c.obj)
                0x0000000000027cf4                rand_prng_get
 *fill*         0x0000000000027d22        0x2 
 .text.rand_hw_rng_get
                0x0000000000027d24       0x64 ../../mesh/lib_51_MBTLE_CORE.a(rand.c.obj)
                0x0000000000027d24                rand_hw_rng_get
 .text.rand_prng_seed
                0x0000000000027d88       0x34 ../../mesh/lib_51_MBTLE_CORE.a(rand.c.obj)
                0x0000000000027d88                rand_prng_seed
 .text.timer_cb
                0x0000000000027dbc       0x10 ../../mesh/lib_51_MBTLE_CORE.a(ticker.c.obj)
 .text.ticker_init
                0x0000000000027dcc       0x38 ../../mesh/lib_51_MBTLE_CORE.a(ticker.c.obj)
                0x0000000000027dcc                ticker_init
 .text.packet_mesh_trs_seq_auth_get
                0x0000000000027e04       0x40 ../../mesh/lib_51_MBTLE_CORE.a(transport.c.obj)
 .text.trs_sar_ack_timeout_cb
                0x0000000000027e44       0x18 ../../mesh/lib_51_MBTLE_CORE.a(transport.c.obj)
 .text.trs_sar_tx_timeout_cb
                0x0000000000027e5c        0xc ../../mesh/lib_51_MBTLE_CORE.a(transport.c.obj)
 .text.trs_sar_session_next_timeout_get
                0x0000000000027e68       0x6c ../../mesh/lib_51_MBTLE_CORE.a(transport.c.obj)
 .text.m_send_sar_cancel_event
                0x0000000000027ed4       0x26 ../../mesh/lib_51_MBTLE_CORE.a(transport.c.obj)
 .text.m_send_replay_cache_full_event
                0x0000000000027efa       0x2e ../../mesh/lib_51_MBTLE_CORE.a(transport.c.obj)
 .text.test_transport_decrypt
                0x0000000000027f28       0xa8 ../../mesh/lib_51_MBTLE_CORE.a(transport.c.obj)
 .text.trs_sar_drop_session
                0x0000000000027fd0      0x12c ../../mesh/lib_51_MBTLE_CORE.a(transport.c.obj)
 .text.trs_sar_session_cb
                0x00000000000280fc       0xa8 ../../mesh/lib_51_MBTLE_CORE.a(transport.c.obj)
 .text.trs_sar_pkt_ack
                0x00000000000281a4      0x154 ../../mesh/lib_51_MBTLE_CORE.a(transport.c.obj)
 .text.sar_segment_send
                0x00000000000282f8      0x19c ../../mesh/lib_51_MBTLE_CORE.a(transport.c.obj)
 .text.trs_sar_session_timer_order
                0x0000000000028494       0x34 ../../mesh/lib_51_MBTLE_CORE.a(transport.c.obj)
 .text.trs_sar_pkt_decrypt
                0x00000000000284c8      0x4c4 ../../mesh/lib_51_MBTLE_CORE.a(transport.c.obj)
                0x00000000000284c8                trs_sar_pkt_decrypt
 .text.transport_sar_mem_funcs_reset
                0x000000000002898c       0x2c ../../mesh/lib_51_MBTLE_CORE.a(transport.c.obj)
                0x000000000002898c                transport_sar_mem_funcs_reset
 .text.transport_init
                0x00000000000289b8       0xb8 ../../mesh/lib_51_MBTLE_CORE.a(transport.c.obj)
                0x00000000000289b8                transport_init
 .text.transport_sar_mem_funcs_set
                0x0000000000028a70       0x44 ../../mesh/lib_51_MBTLE_CORE.a(transport.c.obj)
                0x0000000000028a70                transport_sar_mem_funcs_set
 .text.transport_pkt_in
                0x0000000000028ab4     0x1168 ../../mesh/lib_51_MBTLE_CORE.a(transport.c.obj)
                0x0000000000028ab4                transport_pkt_in
 .text.transport_sar_process
                0x0000000000029c1c      0x510 ../../mesh/lib_51_MBTLE_CORE.a(transport.c.obj)
                0x0000000000029c1c                transport_sar_process
 .text.transport_tx
                0x000000000002a12c      0x234 ../../mesh/lib_51_MBTLE_CORE.a(transport.c.obj)
                0x000000000002a12c                transport_tx
 .text.transport_opt_set
                0x000000000002a360       0xdc ../../mesh/lib_51_MBTLE_CORE.a(transport.c.obj)
                0x000000000002a360                transport_opt_set
 .text.transport_seg_maxlen_get
                0x000000000002a43c       0x14 ../../mesh/lib_51_MBTLE_CORE.a(transport.c.obj)
                0x000000000002a43c                transport_seg_maxlen_get
 .text.transport_tx_sar
                0x000000000002a450      0x558 ../../mesh/lib_51_MBTLE_CORE.a(transport.c.obj)
                0x000000000002a450                transport_tx_sar
 .text.transport_unseg_maxlen_get
                0x000000000002a9a8        0x4 ../../mesh/lib_51_MBTLE_CORE.a(transport.c.obj)
                0x000000000002a9a8                transport_unseg_maxlen_get
 .text.internal_event_init
                0x000000000002a9ac       0x44 ../../mesh/lib_51_MBTLE_CORE.a(internal_event.c.obj)
                0x000000000002a9ac                internal_event_init
 .text.internal_event_push
                0x000000000002a9f0       0x34 ../../mesh/lib_51_MBTLE_CORE.a(internal_event.c.obj)
                0x000000000002a9f0                internal_event_push
 .text.flash_area_is_blank
                0x000000000002aa24       0x60 ../../mesh/lib_51_MBTLE_CORE.a(flash_manager.c.obj)
 .text.free_packet_buffer
                0x000000000002aa84       0x58 ../../mesh/lib_51_MBTLE_CORE.a(flash_manager.c.obj)
 .text.reserve_action_buffer
                0x000000000002aadc       0x28 ../../mesh/lib_51_MBTLE_CORE.a(flash_manager.c.obj)
 .text.get_last_entry
                0x000000000002ab04       0x7c ../../mesh/lib_51_MBTLE_CORE.a(flash_manager.c.obj)
 .text.process_action_queue
                0x000000000002ab80      0x740 ../../mesh/lib_51_MBTLE_CORE.a(flash_manager.c.obj)
 .text.flash_op_ended_callback
                0x000000000002b2c0       0x28 ../../mesh/lib_51_MBTLE_CORE.a(flash_manager.c.obj)
 .text.flash_manager_init
                0x000000000002b2e8       0x6c ../../mesh/lib_51_MBTLE_CORE.a(flash_manager.c.obj)
                0x000000000002b2e8                flash_manager_init
 .text.flash_manager_remove
                0x000000000002b354       0x60 ../../mesh/lib_51_MBTLE_CORE.a(flash_manager.c.obj)
                0x000000000002b354                flash_manager_remove
 .text.flash_manager_entry_next_get
                0x000000000002b3b4      0x140 ../../mesh/lib_51_MBTLE_CORE.a(flash_manager.c.obj)
                0x000000000002b3b4                flash_manager_entry_next_get
 .text.flash_manager_entry_alloc
                0x000000000002b4f4       0x8c ../../mesh/lib_51_MBTLE_CORE.a(flash_manager.c.obj)
                0x000000000002b4f4                flash_manager_entry_alloc
 .text.flash_manager_entry_commit
                0x000000000002b580       0x6c ../../mesh/lib_51_MBTLE_CORE.a(flash_manager.c.obj)
                0x000000000002b580                flash_manager_entry_commit
 .text.flash_manager_entry_invalidate
                0x000000000002b5ec       0xa4 ../../mesh/lib_51_MBTLE_CORE.a(flash_manager.c.obj)
                0x000000000002b5ec                flash_manager_entry_invalidate
 .text.flash_manager_add
                0x000000000002b690      0x3b8 ../../mesh/lib_51_MBTLE_CORE.a(flash_manager.c.obj)
                0x000000000002b690                flash_manager_add
 .text.flash_manager_mem_listener_register
                0x000000000002ba48       0x4c ../../mesh/lib_51_MBTLE_CORE.a(flash_manager.c.obj)
                0x000000000002ba48                flash_manager_mem_listener_register
 .text.flash_manager_is_stable
                0x000000000002ba94       0x24 ../../mesh/lib_51_MBTLE_CORE.a(flash_manager.c.obj)
                0x000000000002ba94                flash_manager_is_stable
 .text.flash_manager_on_defrag_end
                0x000000000002bab8       0x68 ../../mesh/lib_51_MBTLE_CORE.a(flash_manager.c.obj)
                0x000000000002bab8                flash_manager_on_defrag_end
 .text.flash_manager_recovery_page_get
                0x000000000002bb20        0x8 ../../mesh/lib_51_MBTLE_CORE.a(flash_manager.c.obj)
                0x000000000002bb20                flash_manager_recovery_page_get
 .text.defrag_on_end
                0x000000000002bb28       0x1c ../../mesh/lib_51_MBTLE_CORE.a(flash_manager_defrag.c.obj)
 .text.execute_procedure_step
                0x000000000002bb44       0xc0 ../../mesh/lib_51_MBTLE_CORE.a(flash_manager_defrag.c.obj)
 .text.on_flash_op_end
                0x000000000002bc04       0x40 ../../mesh/lib_51_MBTLE_CORE.a(flash_manager_defrag.c.obj)
 .text.erase_source
                0x000000000002bc44       0x30 ../../mesh/lib_51_MBTLE_CORE.a(flash_manager_defrag.c.obj)
 .text.erase_recovery_area
                0x000000000002bc74       0x30 ../../mesh/lib_51_MBTLE_CORE.a(flash_manager_defrag.c.obj)
 .text.post_process
                0x000000000002bca4       0x6c ../../mesh/lib_51_MBTLE_CORE.a(flash_manager_defrag.c.obj)
 .text.write_back
                0x000000000002bd10       0x48 ../../mesh/lib_51_MBTLE_CORE.a(flash_manager_defrag.c.obj)
 .text.write_defrag_start_pointer
                0x000000000002bd58       0x38 ../../mesh/lib_51_MBTLE_CORE.a(flash_manager_defrag.c.obj)
 .text.copy_metadata
                0x000000000002bd90       0x5c ../../mesh/lib_51_MBTLE_CORE.a(flash_manager_defrag.c.obj)
 .text.seal_storage_page
                0x000000000002bdec       0x7c ../../mesh/lib_51_MBTLE_CORE.a(flash_manager_defrag.c.obj)
 .text.check_for_invalid_entries
                0x000000000002be68       0x50 ../../mesh/lib_51_MBTLE_CORE.a(flash_manager_defrag.c.obj)
 .text.invalidate_duplicate_entries
                0x000000000002beb8      0x174 ../../mesh/lib_51_MBTLE_CORE.a(flash_manager_defrag.c.obj)
 .text.backup_entries
                0x000000000002c02c      0x214 ../../mesh/lib_51_MBTLE_CORE.a(flash_manager_defrag.c.obj)
 .text.flash_manager_defrag_init
                0x000000000002c240       0xa8 ../../mesh/lib_51_MBTLE_CORE.a(flash_manager_defrag.c.obj)
                0x000000000002c240                flash_manager_defrag_init
 .text.flash_manager_defrag_is_running
                0x000000000002c2e8       0x10 ../../mesh/lib_51_MBTLE_CORE.a(flash_manager_defrag.c.obj)
                0x000000000002c2e8                flash_manager_defrag_is_running
 .text.flash_manager_defrag
                0x000000000002c2f8       0xec ../../mesh/lib_51_MBTLE_CORE.a(flash_manager_defrag.c.obj)
                0x000000000002c2f8                flash_manager_defrag
 .text.flash_manager_defrag_recovery_page_get
                0x000000000002c3e4        0xc ../../mesh/lib_51_MBTLE_CORE.a(flash_manager_defrag.c.obj)
                0x000000000002c3e4                flash_manager_defrag_recovery_page_get
 .text.entry_get
                0x000000000002c3f0       0x9c ../../mesh/lib_51_MBTLE_CORE.a(flash_manager_internal.c.obj)
                0x000000000002c3f0                entry_get
 .text.sd_ecb_block_encrypt
                0x000000000002c48c        0x4 ../../mesh/lib_51_MBTLE_CORE.a(aes.c.obj)
 .text.aes_encrypt
                0x000000000002c490       0x78 ../../mesh/lib_51_MBTLE_CORE.a(aes.c.obj)
                0x000000000002c490                aes_encrypt
 .text.queue_init
                0x000000000002c508       0x24 ../../mesh/lib_51_MBTLE_CORE.a(queue.c.obj)
                0x000000000002c508                queue_init
 .text.queue_push
                0x000000000002c52c       0x58 ../../mesh/lib_51_MBTLE_CORE.a(queue.c.obj)
                0x000000000002c52c                queue_push
 .text.queue_pop
                0x000000000002c584       0x40 ../../mesh/lib_51_MBTLE_CORE.a(queue.c.obj)
                0x000000000002c584                queue_pop
 .text.sd_radio_session_open
                0x000000000002c5c4        0x4 ../../mesh/lib_51_MBTLE_CORE.a(timeslot.c.obj)
 .text.sd_radio_session_close
                0x000000000002c5c8        0x4 ../../mesh/lib_51_MBTLE_CORE.a(timeslot.c.obj)
 .text.sd_radio_request
                0x000000000002c5cc        0x4 ../../mesh/lib_51_MBTLE_CORE.a(timeslot.c.obj)
 .text.ts_order_earliest
                0x000000000002c5d0       0x38 ../../mesh/lib_51_MBTLE_CORE.a(timeslot.c.obj)
 .text.ts_extend
                0x000000000002c608       0x30 ../../mesh/lib_51_MBTLE_CORE.a(timeslot.c.obj)
 .text.end_timer_handler
                0x000000000002c638        0xc ../../mesh/lib_51_MBTLE_CORE.a(timeslot.c.obj)
 .text.start_time_update
                0x000000000002c644       0x84 ../../mesh/lib_51_MBTLE_CORE.a(timeslot.c.obj)
                0x000000000002c644                start_time_update
 .text.timeslot_sd_event_handler
                0x000000000002c6c8       0x58 ../../mesh/lib_51_MBTLE_CORE.a(timeslot.c.obj)
                0x000000000002c6c8                timeslot_sd_event_handler
 .text.timeslot_init
                0x000000000002c720       0x94 ../../mesh/lib_51_MBTLE_CORE.a(timeslot.c.obj)
                0x000000000002c720                timeslot_init
 .text.timeslot_stop
                0x000000000002c7b4       0x50 ../../mesh/lib_51_MBTLE_CORE.a(timeslot.c.obj)
                0x000000000002c7b4                timeslot_stop
 .text.timeslot_resume
                0x000000000002c804       0x4c ../../mesh/lib_51_MBTLE_CORE.a(timeslot.c.obj)
                0x000000000002c804                timeslot_resume
 .text.timeslot_end_time_get
                0x000000000002c850       0x24 ../../mesh/lib_51_MBTLE_CORE.a(timeslot.c.obj)
                0x000000000002c850                timeslot_end_time_get
 .text.timeslot_end
                0x000000000002c874       0x80 ../../mesh/lib_51_MBTLE_CORE.a(timeslot.c.obj)
 .text.timeslot_remaining_time_get
                0x000000000002c8f4       0x34 ../../mesh/lib_51_MBTLE_CORE.a(timeslot.c.obj)
                0x000000000002c8f4                timeslot_remaining_time_get
 .text.radio_signal_callback
                0x000000000002c928      0x1f0 ../../mesh/lib_51_MBTLE_CORE.a(timeslot.c.obj)
 .text.aes_cmac_subkey_generate
                0x000000000002cb18       0xac ../../mesh/lib_51_MBTLE_CORE.a(aes_cmac.c.obj)
                0x000000000002cb18                aes_cmac_subkey_generate
 .text.aes_cmac
                0x000000000002cbc4       0xf4 ../../mesh/lib_51_MBTLE_CORE.a(aes_cmac.c.obj)
                0x000000000002cbc4                aes_cmac
 .text.ccm_soft_crypt
                0x000000000002ccb8       0xa2 ../../mesh/lib_51_MBTLE_CORE.a(ccm_soft.c.obj)
 .text.ccm_soft_authenticate_blocks
                0x000000000002cd5a       0x86 ../../mesh/lib_51_MBTLE_CORE.a(ccm_soft.c.obj)
 .text.ccm_soft_authenticate
                0x000000000002cde0       0x8c ../../mesh/lib_51_MBTLE_CORE.a(ccm_soft.c.obj)
 .text.ccm_soft_encrypt
                0x000000000002ce6c       0x8a ../../mesh/lib_51_MBTLE_CORE.a(ccm_soft.c.obj)
                0x000000000002ce6c                ccm_soft_encrypt
 .text.ccm_soft_decrypt
                0x000000000002cef6      0x166 ../../mesh/lib_51_MBTLE_CORE.a(ccm_soft.c.obj)
                0x000000000002cef6                ccm_soft_decrypt
 .text.msg_cache_init
                0x000000000002d05c       0x38 ../../mesh/lib_51_MBTLE_CORE.a(msg_cache.c.obj)
                0x000000000002d05c                msg_cache_init
 .text.msg_cache_entry_exists
                0x000000000002d094       0xa8 ../../mesh/lib_51_MBTLE_CORE.a(msg_cache.c.obj)
                0x000000000002d094                msg_cache_entry_exists
 .text.msg_cache_entry_add
                0x000000000002d13c       0x40 ../../mesh/lib_51_MBTLE_CORE.a(msg_cache.c.obj)
                0x000000000002d13c                msg_cache_entry_add
 .text.header_transfuscate
                0x000000000002d17c       0x58 ../../mesh/lib_51_MBTLE_CORE.a(network.c.obj)
 .text.network_pkt_encrypt
                0x000000000002d1d4       0x7a ../../mesh/lib_51_MBTLE_CORE.a(network.c.obj)
 *fill*         0x000000000002d24e        0x2 
 .text.network_pkt_relay
                0x000000000002d250      0x1e0 ../../mesh/lib_51_MBTLE_CORE.a(network.c.obj)
                0x000000000002d250                network_pkt_relay
 .text.network_init
                0x000000000002d430       0x3c ../../mesh/lib_51_MBTLE_CORE.a(network.c.obj)
                0x000000000002d430                network_init
 .text.network_opt_set
                0x000000000002d46c       0x4c ../../mesh/lib_51_MBTLE_CORE.a(network.c.obj)
                0x000000000002d46c                network_opt_set
 .text.network_pkt_out
                0x000000000002d4b8      0x170 ../../mesh/lib_51_MBTLE_CORE.a(network.c.obj)
                0x000000000002d4b8                network_pkt_out
 .text.network_pkt_in
                0x000000000002d628      0x3d4 ../../mesh/lib_51_MBTLE_CORE.a(network.c.obj)
                0x000000000002d628                network_pkt_in
 .text.packet_type_packet_get
                0x000000000002d9fc       0x60 ../../mesh/lib_51_MBTLE_CORE.a(packet.c.obj)
                0x000000000002d9fc                packet_type_packet_get
 .text.replay_cache_add
                0x000000000002da5c       0x98 ../../mesh/lib_51_MBTLE_CORE.a(replay_cache.c.obj)
                0x000000000002da5c                replay_cache_add
 .text.replay_cache_has_room
                0x000000000002daf4       0x44 ../../mesh/lib_51_MBTLE_CORE.a(replay_cache.c.obj)
                0x000000000002daf4                replay_cache_has_room
 .text.replay_cache_has_elem
                0x000000000002db38       0x48 ../../mesh/lib_51_MBTLE_CORE.a(replay_cache.c.obj)
                0x000000000002db38                replay_cache_has_elem
 .text.replay_cache_clear
                0x000000000002db80       0x28 ../../mesh/lib_51_MBTLE_CORE.a(replay_cache.c.obj)
                0x000000000002db80                replay_cache_clear
 .text.replay_cache_init
                0x000000000002dba8        0x8 ../../mesh/lib_51_MBTLE_CORE.a(replay_cache.c.obj)
                0x000000000002dba8                replay_cache_init
 .text.send_end_events
                0x000000000002dbb0       0x88 ../../mesh/lib_51_MBTLE_CORE.a(mesh_flash.c.obj)
 .text.mesh_flash_init
                0x000000000002dc38       0x90 ../../mesh/lib_51_MBTLE_CORE.a(mesh_flash.c.obj)
                0x000000000002dc38                mesh_flash_init
 .text.mesh_flash_user_callback_set
                0x000000000002dcc8       0x30 ../../mesh/lib_51_MBTLE_CORE.a(mesh_flash.c.obj)
                0x000000000002dcc8                mesh_flash_user_callback_set
 .text.mesh_flash_op_push
                0x000000000002dcf8      0x168 ../../mesh/lib_51_MBTLE_CORE.a(mesh_flash.c.obj)
                0x000000000002dcf8                mesh_flash_op_push
 .text.mesh_flash_op_execute
                0x000000000002de60      0x1d0 ../../mesh/lib_51_MBTLE_CORE.a(mesh_flash.c.obj)
                0x000000000002de60                mesh_flash_op_execute
 .text.nrf_flash_erase
                0x000000000002e030       0x78 ../../mesh/lib_51_MBTLE_CORE.a(nrf_flash.c.obj)
                0x000000000002e030                nrf_flash_erase
 .text.nrf_flash_write
                0x000000000002e0a8       0x78 ../../mesh/lib_51_MBTLE_CORE.a(nrf_flash.c.obj)
                0x000000000002e0a8                nrf_flash_write
 .text.msq_get  0x000000000002e120       0x7c ../../mesh/lib_51_MBTLE_CORE.a(msqueue.c.obj)
                0x000000000002e120                msq_get
 .text.msq_move
                0x000000000002e19c       0x70 ../../mesh/lib_51_MBTLE_CORE.a(msqueue.c.obj)
                0x000000000002e19c                msq_move
 .text.msq_reset
                0x000000000002e20c       0x34 ../../mesh/lib_51_MBTLE_CORE.a(msqueue.c.obj)
                0x000000000002e20c                msq_reset
 .text.msq_init
                0x000000000002e240       0x8c ../../mesh/lib_51_MBTLE_CORE.a(msqueue.c.obj)
                0x000000000002e240                msq_init
 .text.msq_available
                0x000000000002e2cc       0x60 ../../mesh/lib_51_MBTLE_CORE.a(msqueue.c.obj)
                0x000000000002e2cc                msq_available
 .text.uECC_vli_add
                0x000000000002e32c       0x4a ../../lib/micro-ecc/lib_51_UECC_LIB.a(uECC.c.obj)
 .text.uECC_vli_sub
                0x000000000002e376       0x4c ../../lib/micro-ecc/lib_51_UECC_LIB.a(uECC.c.obj)
 .text.uECC_vli_mult
                0x000000000002e3c2       0x90 ../../lib/micro-ecc/lib_51_UECC_LIB.a(uECC.c.obj)
 .text.uECC_vli_clear
                0x000000000002e452       0x1a ../../lib/micro-ecc/lib_51_UECC_LIB.a(uECC.c.obj)
 .text.uECC_vli_isZero
                0x000000000002e46c       0x24 ../../lib/micro-ecc/lib_51_UECC_LIB.a(uECC.c.obj)
 .text.uECC_vli_testBit
                0x000000000002e490       0x12 ../../lib/micro-ecc/lib_51_UECC_LIB.a(uECC.c.obj)
 *fill*         0x000000000002e4a2        0x2 
 .text.uECC_vli_numBits
                0x000000000002e4a4       0x54 ../../lib/micro-ecc/lib_51_UECC_LIB.a(uECC.c.obj)
 .text.uECC_vli_set
                0x000000000002e4f8       0x1c ../../lib/micro-ecc/lib_51_UECC_LIB.a(uECC.c.obj)
 .text.uECC_vli_cmp_unsafe
                0x000000000002e514       0x46 ../../lib/micro-ecc/lib_51_UECC_LIB.a(uECC.c.obj)
 .text.uECC_vli_cmp
                0x000000000002e55a       0x2c ../../lib/micro-ecc/lib_51_UECC_LIB.a(uECC.c.obj)
 .text.uECC_vli_rshift1
                0x000000000002e586       0x2c ../../lib/micro-ecc/lib_51_UECC_LIB.a(uECC.c.obj)
 .text.uECC_vli_modAdd
                0x000000000002e5b2       0x32 ../../lib/micro-ecc/lib_51_UECC_LIB.a(uECC.c.obj)
 .text.uECC_vli_modSub
                0x000000000002e5e4       0x26 ../../lib/micro-ecc/lib_51_UECC_LIB.a(uECC.c.obj)
 .text.uECC_vli_modMult_fast
                0x000000000002e60a       0x20 ../../lib/micro-ecc/lib_51_UECC_LIB.a(uECC.c.obj)
 .text.uECC_vli_modSquare_fast
                0x000000000002e62a        0xc ../../lib/micro-ecc/lib_51_UECC_LIB.a(uECC.c.obj)
 *fill*         0x000000000002e636        0x2 
 .text.vli_modInv_update
                0x000000000002e638       0x48 ../../lib/micro-ecc/lib_51_UECC_LIB.a(uECC.c.obj)
 .text.uECC_vli_modInv
                0x000000000002e680      0x134 ../../lib/micro-ecc/lib_51_UECC_LIB.a(uECC.c.obj)
 .text.double_jacobian_default
                0x000000000002e7b4      0x168 ../../lib/micro-ecc/lib_51_UECC_LIB.a(uECC.c.obj)
 .text.x_side_default
                0x000000000002e91c       0x58 ../../lib/micro-ecc/lib_51_UECC_LIB.a(uECC.c.obj)
 .text.vli_mmod_fast_secp256r1
                0x000000000002e974      0x1bc ../../lib/micro-ecc/lib_51_UECC_LIB.a(uECC.c.obj)
 .text.apply_z  0x000000000002eb30       0x3e ../../lib/micro-ecc/lib_51_UECC_LIB.a(uECC.c.obj)
 .text.XYcZ_add
                0x000000000002eb6e       0xcc ../../lib/micro-ecc/lib_51_UECC_LIB.a(uECC.c.obj)
 .text.XYcZ_addC
                0x000000000002ec3a      0x11c ../../lib/micro-ecc/lib_51_UECC_LIB.a(uECC.c.obj)
 .text.EccPoint_mult
                0x000000000002ed56      0x1cc ../../lib/micro-ecc/lib_51_UECC_LIB.a(uECC.c.obj)
 .text.regularize_k
                0x000000000002ef22       0x60 ../../lib/micro-ecc/lib_51_UECC_LIB.a(uECC.c.obj)
 .text.EccPoint_compute_public_key
                0x000000000002ef82       0x4c ../../lib/micro-ecc/lib_51_UECC_LIB.a(uECC.c.obj)
 .text.uECC_vli_nativeToBytes
                0x000000000002efce       0x2a ../../lib/micro-ecc/lib_51_UECC_LIB.a(uECC.c.obj)
 .text.uECC_vli_bytesToNative
                0x000000000002eff8       0x56 ../../lib/micro-ecc/lib_51_UECC_LIB.a(uECC.c.obj)
 *fill*         0x000000000002f04e        0x2 
 .text.uECC_generate_random_int
                0x000000000002f050       0x84 ../../lib/micro-ecc/lib_51_UECC_LIB.a(uECC.c.obj)
 .text.default_RNG
                0x000000000002f0d4        0xc ../../lib/micro-ecc/lib_51_UECC_LIB.a(uECC.c.obj)
 .text.uECC_secp256r1
                0x000000000002f0e0        0x8 ../../lib/micro-ecc/lib_51_UECC_LIB.a(uECC.c.obj)
                0x000000000002f0e0                uECC_secp256r1
 .text.uECC_make_key
                0x000000000002f0e8       0x88 ../../lib/micro-ecc/lib_51_UECC_LIB.a(uECC.c.obj)
                0x000000000002f0e8                uECC_make_key
 .text.uECC_shared_secret
                0x000000000002f170       0xc8 ../../lib/micro-ecc/lib_51_UECC_LIB.a(uECC.c.obj)
                0x000000000002f170                uECC_shared_secret
 .text.uECC_valid_point
                0x000000000002f238       0x92 ../../lib/micro-ecc/lib_51_UECC_LIB.a(uECC.c.obj)
                0x000000000002f238                uECC_valid_point
 .text.uECC_valid_public_key
                0x000000000002f2ca       0x32 ../../lib/micro-ecc/lib_51_UECC_LIB.a(uECC.c.obj)
                0x000000000002f2ca                uECC_valid_public_key
 .text._GetAvailWriteSpace
                0x000000000002f2fc       0x18 ../../lib/rtt/lib_51_RTT_LIB.a(SEGGER_RTT.c.obj)
 .text._WriteNoCheck
                0x000000000002f314       0x3a ../../lib/rtt/lib_51_RTT_LIB.a(SEGGER_RTT.c.obj)
 .text._WriteBlocking
                0x000000000002f34e       0x6c ../../lib/rtt/lib_51_RTT_LIB.a(SEGGER_RTT.c.obj)
 *fill*         0x000000000002f3ba        0x2 
 .text._DoInit  0x000000000002f3bc       0x60 ../../lib/rtt/lib_51_RTT_LIB.a(SEGGER_RTT.c.obj)
 .text.SEGGER_RTT_WriteNoLock
                0x000000000002f41c       0x70 ../../lib/rtt/lib_51_RTT_LIB.a(SEGGER_RTT.c.obj)
                0x000000000002f41c                SEGGER_RTT_WriteNoLock
 .text.SEGGER_RTT_Write
                0x000000000002f48c       0x34 ../../lib/rtt/lib_51_RTT_LIB.a(SEGGER_RTT.c.obj)
                0x000000000002f48c                SEGGER_RTT_Write
 .text._StoreChar
                0x000000000002f4c0       0x40 ../../lib/rtt/lib_51_RTT_LIB.a(SEGGER_RTT_printf.c.obj)
 .text._PrintUnsigned
                0x000000000002f500      0x114 ../../lib/rtt/lib_51_RTT_LIB.a(SEGGER_RTT_printf.c.obj)
 .text.SEGGER_RTT_vprintf
                0x000000000002f614      0x2ee ../../lib/rtt/lib_51_RTT_LIB.a(SEGGER_RTT_printf.c.obj)
                0x000000000002f614                SEGGER_RTT_vprintf
 .text.SEGGER_RTT_printf
                0x000000000002f902       0x1a ../../lib/rtt/lib_51_RTT_LIB.a(SEGGER_RTT_printf.c.obj)
                0x000000000002f902                SEGGER_RTT_printf
 .text          0x000000000002f91c      0x114 /usr/bin/../lib/gcc/arm-none-eabi/6.3.1/thumb/v6-m/libgcc.a(_udivsi3.o)
                0x000000000002f91c                __udivsi3
                0x000000000002f91c                __aeabi_uidiv
                0x000000000002fa28                __aeabi_uidivmod
 .text          0x000000000002fa30      0x1d4 /usr/bin/../lib/gcc/arm-none-eabi/6.3.1/thumb/v6-m/libgcc.a(_divsi3.o)
                0x000000000002fa30                __aeabi_idiv
                0x000000000002fa30                __divsi3
                0x000000000002fbfc                __aeabi_idivmod
 .text          0x000000000002fc04        0x4 /usr/bin/../lib/gcc/arm-none-eabi/6.3.1/thumb/v6-m/libgcc.a(_dvmd_tls.o)
                0x000000000002fc04                __aeabi_ldiv0
                0x000000000002fc04                __aeabi_idiv0
 .text          0x000000000002fc08       0x54 /usr/bin/../lib/gcc/arm-none-eabi/6.3.1/thumb/v6-m/libgcc.a(_muldi3.o)
                0x000000000002fc08                __aeabi_lmul
                0x000000000002fc08                __muldi3
 .text.exit     0x000000000002fc5c       0x2c /usr/bin/../lib/gcc/arm-none-eabi/6.3.1/../../../../arm-none-eabi/lib/thumb/v6-m/libg_nano.a(lib_a-exit.o)
                0x000000000002fc5c                exit
 .text.__libc_init_array
                0x000000000002fc88       0x48 /usr/bin/../lib/gcc/arm-none-eabi/6.3.1/../../../../arm-none-eabi/lib/thumb/v6-m/libg_nano.a(lib_a-init.o)
                0x000000000002fc88                __libc_init_array
 .text.malloc   0x000000000002fcd0       0x14 /usr/bin/../lib/gcc/arm-none-eabi/6.3.1/../../../../arm-none-eabi/lib/thumb/v6-m/libg_nano.a(lib_a-malloc.o)
                0x000000000002fcd0                malloc
 .text.free     0x000000000002fce4       0x14 /usr/bin/../lib/gcc/arm-none-eabi/6.3.1/../../../../arm-none-eabi/lib/thumb/v6-m/libg_nano.a(lib_a-malloc.o)
                0x000000000002fce4                free
 .text.memcmp   0x000000000002fcf8       0x1e /usr/bin/../lib/gcc/arm-none-eabi/6.3.1/../../../../arm-none-eabi/lib/thumb/v6-m/libg_nano.a(lib_a-memcmp.o)
                0x000000000002fcf8                memcmp
 .text.memcpy   0x000000000002fd16       0x12 /usr/bin/../lib/gcc/arm-none-eabi/6.3.1/../../../../arm-none-eabi/lib/thumb/v6-m/libg_nano.a(lib_a-memcpy-stub.o)
                0x000000000002fd16                memcpy
 .text.memset   0x000000000002fd28       0x10 /usr/bin/../lib/gcc/arm-none-eabi/6.3.1/../../../../arm-none-eabi/lib/thumb/v6-m/libg_nano.a(lib_a-memset.o)
                0x000000000002fd28                memset
 .text._free_r  0x000000000002fd38       0x94 /usr/bin/../lib/gcc/arm-none-eabi/6.3.1/../../../../arm-none-eabi/lib/thumb/v6-m/libg_nano.a(lib_a-nano-freer.o)
                0x000000000002fd38                _free_r
 .text._malloc_r
                0x000000000002fdcc       0xbc /usr/bin/../lib/gcc/arm-none-eabi/6.3.1/../../../../arm-none-eabi/lib/thumb/v6-m/libg_nano.a(lib_a-nano-mallocr.o)
                0x000000000002fdcc                _malloc_r
 .text._sbrk_r  0x000000000002fe88       0x24 /usr/bin/../lib/gcc/arm-none-eabi/6.3.1/../../../../arm-none-eabi/lib/thumb/v6-m/libg_nano.a(lib_a-sbrkr.o)
                0x000000000002fe88                _sbrk_r
 .text.strcpy   0x000000000002feac       0x10 /usr/bin/../lib/gcc/arm-none-eabi/6.3.1/../../../../arm-none-eabi/lib/thumb/v6-m/libg_nano.a(lib_a-strcpy.o)
                0x000000000002feac                strcpy
 .text          0x000000000002febc        0xe /usr/bin/../lib/gcc/arm-none-eabi/6.3.1/../../../../arm-none-eabi/lib/thumb/v6-m/libg_nano.a(lib_a-strlen.o)
                0x000000000002febc                strlen
 .text.strrchr  0x000000000002feca       0x24 /usr/bin/../lib/gcc/arm-none-eabi/6.3.1/../../../../arm-none-eabi/lib/thumb/v6-m/libg_nano.a(lib_a-strrchr.o)
                0x000000000002feca                strrchr
 .text.__malloc_lock
                0x000000000002feee        0x2 /usr/bin/../lib/gcc/arm-none-eabi/6.3.1/../../../../arm-none-eabi/lib/thumb/v6-m/libg_nano.a(lib_a-mlock.o)
                0x000000000002feee                __malloc_lock
 .text.__malloc_unlock
                0x000000000002fef0        0x2 /usr/bin/../lib/gcc/arm-none-eabi/6.3.1/../../../../arm-none-eabi/lib/thumb/v6-m/libg_nano.a(lib_a-mlock.o)
                0x000000000002fef0                __malloc_unlock
 .text.strchr   0x000000000002fef2       0x1c /usr/bin/../lib/gcc/arm-none-eabi/6.3.1/../../../../arm-none-eabi/lib/thumb/v6-m/libg_nano.a(lib_a-strchr.o)
                0x000000000002fef2                strchr
 *fill*         0x000000000002ff0e        0x2 
 .text._sbrk    0x000000000002ff10       0x1c /usr/bin/../lib/gcc/arm-none-eabi/6.3.1/../../../../arm-none-eabi/lib/thumb/v6-m/libnosys.a(sbrk.o)
                0x000000000002ff10                _sbrk
 .text._exit    0x000000000002ff2c        0x4 /usr/bin/../lib/gcc/arm-none-eabi/6.3.1/../../../../arm-none-eabi/lib/thumb/v6-m/libnosys.a(_exit.o)
                0x000000000002ff2c                _exit
 *(.init)
 .init          0x000000000002ff30        0x4 /usr/bin/../lib/gcc/arm-none-eabi/6.3.1/thumb/v6-m/crti.o
                0x000000000002ff30                _init
 .init          0x000000000002ff34        0x8 /usr/bin/../lib/gcc/arm-none-eabi/6.3.1/thumb/v6-m/crtn.o
 *(.fini)
 .fini          0x000000000002ff3c        0x4 /usr/bin/../lib/gcc/arm-none-eabi/6.3.1/thumb/v6-m/crti.o
                0x000000000002ff3c                _fini
 .fini          0x000000000002ff40        0x8 /usr/bin/../lib/gcc/arm-none-eabi/6.3.1/thumb/v6-m/crtn.o
 *crtbegin.o(.ctors)
 *crtbegin?.o(.ctors)
 *(EXCLUDE_FILE(*crtend.o *crtend?.o) .ctors)
 *(SORT(.ctors.*))
 *(.ctors)
 *crtbegin.o(.dtors)
 *crtbegin?.o(.dtors)
 *(EXCLUDE_FILE(*crtend.o *crtend?.o) .dtors)
 *(SORT(.dtors.*))
 *(.dtors)
 *(.rodata*)
 .rodata.main.str1.4
                0x000000000002ff48      0x116 CMakeFiles/51_serial.dir/src/main.c.obj
 *fill*         0x000000000003005e        0x2 
 .rodata.HardFault_Handler.str1.4
                0x0000000000030060        0xe CMakeFiles/51_serial.dir/__/nrf_mesh_sdk.c.obj
 *fill*         0x000000000003006e        0x2 
 .rodata.app_error_handler.str1.4
                0x0000000000030070       0x1d CMakeFiles/51_serial.dir/__/nrf_mesh_sdk.c.obj
 *fill*         0x000000000003008d        0x3 
 .rodata.mesh_assert_handler.str1.4
                0x0000000000030090       0x19 CMakeFiles/51_serial.dir/__/nrf_mesh_sdk.c.obj
 *fill*         0x00000000000300a9        0x3 
 .rodata.mesh_softdevice_enable.str1.4
                0x00000000000300ac       0x65 CMakeFiles/51_serial.dir/__/nrf_mesh_sdk.c.obj
 *fill*         0x0000000000030111        0x3 
 .rodata.softdevice_assert_handler.str1.4
                0x0000000000030114       0x65 CMakeFiles/51_serial.dir/__/nrf_mesh_sdk.c.obj
 *fill*         0x0000000000030179        0x3 
 .rodata.mesh_evt_cb.str1.4
                0x000000000003017c       0x13 CMakeFiles/51_serial.dir/__/__/mesh/src/access/access.c.obj
 *fill*         0x000000000003018f        0x1 
 .rodata.packet_tx.str1.4
                0x0000000000030190       0x5b CMakeFiles/51_serial.dir/__/__/mesh/src/access/access.c.obj
 *fill*         0x00000000000301eb        0x1 
 .rodata.m_flash_groups
                0x00000000000301ec       0xc0 CMakeFiles/51_serial.dir/__/__/mesh/src/access/device_state_manager.c.obj
 .rodata.m_cmd_handlers
                0x00000000000302ac       0x48 CMakeFiles/51_serial.dir/__/__/mesh/src/serial/serial.c.obj
 .rodata.serial_process_cmd.str1.4
                0x00000000000302f4       0x17 CMakeFiles/51_serial.dir/__/__/mesh/src/serial/serial.c.obj
 *fill*         0x000000000003030b        0x1 
 .rodata.serial_start.str1.4
                0x000000000003030c       0x92 CMakeFiles/51_serial.dir/__/__/mesh/src/serial/serial.c.obj
 *fill*         0x000000000003039e        0x2 
 .rodata.m_cmd_handlers
                0x00000000000303a0       0xb0 CMakeFiles/51_serial.dir/__/__/mesh/src/serial/serial_handler_access.c.obj
 .rodata.serial_handler_config_rx
                0x0000000000030450       0x54 CMakeFiles/51_serial.dir/__/__/mesh/src/serial/serial_handler_config.c.obj
 .rodata.m_cmd_handlers
                0x00000000000304a4       0x48 CMakeFiles/51_serial.dir/__/__/mesh/src/serial/serial_handler_device.c.obj
 .rodata.serial_handler_mesh_evt_handle
                0x00000000000304ec       0x1c CMakeFiles/51_serial.dir/__/__/mesh/src/serial/serial_handler_dfu.c.obj
 .rodata.serial_handler_dfu_rx
                0x0000000000030508       0x1c CMakeFiles/51_serial.dir/__/__/mesh/src/serial/serial_handler_dfu.c.obj
 .rodata.lengths.8474
                0x0000000000030524        0x7 CMakeFiles/51_serial.dir/__/__/mesh/src/serial/serial_handler_dfu.c.obj
 *fill*         0x000000000003052b        0x1 
 .rodata.m_handlers
                0x000000000003052c       0xe8 CMakeFiles/51_serial.dir/__/__/mesh/src/serial/serial_handler_mesh.c.obj
 .rodata.m_cmd_handlers
                0x0000000000030614       0x18 CMakeFiles/51_serial.dir/__/__/mesh/src/serial/serial_handler_models.c.obj
 .rodata.serial_handler_prov_evt_in
                0x000000000003062c       0x2c CMakeFiles/51_serial.dir/__/__/mesh/src/serial/serial_handler_prov.c.obj
 .rodata.serial_handler_prov_pkt_in
                0x0000000000030658       0x28 CMakeFiles/51_serial.dir/__/__/mesh/src/serial/serial_handler_prov.c.obj
 .rodata.serial_handler_prov_init.str1.4
                0x0000000000030680       0x7a CMakeFiles/51_serial.dir/__/__/mesh/src/serial/serial_handler_prov.c.obj
 *fill*         0x00000000000306fa        0x2 
 .rodata.pdu_sizes.8302
                0x00000000000306fc        0xa CMakeFiles/51_serial.dir/__/__/mesh/src/prov/provisioning.c.obj
 *fill*         0x0000000000030706        0x2 
 .rodata.prov_cb_pkt_in.str1.4
                0x0000000000030708       0x60 CMakeFiles/51_serial.dir/__/__/mesh/src/prov/provisioning.c.obj
 .rodata.add_active_bearer.str1.4
                0x0000000000030768       0x2c CMakeFiles/51_serial.dir/__/__/mesh/src/prov/prov_bearer_adv.c.obj
 .rodata.crctable.8268
                0x0000000000030794      0x100 CMakeFiles/51_serial.dir/__/__/mesh/src/prov/prov_bearer_adv.c.obj
 .rodata.interface.8482
                0x0000000000030894       0x14 CMakeFiles/51_serial.dir/__/__/mesh/src/prov/prov_bearer_adv.c.obj
 .rodata.prov_bearer_adv_pkt_in.str1.4
                0x00000000000308a8      0x283 CMakeFiles/51_serial.dir/__/__/mesh/src/prov/prov_bearer_adv.c.obj
 *fill*         0x0000000000030b2b        0x1 
 .rodata.tx_retry_cb.str1.4
                0x0000000000030b2c       0x64 CMakeFiles/51_serial.dir/__/__/mesh/src/prov/prov_bearer_adv.c.obj
 .rodata.alphanumeric.8393
                0x0000000000030b90       0x25 CMakeFiles/51_serial.dir/__/__/mesh/src/prov/prov_utils.c.obj
 *fill*         0x0000000000030bb5        0x3 
 .rodata.numeric_max.8387
                0x0000000000030bb8       0x24 CMakeFiles/51_serial.dir/__/__/mesh/src/prov/prov_utils.c.obj
 .rodata.prov_utils_authentication_values_derive.str1.4
                0x0000000000030bdc        0x5 CMakeFiles/51_serial.dir/__/__/mesh/src/prov/prov_utils.c.obj
 *fill*         0x0000000000030be1        0x3 
 .rodata.prov_utils_derive_keys.str1.4
                0x0000000000030be4       0x15 CMakeFiles/51_serial.dir/__/__/mesh/src/prov/prov_utils.c.obj
 *fill*         0x0000000000030bf9        0x3 
 .rodata.prov_provisioner_pkt_in
                0x0000000000030bfc       0x28 CMakeFiles/51_serial.dir/__/__/mesh/src/prov/prov_provisioner.c.obj
 .rodata.m_prov_callbacks
                0x0000000000030c24       0x10 CMakeFiles/51_serial.dir/__/__/mesh/src/prov/prov_provisioner.c.obj
 .rodata.prov_provisionee_cb_ack_received
                0x0000000000030c34       0x50 CMakeFiles/51_serial.dir/__/__/mesh/src/prov/prov_provisionee.c.obj
 .rodata.prov_provisionee_pkt_in
                0x0000000000030c84       0x28 CMakeFiles/51_serial.dir/__/__/mesh/src/prov/prov_provisionee.c.obj
 .rodata.m_prov_callbacks
                0x0000000000030cac       0x10 CMakeFiles/51_serial.dir/__/__/mesh/src/prov/prov_provisionee.c.obj
 .rodata.prov_provisionee_cb_ack_received.str1.4
                0x0000000000030cbc       0x7f CMakeFiles/51_serial.dir/__/__/mesh/src/prov/prov_provisionee.c.obj
 *fill*         0x0000000000030d3b        0x1 
 .rodata.bearer_adv_opt_set
                0x0000000000030d3c       0x28 ../../mesh/lib_51_MBTLE_CORE.a(bearer_adv.c.obj)
 .rodata        0x0000000000030d64       0x14 ../../mesh/lib_51_MBTLE_CORE.a(bearer_adv.c.obj)
 .rodata.bearer_adv_advertiser_init.str1.4
                0x0000000000030d78       0x39 ../../mesh/lib_51_MBTLE_CORE.a(bearer_adv.c.obj)
 *fill*         0x0000000000030db1        0x3 
 .rodata.bearer_adv_init.str1.4
                0x0000000000030db4       0x1d ../../mesh/lib_51_MBTLE_CORE.a(bearer_adv.c.obj)
 *fill*         0x0000000000030dd1        0x3 
 .rodata.bearer_adv_opt_get.str1.4
                0x0000000000030dd4       0x15 ../../mesh/lib_51_MBTLE_CORE.a(bearer_adv.c.obj)
 *fill*         0x0000000000030de9        0x3 
 .rodata.scan_order.str1.4
                0x0000000000030dec       0x86 ../../mesh/lib_51_MBTLE_CORE.a(bearer_adv.c.obj)
 *fill*         0x0000000000030e72        0x2 
 .rodata.beacon_pkt_in.str1.4
                0x0000000000030e74       0x8c ../../mesh/lib_51_MBTLE_CORE.a(beacon.c.obj)
 .rodata        0x0000000000030f00       0x1c ../../mesh/lib_51_MBTLE_CORE.a(bearer.c.obj)
 .rodata.bearer_rx_cb.str1.4
                0x0000000000030f1c       0x76 ../../mesh/lib_51_MBTLE_CORE.a(bearer.c.obj)
 *fill*         0x0000000000030f92        0x2 
 .rodata        0x0000000000030f94       0x18 ../../mesh/lib_51_MBTLE_CORE.a(enc.c.obj)
 .rodata.log_callback_rtt.str1.4
                0x0000000000030fac       0x15 ../../mesh/lib_51_MBTLE_CORE.a(log.c.obj)
 *fill*         0x0000000000030fc1        0x3 
 .rodata.str1.4
                0x0000000000030fc4       0x11 ../../mesh/lib_51_MBTLE_CORE.a(log.c.obj)
 *fill*         0x0000000000030fd5        0x3 
 .rodata.net_beacon_init.str1.4
                0x0000000000030fd8        0x5 ../../mesh/lib_51_MBTLE_CORE.a(net_beacon.c.obj)
 *fill*         0x0000000000030fdd        0x3 
 .rodata.nrf_mesh_adv_send.str1.4
                0x0000000000030fe0       0x78 ../../mesh/lib_51_MBTLE_CORE.a(nrf_mesh.c.obj)
 .rodata.nrf_mesh_process.str1.4
                0x0000000000031058       0x76 ../../mesh/lib_51_MBTLE_CORE.a(nrf_mesh.c.obj)
 *fill*         0x00000000000310ce        0x2 
 .rodata        0x00000000000310d0        0x7 ../../mesh/lib_51_MBTLE_CORE.a(nrf_mesh_keygen.c.obj)
 *fill*         0x00000000000310d7        0x1 
 .rodata.types_lookup.6530
                0x00000000000310d8        0x4 ../../mesh/lib_51_MBTLE_CORE.a(nrf_mesh_utils.c.obj)
 .rodata.channel_rf_offsets.6165
                0x00000000000310dc       0x28 ../../mesh/lib_51_MBTLE_CORE.a(radio_config.c.obj)
 .rodata.transport_opt_set
                0x0000000000031104       0x1c ../../mesh/lib_51_MBTLE_CORE.a(transport.c.obj)
 .rodata.sar_segment_send.str1.4
                0x0000000000031120       0x39 ../../mesh/lib_51_MBTLE_CORE.a(transport.c.obj)
 *fill*         0x0000000000031159        0x3 
 .rodata.test_transport_decrypt.str1.4
                0x000000000003115c       0x5f ../../mesh/lib_51_MBTLE_CORE.a(transport.c.obj)
 *fill*         0x00000000000311bb        0x1 
 .rodata.transport_pkt_in.str1.4
                0x00000000000311bc      0x1b0 ../../mesh/lib_51_MBTLE_CORE.a(transport.c.obj)
 .rodata.transport_sar_process.str1.4
                0x000000000003136c       0xbb ../../mesh/lib_51_MBTLE_CORE.a(transport.c.obj)
 *fill*         0x0000000000031427        0x1 
 .rodata.transport_tx.str1.4
                0x0000000000031428       0x30 ../../mesh/lib_51_MBTLE_CORE.a(transport.c.obj)
 .rodata.transport_tx_sar.str1.4
                0x0000000000031458       0x99 ../../mesh/lib_51_MBTLE_CORE.a(transport.c.obj)
 *fill*         0x00000000000314f1        0x3 
 .rodata.trs_sar_drop_session.str1.4
                0x00000000000314f4       0x18 ../../mesh/lib_51_MBTLE_CORE.a(transport.c.obj)
                                         0x48 (size before relaxing)
 .rodata.trs_sar_pkt_decrypt.str1.4
                0x000000000003150c       0x61 ../../mesh/lib_51_MBTLE_CORE.a(transport.c.obj)
                                         0x69 (size before relaxing)
 *fill*         0x000000000003156d        0x3 
 .rodata.trs_sar_session_cb.str1.4
                0x0000000000031570       0x1b ../../mesh/lib_51_MBTLE_CORE.a(transport.c.obj)
 *fill*         0x000000000003158b        0x1 
 .rodata.process_action_queue
                0x000000000003158c       0x14 ../../mesh/lib_51_MBTLE_CORE.a(flash_manager.c.obj)
 .rodata.INVALID_HEADER
                0x00000000000315a0        0x4 ../../mesh/lib_51_MBTLE_CORE.a(flash_manager.c.obj)
                0x00000000000315a0                INVALID_HEADER
 .rodata.PADDING_HEADER
                0x00000000000315a4        0x4 ../../mesh/lib_51_MBTLE_CORE.a(flash_manager.c.obj)
                0x00000000000315a4                PADDING_HEADER
 .rodata.SEAL_HEADER
                0x00000000000315a8        0x4 ../../mesh/lib_51_MBTLE_CORE.a(flash_manager.c.obj)
                0x00000000000315a8                SEAL_HEADER
 .rodata.process_action_queue.str1.4
                0x00000000000315ac       0x4d ../../mesh/lib_51_MBTLE_CORE.a(flash_manager.c.obj)
                                         0x7e (size before relaxing)
 *fill*         0x00000000000315f9        0x3 
 .rodata.flash_manager_defrag.str1.4
                0x00000000000315fc       0x54 ../../mesh/lib_51_MBTLE_CORE.a(flash_manager_defrag.c.obj)
                                         0x82 (size before relaxing)
 .rodata.m_procedure_steps
                0x0000000000031650       0x28 ../../mesh/lib_51_MBTLE_CORE.a(flash_manager_defrag.c.obj)
 .rodata.timeslot_init
                0x0000000000031678       0x20 ../../mesh/lib_51_MBTLE_CORE.a(timeslot.c.obj)
 .rodata.radio_signal_callback
                0x0000000000031698       0x14 ../../mesh/lib_51_MBTLE_CORE.a(timeslot.c.obj)
 .rodata.Rb.5041
                0x00000000000316ac       0x10 ../../mesh/lib_51_MBTLE_CORE.a(aes_cmac.c.obj)
 .rodata.network_pkt_in.str1.4
                0x00000000000316bc       0x13 ../../mesh/lib_51_MBTLE_CORE.a(network.c.obj)
                                         0x1c (size before relaxing)
 *fill*         0x00000000000316cf        0x1 
 .rodata.network_pkt_out.str1.4
                0x00000000000316d0       0x25 ../../mesh/lib_51_MBTLE_CORE.a(network.c.obj)
 *fill*         0x00000000000316f5        0x3 
 .rodata.network_pkt_relay.str1.4
                0x00000000000316f8       0x75 ../../mesh/lib_51_MBTLE_CORE.a(network.c.obj)
                                         0xa6 (size before relaxing)
 *fill*         0x000000000003176d        0x3 
 .rodata.m_all_operations
                0x0000000000031770       0x10 ../../mesh/lib_51_MBTLE_CORE.a(mesh_flash.c.obj)
 .rodata.curve_secp256r1
                0x0000000000031780       0xb0 ../../lib/micro-ecc/lib_51_UECC_LIB.a(uECC.c.obj)
 .rodata._DoInit.str1.4
                0x0000000000031830       0x18 ../../lib/rtt/lib_51_RTT_LIB.a(SEGGER_RTT.c.obj)
                                         0x17 (size before relaxing)
 .rodata._aV2C.4378
                0x0000000000031848       0x10 ../../lib/rtt/lib_51_RTT_LIB.a(SEGGER_RTT_printf.c.obj)
 .rodata._global_impure_ptr
                0x0000000000031858        0x4 /usr/bin/../lib/gcc/arm-none-eabi/6.3.1/../../../../arm-none-eabi/lib/thumb/v6-m/libg_nano.a(lib_a-impure.o)
                0x0000000000031858                _global_impure_ptr
 *(.eh_frame*)
 .eh_frame      0x000000000003185c        0x0 /usr/bin/../lib/gcc/arm-none-eabi/6.3.1/thumb/v6-m/crtbegin.o
 .eh_frame      0x000000000003185c        0x4 /usr/bin/../lib/gcc/arm-none-eabi/6.3.1/thumb/v6-m/crtend.o

.glue_7         0x0000000000031860        0x0
 .glue_7        0x0000000000031860        0x0 linker stubs

.glue_7t        0x0000000000031860        0x0
 .glue_7t       0x0000000000031860        0x0 linker stubs

.vfp11_veneer   0x0000000000031860        0x0
 .vfp11_veneer  0x0000000000031860        0x0 linker stubs

.v4_bx          0x0000000000031860        0x0
 .v4_bx         0x0000000000031860        0x0 linker stubs

.iplt           0x0000000000031860        0x0
 .iplt          0x0000000000031860        0x0 /usr/bin/../lib/gcc/arm-none-eabi/6.3.1/thumb/v6-m/crtbegin.o

.ARM.extab
 *(.ARM.extab* .gnu.linkonce.armextab.*)
                0x0000000000031860                __exidx_start = .

.ARM.exidx      0x0000000000031860        0x8
 *(.ARM.exidx* .gnu.linkonce.armexidx.*)
 .ARM.exidx     0x0000000000031860        0x8 /usr/bin/../lib/gcc/arm-none-eabi/6.3.1/../../../../arm-none-eabi/lib/thumb/v6-m/crt0.o
                0x0000000000031868                __exidx_end = .
                0x0000000000031868                __etext = .

.rel.dyn        0x0000000000031868        0x0
 .rel.iplt      0x0000000000031868        0x0 /usr/bin/../lib/gcc/arm-none-eabi/6.3.1/thumb/v6-m/crtbegin.o

.data           0x00000000200022d8      0x13c load address 0x0000000000031868
                0x00000000200022d8                __data_start__ = .
 *(vtable)
 *(.data*)
 .data.flash_add_mem_available_struct.7923
                0x00000000200022d8       0x10 CMakeFiles/51_serial.dir/__/__/mesh/src/access/access.c.obj
 .data.flash_clear_mem_available_struct.8012
                0x00000000200022e8       0x10 CMakeFiles/51_serial.dir/__/__/mesh/src/access/access.c.obj
 .data.flash_store_mem_available_struct.8036
                0x00000000200022f8       0x10 CMakeFiles/51_serial.dir/__/__/mesh/src/access/access.c.obj
 .data.m_default_ttl
                0x0000000020002308        0x1 CMakeFiles/51_serial.dir/__/__/mesh/src/access/access.c.obj
 *fill*         0x0000000020002309        0x3 
 .data.mem_listener.8178
                0x000000002000230c       0x10 CMakeFiles/51_serial.dir/__/__/mesh/src/access/device_state_manager.c.obj
 .data.mem_listener.8204
                0x000000002000231c       0x10 CMakeFiles/51_serial.dir/__/__/mesh/src/access/device_state_manager.c.obj
 .data.m_unprov_report
                0x000000002000232c        0x1 CMakeFiles/51_serial.dir/__/__/mesh/src/prov/prov_beacon.c.obj
 *fill*         0x000000002000232d        0x3 
 .data.SystemCoreClock
                0x0000000020002330        0x4 CMakeFiles/51_serial.dir/__/__/toolchain/system_nrf51.c.obj
                0x0000000020002330                SystemCoreClock
 .data.m_radio_state
                0x0000000020002334        0x1 ../../mesh/lib_51_MBTLE_CORE.a(radio.c.obj)
 *fill*         0x0000000020002335        0x3 
 .data.g_log_debug_level
                0x0000000020002338        0x4 ../../mesh/lib_51_MBTLE_CORE.a(log.c.obj)
                0x0000000020002338                g_log_debug_level
 .data.g_log_debug_msk
                0x000000002000233c        0x4 ../../mesh/lib_51_MBTLE_CORE.a(log.c.obj)
                0x000000002000233c                g_log_debug_msk
 .data.g_log_hex_digits
                0x0000000020002340        0x4 ../../mesh/lib_51_MBTLE_CORE.a(log.c.obj)
                0x0000000020002340                g_log_hex_digits
 .data.m_log_callback
                0x0000000020002344        0x4 ../../mesh/lib_51_MBTLE_CORE.a(log.c.obj)
                0x0000000020002344                m_log_callback
 .data.mem_listener.7415
                0x0000000020002348       0x10 ../../mesh/lib_51_MBTLE_CORE.a(net_state.c.obj)
 .data.mem_listener.7420
                0x0000000020002358       0x10 ../../mesh/lib_51_MBTLE_CORE.a(net_state.c.obj)
 .data.mem_listener.7434
                0x0000000020002368       0x10 ../../mesh/lib_51_MBTLE_CORE.a(net_state.c.obj)
 .data.mem_listener.7451
                0x0000000020002378       0x10 ../../mesh/lib_51_MBTLE_CORE.a(net_state.c.obj)
 .data.m_lfclk_ppm
                0x0000000020002388        0x4 ../../mesh/lib_51_MBTLE_CORE.a(timeslot.c.obj)
 .data.m_negotiate_timeslot_length
                0x000000002000238c        0x4 ../../mesh/lib_51_MBTLE_CORE.a(timeslot.c.obj)
 .data.m_radio_request_earliest
                0x0000000020002390       0x10 ../../mesh/lib_51_MBTLE_CORE.a(timeslot.c.obj)
 .data.g_rng_function
                0x00000000200023a0        0x4 ../../lib/micro-ecc/lib_51_UECC_LIB.a(uECC.c.obj)
 .data._impure_ptr
                0x00000000200023a4        0x4 /usr/bin/../lib/gcc/arm-none-eabi/6.3.1/../../../../arm-none-eabi/lib/thumb/v6-m/libg_nano.a(lib_a-impure.o)
                0x00000000200023a4                _impure_ptr
 .data.impure_data
                0x00000000200023a8       0x60 /usr/bin/../lib/gcc/arm-none-eabi/6.3.1/../../../../arm-none-eabi/lib/thumb/v6-m/libg_nano.a(lib_a-impure.o)
                0x0000000020002408                . = ALIGN (0x4)
                0x0000000020002408                PROVIDE (__preinit_array_start, .)
 *(.preinit_array)
                0x0000000020002408                PROVIDE (__preinit_array_end, .)
                0x0000000020002408                . = ALIGN (0x4)
                0x0000000020002408                PROVIDE (__init_array_start, .)
 *(SORT(.init_array.*))
 *(.init_array)
 .init_array    0x0000000020002408        0x4 /usr/bin/../lib/gcc/arm-none-eabi/6.3.1/thumb/v6-m/crtbegin.o
                0x000000002000240c                PROVIDE (__init_array_end, .)
                0x000000002000240c                . = ALIGN (0x4)
                [!provide]                        PROVIDE (__fini_array_start, .)
 *(SORT(.fini_array.*))
 *(.fini_array)
 .fini_array    0x000000002000240c        0x4 /usr/bin/../lib/gcc/arm-none-eabi/6.3.1/thumb/v6-m/crtbegin.o
                [!provide]                        PROVIDE (__fini_array_end, .)
 *(.jcr*)
 .jcr           0x0000000020002410        0x0 /usr/bin/../lib/gcc/arm-none-eabi/6.3.1/thumb/v6-m/crtbegin.o
 .jcr           0x0000000020002410        0x4 /usr/bin/../lib/gcc/arm-none-eabi/6.3.1/thumb/v6-m/crtend.o
                0x0000000020002414                . = ALIGN (0x4)
                0x0000000020002414                __data_end__ = .

.igot.plt       0x0000000020002414        0x0 load address 0x00000000000319a4
 .igot.plt      0x0000000020002414        0x0 /usr/bin/../lib/gcc/arm-none-eabi/6.3.1/thumb/v6-m/crtbegin.o

.bss            0x0000000020002418     0x30a4 load address 0x00000000000319a8
                0x0000000020002418                . = ALIGN (0x4)
                0x0000000020002418                __bss_start__ = .
 *(.bss*)
 .bss           0x0000000020002418       0x1c /usr/bin/../lib/gcc/arm-none-eabi/6.3.1/thumb/v6-m/crtbegin.o
 .bss.m_ble_evt_buffer
                0x0000000020002434       0x47 CMakeFiles/51_serial.dir/__/nrf_mesh_sdk.c.obj
 *fill*         0x000000002000247b        0x1 
 .bss.m_element_pool
                0x000000002000247c        0x6 CMakeFiles/51_serial.dir/__/__/mesh/src/access/access.c.obj
 *fill*         0x0000000020002482        0x2 
 .bss.m_evt_handler
                0x0000000020002484        0x8 CMakeFiles/51_serial.dir/__/__/mesh/src/access/access.c.obj
 .bss.m_flash_manager
                0x000000002000248c       0x24 CMakeFiles/51_serial.dir/__/__/mesh/src/access/access.c.obj
 .bss.m_flash_not_ready
                0x00000000200024b0        0x1 CMakeFiles/51_serial.dir/__/__/mesh/src/access/access.c.obj
 .bss.m_metadata_stored
                0x00000000200024b1        0x1 CMakeFiles/51_serial.dir/__/__/mesh/src/access/access.c.obj
 *fill*         0x00000000200024b2        0x2 
 .bss.m_model_pool
                0x00000000200024b4       0x34 CMakeFiles/51_serial.dir/__/__/mesh/src/access/access.c.obj
 .bss.m_subscription_list_pool
                0x00000000200024e8        0x8 CMakeFiles/51_serial.dir/__/__/mesh/src/access/access.c.obj
 .bss.m_publish_timer
                0x00000000200024f0       0x18 CMakeFiles/51_serial.dir/__/__/mesh/src/access/access_publish.c.obj
 .bss.m_publish_timer_counter
                0x0000000020002508        0x4 CMakeFiles/51_serial.dir/__/__/mesh/src/access/access_publish.c.obj
 .bss.m_publish_timer_running
                0x000000002000250c        0x1 CMakeFiles/51_serial.dir/__/__/mesh/src/access/access_publish.c.obj
 .bss.m_timer_resolution
                0x000000002000250d        0x1 CMakeFiles/51_serial.dir/__/__/mesh/src/access/access_publish.c.obj
 *fill*         0x000000002000250e        0x2 
 .bss.mp_publication_list
                0x0000000020002510        0x4 CMakeFiles/51_serial.dir/__/__/mesh/src/access/access_publish.c.obj
 .bss.m_reliable
                0x0000000020002514       0x44 CMakeFiles/51_serial.dir/__/__/mesh/src/access/access_reliable.c.obj
 .bss.m_addr_nonvirtual_allocated
                0x0000000020002558        0x4 CMakeFiles/51_serial.dir/__/__/mesh/src/access/device_state_manager.c.obj
 .bss.m_addr_nonvirtual_needs_flashing
                0x000000002000255c        0x4 CMakeFiles/51_serial.dir/__/__/mesh/src/access/device_state_manager.c.obj
 .bss.m_addr_unicast_allocated
                0x0000000020002560        0x4 CMakeFiles/51_serial.dir/__/__/mesh/src/access/device_state_manager.c.obj
 .bss.m_addr_unicast_needs_flashing
                0x0000000020002564        0x4 CMakeFiles/51_serial.dir/__/__/mesh/src/access/device_state_manager.c.obj
 .bss.m_addr_virtual_allocated
                0x0000000020002568        0x4 CMakeFiles/51_serial.dir/__/__/mesh/src/access/device_state_manager.c.obj
 .bss.m_addr_virtual_needs_flashing
                0x000000002000256c        0x4 CMakeFiles/51_serial.dir/__/__/mesh/src/access/device_state_manager.c.obj
 .bss.m_addresses
                0x0000000020002570       0x40 CMakeFiles/51_serial.dir/__/__/mesh/src/access/device_state_manager.c.obj
 .bss.m_appkey_allocated
                0x00000000200025b0        0x4 CMakeFiles/51_serial.dir/__/__/mesh/src/access/device_state_manager.c.obj
 .bss.m_appkey_needs_flashing
                0x00000000200025b4        0x4 CMakeFiles/51_serial.dir/__/__/mesh/src/access/device_state_manager.c.obj
 .bss.m_appkeys
                0x00000000200025b8       0xb0 CMakeFiles/51_serial.dir/__/__/mesh/src/access/device_state_manager.c.obj
 .bss.m_devkey_allocated
                0x0000000020002668        0x4 CMakeFiles/51_serial.dir/__/__/mesh/src/access/device_state_manager.c.obj
 .bss.m_devkey_needs_flashing
                0x000000002000266c        0x4 CMakeFiles/51_serial.dir/__/__/mesh/src/access/device_state_manager.c.obj
 .bss.m_devkeys
                0x0000000020002670       0x42 CMakeFiles/51_serial.dir/__/__/mesh/src/access/device_state_manager.c.obj
 .bss.m_flash_is_available
                0x00000000200026b2        0x1 CMakeFiles/51_serial.dir/__/__/mesh/src/access/device_state_manager.c.obj
 *fill*         0x00000000200026b3        0x1 
 .bss.m_flash_manager
                0x00000000200026b4       0x24 CMakeFiles/51_serial.dir/__/__/mesh/src/access/device_state_manager.c.obj
 .bss.m_flash_mem_listener_update_all
                0x00000000200026d8       0x10 CMakeFiles/51_serial.dir/__/__/mesh/src/access/device_state_manager.c.obj
 .bss.m_has_primary_subnet
                0x00000000200026e8        0x1 CMakeFiles/51_serial.dir/__/__/mesh/src/access/device_state_manager.c.obj
 *fill*         0x00000000200026e9        0x3 
 .bss.m_local_unicast_addr
                0x00000000200026ec        0x4 CMakeFiles/51_serial.dir/__/__/mesh/src/access/device_state_manager.c.obj
 .bss.m_subnet_allocated
                0x00000000200026f0        0x4 CMakeFiles/51_serial.dir/__/__/mesh/src/access/device_state_manager.c.obj
 .bss.m_subnet_needs_flashing
                0x00000000200026f4        0x4 CMakeFiles/51_serial.dir/__/__/mesh/src/access/device_state_manager.c.obj
 .bss.m_subnets
                0x00000000200026f8      0x170 CMakeFiles/51_serial.dir/__/__/mesh/src/access/device_state_manager.c.obj
 .bss.m_virtual_addresses
                0x0000000020002868       0xa0 CMakeFiles/51_serial.dir/__/__/mesh/src/access/device_state_manager.c.obj
 .bss.m_cmd_handler_scheduled
                0x0000000020002908        0x1 CMakeFiles/51_serial.dir/__/__/mesh/src/serial/serial.c.obj
 .bss.m_state   0x0000000020002909        0x1 CMakeFiles/51_serial.dir/__/__/mesh/src/serial/serial.c.obj
 .bss.m_cur_tx_packet_index
                0x000000002000290a        0x2 CMakeFiles/51_serial.dir/__/__/mesh/src/serial/serial_bearer.c.obj
 .bss.m_event_flag
                0x000000002000290c        0x4 CMakeFiles/51_serial.dir/__/__/mesh/src/serial/serial_bearer.c.obj
 .bss.m_rx_buffer
                0x0000000020002910       0x68 CMakeFiles/51_serial.dir/__/__/mesh/src/serial/serial_bearer.c.obj
 .bss.m_rx_packet_buf
                0x0000000020002978        0xc CMakeFiles/51_serial.dir/__/__/mesh/src/serial/serial_bearer.c.obj
 .bss.m_serial_state
                0x0000000020002984        0x1 CMakeFiles/51_serial.dir/__/__/mesh/src/serial/serial_bearer.c.obj
 *fill*         0x0000000020002985        0x1 
 .bss.m_stored_pac_len
                0x0000000020002986        0x2 CMakeFiles/51_serial.dir/__/__/mesh/src/serial/serial_bearer.c.obj
 .bss.m_tx_buffer
                0x0000000020002988       0x68 CMakeFiles/51_serial.dir/__/__/mesh/src/serial/serial_bearer.c.obj
 .bss.m_tx_packet_buf
                0x00000000200029f0        0xc CMakeFiles/51_serial.dir/__/__/mesh/src/serial/serial_bearer.c.obj
 .bss.mp_current_rx_packet
                0x00000000200029fc        0x4 CMakeFiles/51_serial.dir/__/__/mesh/src/serial/serial_bearer.c.obj
 .bss.mp_current_tx_packet
                0x0000000020002a00        0x4 CMakeFiles/51_serial.dir/__/__/mesh/src/serial/serial_bearer.c.obj
 .bss.rx_index.7965
                0x0000000020002a04        0x2 CMakeFiles/51_serial.dir/__/__/mesh/src/serial/serial_bearer.c.obj
 *fill*         0x0000000020002a06        0x2 
 .bss.m_app_rx_cb
                0x0000000020002a08        0x4 CMakeFiles/51_serial.dir/__/__/mesh/src/serial/serial_handler_app.c.obj
 .bss.m_beacons
                0x0000000020002a0c       0xe4 CMakeFiles/51_serial.dir/__/__/mesh/src/serial/serial_handler_device.c.obj
 .bss.m_evt_handler
                0x0000000020002af0        0x8 CMakeFiles/51_serial.dir/__/__/mesh/src/serial/serial_handler_dfu.c.obj
 .bss.m_evt_handler
                0x0000000020002af8        0x8 CMakeFiles/51_serial.dir/__/__/mesh/src/serial/serial_handler_mesh.c.obj
 .bss.p_serial_evt.8172
                0x0000000020002b00        0x4 CMakeFiles/51_serial.dir/__/__/mesh/src/serial/serial_handler_mesh.c.obj
 .bss.m_models_list
                0x0000000020002b04        0xc CMakeFiles/51_serial.dir/__/__/mesh/src/serial/serial_handler_models.c.obj
 .bss.m_mesh_evt_handler
                0x0000000020002b10        0x8 CMakeFiles/51_serial.dir/__/__/mesh/src/serial/serial_handler_prov.c.obj
 .bss.m_private_key
                0x0000000020002b18       0x20 CMakeFiles/51_serial.dir/__/__/mesh/src/serial/serial_handler_prov.c.obj
 .bss.m_prov_contexts
                0x0000000020002b38      0x580 CMakeFiles/51_serial.dir/__/__/mesh/src/serial/serial_handler_prov.c.obj
 .bss.m_provisioning_caps
                0x00000000200030b8        0xb CMakeFiles/51_serial.dir/__/__/mesh/src/serial/serial_handler_prov.c.obj
 *fill*         0x00000000200030c3        0x1 
 .bss.m_public_key
                0x00000000200030c4       0x40 CMakeFiles/51_serial.dir/__/__/mesh/src/serial/serial_handler_prov.c.obj
 .bss.m_scanning_running
                0x0000000020003104        0x1 CMakeFiles/51_serial.dir/__/__/mesh/src/serial/serial_handler_prov.c.obj
 .bss.m_can_receive
                0x0000000020003105        0x1 CMakeFiles/51_serial.dir/__/__/mesh/src/serial/serial_uart.c.obj
 *fill*         0x0000000020003106        0x2 
 .bss.m_char_rx_cb
                0x0000000020003108        0x4 CMakeFiles/51_serial.dir/__/__/mesh/src/serial/serial_uart.c.obj
 .bss.m_char_tx_cb
                0x000000002000310c        0x4 CMakeFiles/51_serial.dir/__/__/mesh/src/serial/serial_uart.c.obj
 .bss.mp_bearer_head
                0x0000000020003110        0x4 CMakeFiles/51_serial.dir/__/__/mesh/src/prov/prov_bearer_adv.c.obj
 .bss.m_offload_ecdh
                0x0000000020003114        0x1 CMakeFiles/51_serial.dir/__/__/mesh/src/prov/prov_utils.c.obj
 *fill*         0x0000000020003115        0x3 
 .bss.m_default_gap_addr
                0x0000000020003118        0x7 ../../mesh/lib_51_MBTLE_CORE.a(bearer_adv.c.obj)
 .bss.m_is_scanning
                0x000000002000311f        0x1 ../../mesh/lib_51_MBTLE_CORE.a(bearer_adv.c.obj)
 .bss.m_scan_ch
                0x0000000020003120        0x1 ../../mesh/lib_51_MBTLE_CORE.a(bearer_adv.c.obj)
 *fill*         0x0000000020003121        0x3 
 .bss.m_scan_config
                0x0000000020003124        0xc ../../mesh/lib_51_MBTLE_CORE.a(bearer_adv.c.obj)
 .bss.m_scan_evt
                0x0000000020003130       0x18 ../../mesh/lib_51_MBTLE_CORE.a(bearer_adv.c.obj)
 .bss.m_scan_window_end_evt
                0x0000000020003148       0x18 ../../mesh/lib_51_MBTLE_CORE.a(bearer_adv.c.obj)
 .bss.m_pool    0x0000000020003160     0x1000 ../../mesh/lib_51_MBTLE_CORE.a(packet_mgr.c.obj)
 .bss.mp_free_head
                0x0000000020004160        0x4 ../../mesh/lib_51_MBTLE_CORE.a(packet_mgr.c.obj)
 .bss.m_idle_cb
                0x0000000020004164        0x4 ../../mesh/lib_51_MBTLE_CORE.a(radio.c.obj)
 .bss.m_radio_config
                0x0000000020004168        0x8 ../../mesh/lib_51_MBTLE_CORE.a(radio.c.obj)
 .bss.m_radio_fifo
                0x0000000020004170       0x14 ../../mesh/lib_51_MBTLE_CORE.a(radio.c.obj)
 .bss.m_radio_fifo_queue
                0x0000000020004184       0x60 ../../mesh/lib_51_MBTLE_CORE.a(radio.c.obj)
 .bss.m_rx_cb   0x00000000200041e4        0x4 ../../mesh/lib_51_MBTLE_CORE.a(radio.c.obj)
 .bss.m_tx_cb   0x00000000200041e8        0x4 ../../mesh/lib_51_MBTLE_CORE.a(radio.c.obj)
 .bss.s_fifo_reserved.6682
                0x00000000200041ec        0x4 ../../mesh/lib_51_MBTLE_CORE.a(radio.c.obj)
 .bss.m_attributes
                0x00000000200041f0        0x3 ../../mesh/lib_51_MBTLE_CORE.a(timer.c.obj)
 *fill*         0x00000000200041f3        0x1 
 .bss.m_callbacks
                0x00000000200041f4        0xc ../../mesh/lib_51_MBTLE_CORE.a(timer.c.obj)
 .bss.m_is_in_ts
                0x0000000020004200        0x1 ../../mesh/lib_51_MBTLE_CORE.a(timer.c.obj)
 *fill*         0x0000000020004201        0x3 
 .bss.m_reference_time
                0x0000000020004204        0x4 ../../mesh/lib_51_MBTLE_CORE.a(timer.c.obj)
 .bss.m_timeouts
                0x0000000020004208        0xc ../../mesh/lib_51_MBTLE_CORE.a(timer.c.obj)
 .bss.m_timer_mut
                0x0000000020004214        0x4 ../../mesh/lib_51_MBTLE_CORE.a(timer.c.obj)
 .bss.m_ts_end_time
                0x0000000020004218        0x4 ../../mesh/lib_51_MBTLE_CORE.a(timer.c.obj)
 .bss.mp_ppi_tasks
                0x000000002000421c        0xc ../../mesh/lib_51_MBTLE_CORE.a(timer.c.obj)
 .bss.m_event_flag
                0x0000000020004228        0x4 ../../mesh/lib_51_MBTLE_CORE.a(timer_scheduler.c.obj)
 .bss.m_scheduler
                0x000000002000422c       0x10 ../../mesh/lib_51_MBTLE_CORE.a(timer_scheduler.c.obj)
 .bss.m_advertiser
                0x000000002000423c       0xe0 ../../mesh/lib_51_MBTLE_CORE.a(beacon.c.obj)
 .bss.m_addr_filter
                0x000000002000431c        0x8 ../../mesh/lib_51_MBTLE_CORE.a(bearer.c.obj)
 .bss.m_adtype_filter
                0x0000000020004324       0x20 ../../mesh/lib_51_MBTLE_CORE.a(bearer.c.obj)
 .bss.m_adtype_filtering
                0x0000000020004344        0x1 ../../mesh/lib_51_MBTLE_CORE.a(bearer.c.obj)
 *fill*         0x0000000020004345        0x3 
 .bss.m_regular_advertiser
                0x0000000020004348       0xe0 ../../mesh/lib_51_MBTLE_CORE.a(bearer.c.obj)
 .bss.m_rx_fifo
                0x0000000020004428       0x14 ../../mesh/lib_51_MBTLE_CORE.a(bearer.c.obj)
 .bss.m_rx_fifo_buffer
                0x000000002000443c       0xa0 ../../mesh/lib_51_MBTLE_CORE.a(bearer.c.obj)
 .bss.packets_accepted
                0x00000000200044dc        0x4 ../../mesh/lib_51_MBTLE_CORE.a(bearer.c.obj)
 .bss.packets_dropped_invalid_addr
                0x00000000200044e0        0x4 ../../mesh/lib_51_MBTLE_CORE.a(bearer.c.obj)
 .bss.packets_dropped_invalid_adtype
                0x00000000200044e4        0x4 ../../mesh/lib_51_MBTLE_CORE.a(bearer.c.obj)
 .bss.packets_dropped_invalid_length
                0x00000000200044e8        0x4 ../../mesh/lib_51_MBTLE_CORE.a(bearer.c.obj)
 .bss.m_bearer_event_fifo
                0x00000000200044ec       0x14 ../../mesh/lib_51_MBTLE_CORE.a(bearer_event.c.obj)
 .bss.m_bearer_event_fifo_buffer
                0x0000000020004500      0x100 ../../mesh/lib_51_MBTLE_CORE.a(bearer_event.c.obj)
 .bss.m_critical
                0x0000000020004600        0x4 ../../mesh/lib_51_MBTLE_CORE.a(bearer_event.c.obj)
 .bss.m_flag_count
                0x0000000020004604        0x4 ../../mesh/lib_51_MBTLE_CORE.a(bearer_event.c.obj)
 .bss.m_flag_event_callbacks
                0x0000000020004608       0x10 ../../mesh/lib_51_MBTLE_CORE.a(bearer_event.c.obj)
 .bss.m_flags   0x0000000020004618        0x4 ../../mesh/lib_51_MBTLE_CORE.a(bearer_event.c.obj)
 .bss.m_uuid    0x000000002000461c       0x10 ../../mesh/lib_51_MBTLE_CORE.a(nrf_mesh_configure.c.obj)
 .bss.mp_evt_handlers_head
                0x000000002000462c        0x4 ../../mesh/lib_51_MBTLE_CORE.a(event.c.obj)
 .bss.m_beacon_salt
                0x0000000020004630       0x10 ../../mesh/lib_51_MBTLE_CORE.a(net_beacon.c.obj)
 .bss.m_enabled
                0x0000000020004640        0x1 ../../mesh/lib_51_MBTLE_CORE.a(net_beacon.c.obj)
 *fill*         0x0000000020004641        0x3 
 .bss.m_tx_event
                0x0000000020004644       0x18 ../../mesh/lib_51_MBTLE_CORE.a(net_beacon.c.obj)
 .bss.lock_count.7474
                0x000000002000465c        0x4 ../../mesh/lib_51_MBTLE_CORE.a(net_state.c.obj)
 .bss.m_flash_manager
                0x0000000020004660       0x24 ../../mesh/lib_51_MBTLE_CORE.a(net_state.c.obj)
 .bss.m_iv_update_timer
                0x0000000020004684       0x18 ../../mesh/lib_51_MBTLE_CORE.a(net_state.c.obj)
 .bss.m_net_state
                0x000000002000469c       0x14 ../../mesh/lib_51_MBTLE_CORE.a(net_state.c.obj)
 .bss.m_seqnum_allocation_in_progress
                0x00000000200046b0        0x1 ../../mesh/lib_51_MBTLE_CORE.a(net_state.c.obj)
 .bss.m_test_mode
                0x00000000200046b1        0x1 ../../mesh/lib_51_MBTLE_CORE.a(net_state.c.obj)
 .bss.m_is_enabled
                0x00000000200046b2        0x1 ../../mesh/lib_51_MBTLE_CORE.a(nrf_mesh.c.obj)
 .bss.m_is_initialized
                0x00000000200046b3        0x1 ../../mesh/lib_51_MBTLE_CORE.a(nrf_mesh.c.obj)
 .bss.m_rx_cb   0x00000000200046b4        0x4 ../../mesh/lib_51_MBTLE_CORE.a(nrf_mesh.c.obj)
 .bss.m_current_time
                0x00000000200046b8        0x4 ../../mesh/lib_51_MBTLE_CORE.a(ticker.c.obj)
 .bss.m_timer   0x00000000200046bc       0x18 ../../mesh/lib_51_MBTLE_CORE.a(ticker.c.obj)
 .bss.m_sar_alloc
                0x00000000200046d4        0x4 ../../mesh/lib_51_MBTLE_CORE.a(transport.c.obj)
 .bss.m_sar_release
                0x00000000200046d8        0x4 ../../mesh/lib_51_MBTLE_CORE.a(transport.c.obj)
 .bss.m_transport_pkt_buf
                0x00000000200046dc       0x13 ../../mesh/lib_51_MBTLE_CORE.a(transport.c.obj)
 *fill*         0x00000000200046ef        0x1 
 .bss.m_trs_config
                0x00000000200046f0       0x14 ../../mesh/lib_51_MBTLE_CORE.a(transport.c.obj)
 .bss.m_trs_sar_ack_timeout
                0x0000000020004704        0x1 ../../mesh/lib_51_MBTLE_CORE.a(transport.c.obj)
 .bss.m_trs_sar_ack_timer_active
                0x0000000020004705        0x1 ../../mesh/lib_51_MBTLE_CORE.a(transport.c.obj)
 *fill*         0x0000000020004706        0x2 
 .bss.m_trs_sar_rx_ack_timer
                0x0000000020004708       0x18 ../../mesh/lib_51_MBTLE_CORE.a(transport.c.obj)
 .bss.m_trs_sar_rx_sessions
                0x0000000020004720       0x50 ../../mesh/lib_51_MBTLE_CORE.a(transport.c.obj)
 .bss.m_trs_sar_session_timer
                0x0000000020004770       0x18 ../../mesh/lib_51_MBTLE_CORE.a(transport.c.obj)
 .bss.m_trs_sar_tx_sessions
                0x0000000020004788       0x50 ../../mesh/lib_51_MBTLE_CORE.a(transport.c.obj)
 .bss.m_trs_sar_tx_timeout
                0x00000000200047d8        0x1 ../../mesh/lib_51_MBTLE_CORE.a(transport.c.obj)
 *fill*         0x00000000200047d9        0x3 
 .bss.m_trs_sar_tx_timer
                0x00000000200047dc       0x18 ../../mesh/lib_51_MBTLE_CORE.a(transport.c.obj)
 .bss.m_internal_event_fifo
                0x00000000200047f4       0x14 ../../mesh/lib_51_MBTLE_CORE.a(internal_event.c.obj)
 .bss.m_internal_event_fifo_buffer
                0x0000000020004808      0x100 ../../mesh/lib_51_MBTLE_CORE.a(internal_event.c.obj)
 .bss.m_internal_event_initialized
                0x0000000020004908        0x1 ../../mesh/lib_51_MBTLE_CORE.a(internal_event.c.obj)
 *fill*         0x0000000020004909        0x3 
 .bss.m_report_cb
                0x000000002000490c        0x4 ../../mesh/lib_51_MBTLE_CORE.a(internal_event.c.obj)
 .bss.m_action_queue
                0x0000000020004910        0xc ../../mesh/lib_51_MBTLE_CORE.a(flash_manager.c.obj)
 .bss.m_action_queue_buffer
                0x000000002000491c      0x104 ../../mesh/lib_51_MBTLE_CORE.a(flash_manager.c.obj)
 .bss.m_action_state
                0x0000000020004a20        0x1 ../../mesh/lib_51_MBTLE_CORE.a(flash_manager.c.obj)
 *fill*         0x0000000020004a21        0x3 
 .bss.m_memory_listener_queue
                0x0000000020004a24        0x8 ../../mesh/lib_51_MBTLE_CORE.a(flash_manager.c.obj)
 .bss.m_processing_flag
                0x0000000020004a2c        0x4 ../../mesh/lib_51_MBTLE_CORE.a(flash_manager.c.obj)
 .bss.m_state   0x0000000020004a30        0x1 ../../mesh/lib_51_MBTLE_CORE.a(flash_manager.c.obj)
 *fill*         0x0000000020004a31        0x1 
 .bss.m_token   0x0000000020004a32        0x2 ../../mesh/lib_51_MBTLE_CORE.a(flash_manager.c.obj)
 .bss.p_current.8667
                0x0000000020004a34        0x4 ../../mesh/lib_51_MBTLE_CORE.a(flash_manager.c.obj)
 .bss.result.8668
                0x0000000020004a38        0x1 ../../mesh/lib_51_MBTLE_CORE.a(flash_manager.c.obj)
 *fill*         0x0000000020004a39        0x3 
 .bss.m_defrag  0x0000000020004a3c       0x1c ../../mesh/lib_51_MBTLE_CORE.a(flash_manager_defrag.c.obj)
 .bss.m_token   0x0000000020004a58        0x2 ../../mesh/lib_51_MBTLE_CORE.a(flash_manager_defrag.c.obj)
 *fill*         0x0000000020004a5a        0x2 
 .bss.mp_recovery_area
                0x0000000020004a5c        0x4 ../../mesh/lib_51_MBTLE_CORE.a(flash_manager_defrag.c.obj)
 .bss.p_null_ptr.7732
                0x0000000020004a60        0x4 ../../mesh/lib_51_MBTLE_CORE.a(flash_manager_defrag.c.obj)
 .bss.m_end_timer_triggered
                0x0000000020004a64        0x1 ../../mesh/lib_51_MBTLE_CORE.a(timeslot.c.obj)
 .bss.m_framework_initialized
                0x0000000020004a65        0x1 ../../mesh/lib_51_MBTLE_CORE.a(timeslot.c.obj)
 .bss.m_is_in_callback
                0x0000000020004a66        0x1 ../../mesh/lib_51_MBTLE_CORE.a(timeslot.c.obj)
 .bss.m_is_in_timeslot
                0x0000000020004a67        0x1 ../../mesh/lib_51_MBTLE_CORE.a(timeslot.c.obj)
 .bss.m_ret_param
                0x0000000020004a68        0x8 ../../mesh/lib_51_MBTLE_CORE.a(timeslot.c.obj)
 .bss.m_start_time
                0x0000000020004a70        0x4 ../../mesh/lib_51_MBTLE_CORE.a(timeslot.c.obj)
 .bss.m_timeslot_count
                0x0000000020004a74        0x4 ../../mesh/lib_51_MBTLE_CORE.a(timeslot.c.obj)
 .bss.m_timeslot_forced_command
                0x0000000020004a78        0x1 ../../mesh/lib_51_MBTLE_CORE.a(timeslot.c.obj)
 *fill*         0x0000000020004a79        0x3 
 .bss.m_timeslot_length
                0x0000000020004a7c        0x4 ../../mesh/lib_51_MBTLE_CORE.a(timeslot.c.obj)
 .bss.requested_extend_time.8330
                0x0000000020004a80        0x4 ../../mesh/lib_51_MBTLE_CORE.a(timeslot.c.obj)
 *fill*         0x0000000020004a84        0x4 
 .bss.s_last_rtc_value.8302
                0x0000000020004a88        0x8 ../../mesh/lib_51_MBTLE_CORE.a(timeslot.c.obj)
 .bss.m_128buf  0x0000000020004a90       0x10 ../../mesh/lib_51_MBTLE_CORE.a(aes_cmac.c.obj)
 .bss.m_subkey1
                0x0000000020004aa0       0x10 ../../mesh/lib_51_MBTLE_CORE.a(aes_cmac.c.obj)
 .bss.m_subkey2
                0x0000000020004ab0       0x10 ../../mesh/lib_51_MBTLE_CORE.a(aes_cmac.c.obj)
 .bss.m_msg_cache
                0x0000000020004ac0      0x100 ../../mesh/lib_51_MBTLE_CORE.a(msg_cache.c.obj)
 .bss.m_msg_cache_head
                0x0000000020004bc0        0x4 ../../mesh/lib_51_MBTLE_CORE.a(msg_cache.c.obj)
 .bss.m_relay_check_cb
                0x0000000020004bc4        0x4 ../../mesh/lib_51_MBTLE_CORE.a(network.c.obj)
 .bss.m_relay_enable
                0x0000000020004bc8        0x1 ../../mesh/lib_51_MBTLE_CORE.a(network.c.obj)
 .bss.m_relay_retransmit_count
                0x0000000020004bc9        0x1 ../../mesh/lib_51_MBTLE_CORE.a(network.c.obj)
 .bss.m_cache_full
                0x0000000020004bca        0x1 ../../mesh/lib_51_MBTLE_CORE.a(replay_cache.c.obj)
 .bss.m_cache_index
                0x0000000020004bcb        0x1 ../../mesh/lib_51_MBTLE_CORE.a(replay_cache.c.obj)
 .bss.m_replay_cache
                0x0000000020004bcc      0x200 ../../mesh/lib_51_MBTLE_CORE.a(replay_cache.c.obj)
 .bss.m_event_flag
                0x0000000020004dcc        0x4 ../../mesh/lib_51_MBTLE_CORE.a(mesh_flash.c.obj)
 .bss.m_suspended
                0x0000000020004dd0        0x1 ../../mesh/lib_51_MBTLE_CORE.a(mesh_flash.c.obj)
 *fill*         0x0000000020004dd1        0x3 
 .bss.m_users   0x0000000020004dd4      0x1d4 ../../mesh/lib_51_MBTLE_CORE.a(mesh_flash.c.obj)
 .bss._acDownBuffer
                0x0000000020004fa8       0x80 ../../lib/rtt/lib_51_RTT_LIB.a(SEGGER_RTT.c.obj)
 .bss._acUpBuffer
                0x0000000020005028      0x400 ../../lib/rtt/lib_51_RTT_LIB.a(SEGGER_RTT.c.obj)
 .bss.__malloc_free_list
                0x0000000020005428        0x4 /usr/bin/../lib/gcc/arm-none-eabi/6.3.1/../../../../arm-none-eabi/lib/thumb/v6-m/libg_nano.a(lib_a-nano-mallocr.o)
                0x0000000020005428                __malloc_free_list
 .bss.__malloc_sbrk_start
                0x000000002000542c        0x4 /usr/bin/../lib/gcc/arm-none-eabi/6.3.1/../../../../arm-none-eabi/lib/thumb/v6-m/libg_nano.a(lib_a-nano-mallocr.o)
                0x000000002000542c                __malloc_sbrk_start
 .bss.heap_end.4116
                0x0000000020005430        0x4 /usr/bin/../lib/gcc/arm-none-eabi/6.3.1/../../../../arm-none-eabi/lib/thumb/v6-m/libnosys.a(sbrk.o)
 *(COMMON)
 COMMON         0x0000000020005434        0x8 CMakeFiles/51_serial.dir/__/nrf_mesh_sdk.c.obj
                0x0000000020005434                nrf_nvic_state
 COMMON         0x000000002000543c        0x4 ../../mesh/lib_51_MBTLE_CORE.a(nrf_mesh.c.obj)
                0x000000002000543c                m_assertion_handler
 COMMON         0x0000000020005440       0x78 ../../lib/rtt/lib_51_RTT_LIB.a(SEGGER_RTT.c.obj)
                0x0000000020005440                _SEGGER_RTT
 COMMON         0x00000000200054b8        0x4 /usr/bin/../lib/gcc/arm-none-eabi/6.3.1/../../../../arm-none-eabi/lib/thumb/v6-m/libg_nano.a(lib_a-reent.o)
                0x00000000200054b8                errno
                0x00000000200054bc                . = ALIGN (0x4)
                0x00000000200054bc                __bss_end__ = .

.heap           0x00000000200054c0       0x80
                0x00000000200054c0                __HeapBase = .
                0x00000000200054c0                __end__ = .
                0x00000000200054c0                PROVIDE (end, .)
 *(.heap*)
 .heap          0x00000000200054c0       0x80 CMakeFiles/51_serial.dir/__/__/toolchain/gcc/gcc_startup_nrf51.S.obj
                0x0000000020005540                __HeapLimit = .

.stack_dummy    0x00000000200054c0      0x800
 *(.stack*)
 .stack         0x00000000200054c0      0x800 CMakeFiles/51_serial.dir/__/__/toolchain/gcc/gcc_startup_nrf51.S.obj
                0x0000000020007d00                __StackTop = (ORIGIN (RAM) + LENGTH (RAM))
                0x0000000020007500                __StackLimit = (__StackTop - SIZEOF (.stack_dummy))
                0x0000000020007d00                PROVIDE (__stack, __StackTop)
                0x0000000000000001                ASSERT ((__StackLimit >= __HeapLimit), region RAM overflowed with stack)
OUTPUT(51_serial.elf elf32-littlearm)

.ARM.attributes
                0x0000000000000000       0x28
 .ARM.attributes
                0x0000000000000000       0x1e /usr/bin/../lib/gcc/arm-none-eabi/6.3.1/thumb/v6-m/crti.o
 .ARM.attributes
                0x000000000000001e       0x2c /usr/bin/../lib/gcc/arm-none-eabi/6.3.1/thumb/v6-m/crtbegin.o
 .ARM.attributes
                0x000000000000004a       0x1b /usr/bin/../lib/gcc/arm-none-eabi/6.3.1/../../../../arm-none-eabi/lib/thumb/v6-m/crt0.o
 .ARM.attributes
                0x0000000000000065       0x31 CMakeFiles/51_serial.dir/src/main.c.obj
 .ARM.attributes
                0x0000000000000096       0x31 CMakeFiles/51_serial.dir/__/nrf_mesh_sdk.c.obj
 .ARM.attributes
                0x00000000000000c7       0x31 CMakeFiles/51_serial.dir/__/__/mesh/src/access/access.c.obj
 .ARM.attributes
                0x00000000000000f8       0x31 CMakeFiles/51_serial.dir/__/__/mesh/src/access/access_publish.c.obj
 .ARM.attributes
                0x0000000000000129       0x31 CMakeFiles/51_serial.dir/__/__/mesh/src/access/access_reliable.c.obj
 .ARM.attributes
                0x000000000000015a       0x31 CMakeFiles/51_serial.dir/__/__/mesh/src/access/device_state_manager.c.obj
 .ARM.attributes
                0x000000000000018b       0x31 CMakeFiles/51_serial.dir/__/__/mesh/src/serial/nrf_mesh_serial.c.obj
 .ARM.attributes
                0x00000000000001bc       0x31 CMakeFiles/51_serial.dir/__/__/mesh/src/serial/serial.c.obj
 .ARM.attributes
                0x00000000000001ed       0x31 CMakeFiles/51_serial.dir/__/__/mesh/src/serial/serial_bearer.c.obj
 .ARM.attributes
                0x000000000000021e       0x31 CMakeFiles/51_serial.dir/__/__/mesh/src/serial/serial_handler_common.c.obj
 .ARM.attributes
                0x000000000000024f       0x31 CMakeFiles/51_serial.dir/__/__/mesh/src/serial/serial_handler_access.c.obj
 .ARM.attributes
                0x0000000000000280       0x31 CMakeFiles/51_serial.dir/__/__/mesh/src/serial/serial_handler_app.c.obj
 .ARM.attributes
                0x00000000000002b1       0x31 CMakeFiles/51_serial.dir/__/__/mesh/src/serial/serial_handler_config.c.obj
 .ARM.attributes
                0x00000000000002e2       0x31 CMakeFiles/51_serial.dir/__/__/mesh/src/serial/serial_handler_device.c.obj
 .ARM.attributes
                0x0000000000000313       0x31 CMakeFiles/51_serial.dir/__/__/mesh/src/serial/serial_handler_dfu.c.obj
 .ARM.attributes
                0x0000000000000344       0x31 CMakeFiles/51_serial.dir/__/__/mesh/src/serial/serial_handler_mesh.c.obj
 .ARM.attributes
                0x0000000000000375       0x31 CMakeFiles/51_serial.dir/__/__/mesh/src/serial/serial_handler_models.c.obj
 .ARM.attributes
                0x00000000000003a6       0x31 CMakeFiles/51_serial.dir/__/__/mesh/src/serial/serial_handler_openmesh.c.obj
 .ARM.attributes
                0x00000000000003d7       0x31 CMakeFiles/51_serial.dir/__/__/mesh/src/serial/serial_handler_prov.c.obj
 .ARM.attributes
                0x0000000000000408       0x31 CMakeFiles/51_serial.dir/__/__/mesh/src/serial/serial_uart.c.obj
 .ARM.attributes
                0x0000000000000439       0x31 CMakeFiles/51_serial.dir/__/__/mesh/src/prov/provisioning.c.obj
 .ARM.attributes
                0x000000000000046a       0x31 CMakeFiles/51_serial.dir/__/__/mesh/src/prov/nrf_mesh_prov.c.obj
 .ARM.attributes
                0x000000000000049b       0x31 CMakeFiles/51_serial.dir/__/__/mesh/src/prov/prov_bearer_adv.c.obj
 .ARM.attributes
                0x00000000000004cc       0x31 CMakeFiles/51_serial.dir/__/__/mesh/src/prov/prov_utils.c.obj
 .ARM.attributes
                0x00000000000004fd       0x31 CMakeFiles/51_serial.dir/__/__/mesh/src/prov/prov_beacon.c.obj
 .ARM.attributes
                0x000000000000052e       0x31 CMakeFiles/51_serial.dir/__/__/mesh/src/prov/prov_provisioner.c.obj
 .ARM.attributes
                0x000000000000055f       0x31 CMakeFiles/51_serial.dir/__/__/mesh/src/prov/prov_provisionee.c.obj
 .ARM.attributes
                0x0000000000000590       0x1b CMakeFiles/51_serial.dir/__/__/toolchain/gcc/gcc_startup_nrf51.S.obj
 .ARM.attributes
                0x00000000000005ab       0x31 CMakeFiles/51_serial.dir/__/__/toolchain/system_nrf51.c.obj
 .ARM.attributes
                0x00000000000005dc       0x31 ../../mesh/lib_51_MBTLE_CORE.a(nrf_mesh_weak.c.obj)
 .ARM.attributes
                0x000000000000060d       0x31 ../../mesh/lib_51_MBTLE_CORE.a(bearer_adv.c.obj)
 .ARM.attributes
                0x000000000000063e       0x31 ../../mesh/lib_51_MBTLE_CORE.a(fifo.c.obj)
 .ARM.attributes
                0x000000000000066f       0x31 ../../mesh/lib_51_MBTLE_CORE.a(packet_mgr.c.obj)
 .ARM.attributes
                0x00000000000006a0       0x31 ../../mesh/lib_51_MBTLE_CORE.a(radio.c.obj)
 .ARM.attributes
                0x00000000000006d1       0x31 ../../mesh/lib_51_MBTLE_CORE.a(timer.c.obj)
 .ARM.attributes
                0x0000000000000702       0x31 ../../mesh/lib_51_MBTLE_CORE.a(timer_scheduler.c.obj)
 .ARM.attributes
                0x0000000000000733       0x31 ../../mesh/lib_51_MBTLE_CORE.a(beacon.c.obj)
 .ARM.attributes
                0x0000000000000764       0x31 ../../mesh/lib_51_MBTLE_CORE.a(bearer.c.obj)
 .ARM.attributes
                0x0000000000000795       0x31 ../../mesh/lib_51_MBTLE_CORE.a(bearer_event.c.obj)
 .ARM.attributes
                0x00000000000007c6       0x31 ../../mesh/lib_51_MBTLE_CORE.a(nrf_mesh_configure.c.obj)
 .ARM.attributes
                0x00000000000007f7       0x31 ../../mesh/lib_51_MBTLE_CORE.a(enc.c.obj)
 .ARM.attributes
                0x0000000000000828       0x31 ../../mesh/lib_51_MBTLE_CORE.a(event.c.obj)
 .ARM.attributes
                0x0000000000000859       0x31 ../../mesh/lib_51_MBTLE_CORE.a(hal.c.obj)
 .ARM.attributes
                0x000000000000088a       0x31 ../../mesh/lib_51_MBTLE_CORE.a(log.c.obj)
 .ARM.attributes
                0x00000000000008bb       0x31 ../../mesh/lib_51_MBTLE_CORE.a(net_beacon.c.obj)
 .ARM.attributes
                0x00000000000008ec       0x31 ../../mesh/lib_51_MBTLE_CORE.a(net_state.c.obj)
 .ARM.attributes
                0x000000000000091d       0x31 ../../mesh/lib_51_MBTLE_CORE.a(nrf_mesh.c.obj)
 .ARM.attributes
                0x000000000000094e       0x31 ../../mesh/lib_51_MBTLE_CORE.a(nrf_mesh_keygen.c.obj)
 .ARM.attributes
                0x000000000000097f       0x31 ../../mesh/lib_51_MBTLE_CORE.a(nrf_mesh_utils.c.obj)
 .ARM.attributes
                0x00000000000009b0       0x31 ../../mesh/lib_51_MBTLE_CORE.a(nrf_mesh_opt.c.obj)
 .ARM.attributes
                0x00000000000009e1       0x31 ../../mesh/lib_51_MBTLE_CORE.a(radio_config.c.obj)
 .ARM.attributes
                0x0000000000000a12       0x31 ../../mesh/lib_51_MBTLE_CORE.a(packet_buffer.c.obj)
 .ARM.attributes
                0x0000000000000a43       0x31 ../../mesh/lib_51_MBTLE_CORE.a(rand.c.obj)
 .ARM.attributes
                0x0000000000000a74       0x31 ../../mesh/lib_51_MBTLE_CORE.a(ticker.c.obj)
 .ARM.attributes
                0x0000000000000aa5       0x31 ../../mesh/lib_51_MBTLE_CORE.a(transport.c.obj)
 .ARM.attributes
                0x0000000000000ad6       0x31 ../../mesh/lib_51_MBTLE_CORE.a(internal_event.c.obj)
 .ARM.attributes
                0x0000000000000b07       0x31 ../../mesh/lib_51_MBTLE_CORE.a(flash_manager.c.obj)
 .ARM.attributes
                0x0000000000000b38       0x31 ../../mesh/lib_51_MBTLE_CORE.a(flash_manager_defrag.c.obj)
 .ARM.attributes
                0x0000000000000b69       0x31 ../../mesh/lib_51_MBTLE_CORE.a(flash_manager_internal.c.obj)
 .ARM.attributes
                0x0000000000000b9a       0x31 ../../mesh/lib_51_MBTLE_CORE.a(aes.c.obj)
 .ARM.attributes
                0x0000000000000bcb       0x31 ../../mesh/lib_51_MBTLE_CORE.a(queue.c.obj)
 .ARM.attributes
                0x0000000000000bfc       0x31 ../../mesh/lib_51_MBTLE_CORE.a(timeslot.c.obj)
 .ARM.attributes
                0x0000000000000c2d       0x31 ../../mesh/lib_51_MBTLE_CORE.a(aes_cmac.c.obj)
 .ARM.attributes
                0x0000000000000c5e       0x31 ../../mesh/lib_51_MBTLE_CORE.a(ccm_soft.c.obj)
 .ARM.attributes
                0x0000000000000c8f       0x31 ../../mesh/lib_51_MBTLE_CORE.a(msg_cache.c.obj)
 .ARM.attributes
                0x0000000000000cc0       0x31 ../../mesh/lib_51_MBTLE_CORE.a(network.c.obj)
 .ARM.attributes
                0x0000000000000cf1       0x31 ../../mesh/lib_51_MBTLE_CORE.a(packet.c.obj)
 .ARM.attributes
                0x0000000000000d22       0x31 ../../mesh/lib_51_MBTLE_CORE.a(replay_cache.c.obj)
 .ARM.attributes
                0x0000000000000d53       0x31 ../../mesh/lib_51_MBTLE_CORE.a(mesh_flash.c.obj)
 .ARM.attributes
                0x0000000000000d84       0x31 ../../mesh/lib_51_MBTLE_CORE.a(nrf_flash.c.obj)
 .ARM.attributes
                0x0000000000000db5       0x31 ../../mesh/lib_51_MBTLE_CORE.a(msqueue.c.obj)
 .ARM.attributes
                0x0000000000000de6       0x31 ../../lib/micro-ecc/lib_51_UECC_LIB.a(uECC.c.obj)
 .ARM.attributes
                0x0000000000000e17       0x31 ../../lib/rtt/lib_51_RTT_LIB.a(SEGGER_RTT.c.obj)
 .ARM.attributes
                0x0000000000000e48       0x31 ../../lib/rtt/lib_51_RTT_LIB.a(SEGGER_RTT_printf.c.obj)
 .ARM.attributes
                0x0000000000000e79       0x1e /usr/bin/../lib/gcc/arm-none-eabi/6.3.1/thumb/v6-m/libgcc.a(_udivsi3.o)
 .ARM.attributes
                0x0000000000000e97       0x1e /usr/bin/../lib/gcc/arm-none-eabi/6.3.1/thumb/v6-m/libgcc.a(_divsi3.o)
 .ARM.attributes
                0x0000000000000eb5       0x1e /usr/bin/../lib/gcc/arm-none-eabi/6.3.1/thumb/v6-m/libgcc.a(_dvmd_tls.o)
 .ARM.attributes
                0x0000000000000ed3       0x2c /usr/bin/../lib/gcc/arm-none-eabi/6.3.1/thumb/v6-m/libgcc.a(_muldi3.o)
 .ARM.attributes
                0x0000000000000eff       0x2c /usr/bin/../lib/gcc/arm-none-eabi/6.3.1/../../../../arm-none-eabi/lib/thumb/v6-m/libg_nano.a(lib_a-exit.o)
 .ARM.attributes
                0x0000000000000f2b       0x2c /usr/bin/../lib/gcc/arm-none-eabi/6.3.1/../../../../arm-none-eabi/lib/thumb/v6-m/libg_nano.a(lib_a-impure.o)
 .ARM.attributes
                0x0000000000000f57       0x2c /usr/bin/../lib/gcc/arm-none-eabi/6.3.1/../../../../arm-none-eabi/lib/thumb/v6-m/libg_nano.a(lib_a-init.o)
 .ARM.attributes
                0x0000000000000f83       0x2c /usr/bin/../lib/gcc/arm-none-eabi/6.3.1/../../../../arm-none-eabi/lib/thumb/v6-m/libg_nano.a(lib_a-malloc.o)
 .ARM.attributes
                0x0000000000000faf       0x2c /usr/bin/../lib/gcc/arm-none-eabi/6.3.1/../../../../arm-none-eabi/lib/thumb/v6-m/libg_nano.a(lib_a-memcmp.o)
 .ARM.attributes
                0x0000000000000fdb       0x2c /usr/bin/../lib/gcc/arm-none-eabi/6.3.1/../../../../arm-none-eabi/lib/thumb/v6-m/libg_nano.a(lib_a-memcpy-stub.o)
 .ARM.attributes
                0x0000000000001007       0x2c /usr/bin/../lib/gcc/arm-none-eabi/6.3.1/../../../../arm-none-eabi/lib/thumb/v6-m/libg_nano.a(lib_a-memset.o)
 .ARM.attributes
                0x0000000000001033       0x2c /usr/bin/../lib/gcc/arm-none-eabi/6.3.1/../../../../arm-none-eabi/lib/thumb/v6-m/libg_nano.a(lib_a-nano-freer.o)
 .ARM.attributes
                0x000000000000105f       0x2c /usr/bin/../lib/gcc/arm-none-eabi/6.3.1/../../../../arm-none-eabi/lib/thumb/v6-m/libg_nano.a(lib_a-nano-mallocr.o)
 .ARM.attributes
                0x000000000000108b       0x2c /usr/bin/../lib/gcc/arm-none-eabi/6.3.1/../../../../arm-none-eabi/lib/thumb/v6-m/libg_nano.a(lib_a-sbrkr.o)
 .ARM.attributes
                0x00000000000010b7       0x2c /usr/bin/../lib/gcc/arm-none-eabi/6.3.1/../../../../arm-none-eabi/lib/thumb/v6-m/libg_nano.a(lib_a-strcpy.o)
 .ARM.attributes
                0x00000000000010e3       0x1c /usr/bin/../lib/gcc/arm-none-eabi/6.3.1/../../../../arm-none-eabi/lib/thumb/v6-m/libg_nano.a(lib_a-strlen.o)
 .ARM.attributes
                0x00000000000010ff       0x2c /usr/bin/../lib/gcc/arm-none-eabi/6.3.1/../../../../arm-none-eabi/lib/thumb/v6-m/libg_nano.a(lib_a-strrchr.o)
 .ARM.attributes
                0x000000000000112b       0x2c /usr/bin/../lib/gcc/arm-none-eabi/6.3.1/../../../../arm-none-eabi/lib/thumb/v6-m/libg_nano.a(lib_a-mlock.o)
 .ARM.attributes
                0x0000000000001157       0x2c /usr/bin/../lib/gcc/arm-none-eabi/6.3.1/../../../../arm-none-eabi/lib/thumb/v6-m/libg_nano.a(lib_a-reent.o)
 .ARM.attributes
                0x0000000000001183       0x2c /usr/bin/../lib/gcc/arm-none-eabi/6.3.1/../../../../arm-none-eabi/lib/thumb/v6-m/libg_nano.a(lib_a-strchr.o)
 .ARM.attributes
                0x00000000000011af       0x2c /usr/bin/../lib/gcc/arm-none-eabi/6.3.1/thumb/v6-m/crtend.o
 .ARM.attributes
                0x00000000000011db       0x1e /usr/bin/../lib/gcc/arm-none-eabi/6.3.1/thumb/v6-m/crtn.o
 .ARM.attributes
                0x00000000000011f9       0x2c /usr/bin/../lib/gcc/arm-none-eabi/6.3.1/../../../../arm-none-eabi/lib/thumb/v6-m/libnosys.a(sbrk.o)
 .ARM.attributes
                0x0000000000001225       0x2c /usr/bin/../lib/gcc/arm-none-eabi/6.3.1/../../../../arm-none-eabi/lib/thumb/v6-m/libnosys.a(_exit.o)

.comment        0x0000000000000000       0x7f
 .comment       0x0000000000000000       0x7f CMakeFiles/51_serial.dir/src/main.c.obj
                                         0x80 (size before relaxing)
 .comment       0x000000000000007f       0x80 CMakeFiles/51_serial.dir/__/nrf_mesh_sdk.c.obj
 .comment       0x000000000000007f       0x80 CMakeFiles/51_serial.dir/__/__/mesh/src/access/access.c.obj
 .comment       0x000000000000007f       0x80 CMakeFiles/51_serial.dir/__/__/mesh/src/access/access_publish.c.obj
 .comment       0x000000000000007f       0x80 CMakeFiles/51_serial.dir/__/__/mesh/src/access/access_reliable.c.obj
 .comment       0x000000000000007f       0x80 CMakeFiles/51_serial.dir/__/__/mesh/src/access/device_state_manager.c.obj
 .comment       0x000000000000007f       0x80 CMakeFiles/51_serial.dir/__/__/mesh/src/serial/nrf_mesh_serial.c.obj
 .comment       0x000000000000007f       0x80 CMakeFiles/51_serial.dir/__/__/mesh/src/serial/serial.c.obj
 .comment       0x000000000000007f       0x80 CMakeFiles/51_serial.dir/__/__/mesh/src/serial/serial_bearer.c.obj
 .comment       0x000000000000007f       0x80 CMakeFiles/51_serial.dir/__/__/mesh/src/serial/serial_handler_common.c.obj
 .comment       0x000000000000007f       0x80 CMakeFiles/51_serial.dir/__/__/mesh/src/serial/serial_handler_access.c.obj
 .comment       0x000000000000007f       0x80 CMakeFiles/51_serial.dir/__/__/mesh/src/serial/serial_handler_app.c.obj
 .comment       0x000000000000007f       0x80 CMakeFiles/51_serial.dir/__/__/mesh/src/serial/serial_handler_config.c.obj
 .comment       0x000000000000007f       0x80 CMakeFiles/51_serial.dir/__/__/mesh/src/serial/serial_handler_device.c.obj
 .comment       0x000000000000007f       0x80 CMakeFiles/51_serial.dir/__/__/mesh/src/serial/serial_handler_dfu.c.obj
 .comment       0x000000000000007f       0x80 CMakeFiles/51_serial.dir/__/__/mesh/src/serial/serial_handler_mesh.c.obj
 .comment       0x000000000000007f       0x80 CMakeFiles/51_serial.dir/__/__/mesh/src/serial/serial_handler_models.c.obj
 .comment       0x000000000000007f       0x80 CMakeFiles/51_serial.dir/__/__/mesh/src/serial/serial_handler_openmesh.c.obj
 .comment       0x000000000000007f       0x80 CMakeFiles/51_serial.dir/__/__/mesh/src/serial/serial_handler_prov.c.obj
 .comment       0x000000000000007f       0x80 CMakeFiles/51_serial.dir/__/__/mesh/src/serial/serial_uart.c.obj
 .comment       0x000000000000007f       0x80 CMakeFiles/51_serial.dir/__/__/mesh/src/prov/provisioning.c.obj
 .comment       0x000000000000007f       0x80 CMakeFiles/51_serial.dir/__/__/mesh/src/prov/nrf_mesh_prov.c.obj
 .comment       0x000000000000007f       0x80 CMakeFiles/51_serial.dir/__/__/mesh/src/prov/prov_bearer_adv.c.obj
 .comment       0x000000000000007f       0x80 CMakeFiles/51_serial.dir/__/__/mesh/src/prov/prov_utils.c.obj
 .comment       0x000000000000007f       0x80 CMakeFiles/51_serial.dir/__/__/mesh/src/prov/prov_beacon.c.obj
 .comment       0x000000000000007f       0x80 CMakeFiles/51_serial.dir/__/__/mesh/src/prov/prov_provisioner.c.obj
 .comment       0x000000000000007f       0x80 CMakeFiles/51_serial.dir/__/__/mesh/src/prov/prov_provisionee.c.obj
 .comment       0x000000000000007f       0x80 CMakeFiles/51_serial.dir/__/__/toolchain/system_nrf51.c.obj
 .comment       0x000000000000007f       0x80 ../../mesh/lib_51_MBTLE_CORE.a(nrf_mesh_weak.c.obj)
 .comment       0x000000000000007f       0x80 ../../mesh/lib_51_MBTLE_CORE.a(bearer_adv.c.obj)
 .comment       0x000000000000007f       0x80 ../../mesh/lib_51_MBTLE_CORE.a(fifo.c.obj)
 .comment       0x000000000000007f       0x80 ../../mesh/lib_51_MBTLE_CORE.a(packet_mgr.c.obj)
 .comment       0x000000000000007f       0x80 ../../mesh/lib_51_MBTLE_CORE.a(radio.c.obj)
 .comment       0x000000000000007f       0x80 ../../mesh/lib_51_MBTLE_CORE.a(timer.c.obj)
 .comment       0x000000000000007f       0x80 ../../mesh/lib_51_MBTLE_CORE.a(timer_scheduler.c.obj)
 .comment       0x000000000000007f       0x80 ../../mesh/lib_51_MBTLE_CORE.a(beacon.c.obj)
 .comment       0x000000000000007f       0x80 ../../mesh/lib_51_MBTLE_CORE.a(bearer.c.obj)
 .comment       0x000000000000007f       0x80 ../../mesh/lib_51_MBTLE_CORE.a(bearer_event.c.obj)
 .comment       0x000000000000007f       0x80 ../../mesh/lib_51_MBTLE_CORE.a(nrf_mesh_configure.c.obj)
 .comment       0x000000000000007f       0x80 ../../mesh/lib_51_MBTLE_CORE.a(enc.c.obj)
 .comment       0x000000000000007f       0x80 ../../mesh/lib_51_MBTLE_CORE.a(event.c.obj)
 .comment       0x000000000000007f       0x80 ../../mesh/lib_51_MBTLE_CORE.a(hal.c.obj)
 .comment       0x000000000000007f       0x80 ../../mesh/lib_51_MBTLE_CORE.a(log.c.obj)
 .comment       0x000000000000007f       0x80 ../../mesh/lib_51_MBTLE_CORE.a(net_beacon.c.obj)
 .comment       0x000000000000007f       0x80 ../../mesh/lib_51_MBTLE_CORE.a(net_state.c.obj)
 .comment       0x000000000000007f       0x80 ../../mesh/lib_51_MBTLE_CORE.a(nrf_mesh.c.obj)
 .comment       0x000000000000007f       0x80 ../../mesh/lib_51_MBTLE_CORE.a(nrf_mesh_keygen.c.obj)
 .comment       0x000000000000007f       0x80 ../../mesh/lib_51_MBTLE_CORE.a(nrf_mesh_utils.c.obj)
 .comment       0x000000000000007f       0x80 ../../mesh/lib_51_MBTLE_CORE.a(nrf_mesh_opt.c.obj)
 .comment       0x000000000000007f       0x80 ../../mesh/lib_51_MBTLE_CORE.a(radio_config.c.obj)
 .comment       0x000000000000007f       0x80 ../../mesh/lib_51_MBTLE_CORE.a(packet_buffer.c.obj)
 .comment       0x000000000000007f       0x80 ../../mesh/lib_51_MBTLE_CORE.a(rand.c.obj)
 .comment       0x000000000000007f       0x80 ../../mesh/lib_51_MBTLE_CORE.a(ticker.c.obj)
 .comment       0x000000000000007f       0x80 ../../mesh/lib_51_MBTLE_CORE.a(transport.c.obj)
 .comment       0x000000000000007f       0x80 ../../mesh/lib_51_MBTLE_CORE.a(internal_event.c.obj)
 .comment       0x000000000000007f       0x80 ../../mesh/lib_51_MBTLE_CORE.a(flash_manager.c.obj)
 .comment       0x000000000000007f       0x80 ../../mesh/lib_51_MBTLE_CORE.a(flash_manager_defrag.c.obj)
 .comment       0x000000000000007f       0x80 ../../mesh/lib_51_MBTLE_CORE.a(flash_manager_internal.c.obj)
 .comment       0x000000000000007f       0x80 ../../mesh/lib_51_MBTLE_CORE.a(aes.c.obj)
 .comment       0x000000000000007f       0x80 ../../mesh/lib_51_MBTLE_CORE.a(queue.c.obj)
 .comment       0x000000000000007f       0x80 ../../mesh/lib_51_MBTLE_CORE.a(timeslot.c.obj)
 .comment       0x000000000000007f       0x80 ../../mesh/lib_51_MBTLE_CORE.a(aes_cmac.c.obj)
 .comment       0x000000000000007f       0x80 ../../mesh/lib_51_MBTLE_CORE.a(ccm_soft.c.obj)
 .comment       0x000000000000007f       0x80 ../../mesh/lib_51_MBTLE_CORE.a(msg_cache.c.obj)
 .comment       0x000000000000007f       0x80 ../../mesh/lib_51_MBTLE_CORE.a(network.c.obj)
 .comment       0x000000000000007f       0x80 ../../mesh/lib_51_MBTLE_CORE.a(packet.c.obj)
 .comment       0x000000000000007f       0x80 ../../mesh/lib_51_MBTLE_CORE.a(replay_cache.c.obj)
 .comment       0x000000000000007f       0x80 ../../mesh/lib_51_MBTLE_CORE.a(mesh_flash.c.obj)
 .comment       0x000000000000007f       0x80 ../../mesh/lib_51_MBTLE_CORE.a(nrf_flash.c.obj)
 .comment       0x000000000000007f       0x80 ../../mesh/lib_51_MBTLE_CORE.a(msqueue.c.obj)
 .comment       0x000000000000007f       0x80 ../../lib/micro-ecc/lib_51_UECC_LIB.a(uECC.c.obj)
 .comment       0x000000000000007f       0x80 ../../lib/rtt/lib_51_RTT_LIB.a(SEGGER_RTT.c.obj)
 .comment       0x000000000000007f       0x80 ../../lib/rtt/lib_51_RTT_LIB.a(SEGGER_RTT_printf.c.obj)

.debug_info     0x0000000000000000    0x8d229
 .debug_info    0x0000000000000000     0x16c4 CMakeFiles/51_serial.dir/src/main.c.obj
 .debug_info    0x00000000000016c4     0x2e53 CMakeFiles/51_serial.dir/__/nrf_mesh_sdk.c.obj
 .debug_info    0x0000000000004517     0x4728 CMakeFiles/51_serial.dir/__/__/mesh/src/access/access.c.obj
 .debug_info    0x0000000000008c3f     0x1131 CMakeFiles/51_serial.dir/__/__/mesh/src/access/access_publish.c.obj
 .debug_info    0x0000000000009d70     0x14a6 CMakeFiles/51_serial.dir/__/__/mesh/src/access/access_reliable.c.obj
 .debug_info    0x000000000000b216     0x5aba CMakeFiles/51_serial.dir/__/__/mesh/src/access/device_state_manager.c.obj
 .debug_info    0x0000000000010cd0     0x2b95 CMakeFiles/51_serial.dir/__/__/mesh/src/serial/nrf_mesh_serial.c.obj
 .debug_info    0x0000000000013865     0x352d CMakeFiles/51_serial.dir/__/__/mesh/src/serial/serial.c.obj
 .debug_info    0x0000000000016d92     0x38c9 CMakeFiles/51_serial.dir/__/__/mesh/src/serial/serial_bearer.c.obj
 .debug_info    0x000000000001a65b     0x2b35 CMakeFiles/51_serial.dir/__/__/mesh/src/serial/serial_handler_common.c.obj
 .debug_info    0x000000000001d190     0x3593 CMakeFiles/51_serial.dir/__/__/mesh/src/serial/serial_handler_access.c.obj
 .debug_info    0x0000000000020723     0x2a34 CMakeFiles/51_serial.dir/__/__/mesh/src/serial/serial_handler_app.c.obj
 .debug_info    0x0000000000023157     0x2ba6 CMakeFiles/51_serial.dir/__/__/mesh/src/serial/serial_handler_config.c.obj
 .debug_info    0x0000000000025cfd     0x355a CMakeFiles/51_serial.dir/__/__/mesh/src/serial/serial_handler_device.c.obj
 .debug_info    0x0000000000029257     0x3e9d CMakeFiles/51_serial.dir/__/__/mesh/src/serial/serial_handler_dfu.c.obj
 .debug_info    0x000000000002d0f4     0x48f0 CMakeFiles/51_serial.dir/__/__/mesh/src/serial/serial_handler_mesh.c.obj
 .debug_info    0x00000000000319e4     0x2ed4 CMakeFiles/51_serial.dir/__/__/mesh/src/serial/serial_handler_models.c.obj
 .debug_info    0x00000000000348b8     0x2a11 CMakeFiles/51_serial.dir/__/__/mesh/src/serial/serial_handler_openmesh.c.obj
 .debug_info    0x00000000000372c9     0x44f6 CMakeFiles/51_serial.dir/__/__/mesh/src/serial/serial_handler_prov.c.obj
 .debug_info    0x000000000003b7bf     0x10ea CMakeFiles/51_serial.dir/__/__/mesh/src/serial/serial_uart.c.obj
 .debug_info    0x000000000003c8a9     0x1fdb CMakeFiles/51_serial.dir/__/__/mesh/src/prov/provisioning.c.obj
 .debug_info    0x000000000003e884     0x19e0 CMakeFiles/51_serial.dir/__/__/mesh/src/prov/nrf_mesh_prov.c.obj
 .debug_info    0x0000000000040264     0x388b CMakeFiles/51_serial.dir/__/__/mesh/src/prov/prov_bearer_adv.c.obj
 .debug_info    0x0000000000043aef     0x20fc CMakeFiles/51_serial.dir/__/__/mesh/src/prov/prov_utils.c.obj
 .debug_info    0x0000000000045beb     0x1a54 CMakeFiles/51_serial.dir/__/__/mesh/src/prov/prov_beacon.c.obj
 .debug_info    0x000000000004763f     0x2fdc CMakeFiles/51_serial.dir/__/__/mesh/src/prov/prov_provisioner.c.obj
 .debug_info    0x000000000004a61b     0x3399 CMakeFiles/51_serial.dir/__/__/mesh/src/prov/prov_provisionee.c.obj
 .debug_info    0x000000000004d9b4       0xbe CMakeFiles/51_serial.dir/__/__/toolchain/gcc/gcc_startup_nrf51.S.obj
 .debug_info    0x000000000004da72      0x1e1 CMakeFiles/51_serial.dir/__/__/toolchain/system_nrf51.c.obj
 .debug_info    0x000000000004dc53      0x924 ../../mesh/lib_51_MBTLE_CORE.a(nrf_mesh_weak.c.obj)
 .debug_info    0x000000000004e577     0x3587 ../../mesh/lib_51_MBTLE_CORE.a(bearer_adv.c.obj)
 .debug_info    0x0000000000051afe      0xc92 ../../mesh/lib_51_MBTLE_CORE.a(fifo.c.obj)
 .debug_info    0x0000000000052790     0x115b ../../mesh/lib_51_MBTLE_CORE.a(packet_mgr.c.obj)
 .debug_info    0x00000000000538eb     0x18e9 ../../mesh/lib_51_MBTLE_CORE.a(radio.c.obj)
 .debug_info    0x00000000000551d4      0xbbe ../../mesh/lib_51_MBTLE_CORE.a(timer.c.obj)
 .debug_info    0x0000000000055d92     0x10aa ../../mesh/lib_51_MBTLE_CORE.a(timer_scheduler.c.obj)
 .debug_info    0x0000000000056e3c     0x151c ../../mesh/lib_51_MBTLE_CORE.a(beacon.c.obj)
 .debug_info    0x0000000000058358     0x1ee8 ../../mesh/lib_51_MBTLE_CORE.a(bearer.c.obj)
 .debug_info    0x000000000005a240     0x14cf ../../mesh/lib_51_MBTLE_CORE.a(bearer_event.c.obj)
 .debug_info    0x000000000005b70f      0xb9e ../../mesh/lib_51_MBTLE_CORE.a(nrf_mesh_configure.c.obj)
 .debug_info    0x000000000005c2ad     0x1607 ../../mesh/lib_51_MBTLE_CORE.a(enc.c.obj)
 .debug_info    0x000000000005d8b4     0x1148 ../../mesh/lib_51_MBTLE_CORE.a(event.c.obj)
 .debug_info    0x000000000005e9fc      0x445 ../../mesh/lib_51_MBTLE_CORE.a(hal.c.obj)
 .debug_info    0x000000000005ee41      0xe12 ../../mesh/lib_51_MBTLE_CORE.a(log.c.obj)
 .debug_info    0x000000000005fc53     0x1268 ../../mesh/lib_51_MBTLE_CORE.a(net_beacon.c.obj)
 .debug_info    0x0000000000060ebb     0x25f5 ../../mesh/lib_51_MBTLE_CORE.a(net_state.c.obj)
 .debug_info    0x00000000000634b0     0x3b2c ../../mesh/lib_51_MBTLE_CORE.a(nrf_mesh.c.obj)
 .debug_info    0x0000000000066fdc      0xcfc ../../mesh/lib_51_MBTLE_CORE.a(nrf_mesh_keygen.c.obj)
 .debug_info    0x0000000000067cd8      0xa5f ../../mesh/lib_51_MBTLE_CORE.a(nrf_mesh_utils.c.obj)
 .debug_info    0x0000000000068737      0xbb4 ../../mesh/lib_51_MBTLE_CORE.a(nrf_mesh_opt.c.obj)
 .debug_info    0x00000000000692eb      0x854 ../../mesh/lib_51_MBTLE_CORE.a(radio_config.c.obj)
 .debug_info    0x0000000000069b3f     0x193b ../../mesh/lib_51_MBTLE_CORE.a(packet_buffer.c.obj)
 .debug_info    0x000000000006b47a      0x41e ../../mesh/lib_51_MBTLE_CORE.a(rand.c.obj)
 .debug_info    0x000000000006b898      0x204 ../../mesh/lib_51_MBTLE_CORE.a(ticker.c.obj)
 .debug_info    0x000000000006ba9c     0x6fb9 ../../mesh/lib_51_MBTLE_CORE.a(transport.c.obj)
 .debug_info    0x0000000000072a55      0xc28 ../../mesh/lib_51_MBTLE_CORE.a(internal_event.c.obj)
 .debug_info    0x000000000007367d     0x3a47 ../../mesh/lib_51_MBTLE_CORE.a(flash_manager.c.obj)
 .debug_info    0x00000000000770c4     0x248f ../../mesh/lib_51_MBTLE_CORE.a(flash_manager_defrag.c.obj)
 .debug_info    0x0000000000079553      0xb72 ../../mesh/lib_51_MBTLE_CORE.a(flash_manager_internal.c.obj)
 .debug_info    0x000000000007a0c5      0xd90 ../../mesh/lib_51_MBTLE_CORE.a(aes.c.obj)
 .debug_info    0x000000000007ae55      0xadb ../../mesh/lib_51_MBTLE_CORE.a(queue.c.obj)
 .debug_info    0x000000000007b930     0x1aef ../../mesh/lib_51_MBTLE_CORE.a(timeslot.c.obj)
 .debug_info    0x000000000007d41f      0xe95 ../../mesh/lib_51_MBTLE_CORE.a(aes_cmac.c.obj)
 .debug_info    0x000000000007e2b4     0x114a ../../mesh/lib_51_MBTLE_CORE.a(ccm_soft.c.obj)
 .debug_info    0x000000000007f3fe      0xb4d ../../mesh/lib_51_MBTLE_CORE.a(msg_cache.c.obj)
 .debug_info    0x000000000007ff4b     0x23ad ../../mesh/lib_51_MBTLE_CORE.a(network.c.obj)
 .debug_info    0x00000000000822f8      0xadf ../../mesh/lib_51_MBTLE_CORE.a(packet.c.obj)
 .debug_info    0x0000000000082dd7      0xae5 ../../mesh/lib_51_MBTLE_CORE.a(replay_cache.c.obj)
 .debug_info    0x00000000000838bc     0x14e5 ../../mesh/lib_51_MBTLE_CORE.a(mesh_flash.c.obj)
 .debug_info    0x0000000000084da1      0xad9 ../../mesh/lib_51_MBTLE_CORE.a(nrf_flash.c.obj)
 .debug_info    0x000000000008587a      0xcdb ../../mesh/lib_51_MBTLE_CORE.a(msqueue.c.obj)
 .debug_info    0x0000000000086555     0x4488 ../../lib/micro-ecc/lib_51_UECC_LIB.a(uECC.c.obj)
 .debug_info    0x000000000008a9dd     0x18aa ../../lib/rtt/lib_51_RTT_LIB.a(SEGGER_RTT.c.obj)
 .debug_info    0x000000000008c287      0xfa2 ../../lib/rtt/lib_51_RTT_LIB.a(SEGGER_RTT_printf.c.obj)

.debug_abbrev   0x0000000000000000     0xf357
 .debug_abbrev  0x0000000000000000      0x32c CMakeFiles/51_serial.dir/src/main.c.obj
 .debug_abbrev  0x000000000000032c      0x482 CMakeFiles/51_serial.dir/__/nrf_mesh_sdk.c.obj
 .debug_abbrev  0x00000000000007ae      0x642 CMakeFiles/51_serial.dir/__/__/mesh/src/access/access.c.obj
 .debug_abbrev  0x0000000000000df0      0x3ef CMakeFiles/51_serial.dir/__/__/mesh/src/access/access_publish.c.obj
 .debug_abbrev  0x00000000000011df      0x3dc CMakeFiles/51_serial.dir/__/__/mesh/src/access/access_reliable.c.obj
 .debug_abbrev  0x00000000000015bb      0x589 CMakeFiles/51_serial.dir/__/__/mesh/src/access/device_state_manager.c.obj
 .debug_abbrev  0x0000000000001b44      0x2a2 CMakeFiles/51_serial.dir/__/__/mesh/src/serial/nrf_mesh_serial.c.obj
 .debug_abbrev  0x0000000000001de6      0x3b6 CMakeFiles/51_serial.dir/__/__/mesh/src/serial/serial.c.obj
 .debug_abbrev  0x000000000000219c      0x484 CMakeFiles/51_serial.dir/__/__/mesh/src/serial/serial_bearer.c.obj
 .debug_abbrev  0x0000000000002620      0x25f CMakeFiles/51_serial.dir/__/__/mesh/src/serial/serial_handler_common.c.obj
 .debug_abbrev  0x000000000000287f      0x2cb CMakeFiles/51_serial.dir/__/__/mesh/src/serial/serial_handler_access.c.obj
 .debug_abbrev  0x0000000000002b4a      0x254 CMakeFiles/51_serial.dir/__/__/mesh/src/serial/serial_handler_app.c.obj
 .debug_abbrev  0x0000000000002d9e      0x288 CMakeFiles/51_serial.dir/__/__/mesh/src/serial/serial_handler_config.c.obj
 .debug_abbrev  0x0000000000003026      0x384 CMakeFiles/51_serial.dir/__/__/mesh/src/serial/serial_handler_device.c.obj
 .debug_abbrev  0x00000000000033aa      0x342 CMakeFiles/51_serial.dir/__/__/mesh/src/serial/serial_handler_dfu.c.obj
 .debug_abbrev  0x00000000000036ec      0x3ba CMakeFiles/51_serial.dir/__/__/mesh/src/serial/serial_handler_mesh.c.obj
 .debug_abbrev  0x0000000000003aa6      0x31c CMakeFiles/51_serial.dir/__/__/mesh/src/serial/serial_handler_models.c.obj
 .debug_abbrev  0x0000000000003dc2      0x250 CMakeFiles/51_serial.dir/__/__/mesh/src/serial/serial_handler_openmesh.c.obj
 .debug_abbrev  0x0000000000004012      0x3e4 CMakeFiles/51_serial.dir/__/__/mesh/src/serial/serial_handler_prov.c.obj
 .debug_abbrev  0x00000000000043f6      0x2c5 CMakeFiles/51_serial.dir/__/__/mesh/src/serial/serial_uart.c.obj
 .debug_abbrev  0x00000000000046bb      0x32e CMakeFiles/51_serial.dir/__/__/mesh/src/prov/provisioning.c.obj
 .debug_abbrev  0x00000000000049e9      0x2a9 CMakeFiles/51_serial.dir/__/__/mesh/src/prov/nrf_mesh_prov.c.obj
 .debug_abbrev  0x0000000000004c92      0x4f3 CMakeFiles/51_serial.dir/__/__/mesh/src/prov/prov_bearer_adv.c.obj
 .debug_abbrev  0x0000000000005185      0x3c8 CMakeFiles/51_serial.dir/__/__/mesh/src/prov/prov_utils.c.obj
 .debug_abbrev  0x000000000000554d      0x322 CMakeFiles/51_serial.dir/__/__/mesh/src/prov/prov_beacon.c.obj
 .debug_abbrev  0x000000000000586f      0x415 CMakeFiles/51_serial.dir/__/__/mesh/src/prov/prov_provisioner.c.obj
 .debug_abbrev  0x0000000000005c84      0x46f CMakeFiles/51_serial.dir/__/__/mesh/src/prov/prov_provisionee.c.obj
 .debug_abbrev  0x00000000000060f3       0x14 CMakeFiles/51_serial.dir/__/__/toolchain/gcc/gcc_startup_nrf51.S.obj
 .debug_abbrev  0x0000000000006107      0x106 CMakeFiles/51_serial.dir/__/__/toolchain/system_nrf51.c.obj
 .debug_abbrev  0x000000000000620d      0x1a7 ../../mesh/lib_51_MBTLE_CORE.a(nrf_mesh_weak.c.obj)
 .debug_abbrev  0x00000000000063b4      0x4d2 ../../mesh/lib_51_MBTLE_CORE.a(bearer_adv.c.obj)
 .debug_abbrev  0x0000000000006886      0x2d8 ../../mesh/lib_51_MBTLE_CORE.a(fifo.c.obj)
 .debug_abbrev  0x0000000000006b5e      0x3e2 ../../mesh/lib_51_MBTLE_CORE.a(packet_mgr.c.obj)
 .debug_abbrev  0x0000000000006f40      0x40b ../../mesh/lib_51_MBTLE_CORE.a(radio.c.obj)
 .debug_abbrev  0x000000000000734b      0x2d3 ../../mesh/lib_51_MBTLE_CORE.a(timer.c.obj)
 .debug_abbrev  0x000000000000761e      0x3d1 ../../mesh/lib_51_MBTLE_CORE.a(timer_scheduler.c.obj)
 .debug_abbrev  0x00000000000079ef      0x365 ../../mesh/lib_51_MBTLE_CORE.a(beacon.c.obj)
 .debug_abbrev  0x0000000000007d54      0x454 ../../mesh/lib_51_MBTLE_CORE.a(bearer.c.obj)
 .debug_abbrev  0x00000000000081a8      0x49e ../../mesh/lib_51_MBTLE_CORE.a(bearer_event.c.obj)
 .debug_abbrev  0x0000000000008646      0x240 ../../mesh/lib_51_MBTLE_CORE.a(nrf_mesh_configure.c.obj)
 .debug_abbrev  0x0000000000008886      0x324 ../../mesh/lib_51_MBTLE_CORE.a(enc.c.obj)
 .debug_abbrev  0x0000000000008baa      0x2ab ../../mesh/lib_51_MBTLE_CORE.a(event.c.obj)
 .debug_abbrev  0x0000000000008e55      0x1c6 ../../mesh/lib_51_MBTLE_CORE.a(hal.c.obj)
 .debug_abbrev  0x000000000000901b      0x24e ../../mesh/lib_51_MBTLE_CORE.a(log.c.obj)
 .debug_abbrev  0x0000000000009269      0x3b5 ../../mesh/lib_51_MBTLE_CORE.a(net_beacon.c.obj)
 .debug_abbrev  0x000000000000961e      0x4f5 ../../mesh/lib_51_MBTLE_CORE.a(net_state.c.obj)
 .debug_abbrev  0x0000000000009b13      0x49d ../../mesh/lib_51_MBTLE_CORE.a(nrf_mesh.c.obj)
 .debug_abbrev  0x0000000000009fb0      0x20d ../../mesh/lib_51_MBTLE_CORE.a(nrf_mesh_keygen.c.obj)
 .debug_abbrev  0x000000000000a1bd      0x24a ../../mesh/lib_51_MBTLE_CORE.a(nrf_mesh_utils.c.obj)
 .debug_abbrev  0x000000000000a407      0x239 ../../mesh/lib_51_MBTLE_CORE.a(nrf_mesh_opt.c.obj)
 .debug_abbrev  0x000000000000a640      0x1a8 ../../mesh/lib_51_MBTLE_CORE.a(radio_config.c.obj)
 .debug_abbrev  0x000000000000a7e8      0x417 ../../mesh/lib_51_MBTLE_CORE.a(packet_buffer.c.obj)
 .debug_abbrev  0x000000000000abff      0x1af ../../mesh/lib_51_MBTLE_CORE.a(rand.c.obj)
 .debug_abbrev  0x000000000000adae      0x14d ../../mesh/lib_51_MBTLE_CORE.a(ticker.c.obj)
 .debug_abbrev  0x000000000000aefb      0x68c ../../mesh/lib_51_MBTLE_CORE.a(transport.c.obj)
 .debug_abbrev  0x000000000000b587      0x24a ../../mesh/lib_51_MBTLE_CORE.a(internal_event.c.obj)
 .debug_abbrev  0x000000000000b7d1      0x53e ../../mesh/lib_51_MBTLE_CORE.a(flash_manager.c.obj)
 .debug_abbrev  0x000000000000bd0f      0x504 ../../mesh/lib_51_MBTLE_CORE.a(flash_manager_defrag.c.obj)
 .debug_abbrev  0x000000000000c213      0x283 ../../mesh/lib_51_MBTLE_CORE.a(flash_manager_internal.c.obj)
 .debug_abbrev  0x000000000000c496      0x2f8 ../../mesh/lib_51_MBTLE_CORE.a(aes.c.obj)
 .debug_abbrev  0x000000000000c78e      0x222 ../../mesh/lib_51_MBTLE_CORE.a(queue.c.obj)
 .debug_abbrev  0x000000000000c9b0      0x496 ../../mesh/lib_51_MBTLE_CORE.a(timeslot.c.obj)
 .debug_abbrev  0x000000000000ce46      0x2a4 ../../mesh/lib_51_MBTLE_CORE.a(aes_cmac.c.obj)
 .debug_abbrev  0x000000000000d0ea      0x29c ../../mesh/lib_51_MBTLE_CORE.a(ccm_soft.c.obj)
 .debug_abbrev  0x000000000000d386      0x278 ../../mesh/lib_51_MBTLE_CORE.a(msg_cache.c.obj)
 .debug_abbrev  0x000000000000d5fe      0x50c ../../mesh/lib_51_MBTLE_CORE.a(network.c.obj)
 .debug_abbrev  0x000000000000db0a      0x242 ../../mesh/lib_51_MBTLE_CORE.a(packet.c.obj)
 .debug_abbrev  0x000000000000dd4c      0x24c ../../mesh/lib_51_MBTLE_CORE.a(replay_cache.c.obj)
 .debug_abbrev  0x000000000000df98      0x3f6 ../../mesh/lib_51_MBTLE_CORE.a(mesh_flash.c.obj)
 .debug_abbrev  0x000000000000e38e      0x22b ../../mesh/lib_51_MBTLE_CORE.a(nrf_flash.c.obj)
 .debug_abbrev  0x000000000000e5b9      0x2a5 ../../mesh/lib_51_MBTLE_CORE.a(msqueue.c.obj)
 .debug_abbrev  0x000000000000e85e      0x44a ../../lib/micro-ecc/lib_51_UECC_LIB.a(uECC.c.obj)
 .debug_abbrev  0x000000000000eca8      0x34b ../../lib/rtt/lib_51_RTT_LIB.a(SEGGER_RTT.c.obj)
 .debug_abbrev  0x000000000000eff3      0x364 ../../lib/rtt/lib_51_RTT_LIB.a(SEGGER_RTT_printf.c.obj)

.debug_loc      0x0000000000000000    0x227da
 .debug_loc     0x0000000000000000      0x14a CMakeFiles/51_serial.dir/src/main.c.obj
 .debug_loc     0x000000000000014a      0x35a CMakeFiles/51_serial.dir/__/nrf_mesh_sdk.c.obj
 .debug_loc     0x00000000000004a4     0x250c CMakeFiles/51_serial.dir/__/__/mesh/src/access/access.c.obj
 .debug_loc     0x00000000000029b0      0x8f2 CMakeFiles/51_serial.dir/__/__/mesh/src/access/access_publish.c.obj
 .debug_loc     0x00000000000032a2      0x78e CMakeFiles/51_serial.dir/__/__/mesh/src/access/access_reliable.c.obj
 .debug_loc     0x0000000000003a30     0x3776 CMakeFiles/51_serial.dir/__/__/mesh/src/access/device_state_manager.c.obj
 .debug_loc     0x00000000000071a6       0xf7 CMakeFiles/51_serial.dir/__/__/mesh/src/serial/nrf_mesh_serial.c.obj
 .debug_loc     0x000000000000729d      0x32c CMakeFiles/51_serial.dir/__/__/mesh/src/serial/serial.c.obj
 .debug_loc     0x00000000000075c9      0x449 CMakeFiles/51_serial.dir/__/__/mesh/src/serial/serial_bearer.c.obj
 .debug_loc     0x0000000000007a12      0x1bd CMakeFiles/51_serial.dir/__/__/mesh/src/serial/serial_handler_common.c.obj
 .debug_loc     0x0000000000007bcf      0x80b CMakeFiles/51_serial.dir/__/__/mesh/src/serial/serial_handler_access.c.obj
 .debug_loc     0x00000000000083da       0x42 CMakeFiles/51_serial.dir/__/__/mesh/src/serial/serial_handler_app.c.obj
 .debug_loc     0x000000000000841c       0x55 CMakeFiles/51_serial.dir/__/__/mesh/src/serial/serial_handler_config.c.obj
 .debug_loc     0x0000000000008471      0x3e7 CMakeFiles/51_serial.dir/__/__/mesh/src/serial/serial_handler_device.c.obj
 .debug_loc     0x0000000000008858      0x346 CMakeFiles/51_serial.dir/__/__/mesh/src/serial/serial_handler_dfu.c.obj
 .debug_loc     0x0000000000008b9e      0x9da CMakeFiles/51_serial.dir/__/__/mesh/src/serial/serial_handler_mesh.c.obj
 .debug_loc     0x0000000000009578      0x351 CMakeFiles/51_serial.dir/__/__/mesh/src/serial/serial_handler_models.c.obj
 .debug_loc     0x00000000000098c9       0x58 CMakeFiles/51_serial.dir/__/__/mesh/src/serial/serial_handler_openmesh.c.obj
 .debug_loc     0x0000000000009921      0x5f3 CMakeFiles/51_serial.dir/__/__/mesh/src/serial/serial_handler_prov.c.obj
 .debug_loc     0x0000000000009f14       0xca CMakeFiles/51_serial.dir/__/__/mesh/src/serial/serial_uart.c.obj
 .debug_loc     0x0000000000009fde      0x826 CMakeFiles/51_serial.dir/__/__/mesh/src/prov/provisioning.c.obj
 .debug_loc     0x000000000000a804      0x889 CMakeFiles/51_serial.dir/__/__/mesh/src/prov/nrf_mesh_prov.c.obj
 .debug_loc     0x000000000000b08d     0x14aa CMakeFiles/51_serial.dir/__/__/mesh/src/prov/prov_bearer_adv.c.obj
 .debug_loc     0x000000000000c537      0x5a0 CMakeFiles/51_serial.dir/__/__/mesh/src/prov/prov_utils.c.obj
 .debug_loc     0x000000000000cad7      0x1c9 CMakeFiles/51_serial.dir/__/__/mesh/src/prov/prov_beacon.c.obj
 .debug_loc     0x000000000000cca0      0x759 CMakeFiles/51_serial.dir/__/__/mesh/src/prov/prov_provisioner.c.obj
 .debug_loc     0x000000000000d3f9      0x72b CMakeFiles/51_serial.dir/__/__/mesh/src/prov/prov_provisionee.c.obj
 .debug_loc     0x000000000000db24     0x1082 ../../mesh/lib_51_MBTLE_CORE.a(bearer_adv.c.obj)
 .debug_loc     0x000000000000eba6      0x584 ../../mesh/lib_51_MBTLE_CORE.a(fifo.c.obj)
 .debug_loc     0x000000000000f12a      0x730 ../../mesh/lib_51_MBTLE_CORE.a(packet_mgr.c.obj)
 .debug_loc     0x000000000000f85a      0x39a ../../mesh/lib_51_MBTLE_CORE.a(radio.c.obj)
 .debug_loc     0x000000000000fbf4      0x7b7 ../../mesh/lib_51_MBTLE_CORE.a(timer.c.obj)
 .debug_loc     0x00000000000103ab      0x5ed ../../mesh/lib_51_MBTLE_CORE.a(timer_scheduler.c.obj)
 .debug_loc     0x0000000000010998      0x5d9 ../../mesh/lib_51_MBTLE_CORE.a(beacon.c.obj)
 .debug_loc     0x0000000000010f71      0x8c7 ../../mesh/lib_51_MBTLE_CORE.a(bearer.c.obj)
 .debug_loc     0x0000000000011838      0x545 ../../mesh/lib_51_MBTLE_CORE.a(bearer_event.c.obj)
 .debug_loc     0x0000000000011d7d       0x2c ../../mesh/lib_51_MBTLE_CORE.a(nrf_mesh_configure.c.obj)
 .debug_loc     0x0000000000011da9      0xc1f ../../mesh/lib_51_MBTLE_CORE.a(enc.c.obj)
 .debug_loc     0x00000000000129c8      0x312 ../../mesh/lib_51_MBTLE_CORE.a(event.c.obj)
 .debug_loc     0x0000000000012cda       0x63 ../../mesh/lib_51_MBTLE_CORE.a(hal.c.obj)
 .debug_loc     0x0000000000012d3d      0x2f0 ../../mesh/lib_51_MBTLE_CORE.a(log.c.obj)
 .debug_loc     0x000000000001302d      0x3e5 ../../mesh/lib_51_MBTLE_CORE.a(net_beacon.c.obj)
 .debug_loc     0x0000000000013412      0x729 ../../mesh/lib_51_MBTLE_CORE.a(net_state.c.obj)
 .debug_loc     0x0000000000013b3b      0x3dc ../../mesh/lib_51_MBTLE_CORE.a(nrf_mesh.c.obj)
 .debug_loc     0x0000000000013f17      0x226 ../../mesh/lib_51_MBTLE_CORE.a(nrf_mesh_keygen.c.obj)
 .debug_loc     0x000000000001413d      0x12a ../../mesh/lib_51_MBTLE_CORE.a(nrf_mesh_utils.c.obj)
 .debug_loc     0x0000000000014267      0x214 ../../mesh/lib_51_MBTLE_CORE.a(nrf_mesh_opt.c.obj)
 .debug_loc     0x000000000001447b      0x2e2 ../../mesh/lib_51_MBTLE_CORE.a(radio_config.c.obj)
 .debug_loc     0x000000000001475d      0xe4d ../../mesh/lib_51_MBTLE_CORE.a(packet_buffer.c.obj)
 .debug_loc     0x00000000000155aa      0x1b2 ../../mesh/lib_51_MBTLE_CORE.a(rand.c.obj)
 .debug_loc     0x000000000001575c     0x248a ../../mesh/lib_51_MBTLE_CORE.a(transport.c.obj)
 .debug_loc     0x0000000000017be6      0x135 ../../mesh/lib_51_MBTLE_CORE.a(internal_event.c.obj)
 .debug_loc     0x0000000000017d1b     0x2190 ../../mesh/lib_51_MBTLE_CORE.a(flash_manager.c.obj)
 .debug_loc     0x0000000000019eab      0xc03 ../../mesh/lib_51_MBTLE_CORE.a(flash_manager_defrag.c.obj)
 .debug_loc     0x000000000001aaae      0x149 ../../mesh/lib_51_MBTLE_CORE.a(flash_manager_internal.c.obj)
 .debug_loc     0x000000000001abf7       0xcb ../../mesh/lib_51_MBTLE_CORE.a(aes.c.obj)
 .debug_loc     0x000000000001acc2      0x251 ../../mesh/lib_51_MBTLE_CORE.a(queue.c.obj)
 .debug_loc     0x000000000001af13      0x31f ../../mesh/lib_51_MBTLE_CORE.a(timeslot.c.obj)
 .debug_loc     0x000000000001b232      0x4c9 ../../mesh/lib_51_MBTLE_CORE.a(aes_cmac.c.obj)
 .debug_loc     0x000000000001b6fb      0x88b ../../mesh/lib_51_MBTLE_CORE.a(ccm_soft.c.obj)
 .debug_loc     0x000000000001bf86      0x139 ../../mesh/lib_51_MBTLE_CORE.a(msg_cache.c.obj)
 .debug_loc     0x000000000001c0bf      0xafd ../../mesh/lib_51_MBTLE_CORE.a(network.c.obj)
 .debug_loc     0x000000000001cbbc      0x144 ../../mesh/lib_51_MBTLE_CORE.a(packet.c.obj)
 .debug_loc     0x000000000001cd00      0x248 ../../mesh/lib_51_MBTLE_CORE.a(replay_cache.c.obj)
 .debug_loc     0x000000000001cf48      0xa6a ../../mesh/lib_51_MBTLE_CORE.a(mesh_flash.c.obj)
 .debug_loc     0x000000000001d9b2       0xf4 ../../mesh/lib_51_MBTLE_CORE.a(nrf_flash.c.obj)
 .debug_loc     0x000000000001daa6      0x4d7 ../../mesh/lib_51_MBTLE_CORE.a(msqueue.c.obj)
 .debug_loc     0x000000000001df7d     0x27fd ../../lib/micro-ecc/lib_51_UECC_LIB.a(uECC.c.obj)
 .debug_loc     0x000000000002077a     0x18a4 ../../lib/rtt/lib_51_RTT_LIB.a(SEGGER_RTT.c.obj)
 .debug_loc     0x000000000002201e      0x7bc ../../lib/rtt/lib_51_RTT_LIB.a(SEGGER_RTT_printf.c.obj)

.debug_aranges  0x0000000000000000     0x1f18
 .debug_aranges
                0x0000000000000000       0x20 CMakeFiles/51_serial.dir/src/main.c.obj
 .debug_aranges
                0x0000000000000020       0x78 CMakeFiles/51_serial.dir/__/nrf_mesh_sdk.c.obj
 .debug_aranges
                0x0000000000000098      0x190 CMakeFiles/51_serial.dir/__/__/mesh/src/access/access.c.obj
 .debug_aranges
                0x0000000000000228       0x48 CMakeFiles/51_serial.dir/__/__/mesh/src/access/access_publish.c.obj
 .debug_aranges
                0x0000000000000270       0x50 CMakeFiles/51_serial.dir/__/__/mesh/src/access/access_reliable.c.obj
 .debug_aranges
                0x00000000000002c0      0x298 CMakeFiles/51_serial.dir/__/__/mesh/src/access/device_state_manager.c.obj
 .debug_aranges
                0x0000000000000558       0x38 CMakeFiles/51_serial.dir/__/__/mesh/src/serial/nrf_mesh_serial.c.obj
 .debug_aranges
                0x0000000000000590       0x60 CMakeFiles/51_serial.dir/__/__/mesh/src/serial/serial.c.obj
 .debug_aranges
                0x00000000000005f0       0x68 CMakeFiles/51_serial.dir/__/__/mesh/src/serial/serial_bearer.c.obj
 .debug_aranges
                0x0000000000000658       0x28 CMakeFiles/51_serial.dir/__/__/mesh/src/serial/serial_handler_common.c.obj
 .debug_aranges
                0x0000000000000680       0xd0 CMakeFiles/51_serial.dir/__/__/mesh/src/serial/serial_handler_access.c.obj
 .debug_aranges
                0x0000000000000750       0x28 CMakeFiles/51_serial.dir/__/__/mesh/src/serial/serial_handler_app.c.obj
 .debug_aranges
                0x0000000000000778       0x20 CMakeFiles/51_serial.dir/__/__/mesh/src/serial/serial_handler_config.c.obj
 .debug_aranges
                0x0000000000000798       0x78 CMakeFiles/51_serial.dir/__/__/mesh/src/serial/serial_handler_device.c.obj
 .debug_aranges
                0x0000000000000810       0x30 CMakeFiles/51_serial.dir/__/__/mesh/src/serial/serial_handler_dfu.c.obj
 .debug_aranges
                0x0000000000000840      0x118 CMakeFiles/51_serial.dir/__/__/mesh/src/serial/serial_handler_mesh.c.obj
 .debug_aranges
                0x0000000000000958       0x48 CMakeFiles/51_serial.dir/__/__/mesh/src/serial/serial_handler_models.c.obj
 .debug_aranges
                0x00000000000009a0       0x20 CMakeFiles/51_serial.dir/__/__/mesh/src/serial/serial_handler_openmesh.c.obj
 .debug_aranges
                0x00000000000009c0       0x50 CMakeFiles/51_serial.dir/__/__/mesh/src/serial/serial_handler_prov.c.obj
 .debug_aranges
                0x0000000000000a10       0x38 CMakeFiles/51_serial.dir/__/__/mesh/src/serial/serial_uart.c.obj
 .debug_aranges
                0x0000000000000a48       0xc8 CMakeFiles/51_serial.dir/__/__/mesh/src/prov/provisioning.c.obj
 .debug_aranges
                0x0000000000000b10       0x58 CMakeFiles/51_serial.dir/__/__/mesh/src/prov/nrf_mesh_prov.c.obj
 .debug_aranges
                0x0000000000000b68       0xb8 CMakeFiles/51_serial.dir/__/__/mesh/src/prov/prov_bearer_adv.c.obj
 .debug_aranges
                0x0000000000000c20       0x70 CMakeFiles/51_serial.dir/__/__/mesh/src/prov/prov_utils.c.obj
 .debug_aranges
                0x0000000000000c90       0x30 CMakeFiles/51_serial.dir/__/__/mesh/src/prov/prov_beacon.c.obj
 .debug_aranges
                0x0000000000000cc0       0x70 CMakeFiles/51_serial.dir/__/__/mesh/src/prov/prov_provisioner.c.obj
 .debug_aranges
                0x0000000000000d30       0x70 CMakeFiles/51_serial.dir/__/__/mesh/src/prov/prov_provisionee.c.obj
 .debug_aranges
                0x0000000000000da0       0x20 CMakeFiles/51_serial.dir/__/__/toolchain/gcc/gcc_startup_nrf51.S.obj
 .debug_aranges
                0x0000000000000dc0       0x28 CMakeFiles/51_serial.dir/__/__/toolchain/system_nrf51.c.obj
 .debug_aranges
                0x0000000000000de8       0x28 ../../mesh/lib_51_MBTLE_CORE.a(nrf_mesh_weak.c.obj)
 .debug_aranges
                0x0000000000000e10      0x100 ../../mesh/lib_51_MBTLE_CORE.a(bearer_adv.c.obj)
 .debug_aranges
                0x0000000000000f10       0x60 ../../mesh/lib_51_MBTLE_CORE.a(fifo.c.obj)
 .debug_aranges
                0x0000000000000f70       0x48 ../../mesh/lib_51_MBTLE_CORE.a(packet_mgr.c.obj)
 .debug_aranges
                0x0000000000000fb8       0x98 ../../mesh/lib_51_MBTLE_CORE.a(radio.c.obj)
 .debug_aranges
                0x0000000000001050       0x58 ../../mesh/lib_51_MBTLE_CORE.a(timer.c.obj)
 .debug_aranges
                0x00000000000010a8       0x60 ../../mesh/lib_51_MBTLE_CORE.a(timer_scheduler.c.obj)
 .debug_aranges
                0x0000000000001108       0x38 ../../mesh/lib_51_MBTLE_CORE.a(beacon.c.obj)
 .debug_aranges
                0x0000000000001140       0x90 ../../mesh/lib_51_MBTLE_CORE.a(bearer.c.obj)
 .debug_aranges
                0x00000000000011d0       0x70 ../../mesh/lib_51_MBTLE_CORE.a(bearer_event.c.obj)
 .debug_aranges
                0x0000000000001240       0x30 ../../mesh/lib_51_MBTLE_CORE.a(nrf_mesh_configure.c.obj)
 .debug_aranges
                0x0000000000001270       0x70 ../../mesh/lib_51_MBTLE_CORE.a(enc.c.obj)
 .debug_aranges
                0x00000000000012e0       0x30 ../../mesh/lib_51_MBTLE_CORE.a(event.c.obj)
 .debug_aranges
                0x0000000000001310       0x30 ../../mesh/lib_51_MBTLE_CORE.a(hal.c.obj)
 .debug_aranges
                0x0000000000001340       0x48 ../../mesh/lib_51_MBTLE_CORE.a(log.c.obj)
 .debug_aranges
                0x0000000000001388       0x40 ../../mesh/lib_51_MBTLE_CORE.a(net_beacon.c.obj)
 .debug_aranges
                0x00000000000013c8       0xb8 ../../mesh/lib_51_MBTLE_CORE.a(net_state.c.obj)
 .debug_aranges
                0x0000000000001480       0x80 ../../mesh/lib_51_MBTLE_CORE.a(nrf_mesh.c.obj)
 .debug_aranges
                0x0000000000001500       0x40 ../../mesh/lib_51_MBTLE_CORE.a(nrf_mesh_keygen.c.obj)
 .debug_aranges
                0x0000000000001540       0x30 ../../mesh/lib_51_MBTLE_CORE.a(nrf_mesh_utils.c.obj)
 .debug_aranges
                0x0000000000001570       0x28 ../../mesh/lib_51_MBTLE_CORE.a(nrf_mesh_opt.c.obj)
 .debug_aranges
                0x0000000000001598       0x40 ../../mesh/lib_51_MBTLE_CORE.a(radio_config.c.obj)
 .debug_aranges
                0x00000000000015d8       0x68 ../../mesh/lib_51_MBTLE_CORE.a(packet_buffer.c.obj)
 .debug_aranges
                0x0000000000001640       0x40 ../../mesh/lib_51_MBTLE_CORE.a(rand.c.obj)
 .debug_aranges
                0x0000000000001680       0x30 ../../mesh/lib_51_MBTLE_CORE.a(ticker.c.obj)
 .debug_aranges
                0x00000000000016b0       0xd8 ../../mesh/lib_51_MBTLE_CORE.a(transport.c.obj)
 .debug_aranges
                0x0000000000001788       0x30 ../../mesh/lib_51_MBTLE_CORE.a(internal_event.c.obj)
 .debug_aranges
                0x00000000000017b8       0xb8 ../../mesh/lib_51_MBTLE_CORE.a(flash_manager.c.obj)
 .debug_aranges
                0x0000000000001870       0xa8 ../../mesh/lib_51_MBTLE_CORE.a(flash_manager_defrag.c.obj)
 .debug_aranges
                0x0000000000001918       0x20 ../../mesh/lib_51_MBTLE_CORE.a(flash_manager_internal.c.obj)
 .debug_aranges
                0x0000000000001938       0x28 ../../mesh/lib_51_MBTLE_CORE.a(aes.c.obj)
 .debug_aranges
                0x0000000000001960       0x38 ../../mesh/lib_51_MBTLE_CORE.a(queue.c.obj)
 .debug_aranges
                0x0000000000001998       0xa8 ../../mesh/lib_51_MBTLE_CORE.a(timeslot.c.obj)
 .debug_aranges
                0x0000000000001a40       0x28 ../../mesh/lib_51_MBTLE_CORE.a(aes_cmac.c.obj)
 .debug_aranges
                0x0000000000001a68       0x40 ../../mesh/lib_51_MBTLE_CORE.a(ccm_soft.c.obj)
 .debug_aranges
                0x0000000000001aa8       0x38 ../../mesh/lib_51_MBTLE_CORE.a(msg_cache.c.obj)
 .debug_aranges
                0x0000000000001ae0       0x58 ../../mesh/lib_51_MBTLE_CORE.a(network.c.obj)
 .debug_aranges
                0x0000000000001b38       0x20 ../../mesh/lib_51_MBTLE_CORE.a(packet.c.obj)
 .debug_aranges
                0x0000000000001b58       0x48 ../../mesh/lib_51_MBTLE_CORE.a(replay_cache.c.obj)
 .debug_aranges
                0x0000000000001ba0       0x58 ../../mesh/lib_51_MBTLE_CORE.a(mesh_flash.c.obj)
 .debug_aranges
                0x0000000000001bf8       0x28 ../../mesh/lib_51_MBTLE_CORE.a(nrf_flash.c.obj)
 .debug_aranges
                0x0000000000001c20       0x40 ../../mesh/lib_51_MBTLE_CORE.a(msqueue.c.obj)
 .debug_aranges
                0x0000000000001c60      0x1a8 ../../lib/micro-ecc/lib_51_UECC_LIB.a(uECC.c.obj)
 .debug_aranges
                0x0000000000001e08       0xd8 ../../lib/rtt/lib_51_RTT_LIB.a(SEGGER_RTT.c.obj)
 .debug_aranges
                0x0000000000001ee0       0x38 ../../lib/rtt/lib_51_RTT_LIB.a(SEGGER_RTT_printf.c.obj)

.debug_ranges   0x0000000000000000     0x54d0
 .debug_ranges  0x0000000000000000       0x90 CMakeFiles/51_serial.dir/src/main.c.obj
 .debug_ranges  0x0000000000000090       0xc8 CMakeFiles/51_serial.dir/__/nrf_mesh_sdk.c.obj
 .debug_ranges  0x0000000000000158      0x620 CMakeFiles/51_serial.dir/__/__/mesh/src/access/access.c.obj
 .debug_ranges  0x0000000000000778      0x268 CMakeFiles/51_serial.dir/__/__/mesh/src/access/access_publish.c.obj
 .debug_ranges  0x00000000000009e0      0x218 CMakeFiles/51_serial.dir/__/__/mesh/src/access/access_reliable.c.obj
 .debug_ranges  0x0000000000000bf8      0x9f8 CMakeFiles/51_serial.dir/__/__/mesh/src/access/device_state_manager.c.obj
 .debug_ranges  0x00000000000015f0       0x40 CMakeFiles/51_serial.dir/__/__/mesh/src/serial/nrf_mesh_serial.c.obj
 .debug_ranges  0x0000000000001630       0xc0 CMakeFiles/51_serial.dir/__/__/mesh/src/serial/serial.c.obj
 .debug_ranges  0x00000000000016f0      0x118 CMakeFiles/51_serial.dir/__/__/mesh/src/serial/serial_bearer.c.obj
 .debug_ranges  0x0000000000001808       0x18 CMakeFiles/51_serial.dir/__/__/mesh/src/serial/serial_handler_common.c.obj
 .debug_ranges  0x0000000000001820       0xd8 CMakeFiles/51_serial.dir/__/__/mesh/src/serial/serial_handler_access.c.obj
 .debug_ranges  0x00000000000018f8       0x18 CMakeFiles/51_serial.dir/__/__/mesh/src/serial/serial_handler_app.c.obj
 .debug_ranges  0x0000000000001910       0x28 CMakeFiles/51_serial.dir/__/__/mesh/src/serial/serial_handler_config.c.obj
 .debug_ranges  0x0000000000001938       0xb0 CMakeFiles/51_serial.dir/__/__/mesh/src/serial/serial_handler_device.c.obj
 .debug_ranges  0x00000000000019e8       0xe0 CMakeFiles/51_serial.dir/__/__/mesh/src/serial/serial_handler_dfu.c.obj
 .debug_ranges  0x0000000000001ac8      0x1e0 CMakeFiles/51_serial.dir/__/__/mesh/src/serial/serial_handler_mesh.c.obj
 .debug_ranges  0x0000000000001ca8       0xb0 CMakeFiles/51_serial.dir/__/__/mesh/src/serial/serial_handler_models.c.obj
 .debug_ranges  0x0000000000001d58       0x10 CMakeFiles/51_serial.dir/__/__/mesh/src/serial/serial_handler_openmesh.c.obj
 .debug_ranges  0x0000000000001d68      0x180 CMakeFiles/51_serial.dir/__/__/mesh/src/serial/serial_handler_prov.c.obj
 .debug_ranges  0x0000000000001ee8       0x28 CMakeFiles/51_serial.dir/__/__/mesh/src/serial/serial_uart.c.obj
 .debug_ranges  0x0000000000001f10       0xb8 CMakeFiles/51_serial.dir/__/__/mesh/src/prov/provisioning.c.obj
 .debug_ranges  0x0000000000001fc8       0x60 CMakeFiles/51_serial.dir/__/__/mesh/src/prov/nrf_mesh_prov.c.obj
 .debug_ranges  0x0000000000002028      0x258 CMakeFiles/51_serial.dir/__/__/mesh/src/prov/prov_bearer_adv.c.obj
 .debug_ranges  0x0000000000002280       0x90 CMakeFiles/51_serial.dir/__/__/mesh/src/prov/prov_utils.c.obj
 .debug_ranges  0x0000000000002310       0x50 CMakeFiles/51_serial.dir/__/__/mesh/src/prov/prov_beacon.c.obj
 .debug_ranges  0x0000000000002360       0x78 CMakeFiles/51_serial.dir/__/__/mesh/src/prov/prov_provisioner.c.obj
 .debug_ranges  0x00000000000023d8       0xc0 CMakeFiles/51_serial.dir/__/__/mesh/src/prov/prov_provisionee.c.obj
 .debug_ranges  0x0000000000002498       0x70 CMakeFiles/51_serial.dir/__/__/toolchain/system_nrf51.c.obj
 .debug_ranges  0x0000000000002508       0x18 ../../mesh/lib_51_MBTLE_CORE.a(nrf_mesh_weak.c.obj)
 .debug_ranges  0x0000000000002520      0x198 ../../mesh/lib_51_MBTLE_CORE.a(bearer_adv.c.obj)
 .debug_ranges  0x00000000000026b8       0x80 ../../mesh/lib_51_MBTLE_CORE.a(fifo.c.obj)
 .debug_ranges  0x0000000000002738      0x148 ../../mesh/lib_51_MBTLE_CORE.a(packet_mgr.c.obj)
 .debug_ranges  0x0000000000002880      0x110 ../../mesh/lib_51_MBTLE_CORE.a(radio.c.obj)
 .debug_ranges  0x0000000000002990       0xa8 ../../mesh/lib_51_MBTLE_CORE.a(timer.c.obj)
 .debug_ranges  0x0000000000002a38      0x250 ../../mesh/lib_51_MBTLE_CORE.a(timer_scheduler.c.obj)
 .debug_ranges  0x0000000000002c88       0x58 ../../mesh/lib_51_MBTLE_CORE.a(beacon.c.obj)
 .debug_ranges  0x0000000000002ce0      0x1c0 ../../mesh/lib_51_MBTLE_CORE.a(bearer.c.obj)
 .debug_ranges  0x0000000000002ea0       0xf8 ../../mesh/lib_51_MBTLE_CORE.a(bearer_event.c.obj)
 .debug_ranges  0x0000000000002f98       0x20 ../../mesh/lib_51_MBTLE_CORE.a(nrf_mesh_configure.c.obj)
 .debug_ranges  0x0000000000002fb8       0x60 ../../mesh/lib_51_MBTLE_CORE.a(enc.c.obj)
 .debug_ranges  0x0000000000003018       0xa8 ../../mesh/lib_51_MBTLE_CORE.a(event.c.obj)
 .debug_ranges  0x00000000000030c0       0x20 ../../mesh/lib_51_MBTLE_CORE.a(hal.c.obj)
 .debug_ranges  0x00000000000030e0       0x38 ../../mesh/lib_51_MBTLE_CORE.a(log.c.obj)
 .debug_ranges  0x0000000000003118       0xa8 ../../mesh/lib_51_MBTLE_CORE.a(net_beacon.c.obj)
 .debug_ranges  0x00000000000031c0      0x170 ../../mesh/lib_51_MBTLE_CORE.a(net_state.c.obj)
 .debug_ranges  0x0000000000003330       0xa8 ../../mesh/lib_51_MBTLE_CORE.a(nrf_mesh.c.obj)
 .debug_ranges  0x00000000000033d8       0x30 ../../mesh/lib_51_MBTLE_CORE.a(nrf_mesh_keygen.c.obj)
 .debug_ranges  0x0000000000003408       0x20 ../../mesh/lib_51_MBTLE_CORE.a(nrf_mesh_utils.c.obj)
 .debug_ranges  0x0000000000003428       0x18 ../../mesh/lib_51_MBTLE_CORE.a(nrf_mesh_opt.c.obj)
 .debug_ranges  0x0000000000003440       0xf8 ../../mesh/lib_51_MBTLE_CORE.a(radio_config.c.obj)
 .debug_ranges  0x0000000000003538      0x220 ../../mesh/lib_51_MBTLE_CORE.a(packet_buffer.c.obj)
 .debug_ranges  0x0000000000003758       0x30 ../../mesh/lib_51_MBTLE_CORE.a(rand.c.obj)
 .debug_ranges  0x0000000000003788       0x20 ../../mesh/lib_51_MBTLE_CORE.a(ticker.c.obj)
 .debug_ranges  0x00000000000037a8      0x518 ../../mesh/lib_51_MBTLE_CORE.a(transport.c.obj)
 .debug_ranges  0x0000000000003cc0       0x20 ../../mesh/lib_51_MBTLE_CORE.a(internal_event.c.obj)
 .debug_ranges  0x0000000000003ce0      0x998 ../../mesh/lib_51_MBTLE_CORE.a(flash_manager.c.obj)
 .debug_ranges  0x0000000000004678      0x340 ../../mesh/lib_51_MBTLE_CORE.a(flash_manager_defrag.c.obj)
 .debug_ranges  0x00000000000049b8       0x68 ../../mesh/lib_51_MBTLE_CORE.a(flash_manager_internal.c.obj)
 .debug_ranges  0x0000000000004a20       0x18 ../../mesh/lib_51_MBTLE_CORE.a(aes.c.obj)
 .debug_ranges  0x0000000000004a38       0x28 ../../mesh/lib_51_MBTLE_CORE.a(queue.c.obj)
 .debug_ranges  0x0000000000004a60       0xc8 ../../mesh/lib_51_MBTLE_CORE.a(timeslot.c.obj)
 .debug_ranges  0x0000000000004b28       0x18 ../../mesh/lib_51_MBTLE_CORE.a(aes_cmac.c.obj)
 .debug_ranges  0x0000000000004b40       0x30 ../../mesh/lib_51_MBTLE_CORE.a(ccm_soft.c.obj)
 .debug_ranges  0x0000000000004b70       0x40 ../../mesh/lib_51_MBTLE_CORE.a(msg_cache.c.obj)
 .debug_ranges  0x0000000000004bb0      0x110 ../../mesh/lib_51_MBTLE_CORE.a(network.c.obj)
 .debug_ranges  0x0000000000004cc0       0x28 ../../mesh/lib_51_MBTLE_CORE.a(packet.c.obj)
 .debug_ranges  0x0000000000004ce8       0x88 ../../mesh/lib_51_MBTLE_CORE.a(replay_cache.c.obj)
 .debug_ranges  0x0000000000004d70      0x268 ../../mesh/lib_51_MBTLE_CORE.a(mesh_flash.c.obj)
 .debug_ranges  0x0000000000004fd8       0x48 ../../mesh/lib_51_MBTLE_CORE.a(nrf_flash.c.obj)
 .debug_ranges  0x0000000000005020       0xf0 ../../mesh/lib_51_MBTLE_CORE.a(msqueue.c.obj)
 .debug_ranges  0x0000000000005110      0x250 ../../lib/micro-ecc/lib_51_UECC_LIB.a(uECC.c.obj)
 .debug_ranges  0x0000000000005360      0x148 ../../lib/rtt/lib_51_RTT_LIB.a(SEGGER_RTT.c.obj)
 .debug_ranges  0x00000000000054a8       0x28 ../../lib/rtt/lib_51_RTT_LIB.a(SEGGER_RTT_printf.c.obj)

.debug_line     0x0000000000000000    0x17e15
 .debug_line    0x0000000000000000      0x5a2 CMakeFiles/51_serial.dir/src/main.c.obj
 .debug_line    0x00000000000005a2      0x63e CMakeFiles/51_serial.dir/__/nrf_mesh_sdk.c.obj
 .debug_line    0x0000000000000be0      0xe46 CMakeFiles/51_serial.dir/__/__/mesh/src/access/access.c.obj
 .debug_line    0x0000000000001a26      0x474 CMakeFiles/51_serial.dir/__/__/mesh/src/access/access_publish.c.obj
 .debug_line    0x0000000000001e9a      0x4c8 CMakeFiles/51_serial.dir/__/__/mesh/src/access/access_reliable.c.obj
 .debug_line    0x0000000000002362     0x1582 CMakeFiles/51_serial.dir/__/__/mesh/src/access/device_state_manager.c.obj
 .debug_line    0x00000000000038e4      0x42c CMakeFiles/51_serial.dir/__/__/mesh/src/serial/nrf_mesh_serial.c.obj
 .debug_line    0x0000000000003d10      0x5be CMakeFiles/51_serial.dir/__/__/mesh/src/serial/serial.c.obj
 .debug_line    0x00000000000042ce      0x5de CMakeFiles/51_serial.dir/__/__/mesh/src/serial/serial_bearer.c.obj
 .debug_line    0x00000000000048ac      0x356 CMakeFiles/51_serial.dir/__/__/mesh/src/serial/serial_handler_common.c.obj
 .debug_line    0x0000000000004c02      0x530 CMakeFiles/51_serial.dir/__/__/mesh/src/serial/serial_handler_access.c.obj
 .debug_line    0x0000000000005132      0x339 CMakeFiles/51_serial.dir/__/__/mesh/src/serial/serial_handler_app.c.obj
 .debug_line    0x000000000000546b      0x3df CMakeFiles/51_serial.dir/__/__/mesh/src/serial/serial_handler_config.c.obj
 .debug_line    0x000000000000584a      0x589 CMakeFiles/51_serial.dir/__/__/mesh/src/serial/serial_handler_device.c.obj
 .debug_line    0x0000000000005dd3      0x4f8 CMakeFiles/51_serial.dir/__/__/mesh/src/serial/serial_handler_dfu.c.obj
 .debug_line    0x00000000000062cb      0x740 CMakeFiles/51_serial.dir/__/__/mesh/src/serial/serial_handler_mesh.c.obj
 .debug_line    0x0000000000006a0b      0x440 CMakeFiles/51_serial.dir/__/__/mesh/src/serial/serial_handler_models.c.obj
 .debug_line    0x0000000000006e4b      0x32f CMakeFiles/51_serial.dir/__/__/mesh/src/serial/serial_handler_openmesh.c.obj
 .debug_line    0x000000000000717a      0x65f CMakeFiles/51_serial.dir/__/__/mesh/src/serial/serial_handler_prov.c.obj
 .debug_line    0x00000000000077d9      0x38d CMakeFiles/51_serial.dir/__/__/mesh/src/serial/serial_uart.c.obj
 .debug_line    0x0000000000007b66      0x5f5 CMakeFiles/51_serial.dir/__/__/mesh/src/prov/provisioning.c.obj
 .debug_line    0x000000000000815b      0x4b9 CMakeFiles/51_serial.dir/__/__/mesh/src/prov/nrf_mesh_prov.c.obj
 .debug_line    0x0000000000008614      0xae8 CMakeFiles/51_serial.dir/__/__/mesh/src/prov/prov_bearer_adv.c.obj
 .debug_line    0x00000000000090fc      0x53b CMakeFiles/51_serial.dir/__/__/mesh/src/prov/prov_utils.c.obj
 .debug_line    0x0000000000009637      0x39f CMakeFiles/51_serial.dir/__/__/mesh/src/prov/prov_beacon.c.obj
 .debug_line    0x00000000000099d6      0x602 CMakeFiles/51_serial.dir/__/__/mesh/src/prov/prov_provisioner.c.obj
 .debug_line    0x0000000000009fd8      0x68f CMakeFiles/51_serial.dir/__/__/mesh/src/prov/prov_provisionee.c.obj
 .debug_line    0x000000000000a667       0xac CMakeFiles/51_serial.dir/__/__/toolchain/gcc/gcc_startup_nrf51.S.obj
 .debug_line    0x000000000000a713      0x17c CMakeFiles/51_serial.dir/__/__/toolchain/system_nrf51.c.obj
 .debug_line    0x000000000000a88f      0x231 ../../mesh/lib_51_MBTLE_CORE.a(nrf_mesh_weak.c.obj)
 .debug_line    0x000000000000aac0      0x974 ../../mesh/lib_51_MBTLE_CORE.a(bearer_adv.c.obj)
 .debug_line    0x000000000000b434      0x405 ../../mesh/lib_51_MBTLE_CORE.a(fifo.c.obj)
 .debug_line    0x000000000000b839      0x4af ../../mesh/lib_51_MBTLE_CORE.a(packet_mgr.c.obj)
 .debug_line    0x000000000000bce8      0x564 ../../mesh/lib_51_MBTLE_CORE.a(radio.c.obj)
 .debug_line    0x000000000000c24c      0x4a5 ../../mesh/lib_51_MBTLE_CORE.a(timer.c.obj)
 .debug_line    0x000000000000c6f1      0x501 ../../mesh/lib_51_MBTLE_CORE.a(timer_scheduler.c.obj)
 .debug_line    0x000000000000cbf2      0x506 ../../mesh/lib_51_MBTLE_CORE.a(beacon.c.obj)
 .debug_line    0x000000000000d0f8      0x63a ../../mesh/lib_51_MBTLE_CORE.a(bearer.c.obj)
 .debug_line    0x000000000000d732      0x53b ../../mesh/lib_51_MBTLE_CORE.a(bearer_event.c.obj)
 .debug_line    0x000000000000dc6d      0x21c ../../mesh/lib_51_MBTLE_CORE.a(nrf_mesh_configure.c.obj)
 .debug_line    0x000000000000de89      0x44e ../../mesh/lib_51_MBTLE_CORE.a(enc.c.obj)
 .debug_line    0x000000000000e2d7      0x31a ../../mesh/lib_51_MBTLE_CORE.a(event.c.obj)
 .debug_line    0x000000000000e5f1      0x2c1 ../../mesh/lib_51_MBTLE_CORE.a(hal.c.obj)
 .debug_line    0x000000000000e8b2      0x28c ../../mesh/lib_51_MBTLE_CORE.a(log.c.obj)
 .debug_line    0x000000000000eb3e      0x399 ../../mesh/lib_51_MBTLE_CORE.a(net_beacon.c.obj)
 .debug_line    0x000000000000eed7      0x6df ../../mesh/lib_51_MBTLE_CORE.a(net_state.c.obj)
 .debug_line    0x000000000000f5b6      0x77c ../../mesh/lib_51_MBTLE_CORE.a(nrf_mesh.c.obj)
 .debug_line    0x000000000000fd32      0x2cd ../../mesh/lib_51_MBTLE_CORE.a(nrf_mesh_keygen.c.obj)
 .debug_line    0x000000000000ffff      0x27b ../../mesh/lib_51_MBTLE_CORE.a(nrf_mesh_utils.c.obj)
 .debug_line    0x000000000001027a      0x2e1 ../../mesh/lib_51_MBTLE_CORE.a(nrf_mesh_opt.c.obj)
 .debug_line    0x000000000001055b      0x355 ../../mesh/lib_51_MBTLE_CORE.a(radio_config.c.obj)
 .debug_line    0x00000000000108b0      0x6a4 ../../mesh/lib_51_MBTLE_CORE.a(packet_buffer.c.obj)
 .debug_line    0x0000000000010f54      0x2ab ../../mesh/lib_51_MBTLE_CORE.a(rand.c.obj)
 .debug_line    0x00000000000111ff      0x163 ../../mesh/lib_51_MBTLE_CORE.a(ticker.c.obj)
 .debug_line    0x0000000000011362     0x1513 ../../mesh/lib_51_MBTLE_CORE.a(transport.c.obj)
 .debug_line    0x0000000000012875      0x2a8 ../../mesh/lib_51_MBTLE_CORE.a(internal_event.c.obj)
 .debug_line    0x0000000000012b1d      0xbb2 ../../mesh/lib_51_MBTLE_CORE.a(flash_manager.c.obj)
 .debug_line    0x00000000000136cf      0x828 ../../mesh/lib_51_MBTLE_CORE.a(flash_manager_defrag.c.obj)
 .debug_line    0x0000000000013ef7      0x2a8 ../../mesh/lib_51_MBTLE_CORE.a(flash_manager_internal.c.obj)
 .debug_line    0x000000000001419f      0x313 ../../mesh/lib_51_MBTLE_CORE.a(aes.c.obj)
 .debug_line    0x00000000000144b2      0x329 ../../mesh/lib_51_MBTLE_CORE.a(queue.c.obj)
 .debug_line    0x00000000000147db      0x5f4 ../../mesh/lib_51_MBTLE_CORE.a(timeslot.c.obj)
 .debug_line    0x0000000000014dcf      0x2b1 ../../mesh/lib_51_MBTLE_CORE.a(aes_cmac.c.obj)
 .debug_line    0x0000000000015080      0x323 ../../mesh/lib_51_MBTLE_CORE.a(ccm_soft.c.obj)
 .debug_line    0x00000000000153a3      0x2b4 ../../mesh/lib_51_MBTLE_CORE.a(msg_cache.c.obj)
 .debug_line    0x0000000000015657      0x6f9 ../../mesh/lib_51_MBTLE_CORE.a(network.c.obj)
 .debug_line    0x0000000000015d50      0x27a ../../mesh/lib_51_MBTLE_CORE.a(packet.c.obj)
 .debug_line    0x0000000000015fca      0x20f ../../mesh/lib_51_MBTLE_CORE.a(replay_cache.c.obj)
 .debug_line    0x00000000000161d9      0x546 ../../mesh/lib_51_MBTLE_CORE.a(mesh_flash.c.obj)
 .debug_line    0x000000000001671f      0x2e7 ../../mesh/lib_51_MBTLE_CORE.a(nrf_flash.c.obj)
 .debug_line    0x0000000000016a06      0x397 ../../mesh/lib_51_MBTLE_CORE.a(msqueue.c.obj)
 .debug_line    0x0000000000016d9d      0x908 ../../lib/micro-ecc/lib_51_UECC_LIB.a(uECC.c.obj)
 .debug_line    0x00000000000176a5      0x4b5 ../../lib/rtt/lib_51_RTT_LIB.a(SEGGER_RTT.c.obj)
 .debug_line    0x0000000000017b5a      0x2bb ../../lib/rtt/lib_51_RTT_LIB.a(SEGGER_RTT_printf.c.obj)

.debug_str      0x0000000000000000    0x114a9
 .debug_str     0x0000000000000000      0xcac CMakeFiles/51_serial.dir/src/main.c.obj
                                        0xdbb (size before relaxing)
 .debug_str     0x0000000000000cac     0x15e9 CMakeFiles/51_serial.dir/__/nrf_mesh_sdk.c.obj
                                       0x1f15 (size before relaxing)
 .debug_str     0x0000000000002295     0x2701 CMakeFiles/51_serial.dir/__/__/mesh/src/access/access.c.obj
                                       0x313b (size before relaxing)
 .debug_str     0x0000000000004996      0x371 CMakeFiles/51_serial.dir/__/__/mesh/src/access/access_publish.c.obj
                                        0xbc9 (size before relaxing)
 .debug_str     0x0000000000004d07      0x234 CMakeFiles/51_serial.dir/__/__/mesh/src/access/access_reliable.c.obj
                                        0xc41 (size before relaxing)
 .debug_str     0x0000000000004f3b     0x1112 CMakeFiles/51_serial.dir/__/__/mesh/src/access/device_state_manager.c.obj
                                       0x3364 (size before relaxing)
 .debug_str     0x000000000000604d     0x1628 CMakeFiles/51_serial.dir/__/__/mesh/src/serial/nrf_mesh_serial.c.obj
                                       0x22b8 (size before relaxing)
 .debug_str     0x0000000000007675      0x2f3 CMakeFiles/51_serial.dir/__/__/mesh/src/serial/serial.c.obj
                                       0x25c0 (size before relaxing)
 .debug_str     0x0000000000007968      0x56a CMakeFiles/51_serial.dir/__/__/mesh/src/serial/serial_bearer.c.obj
                                       0x2994 (size before relaxing)
 .debug_str     0x0000000000007ed2      0x133 CMakeFiles/51_serial.dir/__/__/mesh/src/serial/serial_handler_common.c.obj
                                       0x21fa (size before relaxing)
 .debug_str     0x0000000000008005      0x1e1 CMakeFiles/51_serial.dir/__/__/mesh/src/serial/serial_handler_access.c.obj
                                       0x26d7 (size before relaxing)
 .debug_str     0x00000000000081e6       0x76 CMakeFiles/51_serial.dir/__/__/mesh/src/serial/serial_handler_app.c.obj
                                       0x2158 (size before relaxing)
 .debug_str     0x000000000000825c       0xca CMakeFiles/51_serial.dir/__/__/mesh/src/serial/serial_handler_config.c.obj
                                       0x2186 (size before relaxing)
 .debug_str     0x0000000000008326      0x7b0 CMakeFiles/51_serial.dir/__/__/mesh/src/serial/serial_handler_device.c.obj
                                       0x2b3b (size before relaxing)
 .debug_str     0x0000000000008ad6      0x2bb CMakeFiles/51_serial.dir/__/__/mesh/src/serial/serial_handler_dfu.c.obj
                                       0x36d6 (size before relaxing)
 .debug_str     0x0000000000008d91      0x4b8 CMakeFiles/51_serial.dir/__/__/mesh/src/serial/serial_handler_mesh.c.obj
                                       0x3c02 (size before relaxing)
 .debug_str     0x0000000000009249      0x1a9 CMakeFiles/51_serial.dir/__/__/mesh/src/serial/serial_handler_models.c.obj
                                       0x2388 (size before relaxing)
 .debug_str     0x00000000000093f2       0x84 CMakeFiles/51_serial.dir/__/__/mesh/src/serial/serial_handler_openmesh.c.obj
                                       0x2141 (size before relaxing)
 .debug_str     0x0000000000009476      0x3d8 CMakeFiles/51_serial.dir/__/__/mesh/src/serial/serial_handler_prov.c.obj
                                       0x3931 (size before relaxing)
 .debug_str     0x000000000000984e       0xc9 CMakeFiles/51_serial.dir/__/__/mesh/src/serial/serial_uart.c.obj
                                        0xa7f (size before relaxing)
 .debug_str     0x0000000000009917      0x7d8 CMakeFiles/51_serial.dir/__/__/mesh/src/prov/provisioning.c.obj
                                       0x16c8 (size before relaxing)
 .debug_str     0x000000000000a0ef      0x5be CMakeFiles/51_serial.dir/__/__/mesh/src/prov/nrf_mesh_prov.c.obj
                                       0x1a1b (size before relaxing)
 .debug_str     0x000000000000a6ad      0x511 CMakeFiles/51_serial.dir/__/__/mesh/src/prov/prov_bearer_adv.c.obj
                                       0x16c4 (size before relaxing)
 .debug_str     0x000000000000abbe      0x2f4 CMakeFiles/51_serial.dir/__/__/mesh/src/prov/prov_utils.c.obj
                                       0x1eed (size before relaxing)
 .debug_str     0x000000000000aeb2      0x112 CMakeFiles/51_serial.dir/__/__/mesh/src/prov/prov_beacon.c.obj
                                       0x1c27 (size before relaxing)
 .debug_str     0x000000000000afc4      0x184 CMakeFiles/51_serial.dir/__/__/mesh/src/prov/prov_provisioner.c.obj
                                       0x2d2b (size before relaxing)
 .debug_str     0x000000000000b148      0x144 CMakeFiles/51_serial.dir/__/__/mesh/src/prov/prov_provisionee.c.obj
                                       0x2e77 (size before relaxing)
 .debug_str     0x000000000000b28c      0x116 CMakeFiles/51_serial.dir/__/__/toolchain/system_nrf51.c.obj
                                        0x2c4 (size before relaxing)
 .debug_str     0x000000000000b3a2       0xa2 ../../mesh/lib_51_MBTLE_CORE.a(nrf_mesh_weak.c.obj)
                                        0x670 (size before relaxing)
 .debug_str     0x000000000000b444      0x6f4 ../../mesh/lib_51_MBTLE_CORE.a(bearer_adv.c.obj)
                                       0x2b92 (size before relaxing)
 .debug_str     0x000000000000bb38       0x7a ../../mesh/lib_51_MBTLE_CORE.a(fifo.c.obj)
                                        0x6d8 (size before relaxing)
 .debug_str     0x000000000000bbb2      0x279 ../../mesh/lib_51_MBTLE_CORE.a(packet_mgr.c.obj)
                                        0x9e5 (size before relaxing)
 .debug_str     0x000000000000be2b      0x43f ../../mesh/lib_51_MBTLE_CORE.a(radio.c.obj)
                                       0x1066 (size before relaxing)
 .debug_str     0x000000000000c26a      0x279 ../../mesh/lib_51_MBTLE_CORE.a(timer.c.obj)
                                        0x72b (size before relaxing)
 .debug_str     0x000000000000c4e3      0x13c ../../mesh/lib_51_MBTLE_CORE.a(timer_scheduler.c.obj)
                                        0x931 (size before relaxing)
 .debug_str     0x000000000000c61f       0xf2 ../../mesh/lib_51_MBTLE_CORE.a(beacon.c.obj)
                                        0xd16 (size before relaxing)
 .debug_str     0x000000000000c711      0x347 ../../mesh/lib_51_MBTLE_CORE.a(bearer.c.obj)
                                       0x149f (size before relaxing)
 .debug_str     0x000000000000ca58      0x212 ../../mesh/lib_51_MBTLE_CORE.a(bearer_event.c.obj)
                                        0xbe4 (size before relaxing)
 .debug_str     0x000000000000cc6a       0x7e ../../mesh/lib_51_MBTLE_CORE.a(nrf_mesh_configure.c.obj)
                                        0x737 (size before relaxing)
 .debug_str     0x000000000000cce8      0x1d1 ../../mesh/lib_51_MBTLE_CORE.a(enc.c.obj)
                                        0x917 (size before relaxing)
 .debug_str     0x000000000000ceb9       0xe5 ../../mesh/lib_51_MBTLE_CORE.a(event.c.obj)
                                       0x1742 (size before relaxing)
 .debug_str     0x000000000000cf9e       0xd5 ../../mesh/lib_51_MBTLE_CORE.a(hal.c.obj)
                                        0x73f (size before relaxing)
 .debug_str     0x000000000000d073      0x11c ../../mesh/lib_51_MBTLE_CORE.a(log.c.obj)
                                        0x7f3 (size before relaxing)
 .debug_str     0x000000000000d18f      0x232 ../../mesh/lib_51_MBTLE_CORE.a(net_beacon.c.obj)
                                        0xc04 (size before relaxing)
 .debug_str     0x000000000000d3c1      0x329 ../../mesh/lib_51_MBTLE_CORE.a(net_state.c.obj)
                                       0x246b (size before relaxing)
 .debug_str     0x000000000000d6ea      0x2ce ../../mesh/lib_51_MBTLE_CORE.a(nrf_mesh.c.obj)
                                       0x2f64 (size before relaxing)
 .debug_str     0x000000000000d9b8       0x83 ../../mesh/lib_51_MBTLE_CORE.a(nrf_mesh_keygen.c.obj)
                                        0x7e8 (size before relaxing)
 .debug_str     0x000000000000da3b       0xa7 ../../mesh/lib_51_MBTLE_CORE.a(nrf_mesh_utils.c.obj)
                                        0x74e (size before relaxing)
 .debug_str     0x000000000000dae2       0xa1 ../../mesh/lib_51_MBTLE_CORE.a(nrf_mesh_opt.c.obj)
                                        0xaa2 (size before relaxing)
 .debug_str     0x000000000000db83       0xc0 ../../mesh/lib_51_MBTLE_CORE.a(radio_config.c.obj)
                                        0x700 (size before relaxing)
 .debug_str     0x000000000000dc43      0x28d ../../mesh/lib_51_MBTLE_CORE.a(packet_buffer.c.obj)
                                        0xba6 (size before relaxing)
 .debug_str     0x000000000000ded0       0xab ../../mesh/lib_51_MBTLE_CORE.a(rand.c.obj)
                                        0x70d (size before relaxing)
 .debug_str     0x000000000000df7b       0x68 ../../mesh/lib_51_MBTLE_CORE.a(ticker.c.obj)
                                        0x34e (size before relaxing)
 .debug_str     0x000000000000dfe3      0x9bd ../../mesh/lib_51_MBTLE_CORE.a(transport.c.obj)
                                       0x3285 (size before relaxing)
 .debug_str     0x000000000000e9a0       0xd8 ../../mesh/lib_51_MBTLE_CORE.a(internal_event.c.obj)
                                        0xa9b (size before relaxing)
 .debug_str     0x000000000000ea78      0x788 ../../mesh/lib_51_MBTLE_CORE.a(flash_manager.c.obj)
                                       0x1994 (size before relaxing)
 .debug_str     0x000000000000f200      0x3d1 ../../mesh/lib_51_MBTLE_CORE.a(flash_manager_defrag.c.obj)
                                       0x1507 (size before relaxing)
 .debug_str     0x000000000000f5d1       0x64 ../../mesh/lib_51_MBTLE_CORE.a(flash_manager_internal.c.obj)
                                        0x7e1 (size before relaxing)
 .debug_str     0x000000000000f635      0x16d ../../mesh/lib_51_MBTLE_CORE.a(aes.c.obj)
                                        0xb80 (size before relaxing)
 .debug_str     0x000000000000f7a2       0x50 ../../mesh/lib_51_MBTLE_CORE.a(queue.c.obj)
                                        0x680 (size before relaxing)
 .debug_str     0x000000000000f7f2      0x798 ../../mesh/lib_51_MBTLE_CORE.a(timeslot.c.obj)
                                       0x1787 (size before relaxing)
 .debug_str     0x000000000000ff8a       0xfc ../../mesh/lib_51_MBTLE_CORE.a(aes_cmac.c.obj)
                                        0x738 (size before relaxing)
 .debug_str     0x0000000000010086       0xb1 ../../mesh/lib_51_MBTLE_CORE.a(ccm_soft.c.obj)
                                        0x780 (size before relaxing)
 .debug_str     0x0000000000010137       0xbf ../../mesh/lib_51_MBTLE_CORE.a(msg_cache.c.obj)
                                        0x750 (size before relaxing)
 .debug_str     0x00000000000101f6      0x262 ../../mesh/lib_51_MBTLE_CORE.a(network.c.obj)
                                       0x15cd (size before relaxing)
 .debug_str     0x0000000000010458       0x46 ../../mesh/lib_51_MBTLE_CORE.a(packet.c.obj)
                                        0x732 (size before relaxing)
 .debug_str     0x000000000001049e       0xcb ../../mesh/lib_51_MBTLE_CORE.a(replay_cache.c.obj)
                                        0x6b2 (size before relaxing)
 .debug_str     0x0000000000010569      0x345 ../../mesh/lib_51_MBTLE_CORE.a(mesh_flash.c.obj)
                                        0xbf7 (size before relaxing)
 .debug_str     0x00000000000108ae       0xa1 ../../mesh/lib_51_MBTLE_CORE.a(nrf_flash.c.obj)
                                        0x6a6 (size before relaxing)
 .debug_str     0x000000000001094f       0x7f ../../mesh/lib_51_MBTLE_CORE.a(msqueue.c.obj)
                                        0x6bc (size before relaxing)
 .debug_str     0x00000000000109ce      0x6a0 ../../lib/micro-ecc/lib_51_UECC_LIB.a(uECC.c.obj)
                                        0x87d (size before relaxing)
 .debug_str     0x000000000001106e      0x2f8 ../../lib/rtt/lib_51_RTT_LIB.a(SEGGER_RTT.c.obj)
                                        0x91f (size before relaxing)
 .debug_str     0x0000000000011366      0x143 ../../lib/rtt/lib_51_RTT_LIB.a(SEGGER_RTT_printf.c.obj)
                                        0x7cc (size before relaxing)

.debug_frame    0x0000000000000000     0x57f8
 .debug_frame   0x0000000000000000       0x30 CMakeFiles/51_serial.dir/src/main.c.obj
 .debug_frame   0x0000000000000030      0x124 CMakeFiles/51_serial.dir/__/nrf_mesh_sdk.c.obj
 .debug_frame   0x0000000000000154      0x438 CMakeFiles/51_serial.dir/__/__/mesh/src/access/access.c.obj
 .debug_frame   0x000000000000058c       0xc0 CMakeFiles/51_serial.dir/__/__/mesh/src/access/access_publish.c.obj
 .debug_frame   0x000000000000064c       0xc8 CMakeFiles/51_serial.dir/__/__/mesh/src/access/access_reliable.c.obj
 .debug_frame   0x0000000000000714      0x8f8 CMakeFiles/51_serial.dir/__/__/mesh/src/access/device_state_manager.c.obj
 .debug_frame   0x000000000000100c       0x78 CMakeFiles/51_serial.dir/__/__/mesh/src/serial/nrf_mesh_serial.c.obj
 .debug_frame   0x0000000000001084       0xec CMakeFiles/51_serial.dir/__/__/mesh/src/serial/serial.c.obj
 .debug_frame   0x0000000000001170      0x11c CMakeFiles/51_serial.dir/__/__/mesh/src/serial/serial_bearer.c.obj
 .debug_frame   0x000000000000128c       0x48 CMakeFiles/51_serial.dir/__/__/mesh/src/serial/serial_handler_common.c.obj
 .debug_frame   0x00000000000012d4      0x268 CMakeFiles/51_serial.dir/__/__/mesh/src/serial/serial_handler_access.c.obj
 .debug_frame   0x000000000000153c       0x38 CMakeFiles/51_serial.dir/__/__/mesh/src/serial/serial_handler_app.c.obj
 .debug_frame   0x0000000000001574       0x2c CMakeFiles/51_serial.dir/__/__/mesh/src/serial/serial_handler_config.c.obj
 .debug_frame   0x00000000000015a0      0x144 CMakeFiles/51_serial.dir/__/__/mesh/src/serial/serial_handler_device.c.obj
 .debug_frame   0x00000000000016e4       0x60 CMakeFiles/51_serial.dir/__/__/mesh/src/serial/serial_handler_dfu.c.obj
 .debug_frame   0x0000000000001744      0x374 CMakeFiles/51_serial.dir/__/__/mesh/src/serial/serial_handler_mesh.c.obj
 .debug_frame   0x0000000000001ab8       0xb0 CMakeFiles/51_serial.dir/__/__/mesh/src/serial/serial_handler_models.c.obj
 .debug_frame   0x0000000000001b68       0x28 CMakeFiles/51_serial.dir/__/__/mesh/src/serial/serial_handler_openmesh.c.obj
 .debug_frame   0x0000000000001b90       0xa8 CMakeFiles/51_serial.dir/__/__/mesh/src/serial/serial_handler_prov.c.obj
 .debug_frame   0x0000000000001c38       0x70 CMakeFiles/51_serial.dir/__/__/mesh/src/serial/serial_uart.c.obj
 .debug_frame   0x0000000000001ca8      0x240 CMakeFiles/51_serial.dir/__/__/mesh/src/prov/provisioning.c.obj
 .debug_frame   0x0000000000001ee8       0xe0 CMakeFiles/51_serial.dir/__/__/mesh/src/prov/nrf_mesh_prov.c.obj
 .debug_frame   0x0000000000001fc8      0x260 CMakeFiles/51_serial.dir/__/__/mesh/src/prov/prov_bearer_adv.c.obj
 .debug_frame   0x0000000000002228      0x134 CMakeFiles/51_serial.dir/__/__/mesh/src/prov/prov_utils.c.obj
 .debug_frame   0x000000000000235c       0x60 CMakeFiles/51_serial.dir/__/__/mesh/src/prov/prov_beacon.c.obj
 .debug_frame   0x00000000000023bc      0x148 CMakeFiles/51_serial.dir/__/__/mesh/src/prov/prov_provisioner.c.obj
 .debug_frame   0x0000000000002504      0x144 CMakeFiles/51_serial.dir/__/__/mesh/src/prov/prov_provisionee.c.obj
 .debug_frame   0x0000000000002648       0x30 CMakeFiles/51_serial.dir/__/__/toolchain/system_nrf51.c.obj
 .debug_frame   0x0000000000002678       0x30 ../../mesh/lib_51_MBTLE_CORE.a(nrf_mesh_weak.c.obj)
 .debug_frame   0x00000000000026a8      0x324 ../../mesh/lib_51_MBTLE_CORE.a(bearer_adv.c.obj)
 .debug_frame   0x00000000000029cc       0xd4 ../../mesh/lib_51_MBTLE_CORE.a(fifo.c.obj)
 .debug_frame   0x0000000000002aa0       0xa4 ../../mesh/lib_51_MBTLE_CORE.a(packet_mgr.c.obj)
 .debug_frame   0x0000000000002b44      0x16c ../../mesh/lib_51_MBTLE_CORE.a(radio.c.obj)
 .debug_frame   0x0000000000002cb0       0xf8 ../../mesh/lib_51_MBTLE_CORE.a(timer.c.obj)
 .debug_frame   0x0000000000002da8      0x11c ../../mesh/lib_51_MBTLE_CORE.a(timer_scheduler.c.obj)
 .debug_frame   0x0000000000002ec4       0x90 ../../mesh/lib_51_MBTLE_CORE.a(beacon.c.obj)
 .debug_frame   0x0000000000002f54      0x188 ../../mesh/lib_51_MBTLE_CORE.a(bearer.c.obj)
 .debug_frame   0x00000000000030dc      0x128 ../../mesh/lib_51_MBTLE_CORE.a(bearer_event.c.obj)
 .debug_frame   0x0000000000003204       0x50 ../../mesh/lib_51_MBTLE_CORE.a(nrf_mesh_configure.c.obj)
 .debug_frame   0x0000000000003254      0x150 ../../mesh/lib_51_MBTLE_CORE.a(enc.c.obj)
 .debug_frame   0x00000000000033a4       0x64 ../../mesh/lib_51_MBTLE_CORE.a(event.c.obj)
 .debug_frame   0x0000000000003408       0x48 ../../mesh/lib_51_MBTLE_CORE.a(hal.c.obj)
 .debug_frame   0x0000000000003450       0xa0 ../../mesh/lib_51_MBTLE_CORE.a(log.c.obj)
 .debug_frame   0x00000000000034f0       0xa4 ../../mesh/lib_51_MBTLE_CORE.a(net_beacon.c.obj)
 .debug_frame   0x0000000000003594      0x1d8 ../../mesh/lib_51_MBTLE_CORE.a(net_state.c.obj)
 .debug_frame   0x000000000000376c      0x140 ../../mesh/lib_51_MBTLE_CORE.a(nrf_mesh.c.obj)
 .debug_frame   0x00000000000038ac       0xa0 ../../mesh/lib_51_MBTLE_CORE.a(nrf_mesh_keygen.c.obj)
 .debug_frame   0x000000000000394c       0x50 ../../mesh/lib_51_MBTLE_CORE.a(nrf_mesh_utils.c.obj)
 .debug_frame   0x000000000000399c       0x40 ../../mesh/lib_51_MBTLE_CORE.a(nrf_mesh_opt.c.obj)
 .debug_frame   0x00000000000039dc       0x84 ../../mesh/lib_51_MBTLE_CORE.a(radio_config.c.obj)
 .debug_frame   0x0000000000003a60      0x124 ../../mesh/lib_51_MBTLE_CORE.a(packet_buffer.c.obj)
 .debug_frame   0x0000000000003b84       0x90 ../../mesh/lib_51_MBTLE_CORE.a(rand.c.obj)
 .debug_frame   0x0000000000003c14       0x48 ../../mesh/lib_51_MBTLE_CORE.a(ticker.c.obj)
 .debug_frame   0x0000000000003c5c      0x2c8 ../../mesh/lib_51_MBTLE_CORE.a(transport.c.obj)
 .debug_frame   0x0000000000003f24       0x58 ../../mesh/lib_51_MBTLE_CORE.a(internal_event.c.obj)
 .debug_frame   0x0000000000003f7c      0x264 ../../mesh/lib_51_MBTLE_CORE.a(flash_manager.c.obj)
 .debug_frame   0x00000000000041e0      0x1e8 ../../mesh/lib_51_MBTLE_CORE.a(flash_manager_defrag.c.obj)
 .debug_frame   0x00000000000043c8       0x38 ../../mesh/lib_51_MBTLE_CORE.a(flash_manager_internal.c.obj)
 .debug_frame   0x0000000000004400       0x3c ../../mesh/lib_51_MBTLE_CORE.a(aes.c.obj)
 .debug_frame   0x000000000000443c       0x74 ../../mesh/lib_51_MBTLE_CORE.a(queue.c.obj)
 .debug_frame   0x00000000000044b0      0x178 ../../mesh/lib_51_MBTLE_CORE.a(timeslot.c.obj)
 .debug_frame   0x0000000000004628       0x50 ../../mesh/lib_51_MBTLE_CORE.a(aes_cmac.c.obj)
 .debug_frame   0x0000000000004678       0xe0 ../../mesh/lib_51_MBTLE_CORE.a(ccm_soft.c.obj)
 .debug_frame   0x0000000000004758       0x84 ../../mesh/lib_51_MBTLE_CORE.a(msg_cache.c.obj)
 .debug_frame   0x00000000000047dc       0xfc ../../mesh/lib_51_MBTLE_CORE.a(network.c.obj)
 .debug_frame   0x00000000000048d8       0x30 ../../mesh/lib_51_MBTLE_CORE.a(packet.c.obj)
 .debug_frame   0x0000000000004908       0xa8 ../../mesh/lib_51_MBTLE_CORE.a(replay_cache.c.obj)
 .debug_frame   0x00000000000049b0      0x10c ../../mesh/lib_51_MBTLE_CORE.a(mesh_flash.c.obj)
 .debug_frame   0x0000000000004abc       0x48 ../../mesh/lib_51_MBTLE_CORE.a(nrf_flash.c.obj)
 .debug_frame   0x0000000000004b04       0x94 ../../mesh/lib_51_MBTLE_CORE.a(msqueue.c.obj)
 .debug_frame   0x0000000000004b98      0x5c4 ../../lib/micro-ecc/lib_51_UECC_LIB.a(uECC.c.obj)
 .debug_frame   0x000000000000515c      0x2dc ../../lib/rtt/lib_51_RTT_LIB.a(SEGGER_RTT.c.obj)
 .debug_frame   0x0000000000005438       0x9c ../../lib/rtt/lib_51_RTT_LIB.a(SEGGER_RTT_printf.c.obj)
 .debug_frame   0x00000000000054d4       0x20 /usr/bin/../lib/gcc/arm-none-eabi/6.3.1/thumb/v6-m/libgcc.a(_udivsi3.o)
 .debug_frame   0x00000000000054f4       0x20 /usr/bin/../lib/gcc/arm-none-eabi/6.3.1/thumb/v6-m/libgcc.a(_divsi3.o)
 .debug_frame   0x0000000000005514       0x34 /usr/bin/../lib/gcc/arm-none-eabi/6.3.1/thumb/v6-m/libgcc.a(_muldi3.o)
 .debug_frame   0x0000000000005548       0x28 /usr/bin/../lib/gcc/arm-none-eabi/6.3.1/../../../../arm-none-eabi/lib/thumb/v6-m/libg_nano.a(lib_a-exit.o)
 .debug_frame   0x0000000000005570       0x2c /usr/bin/../lib/gcc/arm-none-eabi/6.3.1/../../../../arm-none-eabi/lib/thumb/v6-m/libg_nano.a(lib_a-init.o)
 .debug_frame   0x000000000000559c       0x40 /usr/bin/../lib/gcc/arm-none-eabi/6.3.1/../../../../arm-none-eabi/lib/thumb/v6-m/libg_nano.a(lib_a-malloc.o)
 .debug_frame   0x00000000000055dc       0x2c /usr/bin/../lib/gcc/arm-none-eabi/6.3.1/../../../../arm-none-eabi/lib/thumb/v6-m/libg_nano.a(lib_a-memcmp.o)
 .debug_frame   0x0000000000005608       0x28 /usr/bin/../lib/gcc/arm-none-eabi/6.3.1/../../../../arm-none-eabi/lib/thumb/v6-m/libg_nano.a(lib_a-memcpy-stub.o)
 .debug_frame   0x0000000000005630       0x20 /usr/bin/../lib/gcc/arm-none-eabi/6.3.1/../../../../arm-none-eabi/lib/thumb/v6-m/libg_nano.a(lib_a-memset.o)
 .debug_frame   0x0000000000005650       0x2c /usr/bin/../lib/gcc/arm-none-eabi/6.3.1/../../../../arm-none-eabi/lib/thumb/v6-m/libg_nano.a(lib_a-nano-freer.o)
 .debug_frame   0x000000000000567c       0x2c /usr/bin/../lib/gcc/arm-none-eabi/6.3.1/../../../../arm-none-eabi/lib/thumb/v6-m/libg_nano.a(lib_a-nano-mallocr.o)
 .debug_frame   0x00000000000056a8       0x2c /usr/bin/../lib/gcc/arm-none-eabi/6.3.1/../../../../arm-none-eabi/lib/thumb/v6-m/libg_nano.a(lib_a-sbrkr.o)
 .debug_frame   0x00000000000056d4       0x20 /usr/bin/../lib/gcc/arm-none-eabi/6.3.1/../../../../arm-none-eabi/lib/thumb/v6-m/libg_nano.a(lib_a-strcpy.o)
 .debug_frame   0x00000000000056f4       0x2c /usr/bin/../lib/gcc/arm-none-eabi/6.3.1/../../../../arm-none-eabi/lib/thumb/v6-m/libg_nano.a(lib_a-strrchr.o)
 .debug_frame   0x0000000000005720       0x30 /usr/bin/../lib/gcc/arm-none-eabi/6.3.1/../../../../arm-none-eabi/lib/thumb/v6-m/libg_nano.a(lib_a-mlock.o)
 .debug_frame   0x0000000000005750       0x48 /usr/bin/../lib/gcc/arm-none-eabi/6.3.1/../../../../arm-none-eabi/lib/thumb/v6-m/libg_nano.a(lib_a-reent.o)
 .debug_frame   0x0000000000005798       0x20 /usr/bin/../lib/gcc/arm-none-eabi/6.3.1/../../../../arm-none-eabi/lib/thumb/v6-m/libg_nano.a(lib_a-strchr.o)
 .debug_frame   0x00000000000057b8       0x20 /usr/bin/../lib/gcc/arm-none-eabi/6.3.1/../../../../arm-none-eabi/lib/thumb/v6-m/libnosys.a(sbrk.o)
 .debug_frame   0x00000000000057d8       0x20 /usr/bin/../lib/gcc/arm-none-eabi/6.3.1/../../../../arm-none-eabi/lib/thumb/v6-m/libnosys.a(_exit.o)
