Archive member included to satisfy reference by file (symbol)

../../mesh/lib_51_MBTLE_PB_ADV_ER.a(provisioning.c.obj)
                              CMakeFiles/51_pb_remote_client.dir/__/__/mesh/models/pb_remote/src/pb_remote_client.c.obj (prov_cb_link_opened)
../../mesh/lib_51_MBTLE_PB_ADV_ER.a(nrf_mesh_prov.c.obj)
                              CMakeFiles/51_pb_remote_client.dir/src/main.c.obj (nrf_mesh_prov_init)
../../mesh/lib_51_MBTLE_PB_ADV_ER.a(prov_bearer_adv.c.obj)
                              ../../mesh/lib_51_MBTLE_PB_ADV_ER.a(nrf_mesh_prov.c.obj) (prov_bearer_adv_interface_get)
../../mesh/lib_51_MBTLE_PB_ADV_ER.a(prov_utils.c.obj)
                              ../../mesh/lib_51_MBTLE_PB_ADV_ER.a(nrf_mesh_prov.c.obj) (prov_utils_keys_generate)
../../mesh/lib_51_MBTLE_PB_ADV_ER.a(prov_beacon.c.obj)
                              ../../mesh/lib_51_MBTLE_PB_ADV_ER.a(prov_bearer_adv.c.obj) (prov_beacon_unprov_build)
../../mesh/lib_51_MBTLE_PB_ADV_ER.a(prov_provisioner.c.obj)
                              CMakeFiles/51_pb_remote_client.dir/__/__/mesh/models/pb_remote/src/pb_remote_client.c.obj (prov_provisioner_provision)
../../mesh/lib_51_MBTLE_CORE.a(nrf_mesh_weak.c.obj)
                              ../../mesh/lib_51_MBTLE_PB_ADV_ER.a(nrf_mesh_prov.c.obj) (prov_provisionee_shared_secret)
../../mesh/lib_51_MBTLE_CORE.a(bearer_adv.c.obj)
                              ../../mesh/lib_51_MBTLE_PB_ADV_ER.a(prov_bearer_adv.c.obj) (bearer_adv_advertiser_init)
../../mesh/lib_51_MBTLE_CORE.a(fifo.c.obj)
                              CMakeFiles/51_pb_remote_client.dir/__/__/mesh/models/pb_remote/src/pb_remote_client.c.obj (fifo_init)
../../mesh/lib_51_MBTLE_CORE.a(packet_mgr.c.obj)
                              ../../mesh/lib_51_MBTLE_PB_ADV_ER.a(prov_bearer_adv.c.obj) (packet_mgr_alloc)
../../mesh/lib_51_MBTLE_CORE.a(radio.c.obj)
                              ../../mesh/lib_51_MBTLE_CORE.a(bearer_adv.c.obj) (radio_init)
../../mesh/lib_51_MBTLE_CORE.a(timer.c.obj)
                              CMakeFiles/51_pb_remote_client.dir/__/__/mesh/src/access/access_reliable.c.obj (timer_now)
../../mesh/lib_51_MBTLE_CORE.a(timer_scheduler.c.obj)
                              CMakeFiles/51_pb_remote_client.dir/__/__/mesh/src/access/access_publish.c.obj (timer_sch_schedule)
../../mesh/lib_51_MBTLE_CORE.a(beacon.c.obj)
                              ../../mesh/lib_51_MBTLE_PB_ADV_ER.a(prov_beacon.c.obj) (beacon_create)
../../mesh/lib_51_MBTLE_CORE.a(bearer.c.obj)
                              ../../mesh/lib_51_MBTLE_CORE.a(bearer_adv.c.obj) (bearer_adtype_filtering_set)
../../mesh/lib_51_MBTLE_CORE.a(bearer_event.c.obj)
                              ../../mesh/lib_51_MBTLE_CORE.a(bearer_adv.c.obj) (bearer_event_generic_post)
../../mesh/lib_51_MBTLE_CORE.a(nrf_mesh_configure.c.obj)
                              ../../mesh/lib_51_MBTLE_PB_ADV_ER.a(prov_bearer_adv.c.obj) (nrf_mesh_configure_device_uuid_get)
../../mesh/lib_51_MBTLE_CORE.a(enc.c.obj)
                              ../../mesh/lib_51_MBTLE_PB_ADV_ER.a(prov_utils.c.obj) (enc_aes_cmac)
../../mesh/lib_51_MBTLE_CORE.a(event.c.obj)
                              CMakeFiles/51_pb_remote_client.dir/__/__/mesh/src/access/access.c.obj (event_handle)
../../mesh/lib_51_MBTLE_CORE.a(log.c.obj)
                              CMakeFiles/51_pb_remote_client.dir/src/main.c.obj (log_callback_rtt)
../../mesh/lib_51_MBTLE_CORE.a(net_beacon.c.obj)
                              ../../mesh/lib_51_MBTLE_CORE.a(beacon.c.obj) (net_beacon_pkt_in)
../../mesh/lib_51_MBTLE_CORE.a(net_state.c.obj)
                              CMakeFiles/51_pb_remote_client.dir/__/__/mesh/src/access/device_state_manager.c.obj (net_state_flash_area_get)
../../mesh/lib_51_MBTLE_CORE.a(nrf_mesh.c.obj)
                              CMakeFiles/51_pb_remote_client.dir/src/main.c.obj (nrf_mesh_init)
../../mesh/lib_51_MBTLE_CORE.a(nrf_mesh_keygen.c.obj)
                              CMakeFiles/51_pb_remote_client.dir/__/__/mesh/src/access/device_state_manager.c.obj (nrf_mesh_keygen_aid)
../../mesh/lib_51_MBTLE_CORE.a(nrf_mesh_utils.c.obj)
                              CMakeFiles/51_pb_remote_client.dir/__/__/mesh/src/access/device_state_manager.c.obj (nrf_mesh_address_type_get)
../../mesh/lib_51_MBTLE_CORE.a(radio_config.c.obj)
                              ../../mesh/lib_51_MBTLE_CORE.a(radio.c.obj) (radio_config_reset)
../../mesh/lib_51_MBTLE_CORE.a(rand.c.obj)
                              ../../mesh/lib_51_MBTLE_CORE.a(bearer_adv.c.obj) (rand_prng_get)
../../mesh/lib_51_MBTLE_CORE.a(ticker.c.obj)
                              ../../mesh/lib_51_MBTLE_CORE.a(nrf_mesh.c.obj) (ticker_init)
../../mesh/lib_51_MBTLE_CORE.a(transport.c.obj)
                              ../../mesh/lib_51_MBTLE_CORE.a(nrf_mesh.c.obj) (transport_init)
../../mesh/lib_51_MBTLE_CORE.a(internal_event.c.obj)
                              ../../mesh/lib_51_MBTLE_CORE.a(bearer.c.obj) (internal_event_push)
../../mesh/lib_51_MBTLE_CORE.a(flash_manager.c.obj)
                              ../../mesh/lib_51_MBTLE_CORE.a(nrf_mesh.c.obj) (flash_manager_init)
../../mesh/lib_51_MBTLE_CORE.a(flash_manager_defrag.c.obj)
                              ../../mesh/lib_51_MBTLE_CORE.a(flash_manager.c.obj) (flash_manager_defrag_init)
../../mesh/lib_51_MBTLE_CORE.a(flash_manager_internal.c.obj)
                              ../../mesh/lib_51_MBTLE_CORE.a(flash_manager.c.obj) (entry_get)
../../mesh/lib_51_MBTLE_CORE.a(aes.c.obj)
                              ../../mesh/lib_51_MBTLE_CORE.a(enc.c.obj) (aes_encrypt)
../../mesh/lib_51_MBTLE_CORE.a(queue.c.obj)
                              ../../mesh/lib_51_MBTLE_CORE.a(flash_manager.c.obj) (queue_init)
../../mesh/lib_51_MBTLE_CORE.a(timeslot.c.obj)
                              ../../mesh/lib_51_MBTLE_CORE.a(nrf_mesh.c.obj) (timeslot_sd_event_handler)
../../mesh/lib_51_MBTLE_CORE.a(aes_cmac.c.obj)
                              ../../mesh/lib_51_MBTLE_CORE.a(enc.c.obj) (aes_cmac)
../../mesh/lib_51_MBTLE_CORE.a(ccm_soft.c.obj)
                              ../../mesh/lib_51_MBTLE_CORE.a(enc.c.obj) (ccm_soft_encrypt)
../../mesh/lib_51_MBTLE_CORE.a(msg_cache.c.obj)
                              ../../mesh/lib_51_MBTLE_CORE.a(nrf_mesh.c.obj) (msg_cache_init)
../../mesh/lib_51_MBTLE_CORE.a(network.c.obj)
                              ../../mesh/lib_51_MBTLE_CORE.a(transport.c.obj) (network_pkt_relay)
../../mesh/lib_51_MBTLE_CORE.a(packet.c.obj)
                              ../../mesh/lib_51_MBTLE_CORE.a(network.c.obj) (packet_type_packet_get)
../../mesh/lib_51_MBTLE_CORE.a(packet_buffer.c.obj)
                              ../../mesh/lib_51_MBTLE_CORE.a(flash_manager.c.obj) (packet_buffer_init)
../../mesh/lib_51_MBTLE_CORE.a(replay_cache.c.obj)
                              ../../mesh/lib_51_MBTLE_CORE.a(transport.c.obj) (replay_cache_add)
../../mesh/lib_51_MBTLE_CORE.a(mesh_flash.c.obj)
                              ../../mesh/lib_51_MBTLE_CORE.a(flash_manager.c.obj) (mesh_flash_user_callback_set)
../../mesh/lib_51_MBTLE_CORE.a(nrf_flash.c.obj)
                              ../../mesh/lib_51_MBTLE_CORE.a(mesh_flash.c.obj) (nrf_flash_erase)
../../mesh/lib_51_MBTLE_CORE.a(msqueue.c.obj)
                              ../../mesh/lib_51_MBTLE_CORE.a(mesh_flash.c.obj) (msq_get)
../../lib/micro-ecc/lib_51_UECC_LIB.a(uECC.c.obj)
                              ../../mesh/lib_51_MBTLE_PB_ADV_ER.a(prov_utils.c.obj) (uECC_secp256r1)
../../lib/rtt/lib_51_RTT_LIB.a(SEGGER_RTT.c.obj)
                              ../../mesh/lib_51_MBTLE_CORE.a(log.c.obj) (SEGGER_RTT_Write)
../../lib/rtt/lib_51_RTT_LIB.a(SEGGER_RTT_printf.c.obj)
                              ../../mesh/lib_51_MBTLE_CORE.a(log.c.obj) (SEGGER_RTT_vprintf)
/usr/bin/../lib/gcc/arm-none-eabi/6.3.1/thumb/v6-m/libgcc.a(_udivsi3.o)
                              CMakeFiles/51_pb_remote_client.dir/__/__/mesh/src/access/access_publish.c.obj (__aeabi_uidiv)
/usr/bin/../lib/gcc/arm-none-eabi/6.3.1/thumb/v6-m/libgcc.a(_divsi3.o)
                              CMakeFiles/51_pb_remote_client.dir/__/__/mesh/src/access/access_reliable.c.obj (__aeabi_idiv)
/usr/bin/../lib/gcc/arm-none-eabi/6.3.1/thumb/v6-m/libgcc.a(_dvmd_tls.o)
                              /usr/bin/../lib/gcc/arm-none-eabi/6.3.1/thumb/v6-m/libgcc.a(_udivsi3.o) (__aeabi_idiv0)
/usr/bin/../lib/gcc/arm-none-eabi/6.3.1/thumb/v6-m/libgcc.a(_muldi3.o)
                              ../../mesh/lib_51_MBTLE_CORE.a(timeslot.c.obj) (__aeabi_lmul)
/usr/bin/../lib/gcc/arm-none-eabi/6.3.1/../../../../arm-none-eabi/lib/thumb/v6-m/libg_nano.a(lib_a-exit.o)
                              /usr/bin/../lib/gcc/arm-none-eabi/6.3.1/../../../../arm-none-eabi/lib/thumb/v6-m/crt0.o (exit)
/usr/bin/../lib/gcc/arm-none-eabi/6.3.1/../../../../arm-none-eabi/lib/thumb/v6-m/libg_nano.a(lib_a-impure.o)
                              /usr/bin/../lib/gcc/arm-none-eabi/6.3.1/../../../../arm-none-eabi/lib/thumb/v6-m/libg_nano.a(lib_a-exit.o) (_global_impure_ptr)
/usr/bin/../lib/gcc/arm-none-eabi/6.3.1/../../../../arm-none-eabi/lib/thumb/v6-m/libg_nano.a(lib_a-init.o)
                              /usr/bin/../lib/gcc/arm-none-eabi/6.3.1/../../../../arm-none-eabi/lib/thumb/v6-m/crt0.o (__libc_init_array)
/usr/bin/../lib/gcc/arm-none-eabi/6.3.1/../../../../arm-none-eabi/lib/thumb/v6-m/libg_nano.a(lib_a-malloc.o)
                              ../../mesh/lib_51_MBTLE_CORE.a(transport.c.obj) (malloc)
/usr/bin/../lib/gcc/arm-none-eabi/6.3.1/../../../../arm-none-eabi/lib/thumb/v6-m/libg_nano.a(lib_a-memcmp.o)
                              CMakeFiles/51_pb_remote_client.dir/__/__/mesh/src/access/device_state_manager.c.obj (memcmp)
/usr/bin/../lib/gcc/arm-none-eabi/6.3.1/../../../../arm-none-eabi/lib/thumb/v6-m/libg_nano.a(lib_a-memcpy-stub.o)
                              CMakeFiles/51_pb_remote_client.dir/__/__/mesh/models/pb_remote/src/pb_remote_client.c.obj (memcpy)
/usr/bin/../lib/gcc/arm-none-eabi/6.3.1/../../../../arm-none-eabi/lib/thumb/v6-m/libg_nano.a(lib_a-memset.o)
                              /usr/bin/../lib/gcc/arm-none-eabi/6.3.1/../../../../arm-none-eabi/lib/thumb/v6-m/crt0.o (memset)
/usr/bin/../lib/gcc/arm-none-eabi/6.3.1/../../../../arm-none-eabi/lib/thumb/v6-m/libg_nano.a(lib_a-nano-freer.o)
                              /usr/bin/../lib/gcc/arm-none-eabi/6.3.1/../../../../arm-none-eabi/lib/thumb/v6-m/libg_nano.a(lib_a-malloc.o) (_free_r)
/usr/bin/../lib/gcc/arm-none-eabi/6.3.1/../../../../arm-none-eabi/lib/thumb/v6-m/libg_nano.a(lib_a-nano-mallocr.o)
                              /usr/bin/../lib/gcc/arm-none-eabi/6.3.1/../../../../arm-none-eabi/lib/thumb/v6-m/libg_nano.a(lib_a-malloc.o) (_malloc_r)
/usr/bin/../lib/gcc/arm-none-eabi/6.3.1/../../../../arm-none-eabi/lib/thumb/v6-m/libg_nano.a(lib_a-sbrkr.o)
                              /usr/bin/../lib/gcc/arm-none-eabi/6.3.1/../../../../arm-none-eabi/lib/thumb/v6-m/libg_nano.a(lib_a-nano-mallocr.o) (_sbrk_r)
/usr/bin/../lib/gcc/arm-none-eabi/6.3.1/../../../../arm-none-eabi/lib/thumb/v6-m/libg_nano.a(lib_a-strcpy.o)
                              ../../lib/rtt/lib_51_RTT_LIB.a(SEGGER_RTT.c.obj) (strcpy)
/usr/bin/../lib/gcc/arm-none-eabi/6.3.1/../../../../arm-none-eabi/lib/thumb/v6-m/libg_nano.a(lib_a-strlen.o)
                              ../../mesh/lib_51_MBTLE_PB_ADV_ER.a(prov_beacon.c.obj) (strlen)
/usr/bin/../lib/gcc/arm-none-eabi/6.3.1/../../../../arm-none-eabi/lib/thumb/v6-m/libg_nano.a(lib_a-strrchr.o)
                              CMakeFiles/51_pb_remote_client.dir/src/main.c.obj (strrchr)
/usr/bin/../lib/gcc/arm-none-eabi/6.3.1/../../../../arm-none-eabi/lib/thumb/v6-m/libg_nano.a(lib_a-mlock.o)
                              /usr/bin/../lib/gcc/arm-none-eabi/6.3.1/../../../../arm-none-eabi/lib/thumb/v6-m/libg_nano.a(lib_a-nano-freer.o) (__malloc_lock)
/usr/bin/../lib/gcc/arm-none-eabi/6.3.1/../../../../arm-none-eabi/lib/thumb/v6-m/libg_nano.a(lib_a-reent.o)
                              /usr/bin/../lib/gcc/arm-none-eabi/6.3.1/../../../../arm-none-eabi/lib/thumb/v6-m/libg_nano.a(lib_a-sbrkr.o) (errno)
/usr/bin/../lib/gcc/arm-none-eabi/6.3.1/../../../../arm-none-eabi/lib/thumb/v6-m/libg_nano.a(lib_a-strchr.o)
                              /usr/bin/../lib/gcc/arm-none-eabi/6.3.1/../../../../arm-none-eabi/lib/thumb/v6-m/libg_nano.a(lib_a-strrchr.o) (strchr)
/usr/bin/../lib/gcc/arm-none-eabi/6.3.1/../../../../arm-none-eabi/lib/thumb/v6-m/libnosys.a(sbrk.o)
                              /usr/bin/../lib/gcc/arm-none-eabi/6.3.1/../../../../arm-none-eabi/lib/thumb/v6-m/libg_nano.a(lib_a-sbrkr.o) (_sbrk)
/usr/bin/../lib/gcc/arm-none-eabi/6.3.1/../../../../arm-none-eabi/lib/thumb/v6-m/libnosys.a(_exit.o)
                              /usr/bin/../lib/gcc/arm-none-eabi/6.3.1/../../../../arm-none-eabi/lib/thumb/v6-m/libg_nano.a(lib_a-exit.o) (_exit)

Allocating common symbols
Common symbol       size              file

nrf_nvic_state      0x8               CMakeFiles/51_pb_remote_client.dir/__/nrf_mesh_sdk.c.obj
errno               0x4               /usr/bin/../lib/gcc/arm-none-eabi/6.3.1/../../../../arm-none-eabi/lib/thumb/v6-m/libg_nano.a(lib_a-reent.o)
m_assertion_handler
                    0x4               ../../mesh/lib_51_MBTLE_CORE.a(nrf_mesh.c.obj)
_SEGGER_RTT         0x78              ../../lib/rtt/lib_51_RTT_LIB.a(SEGGER_RTT.c.obj)

Discarded input sections

 .text          0x0000000000000000        0x0 /usr/bin/../lib/gcc/arm-none-eabi/6.3.1/thumb/v6-m/crti.o
 .data          0x0000000000000000        0x0 /usr/bin/../lib/gcc/arm-none-eabi/6.3.1/thumb/v6-m/crti.o
 .bss           0x0000000000000000        0x0 /usr/bin/../lib/gcc/arm-none-eabi/6.3.1/thumb/v6-m/crti.o
 .data          0x0000000000000000        0x4 /usr/bin/../lib/gcc/arm-none-eabi/6.3.1/thumb/v6-m/crtbegin.o
 .data          0x0000000000000000        0x0 /usr/bin/../lib/gcc/arm-none-eabi/6.3.1/../../../../arm-none-eabi/lib/thumb/v6-m/crt0.o
 .bss           0x0000000000000000        0x0 /usr/bin/../lib/gcc/arm-none-eabi/6.3.1/../../../../arm-none-eabi/lib/thumb/v6-m/crt0.o
 .ARM.extab     0x0000000000000000        0x0 /usr/bin/../lib/gcc/arm-none-eabi/6.3.1/../../../../arm-none-eabi/lib/thumb/v6-m/crt0.o
 .text          0x0000000000000000        0x0 CMakeFiles/51_pb_remote_client.dir/src/main.c.obj
 .data          0x0000000000000000        0x0 CMakeFiles/51_pb_remote_client.dir/src/main.c.obj
 .bss           0x0000000000000000        0x0 CMakeFiles/51_pb_remote_client.dir/src/main.c.obj
 .text          0x0000000000000000        0x0 CMakeFiles/51_pb_remote_client.dir/__/__/mesh/models/pb_remote/src/pb_remote_client.c.obj
 .data          0x0000000000000000        0x0 CMakeFiles/51_pb_remote_client.dir/__/__/mesh/models/pb_remote/src/pb_remote_client.c.obj
 .bss           0x0000000000000000        0x0 CMakeFiles/51_pb_remote_client.dir/__/__/mesh/models/pb_remote/src/pb_remote_client.c.obj
 .text          0x0000000000000000        0x0 CMakeFiles/51_pb_remote_client.dir/__/__/mesh/src/access/access.c.obj
 .data          0x0000000000000000        0x0 CMakeFiles/51_pb_remote_client.dir/__/__/mesh/src/access/access.c.obj
 .bss           0x0000000000000000        0x0 CMakeFiles/51_pb_remote_client.dir/__/__/mesh/src/access/access.c.obj
 .text.restore_acquired_subscription
                0x0000000000000000       0x24 CMakeFiles/51_pb_remote_client.dir/__/__/mesh/src/access/access.c.obj
 .text.restore_acquired_element
                0x0000000000000000       0x1c CMakeFiles/51_pb_remote_client.dir/__/__/mesh/src/access/access.c.obj
 .text.restore_flash_data
                0x0000000000000000       0x64 CMakeFiles/51_pb_remote_client.dir/__/__/mesh/src/access/access.c.obj
 .text.restore_acquired_model
                0x0000000000000000       0x88 CMakeFiles/51_pb_remote_client.dir/__/__/mesh/src/access/access.c.obj
 .text.access_flash_config_clear
                0x0000000000000000       0x28 CMakeFiles/51_pb_remote_client.dir/__/__/mesh/src/access/access.c.obj
 .text.access_flash_config_store
                0x0000000000000000      0x104 CMakeFiles/51_pb_remote_client.dir/__/__/mesh/src/access/access.c.obj
 .text.access_flash_config_load
                0x0000000000000000      0x17c CMakeFiles/51_pb_remote_client.dir/__/__/mesh/src/access/access.c.obj
 .text.access_clear
                0x0000000000000000       0x10 CMakeFiles/51_pb_remote_client.dir/__/__/mesh/src/access/access.c.obj
 .text.access_model_publish_period_set
                0x0000000000000000       0x74 CMakeFiles/51_pb_remote_client.dir/__/__/mesh/src/access/access.c.obj
 .text.access_model_publish_period_get
                0x0000000000000000       0x44 CMakeFiles/51_pb_remote_client.dir/__/__/mesh/src/access/access.c.obj
 .text.access_model_subscription_list_alloc
                0x0000000000000000       0x44 CMakeFiles/51_pb_remote_client.dir/__/__/mesh/src/access/access.c.obj
 .text.access_model_subscription_lists_share
                0x0000000000000000       0x30 CMakeFiles/51_pb_remote_client.dir/__/__/mesh/src/access/access.c.obj
 .text.access_model_subscription_add
                0x0000000000000000       0x64 CMakeFiles/51_pb_remote_client.dir/__/__/mesh/src/access/access.c.obj
 .text.access_model_subscription_remove
                0x0000000000000000       0x64 CMakeFiles/51_pb_remote_client.dir/__/__/mesh/src/access/access.c.obj
 .text.access_model_subscriptions_get
                0x0000000000000000       0x98 CMakeFiles/51_pb_remote_client.dir/__/__/mesh/src/access/access.c.obj
 .text.access_model_application_unbind
                0x0000000000000000       0x50 CMakeFiles/51_pb_remote_client.dir/__/__/mesh/src/access/access.c.obj
 .text.access_model_applications_get
                0x0000000000000000       0x50 CMakeFiles/51_pb_remote_client.dir/__/__/mesh/src/access/access.c.obj
 .text.access_model_publish_application_get
                0x0000000000000000       0x2c CMakeFiles/51_pb_remote_client.dir/__/__/mesh/src/access/access.c.obj
 .text.access_default_ttl_set
                0x0000000000000000       0x10 CMakeFiles/51_pb_remote_client.dir/__/__/mesh/src/access/access.c.obj
 .text.access_default_ttl_get
                0x0000000000000000        0xc CMakeFiles/51_pb_remote_client.dir/__/__/mesh/src/access/access.c.obj
 .text.access_element_location_set
                0x0000000000000000       0x2c CMakeFiles/51_pb_remote_client.dir/__/__/mesh/src/access/access.c.obj
 .text.access_element_location_get
                0x0000000000000000       0x20 CMakeFiles/51_pb_remote_client.dir/__/__/mesh/src/access/access.c.obj
 .text.access_element_sig_model_count_get
                0x0000000000000000       0x20 CMakeFiles/51_pb_remote_client.dir/__/__/mesh/src/access/access.c.obj
 .text.access_element_vendor_model_count_get
                0x0000000000000000       0x20 CMakeFiles/51_pb_remote_client.dir/__/__/mesh/src/access/access.c.obj
 .text.access_model_id_get
                0x0000000000000000       0x3c CMakeFiles/51_pb_remote_client.dir/__/__/mesh/src/access/access.c.obj
 .text.access_handle_get
                0x0000000000000000       0x4c CMakeFiles/51_pb_remote_client.dir/__/__/mesh/src/access/access.c.obj
 .text.access_element_models_get
                0x0000000000000000       0x48 CMakeFiles/51_pb_remote_client.dir/__/__/mesh/src/access/access.c.obj
 .bss.m_metadata_stored
                0x0000000000000000        0x1 CMakeFiles/51_pb_remote_client.dir/__/__/mesh/src/access/access.c.obj
 .data.flash_clear_mem_available_struct.8012
                0x0000000000000000       0x10 CMakeFiles/51_pb_remote_client.dir/__/__/mesh/src/access/access.c.obj
 .data.flash_store_mem_available_struct.8036
                0x0000000000000000       0x10 CMakeFiles/51_pb_remote_client.dir/__/__/mesh/src/access/access.c.obj
 .rodata.multiply_de_bruijn_bit_position.6706
                0x0000000000000000       0x20 CMakeFiles/51_pb_remote_client.dir/__/__/mesh/src/access/access.c.obj
 .text          0x0000000000000000        0x0 CMakeFiles/51_pb_remote_client.dir/__/__/mesh/src/access/access_reliable.c.obj
 .data          0x0000000000000000        0x0 CMakeFiles/51_pb_remote_client.dir/__/__/mesh/src/access/access_reliable.c.obj
 .bss           0x0000000000000000        0x0 CMakeFiles/51_pb_remote_client.dir/__/__/mesh/src/access/access_reliable.c.obj
 .text.access_reliable_cancel_all
                0x0000000000000000       0x34 CMakeFiles/51_pb_remote_client.dir/__/__/mesh/src/access/access_reliable.c.obj
 .text          0x0000000000000000        0x0 CMakeFiles/51_pb_remote_client.dir/__/__/mesh/src/access/access_publish.c.obj
 .data          0x0000000000000000        0x0 CMakeFiles/51_pb_remote_client.dir/__/__/mesh/src/access/access_publish.c.obj
 .bss           0x0000000000000000        0x0 CMakeFiles/51_pb_remote_client.dir/__/__/mesh/src/access/access_publish.c.obj
 .text.add_to_publication_list
                0x0000000000000000       0xb0 CMakeFiles/51_pb_remote_client.dir/__/__/mesh/src/access/access_publish.c.obj
 .text.schedule_publication_timer
                0x0000000000000000      0x308 CMakeFiles/51_pb_remote_client.dir/__/__/mesh/src/access/access_publish.c.obj
 .text.publish_timer_tick
                0x0000000000000000       0xe0 CMakeFiles/51_pb_remote_client.dir/__/__/mesh/src/access/access_publish.c.obj
 .text.access_publish_init
                0x0000000000000000       0x38 CMakeFiles/51_pb_remote_client.dir/__/__/mesh/src/access/access_publish.c.obj
 .text.access_publish_period_set
                0x0000000000000000       0xe4 CMakeFiles/51_pb_remote_client.dir/__/__/mesh/src/access/access_publish.c.obj
 .text.access_publish_period_get
                0x0000000000000000       0x34 CMakeFiles/51_pb_remote_client.dir/__/__/mesh/src/access/access_publish.c.obj
 .bss.m_publish_timer
                0x0000000000000000       0x18 CMakeFiles/51_pb_remote_client.dir/__/__/mesh/src/access/access_publish.c.obj
 .bss.m_publish_timer_counter
                0x0000000000000000        0x4 CMakeFiles/51_pb_remote_client.dir/__/__/mesh/src/access/access_publish.c.obj
 .bss.m_publish_timer_running
                0x0000000000000000        0x1 CMakeFiles/51_pb_remote_client.dir/__/__/mesh/src/access/access_publish.c.obj
 .bss.m_timer_resolution
                0x0000000000000000        0x1 CMakeFiles/51_pb_remote_client.dir/__/__/mesh/src/access/access_publish.c.obj
 .bss.mp_publication_list
                0x0000000000000000        0x4 CMakeFiles/51_pb_remote_client.dir/__/__/mesh/src/access/access_publish.c.obj
 .debug_info    0x0000000000000000     0x1131 CMakeFiles/51_pb_remote_client.dir/__/__/mesh/src/access/access_publish.c.obj
 .debug_abbrev  0x0000000000000000      0x3ef CMakeFiles/51_pb_remote_client.dir/__/__/mesh/src/access/access_publish.c.obj
 .debug_loc     0x0000000000000000      0x8f2 CMakeFiles/51_pb_remote_client.dir/__/__/mesh/src/access/access_publish.c.obj
 .debug_aranges
                0x0000000000000000       0x48 CMakeFiles/51_pb_remote_client.dir/__/__/mesh/src/access/access_publish.c.obj
 .debug_ranges  0x0000000000000000      0x268 CMakeFiles/51_pb_remote_client.dir/__/__/mesh/src/access/access_publish.c.obj
 .debug_line    0x0000000000000000      0x474 CMakeFiles/51_pb_remote_client.dir/__/__/mesh/src/access/access_publish.c.obj
 .debug_str     0x0000000000000000      0xbc9 CMakeFiles/51_pb_remote_client.dir/__/__/mesh/src/access/access_publish.c.obj
 .comment       0x0000000000000000       0x80 CMakeFiles/51_pb_remote_client.dir/__/__/mesh/src/access/access_publish.c.obj
 .debug_frame   0x0000000000000000       0xc0 CMakeFiles/51_pb_remote_client.dir/__/__/mesh/src/access/access_publish.c.obj
 .ARM.attributes
                0x0000000000000000       0x31 CMakeFiles/51_pb_remote_client.dir/__/__/mesh/src/access/access_publish.c.obj
 .text          0x0000000000000000        0x0 CMakeFiles/51_pb_remote_client.dir/__/__/mesh/src/access/device_state_manager.c.obj
 .data          0x0000000000000000        0x0 CMakeFiles/51_pb_remote_client.dir/__/__/mesh/src/access/device_state_manager.c.obj
 .bss           0x0000000000000000        0x0 CMakeFiles/51_pb_remote_client.dir/__/__/mesh/src/access/device_state_manager.c.obj
 .text.address_delete_if_unused
                0x0000000000000000       0x94 CMakeFiles/51_pb_remote_client.dir/__/__/mesh/src/access/device_state_manager.c.obj
 .text.reset_flash_area
                0x0000000000000000       0x28 CMakeFiles/51_pb_remote_client.dir/__/__/mesh/src/access/device_state_manager.c.obj
 .text.add_address_virtual
                0x0000000000000000       0x90 CMakeFiles/51_pb_remote_client.dir/__/__/mesh/src/access/device_state_manager.c.obj
 .text.dsm_flash_config_load
                0x0000000000000000      0x140 CMakeFiles/51_pb_remote_client.dir/__/__/mesh/src/access/device_state_manager.c.obj
 .text.dsm_has_unflashed_data
                0x0000000000000000       0x5c CMakeFiles/51_pb_remote_client.dir/__/__/mesh/src/access/device_state_manager.c.obj
 .text.dsm_clear
                0x0000000000000000       0x6c CMakeFiles/51_pb_remote_client.dir/__/__/mesh/src/access/device_state_manager.c.obj
 .text.dsm_address_publish_add_handle
                0x0000000000000000       0x64 CMakeFiles/51_pb_remote_client.dir/__/__/mesh/src/access/device_state_manager.c.obj
 .text.dsm_address_publish_virtual_add
                0x0000000000000000        0xa CMakeFiles/51_pb_remote_client.dir/__/__/mesh/src/access/device_state_manager.c.obj
 .text.dsm_address_publish_remove
                0x0000000000000000       0x64 CMakeFiles/51_pb_remote_client.dir/__/__/mesh/src/access/device_state_manager.c.obj
 .text.dsm_address_subscription_add
                0x0000000000000000        0xa CMakeFiles/51_pb_remote_client.dir/__/__/mesh/src/access/device_state_manager.c.obj
 .text.dsm_address_subscription_virtual_add
                0x0000000000000000        0xa CMakeFiles/51_pb_remote_client.dir/__/__/mesh/src/access/device_state_manager.c.obj
 .text.dsm_address_subscription_add_handle
                0x0000000000000000       0x64 CMakeFiles/51_pb_remote_client.dir/__/__/mesh/src/access/device_state_manager.c.obj
 .text.dsm_address_subscription_count_get
                0x0000000000000000       0x88 CMakeFiles/51_pb_remote_client.dir/__/__/mesh/src/access/device_state_manager.c.obj
 .text.dsm_address_subscription_remove
                0x0000000000000000       0xa8 CMakeFiles/51_pb_remote_client.dir/__/__/mesh/src/access/device_state_manager.c.obj
 .text.dsm_address_get_all
                0x0000000000000000       0x80 CMakeFiles/51_pb_remote_client.dir/__/__/mesh/src/access/device_state_manager.c.obj
 .text.dsm_net_key_index_to_subnet_handle
                0x0000000000000000       0x28 CMakeFiles/51_pb_remote_client.dir/__/__/mesh/src/access/device_state_manager.c.obj
 .text.dsm_subnet_handle_get
                0x0000000000000000       0x14 CMakeFiles/51_pb_remote_client.dir/__/__/mesh/src/access/device_state_manager.c.obj
 .text.dsm_subnet_handle_to_netkey_index
                0x0000000000000000       0x30 CMakeFiles/51_pb_remote_client.dir/__/__/mesh/src/access/device_state_manager.c.obj
 .text.dsm_app_key_index_to_appkey_handle
                0x0000000000000000       0x20 CMakeFiles/51_pb_remote_client.dir/__/__/mesh/src/access/device_state_manager.c.obj
 .text.dsm_appkey_handle_to_appkey_index
                0x0000000000000000       0x30 CMakeFiles/51_pb_remote_client.dir/__/__/mesh/src/access/device_state_manager.c.obj
 .text.dsm_subnet_update
                0x0000000000000000       0x3c CMakeFiles/51_pb_remote_client.dir/__/__/mesh/src/access/device_state_manager.c.obj
 .text.dsm_subnet_get_all
                0x0000000000000000       0x40 CMakeFiles/51_pb_remote_client.dir/__/__/mesh/src/access/device_state_manager.c.obj
 .text.dsm_devkey_delete
                0x0000000000000000       0x48 CMakeFiles/51_pb_remote_client.dir/__/__/mesh/src/access/device_state_manager.c.obj
 .text.dsm_devkey_handle_get
                0x0000000000000000       0x3a CMakeFiles/51_pb_remote_client.dir/__/__/mesh/src/access/device_state_manager.c.obj
 .text.dsm_appkey_update
                0x0000000000000000       0x44 CMakeFiles/51_pb_remote_client.dir/__/__/mesh/src/access/device_state_manager.c.obj
 .text.dsm_appkey_delete
                0x0000000000000000       0x30 CMakeFiles/51_pb_remote_client.dir/__/__/mesh/src/access/device_state_manager.c.obj
 .text.dsm_subnet_delete
                0x0000000000000000       0xa0 CMakeFiles/51_pb_remote_client.dir/__/__/mesh/src/access/device_state_manager.c.obj
 .text.dsm_appkey_get_all
                0x0000000000000000       0x60 CMakeFiles/51_pb_remote_client.dir/__/__/mesh/src/access/device_state_manager.c.obj
 .text.dsm_beacon_secmat_get
                0x0000000000000000       0x30 CMakeFiles/51_pb_remote_client.dir/__/__/mesh/src/access/device_state_manager.c.obj
 .text.dsm_proxy_identity_get
                0x0000000000000000        0x4 CMakeFiles/51_pb_remote_client.dir/__/__/mesh/src/access/device_state_manager.c.obj
 .data.mem_listener.8178
                0x0000000000000000       0x10 CMakeFiles/51_pb_remote_client.dir/__/__/mesh/src/access/device_state_manager.c.obj
 .text          0x0000000000000000        0x0 CMakeFiles/51_pb_remote_client.dir/__/nrf_mesh_sdk.c.obj
 .data          0x0000000000000000        0x0 CMakeFiles/51_pb_remote_client.dir/__/nrf_mesh_sdk.c.obj
 .bss           0x0000000000000000        0x0 CMakeFiles/51_pb_remote_client.dir/__/nrf_mesh_sdk.c.obj
 .data          0x0000000000000000        0x0 CMakeFiles/51_pb_remote_client.dir/__/__/toolchain/gcc/gcc_startup_nrf51.S.obj
 .bss           0x0000000000000000        0x0 CMakeFiles/51_pb_remote_client.dir/__/__/toolchain/gcc/gcc_startup_nrf51.S.obj
 .text          0x0000000000000000        0x0 CMakeFiles/51_pb_remote_client.dir/__/__/toolchain/system_nrf51.c.obj
 .data          0x0000000000000000        0x0 CMakeFiles/51_pb_remote_client.dir/__/__/toolchain/system_nrf51.c.obj
 .bss           0x0000000000000000        0x0 CMakeFiles/51_pb_remote_client.dir/__/__/toolchain/system_nrf51.c.obj
 .text.SystemCoreClockUpdate
                0x0000000000000000       0x10 CMakeFiles/51_pb_remote_client.dir/__/__/toolchain/system_nrf51.c.obj
 .data.SystemCoreClock
                0x0000000000000000        0x4 CMakeFiles/51_pb_remote_client.dir/__/__/toolchain/system_nrf51.c.obj
 .text          0x0000000000000000        0x0 ../../mesh/lib_51_MBTLE_PB_ADV_ER.a(provisioning.c.obj)
 .data          0x0000000000000000        0x0 ../../mesh/lib_51_MBTLE_PB_ADV_ER.a(provisioning.c.obj)
 .bss           0x0000000000000000        0x0 ../../mesh/lib_51_MBTLE_PB_ADV_ER.a(provisioning.c.obj)
 .text.prov_listen_start
                0x0000000000000000       0x14 ../../mesh/lib_51_MBTLE_PB_ADV_ER.a(provisioning.c.obj)
 .text.prov_listen_stop
                0x0000000000000000        0xe ../../mesh/lib_51_MBTLE_PB_ADV_ER.a(provisioning.c.obj)
 .text.prov_tx_capabilities
                0x0000000000000000       0x1c ../../mesh/lib_51_MBTLE_PB_ADV_ER.a(provisioning.c.obj)
 .text.prov_tx_input_complete
                0x0000000000000000       0x14 ../../mesh/lib_51_MBTLE_PB_ADV_ER.a(provisioning.c.obj)
 .text.prov_tx_complete
                0x0000000000000000       0x14 ../../mesh/lib_51_MBTLE_PB_ADV_ER.a(provisioning.c.obj)
 .text.prov_tx_failed
                0x0000000000000000       0x18 ../../mesh/lib_51_MBTLE_PB_ADV_ER.a(provisioning.c.obj)
 .text.prov_tx  0x0000000000000000        0x8 ../../mesh/lib_51_MBTLE_PB_ADV_ER.a(provisioning.c.obj)
 .text          0x0000000000000000        0x0 ../../mesh/lib_51_MBTLE_PB_ADV_ER.a(nrf_mesh_prov.c.obj)
 .data          0x0000000000000000        0x0 ../../mesh/lib_51_MBTLE_PB_ADV_ER.a(nrf_mesh_prov.c.obj)
 .bss           0x0000000000000000        0x0 ../../mesh/lib_51_MBTLE_PB_ADV_ER.a(nrf_mesh_prov.c.obj)
 .text.nrf_mesh_prov_listen
                0x0000000000000000       0x28 ../../mesh/lib_51_MBTLE_PB_ADV_ER.a(nrf_mesh_prov.c.obj)
 .text.nrf_mesh_prov_shared_secret_provide
                0x0000000000000000       0x1c ../../mesh/lib_51_MBTLE_PB_ADV_ER.a(nrf_mesh_prov.c.obj)
 .text.nrf_mesh_prov_pubkey_provide
                0x0000000000000000       0x1c ../../mesh/lib_51_MBTLE_PB_ADV_ER.a(nrf_mesh_prov.c.obj)
 .text          0x0000000000000000        0x0 ../../mesh/lib_51_MBTLE_PB_ADV_ER.a(prov_bearer_adv.c.obj)
 .data          0x0000000000000000        0x0 ../../mesh/lib_51_MBTLE_PB_ADV_ER.a(prov_bearer_adv.c.obj)
 .bss           0x0000000000000000        0x0 ../../mesh/lib_51_MBTLE_PB_ADV_ER.a(prov_bearer_adv.c.obj)
 .text          0x0000000000000000        0x0 ../../mesh/lib_51_MBTLE_PB_ADV_ER.a(prov_utils.c.obj)
 .data          0x0000000000000000        0x0 ../../mesh/lib_51_MBTLE_PB_ADV_ER.a(prov_utils.c.obj)
 .bss           0x0000000000000000        0x0 ../../mesh/lib_51_MBTLE_PB_ADV_ER.a(prov_utils.c.obj)
 .text.prov_utils_opt_set
                0x0000000000000000       0x28 ../../mesh/lib_51_MBTLE_PB_ADV_ER.a(prov_utils.c.obj)
 .text.prov_utils_opt_get
                0x0000000000000000       0x1c ../../mesh/lib_51_MBTLE_PB_ADV_ER.a(prov_utils.c.obj)
 .text          0x0000000000000000        0x0 ../../mesh/lib_51_MBTLE_PB_ADV_ER.a(prov_beacon.c.obj)
 .data          0x0000000000000000        0x0 ../../mesh/lib_51_MBTLE_PB_ADV_ER.a(prov_beacon.c.obj)
 .bss           0x0000000000000000        0x0 ../../mesh/lib_51_MBTLE_PB_ADV_ER.a(prov_beacon.c.obj)
 .text.prov_beacon_unprov_report
                0x0000000000000000        0xc ../../mesh/lib_51_MBTLE_PB_ADV_ER.a(prov_beacon.c.obj)
 .text          0x0000000000000000        0x0 ../../mesh/lib_51_MBTLE_PB_ADV_ER.a(prov_provisioner.c.obj)
 .data          0x0000000000000000        0x0 ../../mesh/lib_51_MBTLE_PB_ADV_ER.a(prov_provisioner.c.obj)
 .bss           0x0000000000000000        0x0 ../../mesh/lib_51_MBTLE_PB_ADV_ER.a(prov_provisioner.c.obj)
 .text.prov_provisioner_shared_secret
                0x0000000000000000       0x30 ../../mesh/lib_51_MBTLE_PB_ADV_ER.a(prov_provisioner.c.obj)
 .text.prov_provisioner_oob_pubkey
                0x0000000000000000       0x40 ../../mesh/lib_51_MBTLE_PB_ADV_ER.a(prov_provisioner.c.obj)
 .text          0x0000000000000000        0x0 ../../mesh/lib_51_MBTLE_CORE.a(nrf_mesh_weak.c.obj)
 .data          0x0000000000000000        0x0 ../../mesh/lib_51_MBTLE_CORE.a(nrf_mesh_weak.c.obj)
 .bss           0x0000000000000000        0x0 ../../mesh/lib_51_MBTLE_CORE.a(nrf_mesh_weak.c.obj)
 .text._weak_handler_ptr
                0x0000000000000000        0x4 ../../mesh/lib_51_MBTLE_CORE.a(nrf_mesh_weak.c.obj)
 .text          0x0000000000000000        0x0 ../../mesh/lib_51_MBTLE_CORE.a(bearer_adv.c.obj)
 .data          0x0000000000000000        0x0 ../../mesh/lib_51_MBTLE_CORE.a(bearer_adv.c.obj)
 .bss           0x0000000000000000        0x0 ../../mesh/lib_51_MBTLE_CORE.a(bearer_adv.c.obj)
 .text.bearer_adv_opt_get
                0x0000000000000000       0xd8 ../../mesh/lib_51_MBTLE_CORE.a(bearer_adv.c.obj)
 .rodata.bearer_adv_opt_get
                0x0000000000000000       0x1c ../../mesh/lib_51_MBTLE_CORE.a(bearer_adv.c.obj)
 .text.bearer_adv_available
                0x0000000000000000       0x10 ../../mesh/lib_51_MBTLE_CORE.a(bearer_adv.c.obj)
 .text.bearer_adv_tx_raw
                0x0000000000000000       0x30 ../../mesh/lib_51_MBTLE_CORE.a(bearer_adv.c.obj)
 .text.bearer_adv_opt_set
                0x0000000000000000      0x124 ../../mesh/lib_51_MBTLE_CORE.a(bearer_adv.c.obj)
 .rodata.bearer_adv_opt_set
                0x0000000000000000       0x28 ../../mesh/lib_51_MBTLE_CORE.a(bearer_adv.c.obj)
 .text.bearer_adv_scan_stop
                0x0000000000000000       0x28 ../../mesh/lib_51_MBTLE_CORE.a(bearer_adv.c.obj)
 .text.bearer_adv_addr_set
                0x0000000000000000       0x3c ../../mesh/lib_51_MBTLE_CORE.a(bearer_adv.c.obj)
 .rodata.bearer_adv_opt_get.str1.4
                0x0000000000000000       0x15 ../../mesh/lib_51_MBTLE_CORE.a(bearer_adv.c.obj)
 .text          0x0000000000000000        0x0 ../../mesh/lib_51_MBTLE_CORE.a(fifo.c.obj)
 .data          0x0000000000000000        0x0 ../../mesh/lib_51_MBTLE_CORE.a(fifo.c.obj)
 .bss           0x0000000000000000        0x0 ../../mesh/lib_51_MBTLE_CORE.a(fifo.c.obj)
 .text.fifo_flush
                0x0000000000000000        0x6 ../../mesh/lib_51_MBTLE_CORE.a(fifo.c.obj)
 .text.fifo_is_full
                0x0000000000000000       0x14 ../../mesh/lib_51_MBTLE_CORE.a(fifo.c.obj)
 .text          0x0000000000000000        0x0 ../../mesh/lib_51_MBTLE_CORE.a(packet_mgr.c.obj)
 .data          0x0000000000000000        0x0 ../../mesh/lib_51_MBTLE_CORE.a(packet_mgr.c.obj)
 .bss           0x0000000000000000        0x0 ../../mesh/lib_51_MBTLE_CORE.a(packet_mgr.c.obj)
 .text.packet_mgr_get_free_space
                0x0000000000000000       0x1c ../../mesh/lib_51_MBTLE_CORE.a(packet_mgr.c.obj)
 .text.packet_mgr_refcount_get
                0x0000000000000000        0x6 ../../mesh/lib_51_MBTLE_CORE.a(packet_mgr.c.obj)
 .text.packet_mgr_size_get
                0x0000000000000000        0x6 ../../mesh/lib_51_MBTLE_CORE.a(packet_mgr.c.obj)
 .text          0x0000000000000000        0x0 ../../mesh/lib_51_MBTLE_CORE.a(radio.c.obj)
 .data          0x0000000000000000        0x0 ../../mesh/lib_51_MBTLE_CORE.a(radio.c.obj)
 .bss           0x0000000000000000        0x0 ../../mesh/lib_51_MBTLE_CORE.a(radio.c.obj)
 .text.radio_mode_set
                0x0000000000000000       0x14 ../../mesh/lib_51_MBTLE_CORE.a(radio.c.obj)
 .text.radio_access_addr_set
                0x0000000000000000        0xc ../../mesh/lib_51_MBTLE_CORE.a(radio.c.obj)
 .text.radio_tx_power_set
                0x0000000000000000        0xc ../../mesh/lib_51_MBTLE_CORE.a(radio.c.obj)
 .text.radio_mode_get
                0x0000000000000000        0xc ../../mesh/lib_51_MBTLE_CORE.a(radio.c.obj)
 .text.radio_access_addr_get
                0x0000000000000000        0xc ../../mesh/lib_51_MBTLE_CORE.a(radio.c.obj)
 .text.radio_tx_power_get
                0x0000000000000000        0xc ../../mesh/lib_51_MBTLE_CORE.a(radio.c.obj)
 .text.radio_resume
                0x0000000000000000       0x40 ../../mesh/lib_51_MBTLE_CORE.a(radio.c.obj)
 .text          0x0000000000000000        0x0 ../../mesh/lib_51_MBTLE_CORE.a(timer.c.obj)
 .data          0x0000000000000000        0x0 ../../mesh/lib_51_MBTLE_CORE.a(timer.c.obj)
 .bss           0x0000000000000000        0x0 ../../mesh/lib_51_MBTLE_CORE.a(timer.c.obj)
 .text.timer_order_cb_ppi
                0x0000000000000000       0xd0 ../../mesh/lib_51_MBTLE_CORE.a(timer.c.obj)
 .text.timer_order_ppi
                0x0000000000000000       0x90 ../../mesh/lib_51_MBTLE_CORE.a(timer.c.obj)
 .text          0x0000000000000000        0x0 ../../mesh/lib_51_MBTLE_CORE.a(timer_scheduler.c.obj)
 .data          0x0000000000000000        0x0 ../../mesh/lib_51_MBTLE_CORE.a(timer_scheduler.c.obj)
 .bss           0x0000000000000000        0x0 ../../mesh/lib_51_MBTLE_CORE.a(timer_scheduler.c.obj)
 .text          0x0000000000000000        0x0 ../../mesh/lib_51_MBTLE_CORE.a(beacon.c.obj)
 .data          0x0000000000000000        0x0 ../../mesh/lib_51_MBTLE_CORE.a(beacon.c.obj)
 .bss           0x0000000000000000        0x0 ../../mesh/lib_51_MBTLE_CORE.a(beacon.c.obj)
 .text          0x0000000000000000        0x0 ../../mesh/lib_51_MBTLE_CORE.a(bearer.c.obj)
 .data          0x0000000000000000        0x0 ../../mesh/lib_51_MBTLE_CORE.a(bearer.c.obj)
 .bss           0x0000000000000000        0x0 ../../mesh/lib_51_MBTLE_CORE.a(bearer.c.obj)
 .text.gap_addr_filter_set
                0x0000000000000000       0x40 ../../mesh/lib_51_MBTLE_CORE.a(bearer.c.obj)
 .text.bearer_adtype_filtering_set
                0x0000000000000000        0xc ../../mesh/lib_51_MBTLE_CORE.a(bearer.c.obj)
 .text.bearer_adtype_add
                0x0000000000000000       0x1c ../../mesh/lib_51_MBTLE_CORE.a(bearer.c.obj)
 .text.bearer_adtype_remove
                0x0000000000000000       0x1c ../../mesh/lib_51_MBTLE_CORE.a(bearer.c.obj)
 .text.bearer_filter_gap_addr_whitelist_set
                0x0000000000000000        0xa ../../mesh/lib_51_MBTLE_CORE.a(bearer.c.obj)
 .text.bearer_filter_gap_addr_blacklist_set
                0x0000000000000000        0xa ../../mesh/lib_51_MBTLE_CORE.a(bearer.c.obj)
 .text.bearer_filter_gap_addr_range_set
                0x0000000000000000       0x36 ../../mesh/lib_51_MBTLE_CORE.a(bearer.c.obj)
 .text.bearer_filter_gap_addr_clear
                0x0000000000000000       0x28 ../../mesh/lib_51_MBTLE_CORE.a(bearer.c.obj)
 .text.bearer_disable
                0x0000000000000000       0x14 ../../mesh/lib_51_MBTLE_CORE.a(bearer.c.obj)
 .text.bearer_stats_get
                0x0000000000000000       0x2c ../../mesh/lib_51_MBTLE_CORE.a(bearer.c.obj)
 .text          0x0000000000000000        0x0 ../../mesh/lib_51_MBTLE_CORE.a(bearer_event.c.obj)
 .data          0x0000000000000000        0x0 ../../mesh/lib_51_MBTLE_CORE.a(bearer_event.c.obj)
 .bss           0x0000000000000000        0x0 ../../mesh/lib_51_MBTLE_CORE.a(bearer_event.c.obj)
 .text.bearer_event_timer_sch_post
                0x0000000000000000       0x3c ../../mesh/lib_51_MBTLE_CORE.a(bearer_event.c.obj)
 .text.bearer_event_in_progress
                0x0000000000000000       0x18 ../../mesh/lib_51_MBTLE_CORE.a(bearer_event.c.obj)
 .text          0x0000000000000000        0x0 ../../mesh/lib_51_MBTLE_CORE.a(nrf_mesh_configure.c.obj)
 .data          0x0000000000000000        0x0 ../../mesh/lib_51_MBTLE_CORE.a(nrf_mesh_configure.c.obj)
 .bss           0x0000000000000000        0x0 ../../mesh/lib_51_MBTLE_CORE.a(nrf_mesh_configure.c.obj)
 .text.nrf_mesh_configure_device_uuid_set
                0x0000000000000000       0x14 ../../mesh/lib_51_MBTLE_CORE.a(nrf_mesh_configure.c.obj)
 .text          0x0000000000000000        0x0 ../../mesh/lib_51_MBTLE_CORE.a(enc.c.obj)
 .data          0x0000000000000000        0x0 ../../mesh/lib_51_MBTLE_CORE.a(enc.c.obj)
 .bss           0x0000000000000000        0x0 ../../mesh/lib_51_MBTLE_CORE.a(enc.c.obj)
 .text.enc_key_generate
                0x0000000000000000        0xa ../../mesh/lib_51_MBTLE_CORE.a(enc.c.obj)
 .text          0x0000000000000000        0x0 ../../mesh/lib_51_MBTLE_CORE.a(event.c.obj)
 .data          0x0000000000000000        0x0 ../../mesh/lib_51_MBTLE_CORE.a(event.c.obj)
 .bss           0x0000000000000000        0x0 ../../mesh/lib_51_MBTLE_CORE.a(event.c.obj)
 .text.event_handler_remove
                0x0000000000000000       0x7c ../../mesh/lib_51_MBTLE_CORE.a(event.c.obj)
 .text          0x0000000000000000        0x0 ../../mesh/lib_51_MBTLE_CORE.a(log.c.obj)
 .data          0x0000000000000000        0x0 ../../mesh/lib_51_MBTLE_CORE.a(log.c.obj)
 .bss           0x0000000000000000        0x0 ../../mesh/lib_51_MBTLE_CORE.a(log.c.obj)
 .text.log_callback_logview
                0x0000000000000000       0x38 ../../mesh/lib_51_MBTLE_CORE.a(log.c.obj)
 .text.log_set_callback
                0x0000000000000000        0xc ../../mesh/lib_51_MBTLE_CORE.a(log.c.obj)
 .rodata.log_callback_logview.str1.4
                0x0000000000000000       0x12 ../../mesh/lib_51_MBTLE_CORE.a(log.c.obj)
 .text          0x0000000000000000        0x0 ../../mesh/lib_51_MBTLE_CORE.a(net_beacon.c.obj)
 .data          0x0000000000000000        0x0 ../../mesh/lib_51_MBTLE_CORE.a(net_beacon.c.obj)
 .bss           0x0000000000000000        0x0 ../../mesh/lib_51_MBTLE_CORE.a(net_beacon.c.obj)
 .text.net_beacon_state_set
                0x0000000000000000       0x40 ../../mesh/lib_51_MBTLE_CORE.a(net_beacon.c.obj)
 .text.net_beacon_state_get
                0x0000000000000000        0xc ../../mesh/lib_51_MBTLE_CORE.a(net_beacon.c.obj)
 .text          0x0000000000000000        0x0 ../../mesh/lib_51_MBTLE_CORE.a(net_state.c.obj)
 .data          0x0000000000000000        0x0 ../../mesh/lib_51_MBTLE_CORE.a(net_state.c.obj)
 .bss           0x0000000000000000        0x0 ../../mesh/lib_51_MBTLE_CORE.a(net_state.c.obj)
 .text.net_state_reset
                0x0000000000000000       0x3c ../../mesh/lib_51_MBTLE_CORE.a(net_state.c.obj)
 .text.net_state_iv_update_test_mode_set
                0x0000000000000000        0xc ../../mesh/lib_51_MBTLE_CORE.a(net_state.c.obj)
 .data.mem_listener.7451
                0x0000000000000000       0x10 ../../mesh/lib_51_MBTLE_CORE.a(net_state.c.obj)
 .text          0x0000000000000000        0x0 ../../mesh/lib_51_MBTLE_CORE.a(nrf_mesh.c.obj)
 .data          0x0000000000000000        0x0 ../../mesh/lib_51_MBTLE_CORE.a(nrf_mesh.c.obj)
 .bss           0x0000000000000000        0x0 ../../mesh/lib_51_MBTLE_CORE.a(nrf_mesh.c.obj)
 .text.nrf_mesh_disable
                0x0000000000000000       0x28 ../../mesh/lib_51_MBTLE_CORE.a(nrf_mesh.c.obj)
 .text.nrf_mesh_adv_send
                0x0000000000000000       0xbc ../../mesh/lib_51_MBTLE_CORE.a(nrf_mesh.c.obj)
 .text.nrf_mesh_evt_handler_remove
                0x0000000000000000        0x8 ../../mesh/lib_51_MBTLE_CORE.a(nrf_mesh.c.obj)
 .text.nrf_mesh_rx_cb_set
                0x0000000000000000        0xc ../../mesh/lib_51_MBTLE_CORE.a(nrf_mesh.c.obj)
 .text.nrf_mesh_rx_cb_clear
                0x0000000000000000        0xc ../../mesh/lib_51_MBTLE_CORE.a(nrf_mesh.c.obj)
 .text          0x0000000000000000        0x0 ../../mesh/lib_51_MBTLE_CORE.a(nrf_mesh_keygen.c.obj)
 .data          0x0000000000000000        0x0 ../../mesh/lib_51_MBTLE_CORE.a(nrf_mesh_keygen.c.obj)
 .bss           0x0000000000000000        0x0 ../../mesh/lib_51_MBTLE_CORE.a(nrf_mesh_keygen.c.obj)
 .text.nrf_mesh_keygen_identitykey
                0x0000000000000000       0x50 ../../mesh/lib_51_MBTLE_CORE.a(nrf_mesh_keygen.c.obj)
 .text          0x0000000000000000        0x0 ../../mesh/lib_51_MBTLE_CORE.a(nrf_mesh_utils.c.obj)
 .data          0x0000000000000000        0x0 ../../mesh/lib_51_MBTLE_CORE.a(nrf_mesh_utils.c.obj)
 .bss           0x0000000000000000        0x0 ../../mesh/lib_51_MBTLE_CORE.a(nrf_mesh_utils.c.obj)
 .text.nrf_mesh_rand_get
                0x0000000000000000       0x14 ../../mesh/lib_51_MBTLE_CORE.a(nrf_mesh_utils.c.obj)
 .text          0x0000000000000000        0x0 ../../mesh/lib_51_MBTLE_CORE.a(radio_config.c.obj)
 .data          0x0000000000000000        0x0 ../../mesh/lib_51_MBTLE_CORE.a(radio_config.c.obj)
 .bss           0x0000000000000000        0x0 ../../mesh/lib_51_MBTLE_CORE.a(radio_config.c.obj)
 .text.radio_config_access_addr_set
                0x0000000000000000       0x78 ../../mesh/lib_51_MBTLE_CORE.a(radio_config.c.obj)
 .text.radio_config_access_addr_get
                0x0000000000000000       0x7c ../../mesh/lib_51_MBTLE_CORE.a(radio_config.c.obj)
 .text          0x0000000000000000        0x0 ../../mesh/lib_51_MBTLE_CORE.a(rand.c.obj)
 .data          0x0000000000000000        0x0 ../../mesh/lib_51_MBTLE_CORE.a(rand.c.obj)
 .bss           0x0000000000000000        0x0 ../../mesh/lib_51_MBTLE_CORE.a(rand.c.obj)
 .text          0x0000000000000000        0x0 ../../mesh/lib_51_MBTLE_CORE.a(ticker.c.obj)
 .data          0x0000000000000000        0x0 ../../mesh/lib_51_MBTLE_CORE.a(ticker.c.obj)
 .bss           0x0000000000000000        0x0 ../../mesh/lib_51_MBTLE_CORE.a(ticker.c.obj)
 .text.ticker_get
                0x0000000000000000        0xc ../../mesh/lib_51_MBTLE_CORE.a(ticker.c.obj)
 .text          0x0000000000000000        0x0 ../../mesh/lib_51_MBTLE_CORE.a(transport.c.obj)
 .data          0x0000000000000000        0x0 ../../mesh/lib_51_MBTLE_CORE.a(transport.c.obj)
 .bss           0x0000000000000000        0x0 ../../mesh/lib_51_MBTLE_CORE.a(transport.c.obj)
 .text.transport_opt_set
                0x0000000000000000       0xdc ../../mesh/lib_51_MBTLE_CORE.a(transport.c.obj)
 .rodata.transport_opt_set
                0x0000000000000000       0x1c ../../mesh/lib_51_MBTLE_CORE.a(transport.c.obj)
 .text.transport_opt_get
                0x0000000000000000       0x80 ../../mesh/lib_51_MBTLE_CORE.a(transport.c.obj)
 .rodata.transport_opt_get
                0x0000000000000000       0x1c ../../mesh/lib_51_MBTLE_CORE.a(transport.c.obj)
 .text          0x0000000000000000        0x0 ../../mesh/lib_51_MBTLE_CORE.a(internal_event.c.obj)
 .data          0x0000000000000000        0x0 ../../mesh/lib_51_MBTLE_CORE.a(internal_event.c.obj)
 .bss           0x0000000000000000        0x0 ../../mesh/lib_51_MBTLE_CORE.a(internal_event.c.obj)
 .text.internal_event_init
                0x0000000000000000       0x44 ../../mesh/lib_51_MBTLE_CORE.a(internal_event.c.obj)
 .text.internal_event_pop
                0x0000000000000000       0x20 ../../mesh/lib_51_MBTLE_CORE.a(internal_event.c.obj)
 .bss.m_internal_event_fifo_buffer
                0x0000000000000000      0x100 ../../mesh/lib_51_MBTLE_CORE.a(internal_event.c.obj)
 .text          0x0000000000000000        0x0 ../../mesh/lib_51_MBTLE_CORE.a(flash_manager.c.obj)
 .data          0x0000000000000000        0x0 ../../mesh/lib_51_MBTLE_CORE.a(flash_manager.c.obj)
 .bss           0x0000000000000000        0x0 ../../mesh/lib_51_MBTLE_CORE.a(flash_manager.c.obj)
 .text.flash_manager_remove
                0x0000000000000000       0x60 ../../mesh/lib_51_MBTLE_CORE.a(flash_manager.c.obj)
 .text.flash_manager_entry_get
                0x0000000000000000       0x54 ../../mesh/lib_51_MBTLE_CORE.a(flash_manager.c.obj)
 .text.flash_manager_entry_count_get
                0x0000000000000000       0xc4 ../../mesh/lib_51_MBTLE_CORE.a(flash_manager.c.obj)
 .text.flash_manager_entry_release
                0x0000000000000000       0x58 ../../mesh/lib_51_MBTLE_CORE.a(flash_manager.c.obj)
 .text          0x0000000000000000        0x0 ../../mesh/lib_51_MBTLE_CORE.a(flash_manager_defrag.c.obj)
 .data          0x0000000000000000        0x0 ../../mesh/lib_51_MBTLE_CORE.a(flash_manager_defrag.c.obj)
 .bss           0x0000000000000000        0x0 ../../mesh/lib_51_MBTLE_CORE.a(flash_manager_defrag.c.obj)
 .text.flash_manager_defragging
                0x0000000000000000       0x54 ../../mesh/lib_51_MBTLE_CORE.a(flash_manager_defrag.c.obj)
 .text          0x0000000000000000        0x0 ../../mesh/lib_51_MBTLE_CORE.a(flash_manager_internal.c.obj)
 .data          0x0000000000000000        0x0 ../../mesh/lib_51_MBTLE_CORE.a(flash_manager_internal.c.obj)
 .bss           0x0000000000000000        0x0 ../../mesh/lib_51_MBTLE_CORE.a(flash_manager_internal.c.obj)
 .text          0x0000000000000000        0x0 ../../mesh/lib_51_MBTLE_CORE.a(aes.c.obj)
 .data          0x0000000000000000        0x0 ../../mesh/lib_51_MBTLE_CORE.a(aes.c.obj)
 .bss           0x0000000000000000        0x0 ../../mesh/lib_51_MBTLE_CORE.a(aes.c.obj)
 .text          0x0000000000000000        0x0 ../../mesh/lib_51_MBTLE_CORE.a(queue.c.obj)
 .data          0x0000000000000000        0x0 ../../mesh/lib_51_MBTLE_CORE.a(queue.c.obj)
 .bss           0x0000000000000000        0x0 ../../mesh/lib_51_MBTLE_CORE.a(queue.c.obj)
 .text.queue_peek
                0x0000000000000000       0x20 ../../mesh/lib_51_MBTLE_CORE.a(queue.c.obj)
 .text          0x0000000000000000        0x0 ../../mesh/lib_51_MBTLE_CORE.a(timeslot.c.obj)
 .data          0x0000000000000000        0x0 ../../mesh/lib_51_MBTLE_CORE.a(timeslot.c.obj)
 .bss           0x0000000000000000        0x0 ../../mesh/lib_51_MBTLE_CORE.a(timeslot.c.obj)
 .text.sd_radio_session_close
                0x0000000000000000        0x4 ../../mesh/lib_51_MBTLE_CORE.a(timeslot.c.obj)
 .text.timeslot_stop
                0x0000000000000000       0x50 ../../mesh/lib_51_MBTLE_CORE.a(timeslot.c.obj)
 .text.timeslot_restart
                0x0000000000000000       0x34 ../../mesh/lib_51_MBTLE_CORE.a(timeslot.c.obj)
 .text.timeslot_start_time_get
                0x0000000000000000        0xc ../../mesh/lib_51_MBTLE_CORE.a(timeslot.c.obj)
 .text.timeslot_is_in_ts
                0x0000000000000000        0xc ../../mesh/lib_51_MBTLE_CORE.a(timeslot.c.obj)
 .text          0x0000000000000000        0x0 ../../mesh/lib_51_MBTLE_CORE.a(aes_cmac.c.obj)
 .data          0x0000000000000000        0x0 ../../mesh/lib_51_MBTLE_CORE.a(aes_cmac.c.obj)
 .bss           0x0000000000000000        0x0 ../../mesh/lib_51_MBTLE_CORE.a(aes_cmac.c.obj)
 .text          0x0000000000000000        0x0 ../../mesh/lib_51_MBTLE_CORE.a(ccm_soft.c.obj)
 .data          0x0000000000000000        0x0 ../../mesh/lib_51_MBTLE_CORE.a(ccm_soft.c.obj)
 .bss           0x0000000000000000        0x0 ../../mesh/lib_51_MBTLE_CORE.a(ccm_soft.c.obj)
 .text          0x0000000000000000        0x0 ../../mesh/lib_51_MBTLE_CORE.a(msg_cache.c.obj)
 .data          0x0000000000000000        0x0 ../../mesh/lib_51_MBTLE_CORE.a(msg_cache.c.obj)
 .bss           0x0000000000000000        0x0 ../../mesh/lib_51_MBTLE_CORE.a(msg_cache.c.obj)
 .text.msg_cache_clear
                0x0000000000000000       0x20 ../../mesh/lib_51_MBTLE_CORE.a(msg_cache.c.obj)
 .text          0x0000000000000000        0x0 ../../mesh/lib_51_MBTLE_CORE.a(network.c.obj)
 .data          0x0000000000000000        0x0 ../../mesh/lib_51_MBTLE_CORE.a(network.c.obj)
 .bss           0x0000000000000000        0x0 ../../mesh/lib_51_MBTLE_CORE.a(network.c.obj)
 .text.network_opt_set
                0x0000000000000000       0x4c ../../mesh/lib_51_MBTLE_CORE.a(network.c.obj)
 .text.network_opt_get
                0x0000000000000000       0x48 ../../mesh/lib_51_MBTLE_CORE.a(network.c.obj)
 .text          0x0000000000000000        0x0 ../../mesh/lib_51_MBTLE_CORE.a(packet.c.obj)
 .data          0x0000000000000000        0x0 ../../mesh/lib_51_MBTLE_CORE.a(packet.c.obj)
 .bss           0x0000000000000000        0x0 ../../mesh/lib_51_MBTLE_CORE.a(packet.c.obj)
 .text          0x0000000000000000        0x0 ../../mesh/lib_51_MBTLE_CORE.a(packet_buffer.c.obj)
 .data          0x0000000000000000        0x0 ../../mesh/lib_51_MBTLE_CORE.a(packet_buffer.c.obj)
 .bss           0x0000000000000000        0x0 ../../mesh/lib_51_MBTLE_CORE.a(packet_buffer.c.obj)
 .text.packet_buffer_max_packet_len_get
                0x0000000000000000       0x3c ../../mesh/lib_51_MBTLE_CORE.a(packet_buffer.c.obj)
 .text          0x0000000000000000        0x0 ../../mesh/lib_51_MBTLE_CORE.a(replay_cache.c.obj)
 .data          0x0000000000000000        0x0 ../../mesh/lib_51_MBTLE_CORE.a(replay_cache.c.obj)
 .bss           0x0000000000000000        0x0 ../../mesh/lib_51_MBTLE_CORE.a(replay_cache.c.obj)
 .text.replay_cache_on_iv_update
                0x0000000000000000       0x28 ../../mesh/lib_51_MBTLE_CORE.a(replay_cache.c.obj)
 .text          0x0000000000000000        0x0 ../../mesh/lib_51_MBTLE_CORE.a(mesh_flash.c.obj)
 .data          0x0000000000000000        0x0 ../../mesh/lib_51_MBTLE_CORE.a(mesh_flash.c.obj)
 .bss           0x0000000000000000        0x0 ../../mesh/lib_51_MBTLE_CORE.a(mesh_flash.c.obj)
 .text.mesh_flash_op_available_slots
                0x0000000000000000       0x30 ../../mesh/lib_51_MBTLE_CORE.a(mesh_flash.c.obj)
 .text.mesh_flash_in_progress
                0x0000000000000000       0x3c ../../mesh/lib_51_MBTLE_CORE.a(mesh_flash.c.obj)
 .text.mesh_flash_set_suspended
                0x0000000000000000       0x58 ../../mesh/lib_51_MBTLE_CORE.a(mesh_flash.c.obj)
 .bss.suspend_count.7574
                0x0000000000000000        0x4 ../../mesh/lib_51_MBTLE_CORE.a(mesh_flash.c.obj)
 .text          0x0000000000000000        0x0 ../../mesh/lib_51_MBTLE_CORE.a(nrf_flash.c.obj)
 .data          0x0000000000000000        0x0 ../../mesh/lib_51_MBTLE_CORE.a(nrf_flash.c.obj)
 .bss           0x0000000000000000        0x0 ../../mesh/lib_51_MBTLE_CORE.a(nrf_flash.c.obj)
 .text          0x0000000000000000        0x0 ../../mesh/lib_51_MBTLE_CORE.a(msqueue.c.obj)
 .data          0x0000000000000000        0x0 ../../mesh/lib_51_MBTLE_CORE.a(msqueue.c.obj)
 .bss           0x0000000000000000        0x0 ../../mesh/lib_51_MBTLE_CORE.a(msqueue.c.obj)
 .text          0x0000000000000000        0x0 ../../lib/micro-ecc/lib_51_UECC_LIB.a(uECC.c.obj)
 .data          0x0000000000000000        0x0 ../../lib/micro-ecc/lib_51_UECC_LIB.a(uECC.c.obj)
 .bss           0x0000000000000000        0x0 ../../lib/micro-ecc/lib_51_UECC_LIB.a(uECC.c.obj)
 .text.uECC_vli_modMult
                0x0000000000000000      0x180 ../../lib/micro-ecc/lib_51_UECC_LIB.a(uECC.c.obj)
 .text.bits2int
                0x0000000000000000       0xa8 ../../lib/micro-ecc/lib_51_UECC_LIB.a(uECC.c.obj)
 .text.uECC_sign_with_k
                0x0000000000000000      0x184 ../../lib/micro-ecc/lib_51_UECC_LIB.a(uECC.c.obj)
 .text.HMAC_init
                0x0000000000000000       0x48 ../../lib/micro-ecc/lib_51_UECC_LIB.a(uECC.c.obj)
 .text.HMAC_update
                0x0000000000000000        0x8 ../../lib/micro-ecc/lib_51_UECC_LIB.a(uECC.c.obj)
 .text.HMAC_finish
                0x0000000000000000       0x64 ../../lib/micro-ecc/lib_51_UECC_LIB.a(uECC.c.obj)
 .text.update_V
                0x0000000000000000       0x22 ../../lib/micro-ecc/lib_51_UECC_LIB.a(uECC.c.obj)
 .text.uECC_set_rng
                0x0000000000000000        0xc ../../lib/micro-ecc/lib_51_UECC_LIB.a(uECC.c.obj)
 .text.uECC_get_rng
                0x0000000000000000        0xc ../../lib/micro-ecc/lib_51_UECC_LIB.a(uECC.c.obj)
 .text.uECC_curve_private_key_size
                0x0000000000000000       0x12 ../../lib/micro-ecc/lib_51_UECC_LIB.a(uECC.c.obj)
 .text.uECC_curve_public_key_size
                0x0000000000000000        0x8 ../../lib/micro-ecc/lib_51_UECC_LIB.a(uECC.c.obj)
 .text.uECC_compute_public_key
                0x0000000000000000       0x8a ../../lib/micro-ecc/lib_51_UECC_LIB.a(uECC.c.obj)
 .text.uECC_sign
                0x0000000000000000       0x5a ../../lib/micro-ecc/lib_51_UECC_LIB.a(uECC.c.obj)
 .text.uECC_sign_deterministic
                0x0000000000000000      0x1d6 ../../lib/micro-ecc/lib_51_UECC_LIB.a(uECC.c.obj)
 .text.uECC_verify
                0x0000000000000000      0x310 ../../lib/micro-ecc/lib_51_UECC_LIB.a(uECC.c.obj)
 .text          0x0000000000000000        0x0 ../../lib/rtt/lib_51_RTT_LIB.a(SEGGER_RTT.c.obj)
 .data          0x0000000000000000        0x0 ../../lib/rtt/lib_51_RTT_LIB.a(SEGGER_RTT.c.obj)
 .bss           0x0000000000000000        0x0 ../../lib/rtt/lib_51_RTT_LIB.a(SEGGER_RTT.c.obj)
 .text._PostTerminalSwitch
                0x0000000000000000       0x20 ../../lib/rtt/lib_51_RTT_LIB.a(SEGGER_RTT.c.obj)
 .text.SEGGER_RTT_WriteSkipNoLock
                0x0000000000000000      0x124 ../../lib/rtt/lib_51_RTT_LIB.a(SEGGER_RTT.c.obj)
 .text.SEGGER_RTT_WriteString
                0x0000000000000000       0x18 ../../lib/rtt/lib_51_RTT_LIB.a(SEGGER_RTT.c.obj)
 .text.SEGGER_RTT_WaitKey
                0x0000000000000000        0xc ../../lib/rtt/lib_51_RTT_LIB.a(SEGGER_RTT.c.obj)
 .text.SEGGER_RTT_HasKey
                0x0000000000000000       0x24 ../../lib/rtt/lib_51_RTT_LIB.a(SEGGER_RTT.c.obj)
 .text.SEGGER_RTT_HasData
                0x0000000000000000       0x1c ../../lib/rtt/lib_51_RTT_LIB.a(SEGGER_RTT.c.obj)
 .text.SEGGER_RTT_AllocDownBuffer
                0x0000000000000000       0x78 ../../lib/rtt/lib_51_RTT_LIB.a(SEGGER_RTT.c.obj)
 .text.SEGGER_RTT_AllocUpBuffer
                0x0000000000000000       0x98 ../../lib/rtt/lib_51_RTT_LIB.a(SEGGER_RTT.c.obj)
 .text.SEGGER_RTT_ConfigUpBuffer
                0x0000000000000000       0x80 ../../lib/rtt/lib_51_RTT_LIB.a(SEGGER_RTT.c.obj)
 .text.SEGGER_RTT_ConfigDownBuffer
                0x0000000000000000       0x64 ../../lib/rtt/lib_51_RTT_LIB.a(SEGGER_RTT.c.obj)
 .text.SEGGER_RTT_SetNameUpBuffer
                0x0000000000000000       0x44 ../../lib/rtt/lib_51_RTT_LIB.a(SEGGER_RTT.c.obj)
 .text.SEGGER_RTT_SetNameDownBuffer
                0x0000000000000000       0x44 ../../lib/rtt/lib_51_RTT_LIB.a(SEGGER_RTT.c.obj)
 .text.SEGGER_RTT_Init
                0x0000000000000000       0x18 ../../lib/rtt/lib_51_RTT_LIB.a(SEGGER_RTT.c.obj)
 .text.SEGGER_RTT_SetTerminal
                0x0000000000000000       0x8c ../../lib/rtt/lib_51_RTT_LIB.a(SEGGER_RTT.c.obj)
 .text.SEGGER_RTT_TerminalOut
                0x0000000000000000       0xf0 ../../lib/rtt/lib_51_RTT_LIB.a(SEGGER_RTT.c.obj)
 .bss._ActiveTerminal
                0x0000000000000000        0x1 ../../lib/rtt/lib_51_RTT_LIB.a(SEGGER_RTT.c.obj)
 .rodata._aTerminalId
                0x0000000000000000       0x10 ../../lib/rtt/lib_51_RTT_LIB.a(SEGGER_RTT.c.obj)
 .text          0x0000000000000000        0x0 ../../lib/rtt/lib_51_RTT_LIB.a(SEGGER_RTT_printf.c.obj)
 .data          0x0000000000000000        0x0 ../../lib/rtt/lib_51_RTT_LIB.a(SEGGER_RTT_printf.c.obj)
 .bss           0x0000000000000000        0x0 ../../lib/rtt/lib_51_RTT_LIB.a(SEGGER_RTT_printf.c.obj)
 .data          0x0000000000000000        0x0 /usr/bin/../lib/gcc/arm-none-eabi/6.3.1/thumb/v6-m/libgcc.a(_udivsi3.o)
 .bss           0x0000000000000000        0x0 /usr/bin/../lib/gcc/arm-none-eabi/6.3.1/thumb/v6-m/libgcc.a(_udivsi3.o)
 .data          0x0000000000000000        0x0 /usr/bin/../lib/gcc/arm-none-eabi/6.3.1/thumb/v6-m/libgcc.a(_divsi3.o)
 .bss           0x0000000000000000        0x0 /usr/bin/../lib/gcc/arm-none-eabi/6.3.1/thumb/v6-m/libgcc.a(_divsi3.o)
 .data          0x0000000000000000        0x0 /usr/bin/../lib/gcc/arm-none-eabi/6.3.1/thumb/v6-m/libgcc.a(_dvmd_tls.o)
 .bss           0x0000000000000000        0x0 /usr/bin/../lib/gcc/arm-none-eabi/6.3.1/thumb/v6-m/libgcc.a(_dvmd_tls.o)
 .data          0x0000000000000000        0x0 /usr/bin/../lib/gcc/arm-none-eabi/6.3.1/thumb/v6-m/libgcc.a(_muldi3.o)
 .bss           0x0000000000000000        0x0 /usr/bin/../lib/gcc/arm-none-eabi/6.3.1/thumb/v6-m/libgcc.a(_muldi3.o)
 .text          0x0000000000000000        0x0 /usr/bin/../lib/gcc/arm-none-eabi/6.3.1/../../../../arm-none-eabi/lib/thumb/v6-m/libg_nano.a(lib_a-exit.o)
 .data          0x0000000000000000        0x0 /usr/bin/../lib/gcc/arm-none-eabi/6.3.1/../../../../arm-none-eabi/lib/thumb/v6-m/libg_nano.a(lib_a-exit.o)
 .bss           0x0000000000000000        0x0 /usr/bin/../lib/gcc/arm-none-eabi/6.3.1/../../../../arm-none-eabi/lib/thumb/v6-m/libg_nano.a(lib_a-exit.o)
 .text          0x0000000000000000        0x0 /usr/bin/../lib/gcc/arm-none-eabi/6.3.1/../../../../arm-none-eabi/lib/thumb/v6-m/libg_nano.a(lib_a-impure.o)
 .data          0x0000000000000000        0x0 /usr/bin/../lib/gcc/arm-none-eabi/6.3.1/../../../../arm-none-eabi/lib/thumb/v6-m/libg_nano.a(lib_a-impure.o)
 .bss           0x0000000000000000        0x0 /usr/bin/../lib/gcc/arm-none-eabi/6.3.1/../../../../arm-none-eabi/lib/thumb/v6-m/libg_nano.a(lib_a-impure.o)
 .text          0x0000000000000000        0x0 /usr/bin/../lib/gcc/arm-none-eabi/6.3.1/../../../../arm-none-eabi/lib/thumb/v6-m/libg_nano.a(lib_a-init.o)
 .data          0x0000000000000000        0x0 /usr/bin/../lib/gcc/arm-none-eabi/6.3.1/../../../../arm-none-eabi/lib/thumb/v6-m/libg_nano.a(lib_a-init.o)
 .bss           0x0000000000000000        0x0 /usr/bin/../lib/gcc/arm-none-eabi/6.3.1/../../../../arm-none-eabi/lib/thumb/v6-m/libg_nano.a(lib_a-init.o)
 .text          0x0000000000000000        0x0 /usr/bin/../lib/gcc/arm-none-eabi/6.3.1/../../../../arm-none-eabi/lib/thumb/v6-m/libg_nano.a(lib_a-malloc.o)
 .data          0x0000000000000000        0x0 /usr/bin/../lib/gcc/arm-none-eabi/6.3.1/../../../../arm-none-eabi/lib/thumb/v6-m/libg_nano.a(lib_a-malloc.o)
 .bss           0x0000000000000000        0x0 /usr/bin/../lib/gcc/arm-none-eabi/6.3.1/../../../../arm-none-eabi/lib/thumb/v6-m/libg_nano.a(lib_a-malloc.o)
 .text          0x0000000000000000        0x0 /usr/bin/../lib/gcc/arm-none-eabi/6.3.1/../../../../arm-none-eabi/lib/thumb/v6-m/libg_nano.a(lib_a-memcmp.o)
 .data          0x0000000000000000        0x0 /usr/bin/../lib/gcc/arm-none-eabi/6.3.1/../../../../arm-none-eabi/lib/thumb/v6-m/libg_nano.a(lib_a-memcmp.o)
 .bss           0x0000000000000000        0x0 /usr/bin/../lib/gcc/arm-none-eabi/6.3.1/../../../../arm-none-eabi/lib/thumb/v6-m/libg_nano.a(lib_a-memcmp.o)
 .text          0x0000000000000000        0x0 /usr/bin/../lib/gcc/arm-none-eabi/6.3.1/../../../../arm-none-eabi/lib/thumb/v6-m/libg_nano.a(lib_a-memcpy-stub.o)
 .data          0x0000000000000000        0x0 /usr/bin/../lib/gcc/arm-none-eabi/6.3.1/../../../../arm-none-eabi/lib/thumb/v6-m/libg_nano.a(lib_a-memcpy-stub.o)
 .bss           0x0000000000000000        0x0 /usr/bin/../lib/gcc/arm-none-eabi/6.3.1/../../../../arm-none-eabi/lib/thumb/v6-m/libg_nano.a(lib_a-memcpy-stub.o)
 .text          0x0000000000000000        0x0 /usr/bin/../lib/gcc/arm-none-eabi/6.3.1/../../../../arm-none-eabi/lib/thumb/v6-m/libg_nano.a(lib_a-memset.o)
 .data          0x0000000000000000        0x0 /usr/bin/../lib/gcc/arm-none-eabi/6.3.1/../../../../arm-none-eabi/lib/thumb/v6-m/libg_nano.a(lib_a-memset.o)
 .bss           0x0000000000000000        0x0 /usr/bin/../lib/gcc/arm-none-eabi/6.3.1/../../../../arm-none-eabi/lib/thumb/v6-m/libg_nano.a(lib_a-memset.o)
 .text          0x0000000000000000        0x0 /usr/bin/../lib/gcc/arm-none-eabi/6.3.1/../../../../arm-none-eabi/lib/thumb/v6-m/libg_nano.a(lib_a-nano-freer.o)
 .data          0x0000000000000000        0x0 /usr/bin/../lib/gcc/arm-none-eabi/6.3.1/../../../../arm-none-eabi/lib/thumb/v6-m/libg_nano.a(lib_a-nano-freer.o)
 .bss           0x0000000000000000        0x0 /usr/bin/../lib/gcc/arm-none-eabi/6.3.1/../../../../arm-none-eabi/lib/thumb/v6-m/libg_nano.a(lib_a-nano-freer.o)
 .text          0x0000000000000000        0x0 /usr/bin/../lib/gcc/arm-none-eabi/6.3.1/../../../../arm-none-eabi/lib/thumb/v6-m/libg_nano.a(lib_a-nano-mallocr.o)
 .data          0x0000000000000000        0x0 /usr/bin/../lib/gcc/arm-none-eabi/6.3.1/../../../../arm-none-eabi/lib/thumb/v6-m/libg_nano.a(lib_a-nano-mallocr.o)
 .bss           0x0000000000000000        0x0 /usr/bin/../lib/gcc/arm-none-eabi/6.3.1/../../../../arm-none-eabi/lib/thumb/v6-m/libg_nano.a(lib_a-nano-mallocr.o)
 .text          0x0000000000000000        0x0 /usr/bin/../lib/gcc/arm-none-eabi/6.3.1/../../../../arm-none-eabi/lib/thumb/v6-m/libg_nano.a(lib_a-sbrkr.o)
 .data          0x0000000000000000        0x0 /usr/bin/../lib/gcc/arm-none-eabi/6.3.1/../../../../arm-none-eabi/lib/thumb/v6-m/libg_nano.a(lib_a-sbrkr.o)
 .bss           0x0000000000000000        0x0 /usr/bin/../lib/gcc/arm-none-eabi/6.3.1/../../../../arm-none-eabi/lib/thumb/v6-m/libg_nano.a(lib_a-sbrkr.o)
 .text          0x0000000000000000        0x0 /usr/bin/../lib/gcc/arm-none-eabi/6.3.1/../../../../arm-none-eabi/lib/thumb/v6-m/libg_nano.a(lib_a-strcpy.o)
 .data          0x0000000000000000        0x0 /usr/bin/../lib/gcc/arm-none-eabi/6.3.1/../../../../arm-none-eabi/lib/thumb/v6-m/libg_nano.a(lib_a-strcpy.o)
 .bss           0x0000000000000000        0x0 /usr/bin/../lib/gcc/arm-none-eabi/6.3.1/../../../../arm-none-eabi/lib/thumb/v6-m/libg_nano.a(lib_a-strcpy.o)
 .data          0x0000000000000000        0x0 /usr/bin/../lib/gcc/arm-none-eabi/6.3.1/../../../../arm-none-eabi/lib/thumb/v6-m/libg_nano.a(lib_a-strlen.o)
 .bss           0x0000000000000000        0x0 /usr/bin/../lib/gcc/arm-none-eabi/6.3.1/../../../../arm-none-eabi/lib/thumb/v6-m/libg_nano.a(lib_a-strlen.o)
 .text          0x0000000000000000        0x0 /usr/bin/../lib/gcc/arm-none-eabi/6.3.1/../../../../arm-none-eabi/lib/thumb/v6-m/libg_nano.a(lib_a-strrchr.o)
 .data          0x0000000000000000        0x0 /usr/bin/../lib/gcc/arm-none-eabi/6.3.1/../../../../arm-none-eabi/lib/thumb/v6-m/libg_nano.a(lib_a-strrchr.o)
 .bss           0x0000000000000000        0x0 /usr/bin/../lib/gcc/arm-none-eabi/6.3.1/../../../../arm-none-eabi/lib/thumb/v6-m/libg_nano.a(lib_a-strrchr.o)
 .text          0x0000000000000000        0x0 /usr/bin/../lib/gcc/arm-none-eabi/6.3.1/../../../../arm-none-eabi/lib/thumb/v6-m/libg_nano.a(lib_a-mlock.o)
 .data          0x0000000000000000        0x0 /usr/bin/../lib/gcc/arm-none-eabi/6.3.1/../../../../arm-none-eabi/lib/thumb/v6-m/libg_nano.a(lib_a-mlock.o)
 .bss           0x0000000000000000        0x0 /usr/bin/../lib/gcc/arm-none-eabi/6.3.1/../../../../arm-none-eabi/lib/thumb/v6-m/libg_nano.a(lib_a-mlock.o)
 .text          0x0000000000000000        0x0 /usr/bin/../lib/gcc/arm-none-eabi/6.3.1/../../../../arm-none-eabi/lib/thumb/v6-m/libg_nano.a(lib_a-reent.o)
 .data          0x0000000000000000        0x0 /usr/bin/../lib/gcc/arm-none-eabi/6.3.1/../../../../arm-none-eabi/lib/thumb/v6-m/libg_nano.a(lib_a-reent.o)
 .bss           0x0000000000000000        0x0 /usr/bin/../lib/gcc/arm-none-eabi/6.3.1/../../../../arm-none-eabi/lib/thumb/v6-m/libg_nano.a(lib_a-reent.o)
 .text.cleanup_glue
                0x0000000000000000       0x1a /usr/bin/../lib/gcc/arm-none-eabi/6.3.1/../../../../arm-none-eabi/lib/thumb/v6-m/libg_nano.a(lib_a-reent.o)
 .text._reclaim_reent
                0x0000000000000000       0xcc /usr/bin/../lib/gcc/arm-none-eabi/6.3.1/../../../../arm-none-eabi/lib/thumb/v6-m/libg_nano.a(lib_a-reent.o)
 .text          0x0000000000000000        0x0 /usr/bin/../lib/gcc/arm-none-eabi/6.3.1/../../../../arm-none-eabi/lib/thumb/v6-m/libg_nano.a(lib_a-strchr.o)
 .data          0x0000000000000000        0x0 /usr/bin/../lib/gcc/arm-none-eabi/6.3.1/../../../../arm-none-eabi/lib/thumb/v6-m/libg_nano.a(lib_a-strchr.o)
 .bss           0x0000000000000000        0x0 /usr/bin/../lib/gcc/arm-none-eabi/6.3.1/../../../../arm-none-eabi/lib/thumb/v6-m/libg_nano.a(lib_a-strchr.o)
 .text          0x0000000000000000        0x0 /usr/bin/../lib/gcc/arm-none-eabi/6.3.1/thumb/v6-m/crtend.o
 .data          0x0000000000000000        0x0 /usr/bin/../lib/gcc/arm-none-eabi/6.3.1/thumb/v6-m/crtend.o
 .bss           0x0000000000000000        0x0 /usr/bin/../lib/gcc/arm-none-eabi/6.3.1/thumb/v6-m/crtend.o
 .text          0x0000000000000000        0x0 /usr/bin/../lib/gcc/arm-none-eabi/6.3.1/thumb/v6-m/crtn.o
 .data          0x0000000000000000        0x0 /usr/bin/../lib/gcc/arm-none-eabi/6.3.1/thumb/v6-m/crtn.o
 .bss           0x0000000000000000        0x0 /usr/bin/../lib/gcc/arm-none-eabi/6.3.1/thumb/v6-m/crtn.o
 .text          0x0000000000000000        0x0 /usr/bin/../lib/gcc/arm-none-eabi/6.3.1/../../../../arm-none-eabi/lib/thumb/v6-m/libnosys.a(sbrk.o)
 .data          0x0000000000000000        0x0 /usr/bin/../lib/gcc/arm-none-eabi/6.3.1/../../../../arm-none-eabi/lib/thumb/v6-m/libnosys.a(sbrk.o)
 .bss           0x0000000000000000        0x0 /usr/bin/../lib/gcc/arm-none-eabi/6.3.1/../../../../arm-none-eabi/lib/thumb/v6-m/libnosys.a(sbrk.o)
 .text          0x0000000000000000        0x0 /usr/bin/../lib/gcc/arm-none-eabi/6.3.1/../../../../arm-none-eabi/lib/thumb/v6-m/libnosys.a(_exit.o)
 .data          0x0000000000000000        0x0 /usr/bin/../lib/gcc/arm-none-eabi/6.3.1/../../../../arm-none-eabi/lib/thumb/v6-m/libnosys.a(_exit.o)
 .bss           0x0000000000000000        0x0 /usr/bin/../lib/gcc/arm-none-eabi/6.3.1/../../../../arm-none-eabi/lib/thumb/v6-m/libnosys.a(_exit.o)

Memory Configuration

Name             Origin             Length             Attributes
FLASH            0x000000000001b000 0x000000000001f000 xr
RAM              0x00000000200022d8 0x0000000000005a28 xrw
*default*        0x0000000000000000 0xffffffffffffffff

Linker script and memory map

LOAD /usr/bin/../lib/gcc/arm-none-eabi/6.3.1/thumb/v6-m/crti.o
LOAD /usr/bin/../lib/gcc/arm-none-eabi/6.3.1/thumb/v6-m/crtbegin.o
LOAD /usr/bin/../lib/gcc/arm-none-eabi/6.3.1/../../../../arm-none-eabi/lib/thumb/v6-m/crt0.o
LOAD CMakeFiles/51_pb_remote_client.dir/src/main.c.obj
LOAD CMakeFiles/51_pb_remote_client.dir/__/__/mesh/models/pb_remote/src/pb_remote_client.c.obj
LOAD CMakeFiles/51_pb_remote_client.dir/__/__/mesh/src/access/access.c.obj
LOAD CMakeFiles/51_pb_remote_client.dir/__/__/mesh/src/access/access_reliable.c.obj
LOAD CMakeFiles/51_pb_remote_client.dir/__/__/mesh/src/access/access_publish.c.obj
LOAD CMakeFiles/51_pb_remote_client.dir/__/__/mesh/src/access/device_state_manager.c.obj
LOAD CMakeFiles/51_pb_remote_client.dir/__/nrf_mesh_sdk.c.obj
LOAD CMakeFiles/51_pb_remote_client.dir/__/__/toolchain/gcc/gcc_startup_nrf51.S.obj
LOAD CMakeFiles/51_pb_remote_client.dir/__/__/toolchain/system_nrf51.c.obj
LOAD ../../mesh/lib_51_MBTLE_PB_ADV_ER.a
LOAD ../../mesh/lib_51_MBTLE_CORE.a
LOAD ../../lib/micro-ecc/lib_51_UECC_LIB.a
LOAD ../../lib/rtt/lib_51_RTT_LIB.a
START GROUP
LOAD /usr/bin/../lib/gcc/arm-none-eabi/6.3.1/thumb/v6-m/libgcc.a
LOAD /usr/bin/../lib/gcc/arm-none-eabi/6.3.1/../../../../arm-none-eabi/lib/thumb/v6-m/libg_nano.a
LOAD /usr/bin/../lib/gcc/arm-none-eabi/6.3.1/../../../../arm-none-eabi/lib/thumb/v6-m/libc_nano.a
END GROUP
START GROUP
LOAD /usr/bin/../lib/gcc/arm-none-eabi/6.3.1/thumb/v6-m/libgcc.a
LOAD /usr/bin/../lib/gcc/arm-none-eabi/6.3.1/../../../../arm-none-eabi/lib/thumb/v6-m/libc_nano.a
END GROUP
LOAD /usr/bin/../lib/gcc/arm-none-eabi/6.3.1/thumb/v6-m/crtend.o
LOAD /usr/bin/../lib/gcc/arm-none-eabi/6.3.1/thumb/v6-m/crtn.o
START GROUP
LOAD /usr/bin/../lib/gcc/arm-none-eabi/6.3.1/thumb/v6-m/libgcc.a
LOAD /usr/bin/../lib/gcc/arm-none-eabi/6.3.1/../../../../arm-none-eabi/lib/thumb/v6-m/libc.a
LOAD /usr/bin/../lib/gcc/arm-none-eabi/6.3.1/../../../../arm-none-eabi/lib/thumb/v6-m/libnosys.a
END GROUP

.text           0x000000000001b000    0x14900
 *(.isr_vector)
 .isr_vector    0x000000000001b000       0xc0 CMakeFiles/51_pb_remote_client.dir/__/__/toolchain/gcc/gcc_startup_nrf51.S.obj
                0x000000000001b000                __isr_vector
 *(.text*)
 .text          0x000000000001b0c0       0x60 /usr/bin/../lib/gcc/arm-none-eabi/6.3.1/thumb/v6-m/crtbegin.o
 .text          0x000000000001b120       0x78 /usr/bin/../lib/gcc/arm-none-eabi/6.3.1/../../../../arm-none-eabi/lib/thumb/v6-m/crt0.o
                0x000000000001b120                _mainCRTStartup
                0x000000000001b120                _start
 .text.mesh_evt_handler
                0x000000000001b198      0x464 CMakeFiles/51_pb_remote_client.dir/src/main.c.obj
 .text.remote_client_event_cb
                0x000000000001b5fc      0x260 CMakeFiles/51_pb_remote_client.dir/src/main.c.obj
 .text.wait_for_valid_char
                0x000000000001b85c       0x16 CMakeFiles/51_pb_remote_client.dir/src/main.c.obj
 *fill*         0x000000000001b872        0x2 
 .text.main     0x000000000001b874      0x7b0 CMakeFiles/51_pb_remote_client.dir/src/main.c.obj
                0x000000000001b874                main
 .text.status_event_push
                0x000000000001c024       0x20 CMakeFiles/51_pb_remote_client.dir/__/__/mesh/models/pb_remote/src/pb_remote_client.c.obj
 .text.pb_if_link_open_cb
                0x000000000001c044        0x4 CMakeFiles/51_pb_remote_client.dir/__/__/mesh/models/pb_remote/src/pb_remote_client.c.obj
 .text.pb_if_listen_start_cb
                0x000000000001c048        0x4 CMakeFiles/51_pb_remote_client.dir/__/__/mesh/models/pb_remote/src/pb_remote_client.c.obj
 .text.pb_if_listen_stop_cb
                0x000000000001c04c        0x4 CMakeFiles/51_pb_remote_client.dir/__/__/mesh/models/pb_remote/src/pb_remote_client.c.obj
 .text.pb_remote_client_event_tx_failed_cb
                0x000000000001c050       0x48 CMakeFiles/51_pb_remote_client.dir/__/__/mesh/models/pb_remote/src/pb_remote_client.c.obj
 .text.pb_remote_client_event_transfer_status_cb
                0x000000000001c098       0xb8 CMakeFiles/51_pb_remote_client.dir/__/__/mesh/models/pb_remote/src/pb_remote_client.c.obj
 .text.pb_remote_client_event_link_status_cb
                0x000000000001c150      0x280 CMakeFiles/51_pb_remote_client.dir/__/__/mesh/models/pb_remote/src/pb_remote_client.c.obj
 .text.pb_remote_client_event_scan_status_cb
                0x000000000001c3d0      0x1a0 CMakeFiles/51_pb_remote_client.dir/__/__/mesh/models/pb_remote/src/pb_remote_client.c.obj
 .text.pb_remote_client_event_unprov_number_cb
                0x000000000001c570       0x80 CMakeFiles/51_pb_remote_client.dir/__/__/mesh/models/pb_remote/src/pb_remote_client.c.obj
 .text.pb_remote_client_event_transfer_status_report_cb
                0x000000000001c5f0      0x1ac CMakeFiles/51_pb_remote_client.dir/__/__/mesh/models/pb_remote/src/pb_remote_client.c.obj
 .text.pb_remote_client_process
                0x000000000001c79c      0x12c CMakeFiles/51_pb_remote_client.dir/__/__/mesh/models/pb_remote/src/pb_remote_client.c.obj
 .text.pb_if_link_close_cb
                0x000000000001c8c8       0x50 CMakeFiles/51_pb_remote_client.dir/__/__/mesh/models/pb_remote/src/pb_remote_client.c.obj
 .text.pb_if_tx_cb
                0x000000000001c918       0x44 CMakeFiles/51_pb_remote_client.dir/__/__/mesh/models/pb_remote/src/pb_remote_client.c.obj
 .text.client_reliable_status_cb
                0x000000000001c95c      0x148 CMakeFiles/51_pb_remote_client.dir/__/__/mesh/models/pb_remote/src/pb_remote_client.c.obj
 .text.pb_remote_client_event_local_packet_cb
                0x000000000001caa4       0xf0 CMakeFiles/51_pb_remote_client.dir/__/__/mesh/models/pb_remote/src/pb_remote_client.c.obj
 .text.pb_remote_client_event_prov_start_cb
                0x000000000001cb94       0x98 CMakeFiles/51_pb_remote_client.dir/__/__/mesh/models/pb_remote/src/pb_remote_client.c.obj
 .text.pb_remote_client_event_scan_start_cb
                0x000000000001cc2c       0xd0 CMakeFiles/51_pb_remote_client.dir/__/__/mesh/models/pb_remote/src/pb_remote_client.c.obj
 .text.pb_remote_client_event_scan_cancel_cb
                0x000000000001ccfc       0xd0 CMakeFiles/51_pb_remote_client.dir/__/__/mesh/models/pb_remote/src/pb_remote_client.c.obj
 .text.pb_remote_client_event_link_close_cb
                0x000000000001cdcc       0xdc CMakeFiles/51_pb_remote_client.dir/__/__/mesh/models/pb_remote/src/pb_remote_client.c.obj
 .text.pb_remote_client_event_link_status_report_cb
                0x000000000001cea8      0x1b0 CMakeFiles/51_pb_remote_client.dir/__/__/mesh/models/pb_remote/src/pb_remote_client.c.obj
 .text.pb_remote_client_event_packet_transfer_cb
                0x000000000001d058      0x130 CMakeFiles/51_pb_remote_client.dir/__/__/mesh/models/pb_remote/src/pb_remote_client.c.obj
 .text.remote_client_access_rx_cb
                0x000000000001d188      0x20c CMakeFiles/51_pb_remote_client.dir/__/__/mesh/models/pb_remote/src/pb_remote_client.c.obj
 .text.pb_remote_client_event_unprov_uuid_cb
                0x000000000001d394      0x110 CMakeFiles/51_pb_remote_client.dir/__/__/mesh/models/pb_remote/src/pb_remote_client.c.obj
 .text.pb_remote_client_init
                0x000000000001d4a4       0x9c CMakeFiles/51_pb_remote_client.dir/__/__/mesh/models/pb_remote/src/pb_remote_client.c.obj
                0x000000000001d4a4                pb_remote_client_init
 .text.pb_remote_client_remote_scan_start
                0x000000000001d540       0x44 CMakeFiles/51_pb_remote_client.dir/__/__/mesh/models/pb_remote/src/pb_remote_client.c.obj
                0x000000000001d540                pb_remote_client_remote_scan_start
 .text.pb_remote_client_remote_scan_cancel
                0x000000000001d584       0x44 CMakeFiles/51_pb_remote_client.dir/__/__/mesh/models/pb_remote/src/pb_remote_client.c.obj
                0x000000000001d584                pb_remote_client_remote_scan_cancel
 .text.pb_remote_client_remote_provision
                0x000000000001d5c8       0x60 CMakeFiles/51_pb_remote_client.dir/__/__/mesh/models/pb_remote/src/pb_remote_client.c.obj
                0x000000000001d5c8                pb_remote_client_remote_provision
 .text.is_valid_opcode
                0x000000000001d628       0x58 CMakeFiles/51_pb_remote_client.dir/__/__/mesh/src/access/access.c.obj
 .text.flash_invalidate_complete
                0x000000000001d680       0x18 CMakeFiles/51_pb_remote_client.dir/__/__/mesh/src/access/access.c.obj
 .text.flash_manager_mem_available
                0x000000000001d698        0x6 CMakeFiles/51_pb_remote_client.dir/__/__/mesh/src/access/access.c.obj
 *fill*         0x000000000001d69e        0x2 
 .text.access_state_clear
                0x000000000001d6a0       0x40 CMakeFiles/51_pb_remote_client.dir/__/__/mesh/src/access/access.c.obj
 .text.add_flash_manager
                0x000000000001d6e0       0x64 CMakeFiles/51_pb_remote_client.dir/__/__/mesh/src/access/access.c.obj
 .text.flash_remove_complete
                0x000000000001d744       0x4c CMakeFiles/51_pb_remote_client.dir/__/__/mesh/src/access/access.c.obj
 .text.flash_write_complete
                0x000000000001d790       0x68 CMakeFiles/51_pb_remote_client.dir/__/__/mesh/src/access/access.c.obj
 .text.packet_tx
                0x000000000001d7f8      0x230 CMakeFiles/51_pb_remote_client.dir/__/__/mesh/src/access/access.c.obj
 .text.mesh_evt_cb
                0x000000000001da28      0x2d0 CMakeFiles/51_pb_remote_client.dir/__/__/mesh/src/access/access.c.obj
 .text.access_init
                0x000000000001dcf8       0x24 CMakeFiles/51_pb_remote_client.dir/__/__/mesh/src/access/access.c.obj
                0x000000000001dcf8                access_init
 .text.access_model_add
                0x000000000001dd1c      0x194 CMakeFiles/51_pb_remote_client.dir/__/__/mesh/src/access/access.c.obj
                0x000000000001dd1c                access_model_add
 .text.access_model_publish
                0x000000000001deb0       0x14 CMakeFiles/51_pb_remote_client.dir/__/__/mesh/src/access/access.c.obj
                0x000000000001deb0                access_model_publish
 .text.access_model_reply
                0x000000000001dec4       0x20 CMakeFiles/51_pb_remote_client.dir/__/__/mesh/src/access/access.c.obj
                0x000000000001dec4                access_model_reply
 .text.access_model_publish_address_set
                0x000000000001dee4       0x3c CMakeFiles/51_pb_remote_client.dir/__/__/mesh/src/access/access.c.obj
                0x000000000001dee4                access_model_publish_address_set
 .text.access_model_publish_address_get
                0x000000000001df20       0x2c CMakeFiles/51_pb_remote_client.dir/__/__/mesh/src/access/access.c.obj
                0x000000000001df20                access_model_publish_address_get
 .text.access_model_application_bind
                0x000000000001df4c       0x50 CMakeFiles/51_pb_remote_client.dir/__/__/mesh/src/access/access.c.obj
                0x000000000001df4c                access_model_application_bind
 .text.access_model_publish_application_set
                0x000000000001df9c       0x3c CMakeFiles/51_pb_remote_client.dir/__/__/mesh/src/access/access.c.obj
                0x000000000001df9c                access_model_publish_application_set
 .text.access_model_publish_ttl_set
                0x000000000001dfd8       0x44 CMakeFiles/51_pb_remote_client.dir/__/__/mesh/src/access/access.c.obj
                0x000000000001dfd8                access_model_publish_ttl_set
 .text.access_model_publish_ttl_get
                0x000000000001e01c       0x2c CMakeFiles/51_pb_remote_client.dir/__/__/mesh/src/access/access.c.obj
                0x000000000001e01c                access_model_publish_ttl_get
 .text.access_model_p_args_get
                0x000000000001e048       0x2c CMakeFiles/51_pb_remote_client.dir/__/__/mesh/src/access/access.c.obj
                0x000000000001e048                access_model_p_args_get
 .text.remove_and_reschedule
                0x000000000001e074       0xe0 CMakeFiles/51_pb_remote_client.dir/__/__/mesh/src/access/access_reliable.c.obj
 .text.reliable_timer_cb
                0x000000000001e154      0x148 CMakeFiles/51_pb_remote_client.dir/__/__/mesh/src/access/access_reliable.c.obj
 .text.access_reliable_message_rx_cb
                0x000000000001e29c       0x64 CMakeFiles/51_pb_remote_client.dir/__/__/mesh/src/access/access_reliable.c.obj
                0x000000000001e29c                access_reliable_message_rx_cb
 .text.access_reliable_init
                0x000000000001e300       0x1c CMakeFiles/51_pb_remote_client.dir/__/__/mesh/src/access/access_reliable.c.obj
                0x000000000001e300                access_reliable_init
 .text.access_model_reliable_cancel
                0x000000000001e31c       0x34 CMakeFiles/51_pb_remote_client.dir/__/__/mesh/src/access/access_reliable.c.obj
                0x000000000001e31c                access_model_reliable_cancel
 .text.access_model_reliable_publish
                0x000000000001e350      0x17c CMakeFiles/51_pb_remote_client.dir/__/__/mesh/src/access/access_reliable.c.obj
                0x000000000001e350                access_model_reliable_publish
 .text.dev_key_handle_get
                0x000000000001e4cc       0x78 CMakeFiles/51_pb_remote_client.dir/__/__/mesh/src/access/device_state_manager.c.obj
 .text.app_key_handle_get
                0x000000000001e544       0x30 CMakeFiles/51_pb_remote_client.dir/__/__/mesh/src/access/device_state_manager.c.obj
 .text.get_subnet_handle
                0x000000000001e574       0x38 CMakeFiles/51_pb_remote_client.dir/__/__/mesh/src/access/device_state_manager.c.obj
 .text.get_app_handle
                0x000000000001e5ac       0x60 CMakeFiles/51_pb_remote_client.dir/__/__/mesh/src/access/device_state_manager.c.obj
 .text.nonvirtual_address_set
                0x000000000001e60c       0x3c CMakeFiles/51_pb_remote_client.dir/__/__/mesh/src/access/device_state_manager.c.obj
 .text.addr_nonvirtual_to_dsm_entry
                0x000000000001e648        0xe CMakeFiles/51_pb_remote_client.dir/__/__/mesh/src/access/device_state_manager.c.obj
 *fill*         0x000000000001e656        0x2 
 .text.addr_nonvirtual_to_flash_entry
                0x000000000001e658       0x10 CMakeFiles/51_pb_remote_client.dir/__/__/mesh/src/access/device_state_manager.c.obj
 .text.flash_mem_listener_callback
                0x000000000001e668       0x20 CMakeFiles/51_pb_remote_client.dir/__/__/mesh/src/access/device_state_manager.c.obj
 .text.devkey_set
                0x000000000001e688       0x60 CMakeFiles/51_pb_remote_client.dir/__/__/mesh/src/access/device_state_manager.c.obj
 .text.devkey_to_dsm_entry
                0x000000000001e6e8       0x14 CMakeFiles/51_pb_remote_client.dir/__/__/mesh/src/access/device_state_manager.c.obj
 .text.devkey_to_flash_entry
                0x000000000001e6fc       0x28 CMakeFiles/51_pb_remote_client.dir/__/__/mesh/src/access/device_state_manager.c.obj
 .text.appkey_to_flash_entry
                0x000000000001e724       0x28 CMakeFiles/51_pb_remote_client.dir/__/__/mesh/src/access/device_state_manager.c.obj
 .text.subnet_to_flash_entry
                0x000000000001e74c       0x20 CMakeFiles/51_pb_remote_client.dir/__/__/mesh/src/access/device_state_manager.c.obj
 .text.addr_virtual_to_flash_entry
                0x000000000001e76c       0x20 CMakeFiles/51_pb_remote_client.dir/__/__/mesh/src/access/device_state_manager.c.obj
 .text.addr_unicast_to_dsm_entry
                0x000000000001e78c       0x10 CMakeFiles/51_pb_remote_client.dir/__/__/mesh/src/access/device_state_manager.c.obj
 .text.addr_unicast_to_flash_entry
                0x000000000001e79c       0x14 CMakeFiles/51_pb_remote_client.dir/__/__/mesh/src/access/device_state_manager.c.obj
 .text.appkey_set
                0x000000000001e7b0       0x8c CMakeFiles/51_pb_remote_client.dir/__/__/mesh/src/access/device_state_manager.c.obj
 .text.appkey_to_dsm_entry
                0x000000000001e83c       0x12 CMakeFiles/51_pb_remote_client.dir/__/__/mesh/src/access/device_state_manager.c.obj
 *fill*         0x000000000001e84e        0x2 
 .text.subnet_set
                0x000000000001e850       0xb4 CMakeFiles/51_pb_remote_client.dir/__/__/mesh/src/access/device_state_manager.c.obj
 .text.subnet_to_dsm_entry
                0x000000000001e904       0x10 CMakeFiles/51_pb_remote_client.dir/__/__/mesh/src/access/device_state_manager.c.obj
 .text.virtual_address_set
                0x000000000001e914       0x68 CMakeFiles/51_pb_remote_client.dir/__/__/mesh/src/access/device_state_manager.c.obj
 .text.addr_virtual_to_dsm_entry
                0x000000000001e97c       0x10 CMakeFiles/51_pb_remote_client.dir/__/__/mesh/src/access/device_state_manager.c.obj
 .text.flash_save
                0x000000000001e98c       0x94 CMakeFiles/51_pb_remote_client.dir/__/__/mesh/src/access/device_state_manager.c.obj
 .text.flash_invalidate
                0x000000000001ea20       0x80 CMakeFiles/51_pb_remote_client.dir/__/__/mesh/src/access/device_state_manager.c.obj
 .text.flash_update_all
                0x000000000001eaa0       0xd4 CMakeFiles/51_pb_remote_client.dir/__/__/mesh/src/access/device_state_manager.c.obj
 .text.flash_operation_complete
                0x000000000001eb74       0x6c CMakeFiles/51_pb_remote_client.dir/__/__/mesh/src/access/device_state_manager.c.obj
 .text.flash_invalidate_complete
                0x000000000001ebe0        0xc CMakeFiles/51_pb_remote_client.dir/__/__/mesh/src/access/device_state_manager.c.obj
 .text.flash_write_complete
                0x000000000001ebec        0xc CMakeFiles/51_pb_remote_client.dir/__/__/mesh/src/access/device_state_manager.c.obj
 .text.add_address
                0x000000000001ebf8      0x128 CMakeFiles/51_pb_remote_client.dir/__/__/mesh/src/access/device_state_manager.c.obj
 .text.virtual_address_uuid_index_get
                0x000000000001ed20       0x3c CMakeFiles/51_pb_remote_client.dir/__/__/mesh/src/access/device_state_manager.c.obj
 .text.dsm_flash_area_get
                0x000000000001ed5c       0x14 CMakeFiles/51_pb_remote_client.dir/__/__/mesh/src/access/device_state_manager.c.obj
                0x000000000001ed5c                dsm_flash_area_get
 .text.build_flash_area
                0x000000000001ed70       0x8c CMakeFiles/51_pb_remote_client.dir/__/__/mesh/src/access/device_state_manager.c.obj
 .text.dsm_init
                0x000000000001edfc       0x28 CMakeFiles/51_pb_remote_client.dir/__/__/mesh/src/access/device_state_manager.c.obj
                0x000000000001edfc                dsm_init
 .text.flash_remove_complete
                0x000000000001ee24        0x8 CMakeFiles/51_pb_remote_client.dir/__/__/mesh/src/access/device_state_manager.c.obj
 .text.dsm_local_unicast_addresses_set
                0x000000000001ee2c       0x84 CMakeFiles/51_pb_remote_client.dir/__/__/mesh/src/access/device_state_manager.c.obj
                0x000000000001ee2c                dsm_local_unicast_addresses_set
 .text.dsm_local_unicast_addresses_get
                0x000000000001eeb0       0x2c CMakeFiles/51_pb_remote_client.dir/__/__/mesh/src/access/device_state_manager.c.obj
                0x000000000001eeb0                dsm_local_unicast_addresses_get
 .text.dsm_address_publish_add
                0x000000000001eedc        0xa CMakeFiles/51_pb_remote_client.dir/__/__/mesh/src/access/device_state_manager.c.obj
                0x000000000001eedc                dsm_address_publish_add
 *fill*         0x000000000001eee6        0x2 
 .text.dsm_address_subscription_get
                0x000000000001eee8       0x64 CMakeFiles/51_pb_remote_client.dir/__/__/mesh/src/access/device_state_manager.c.obj
                0x000000000001eee8                dsm_address_subscription_get
 .text.dsm_address_get
                0x000000000001ef4c       0x70 CMakeFiles/51_pb_remote_client.dir/__/__/mesh/src/access/device_state_manager.c.obj
                0x000000000001ef4c                dsm_address_get
 .text.dsm_address_handle_get
                0x000000000001efbc       0xc0 CMakeFiles/51_pb_remote_client.dir/__/__/mesh/src/access/device_state_manager.c.obj
                0x000000000001efbc                dsm_address_handle_get
 .text.dsm_appkey_handle_get
                0x000000000001f07c       0x14 CMakeFiles/51_pb_remote_client.dir/__/__/mesh/src/access/device_state_manager.c.obj
                0x000000000001f07c                dsm_appkey_handle_get
 .text.dsm_subnet_add
                0x000000000001f090       0x58 CMakeFiles/51_pb_remote_client.dir/__/__/mesh/src/access/device_state_manager.c.obj
                0x000000000001f090                dsm_subnet_add
 .text.dsm_devkey_add
                0x000000000001f0e8       0x84 CMakeFiles/51_pb_remote_client.dir/__/__/mesh/src/access/device_state_manager.c.obj
                0x000000000001f0e8                dsm_devkey_add
 .text.dsm_appkey_add
                0x000000000001f16c       0x80 CMakeFiles/51_pb_remote_client.dir/__/__/mesh/src/access/device_state_manager.c.obj
                0x000000000001f16c                dsm_appkey_add
 .text.dsm_tx_secmat_get
                0x000000000001f1ec      0x124 CMakeFiles/51_pb_remote_client.dir/__/__/mesh/src/access/device_state_manager.c.obj
                0x000000000001f1ec                dsm_tx_secmat_get
 .text.nrf_mesh_net_secmat_next_get
                0x000000000001f310       0x54 CMakeFiles/51_pb_remote_client.dir/__/__/mesh/src/access/device_state_manager.c.obj
                0x000000000001f310                nrf_mesh_net_secmat_next_get
 .text.nrf_mesh_app_secmat_next_get
                0x000000000001f364       0x8c CMakeFiles/51_pb_remote_client.dir/__/__/mesh/src/access/device_state_manager.c.obj
                0x000000000001f364                nrf_mesh_app_secmat_next_get
 .text.nrf_mesh_devkey_secmat_get
                0x000000000001f3f0       0x58 CMakeFiles/51_pb_remote_client.dir/__/__/mesh/src/access/device_state_manager.c.obj
                0x000000000001f3f0                nrf_mesh_devkey_secmat_get
 .text.nrf_mesh_beacon_info_next_get
                0x000000000001f448       0x74 CMakeFiles/51_pb_remote_client.dir/__/__/mesh/src/access/device_state_manager.c.obj
                0x000000000001f448                nrf_mesh_beacon_info_next_get
 .text.nrf_mesh_rx_address_get
                0x000000000001f4bc      0x100 CMakeFiles/51_pb_remote_client.dir/__/__/mesh/src/access/device_state_manager.c.obj
                0x000000000001f4bc                nrf_mesh_rx_address_get
 .text.sd_evt_get
                0x000000000001f5bc        0x4 CMakeFiles/51_pb_remote_client.dir/__/nrf_mesh_sdk.c.obj
 .text.sd_softdevice_enable
                0x000000000001f5c0        0x4 CMakeFiles/51_pb_remote_client.dir/__/nrf_mesh_sdk.c.obj
 .text.sd_ble_enable
                0x000000000001f5c4        0x4 CMakeFiles/51_pb_remote_client.dir/__/nrf_mesh_sdk.c.obj
 .text.sd_ble_evt_get
                0x000000000001f5c8        0x4 CMakeFiles/51_pb_remote_client.dir/__/nrf_mesh_sdk.c.obj
 .text.sleep_forever
                0x000000000001f5cc       0x24 CMakeFiles/51_pb_remote_client.dir/__/nrf_mesh_sdk.c.obj
 .text.softdevice_assert_handler
                0x000000000001f5f0       0x88 CMakeFiles/51_pb_remote_client.dir/__/nrf_mesh_sdk.c.obj
                0x000000000001f5f0                softdevice_assert_handler
 .text.app_error_handler
                0x000000000001f678       0x88 CMakeFiles/51_pb_remote_client.dir/__/nrf_mesh_sdk.c.obj
                0x000000000001f678                app_error_handler
 .text.mesh_assert_handler
                0x000000000001f700       0x80 CMakeFiles/51_pb_remote_client.dir/__/nrf_mesh_sdk.c.obj
                0x000000000001f700                mesh_assert_handler
 .text.HardFault_Handler
                0x000000000001f780       0x7c CMakeFiles/51_pb_remote_client.dir/__/nrf_mesh_sdk.c.obj
                0x000000000001f780                HardFault_Handler
 .text.SWI2_IRQHandler
                0x000000000001f7fc       0x44 CMakeFiles/51_pb_remote_client.dir/__/nrf_mesh_sdk.c.obj
                0x000000000001f7fc                SWI2_IRQHandler
 .text.mesh_softdevice_enable
                0x000000000001f840      0x154 CMakeFiles/51_pb_remote_client.dir/__/nrf_mesh_sdk.c.obj
                0x000000000001f840                mesh_softdevice_enable
 .text.mesh_softdevice_setup
                0x000000000001f994       0x94 CMakeFiles/51_pb_remote_client.dir/__/nrf_mesh_sdk.c.obj
                0x000000000001f994                mesh_softdevice_setup
 .text          0x000000000001fa28       0x4c CMakeFiles/51_pb_remote_client.dir/__/__/toolchain/gcc/gcc_startup_nrf51.S.obj
                0x000000000001fa28                Reset_Handler
                0x000000000001fa68                NMI_Handler
                0x000000000001fa6c                SVC_Handler
                0x000000000001fa6e                PendSV_Handler
                0x000000000001fa70                SysTick_Handler
                0x000000000001fa72                TIMER2_IRQHandler
                0x000000000001fa72                SPI0_TWI0_IRQHandler
                0x000000000001fa72                RTC0_IRQHandler
                0x000000000001fa72                GPIOTE_IRQHandler
                0x000000000001fa72                POWER_CLOCK_IRQHandler
                0x000000000001fa72                RADIO_IRQHandler
                0x000000000001fa72                LPCOMP_IRQHandler
                0x000000000001fa72                SWI4_IRQHandler
                0x000000000001fa72                TEMP_IRQHandler
                0x000000000001fa72                UART0_IRQHandler
                0x000000000001fa72                SWI5_IRQHandler
                0x000000000001fa72                TIMER0_IRQHandler
                0x000000000001fa72                SWI0_IRQHandler
                0x000000000001fa72                TIMER1_IRQHandler
                0x000000000001fa72                ECB_IRQHandler
                0x000000000001fa72                Default_Handler
                0x000000000001fa72                ADC_IRQHandler
                0x000000000001fa72                SWI3_IRQHandler
                0x000000000001fa72                CCM_AAR_IRQHandler
                0x000000000001fa72                WDT_IRQHandler
                0x000000000001fa72                RNG_IRQHandler
                0x000000000001fa72                SPI1_TWI1_IRQHandler
                0x000000000001fa72                RTC1_IRQHandler
                0x000000000001fa72                SWI1_IRQHandler
 .text.SystemInit
                0x000000000001fa74      0x104 CMakeFiles/51_pb_remote_client.dir/__/__/toolchain/system_nrf51.c.obj
                0x000000000001fa74                SystemInit
 .text.send_data
                0x000000000001fb78       0x4c ../../mesh/lib_51_MBTLE_PB_ADV_ER.a(provisioning.c.obj)
 .text.prov_packet_length_valid
                0x000000000001fbc4       0x24 ../../mesh/lib_51_MBTLE_PB_ADV_ER.a(provisioning.c.obj)
                0x000000000001fbc4                prov_packet_length_valid
 .text.prov_init
                0x000000000001fbe8       0x40 ../../mesh/lib_51_MBTLE_PB_ADV_ER.a(provisioning.c.obj)
                0x000000000001fbe8                prov_init
 .text.prov_link_open
                0x000000000001fc28       0x12 ../../mesh/lib_51_MBTLE_PB_ADV_ER.a(provisioning.c.obj)
                0x000000000001fc28                prov_link_open
 .text.prov_link_close
                0x000000000001fc3a        0xe ../../mesh/lib_51_MBTLE_PB_ADV_ER.a(provisioning.c.obj)
                0x000000000001fc3a                prov_link_close
 .text.prov_tx_invite
                0x000000000001fc48       0x28 ../../mesh/lib_51_MBTLE_PB_ADV_ER.a(provisioning.c.obj)
                0x000000000001fc48                prov_tx_invite
 .text.prov_tx_start
                0x000000000001fc70       0x1e ../../mesh/lib_51_MBTLE_PB_ADV_ER.a(provisioning.c.obj)
                0x000000000001fc70                prov_tx_start
 .text.prov_tx_public_key
                0x000000000001fc8e       0x24 ../../mesh/lib_51_MBTLE_PB_ADV_ER.a(provisioning.c.obj)
                0x000000000001fc8e                prov_tx_public_key
 .text.prov_tx_confirmation
                0x000000000001fcb2       0x24 ../../mesh/lib_51_MBTLE_PB_ADV_ER.a(provisioning.c.obj)
                0x000000000001fcb2                prov_tx_confirmation
 .text.prov_tx_random
                0x000000000001fcd6       0x24 ../../mesh/lib_51_MBTLE_PB_ADV_ER.a(provisioning.c.obj)
                0x000000000001fcd6                prov_tx_random
 .text.prov_tx_data
                0x000000000001fcfa        0xa ../../mesh/lib_51_MBTLE_PB_ADV_ER.a(provisioning.c.obj)
                0x000000000001fcfa                prov_tx_data
 .text.prov_cb_link_opened
                0x000000000001fd04        0xe ../../mesh/lib_51_MBTLE_PB_ADV_ER.a(provisioning.c.obj)
                0x000000000001fd04                prov_cb_link_opened
 .text.prov_cb_link_closed
                0x000000000001fd12        0xe ../../mesh/lib_51_MBTLE_PB_ADV_ER.a(provisioning.c.obj)
                0x000000000001fd12                prov_cb_link_closed
 .text.prov_cb_pkt_in
                0x000000000001fd20       0x90 ../../mesh/lib_51_MBTLE_PB_ADV_ER.a(provisioning.c.obj)
                0x000000000001fd20                prov_cb_pkt_in
 .text.prov_cb_ack_in
                0x000000000001fdb0        0xe ../../mesh/lib_51_MBTLE_PB_ADV_ER.a(provisioning.c.obj)
                0x000000000001fdb0                prov_cb_ack_in
 *fill*         0x000000000001fdbe        0x2 
 .text.nrf_mesh_prov_init
                0x000000000001fdc0       0x38 ../../mesh/lib_51_MBTLE_PB_ADV_ER.a(nrf_mesh_prov.c.obj)
                0x000000000001fdc0                nrf_mesh_prov_init
 .text.nrf_mesh_prov_generate_keys
                0x000000000001fdf8        0x8 ../../mesh/lib_51_MBTLE_PB_ADV_ER.a(nrf_mesh_prov.c.obj)
                0x000000000001fdf8                nrf_mesh_prov_generate_keys
 .text.nrf_mesh_prov_provision
                0x000000000001fe00       0x6c ../../mesh/lib_51_MBTLE_PB_ADV_ER.a(nrf_mesh_prov.c.obj)
                0x000000000001fe00                nrf_mesh_prov_provision
 .text.nrf_mesh_prov_oob_use
                0x000000000001fe6c       0x1c ../../mesh/lib_51_MBTLE_PB_ADV_ER.a(nrf_mesh_prov.c.obj)
                0x000000000001fe6c                nrf_mesh_prov_oob_use
 .text.nrf_mesh_prov_auth_data_provide
                0x000000000001fe88       0x1c ../../mesh/lib_51_MBTLE_PB_ADV_ER.a(nrf_mesh_prov.c.obj)
                0x000000000001fe88                nrf_mesh_prov_auth_data_provide
 .text.remove_active_bearer
                0x000000000001fea4       0x88 ../../mesh/lib_51_MBTLE_PB_ADV_ER.a(prov_bearer_adv.c.obj)
 .text.send_packet
                0x000000000001ff2c       0x64 ../../mesh/lib_51_MBTLE_PB_ADV_ER.a(prov_bearer_adv.c.obj)
 .text.send_link_close
                0x000000000001ff90       0x3e ../../mesh/lib_51_MBTLE_PB_ADV_ER.a(prov_bearer_adv.c.obj)
 *fill*         0x000000000001ffce        0x2 
 .text.prov_buffer_tx
                0x000000000001ffd0      0x1f0 ../../mesh/lib_51_MBTLE_PB_ADV_ER.a(prov_bearer_adv.c.obj)
 .text.send_transaction_ack
                0x00000000000201c0       0x48 ../../mesh/lib_51_MBTLE_PB_ADV_ER.a(prov_bearer_adv.c.obj)
 .text.send_link_ack
                0x0000000000020208       0x3c ../../mesh/lib_51_MBTLE_PB_ADV_ER.a(prov_bearer_adv.c.obj)
 .text.prov_bearer_adv_listen_stop
                0x0000000000020244       0x40 ../../mesh/lib_51_MBTLE_PB_ADV_ER.a(prov_bearer_adv.c.obj)
 .text.close_link
                0x0000000000020284       0x68 ../../mesh/lib_51_MBTLE_PB_ADV_ER.a(prov_bearer_adv.c.obj)
 .text.prov_bearer_adv_link_close
                0x00000000000202ec       0x78 ../../mesh/lib_51_MBTLE_PB_ADV_ER.a(prov_bearer_adv.c.obj)
 .text.adv_queue_empty_cb
                0x0000000000020364       0x3c ../../mesh/lib_51_MBTLE_PB_ADV_ER.a(prov_bearer_adv.c.obj)
 .text.link_timeout_cb
                0x00000000000203a0        0xc ../../mesh/lib_51_MBTLE_PB_ADV_ER.a(prov_bearer_adv.c.obj)
 .text.tx_retry_cb
                0x00000000000203ac       0xe8 ../../mesh/lib_51_MBTLE_PB_ADV_ER.a(prov_bearer_adv.c.obj)
 .text.add_active_bearer
                0x0000000000020494       0x98 ../../mesh/lib_51_MBTLE_PB_ADV_ER.a(prov_bearer_adv.c.obj)
 .text.prov_bearer_adv_link_open
                0x000000000002052c      0x11c ../../mesh/lib_51_MBTLE_PB_ADV_ER.a(prov_bearer_adv.c.obj)
 .text.prov_bearer_adv_listen
                0x0000000000020648       0xe8 ../../mesh/lib_51_MBTLE_PB_ADV_ER.a(prov_bearer_adv.c.obj)
 .text.calculate_3GPP_CRC
                0x0000000000020730       0x28 ../../mesh/lib_51_MBTLE_PB_ADV_ER.a(prov_bearer_adv.c.obj)
                0x0000000000020730                calculate_3GPP_CRC
 .text.prov_bearer_adv_tx
                0x0000000000020758       0xc8 ../../mesh/lib_51_MBTLE_PB_ADV_ER.a(prov_bearer_adv.c.obj)
 .text.prov_buffer_rx
                0x0000000000020820       0x90 ../../mesh/lib_51_MBTLE_PB_ADV_ER.a(prov_bearer_adv.c.obj)
 .text.prov_bearer_adv_interface_get
                0x00000000000208b0        0x8 ../../mesh/lib_51_MBTLE_PB_ADV_ER.a(prov_bearer_adv.c.obj)
                0x00000000000208b0                prov_bearer_adv_interface_get
 .text.prov_bearer_adv_pkt_in
                0x00000000000208b8      0xa24 ../../mesh/lib_51_MBTLE_PB_ADV_ER.a(prov_bearer_adv.c.obj)
                0x00000000000208b8                prov_bearer_adv_pkt_in
 .text.oob_gen_alphanumeric
                0x00000000000212dc       0x38 ../../mesh/lib_51_MBTLE_PB_ADV_ER.a(prov_utils.c.obj)
 .text.oob_gen_numeric
                0x0000000000021314       0x4c ../../mesh/lib_51_MBTLE_PB_ADV_ER.a(prov_utils.c.obj)
 .text.prov_utils_use_ecdh_offloading
                0x0000000000021360        0xc ../../mesh/lib_51_MBTLE_PB_ADV_ER.a(prov_utils.c.obj)
                0x0000000000021360                prov_utils_use_ecdh_offloading
 .text.prov_utils_authentication_values_derive
                0x000000000002136c       0xd4 ../../mesh/lib_51_MBTLE_PB_ADV_ER.a(prov_utils.c.obj)
                0x000000000002136c                prov_utils_authentication_values_derive
 .text.prov_utils_keys_generate
                0x0000000000021440       0x20 ../../mesh/lib_51_MBTLE_PB_ADV_ER.a(prov_utils.c.obj)
                0x0000000000021440                prov_utils_keys_generate
 .text.prov_utils_derive_keys
                0x0000000000021460       0xc0 ../../mesh/lib_51_MBTLE_PB_ADV_ER.a(prov_utils.c.obj)
                0x0000000000021460                prov_utils_derive_keys
 .text.prov_utils_calculate_shared_secret
                0x0000000000021520       0x44 ../../mesh/lib_51_MBTLE_PB_ADV_ER.a(prov_utils.c.obj)
                0x0000000000021520                prov_utils_calculate_shared_secret
 .text.prov_utils_generate_oob_data
                0x0000000000021564       0xe0 ../../mesh/lib_51_MBTLE_PB_ADV_ER.a(prov_utils.c.obj)
                0x0000000000021564                prov_utils_generate_oob_data
 .text.prov_utils_confirmation_check
                0x0000000000021644       0x6c ../../mesh/lib_51_MBTLE_PB_ADV_ER.a(prov_utils.c.obj)
                0x0000000000021644                prov_utils_confirmation_check
 .text.prov_beacon_unprov_build
                0x00000000000216b0       0x52 ../../mesh/lib_51_MBTLE_PB_ADV_ER.a(prov_beacon.c.obj)
                0x00000000000216b0                prov_beacon_unprov_build
 *fill*         0x0000000000021702        0x2 
 .text.prov_beacon_unprov_pkt_in
                0x0000000000021704       0xd4 ../../mesh/lib_51_MBTLE_PB_ADV_ER.a(prov_beacon.c.obj)
                0x0000000000021704                prov_beacon_unprov_pkt_in
 .text.prov_provisioner_cb_link_closed
                0x00000000000217d8       0x2c ../../mesh/lib_51_MBTLE_PB_ADV_ER.a(prov_provisioner.c.obj)
 .text.prov_provisioner_cb_link_established
                0x0000000000021804       0x4c ../../mesh/lib_51_MBTLE_PB_ADV_ER.a(prov_provisioner.c.obj)
 .text.prov_provisioner_cb_ack_received
                0x0000000000021850       0x58 ../../mesh/lib_51_MBTLE_PB_ADV_ER.a(prov_provisioner.c.obj)
 .text.send_confirmation
                0x00000000000218a8       0x38 ../../mesh/lib_51_MBTLE_PB_ADV_ER.a(prov_provisioner.c.obj)
 .text.request_authentication
                0x00000000000218e0       0xb4 ../../mesh/lib_51_MBTLE_PB_ADV_ER.a(prov_provisioner.c.obj)
 .text.prov_provisioner_pkt_in
                0x0000000000021994      0x360 ../../mesh/lib_51_MBTLE_PB_ADV_ER.a(prov_provisioner.c.obj)
 .text.prov_provisioner_provision
                0x0000000000021cf4       0x58 ../../mesh/lib_51_MBTLE_PB_ADV_ER.a(prov_provisioner.c.obj)
                0x0000000000021cf4                prov_provisioner_provision
 .text.prov_provisioner_oob_use
                0x0000000000021d4c       0xe0 ../../mesh/lib_51_MBTLE_PB_ADV_ER.a(prov_provisioner.c.obj)
                0x0000000000021d4c                prov_provisioner_oob_use
 .text.prov_provisioner_auth_data
                0x0000000000021e2c       0x50 ../../mesh/lib_51_MBTLE_PB_ADV_ER.a(prov_provisioner.c.obj)
                0x0000000000021e2c                prov_provisioner_auth_data
 .text._weak_handler
                0x0000000000021e7c        0x4 ../../mesh/lib_51_MBTLE_CORE.a(nrf_mesh_weak.c.obj)
                0x0000000000021e7c                nrf_mesh_dfu_init
                0x0000000000021e7c                nrf_mesh_dfu_jump_to_bootloader
                0x0000000000021e7c                prov_provisioner_cb_link_established
                0x0000000000021e7c                nrf_mesh_dfu_rx
                0x0000000000021e7c                prov_provisionee_pkt_in
                0x0000000000021e7c                prov_provisioner_cb_ack_received
                0x0000000000021e7c                nrf_mesh_dfu_bank_info_get
                0x0000000000021e7c                prov_provisionee_cb_ack_received
                0x0000000000021e7c                nrf_mesh_dfu_request
                0x0000000000021e7c                nrf_mesh_dfu_bank_flash
                0x0000000000021e7c                _weak_handler
                0x0000000000021e7c                prov_provisioner_pkt_in
                0x0000000000021e7c                prov_provisionee_auth_data
                0x0000000000021e7c                prov_provisioner_init
                0x0000000000021e7c                nrf_mesh_dfu_relay
                0x0000000000021e7c                prov_provisionee_accept
                0x0000000000021e7c                prov_provisionee_shared_secret
                0x0000000000021e7c                nrf_mesh_dfu_abort
                0x0000000000021e7c                prov_provisionee_init
                0x0000000000021e7c                nrf_mesh_dfu_state_get
 .text.is_valid_gap_addr
                0x0000000000021e80       0x7c ../../mesh/lib_51_MBTLE_CORE.a(bearer_adv.c.obj)
 .text.packet_tx
                0x0000000000021efc       0xaa ../../mesh/lib_51_MBTLE_CORE.a(bearer_adv.c.obj)
 *fill*         0x0000000000021fa6        0x2 
 .text.scan_order
                0x0000000000021fa8       0xb0 ../../mesh/lib_51_MBTLE_CORE.a(bearer_adv.c.obj)
 .text.radio_idle_cb
                0x0000000000022058       0x18 ../../mesh/lib_51_MBTLE_CORE.a(bearer_adv.c.obj)
 .text.scan_begin_timer_cb
                0x0000000000022070       0x44 ../../mesh/lib_51_MBTLE_CORE.a(bearer_adv.c.obj)
 .text.radio_tx_cb
                0x00000000000220b4       0x34 ../../mesh/lib_51_MBTLE_CORE.a(bearer_adv.c.obj)
 .text.tx_event_send
                0x00000000000220e8       0x22 ../../mesh/lib_51_MBTLE_CORE.a(bearer_adv.c.obj)
 *fill*         0x000000000002210a        0x2 
 .text.radio_rx_cb
                0x000000000002210c       0x44 ../../mesh/lib_51_MBTLE_CORE.a(bearer_adv.c.obj)
 .text.adv_evt_timeout
                0x0000000000022150      0x168 ../../mesh/lib_51_MBTLE_CORE.a(bearer_adv.c.obj)
 .text.next_adv_schedule
                0x00000000000222b8       0x80 ../../mesh/lib_51_MBTLE_CORE.a(bearer_adv.c.obj)
 .text.scan_end_timer_cb
                0x0000000000022338       0x14 ../../mesh/lib_51_MBTLE_CORE.a(bearer_adv.c.obj)
 .text.bearer_adv_advertiser_init
                0x000000000002234c      0x13c ../../mesh/lib_51_MBTLE_CORE.a(bearer_adv.c.obj)
                0x000000000002234c                bearer_adv_advertiser_init
 .text.bearer_adv_reconfig
                0x0000000000022488       0x50 ../../mesh/lib_51_MBTLE_CORE.a(bearer_adv.c.obj)
                0x0000000000022488                bearer_adv_reconfig
 .text.bearer_adv_tx
                0x00000000000224d8       0x58 ../../mesh/lib_51_MBTLE_CORE.a(bearer_adv.c.obj)
                0x00000000000224d8                bearer_adv_tx
 .text.bearer_adv_adv_stop
                0x0000000000022530       0x1a ../../mesh/lib_51_MBTLE_CORE.a(bearer_adv.c.obj)
                0x0000000000022530                bearer_adv_adv_stop
 .text.bearer_adv_adv_start
                0x000000000002254a       0x26 ../../mesh/lib_51_MBTLE_CORE.a(bearer_adv.c.obj)
                0x000000000002254a                bearer_adv_adv_start
 .text.bearer_adv_flush_tx
                0x0000000000022570       0x56 ../../mesh/lib_51_MBTLE_CORE.a(bearer_adv.c.obj)
                0x0000000000022570                bearer_adv_flush_tx
 .text.bearer_adv_interval_reset
                0x00000000000225c6       0x30 ../../mesh/lib_51_MBTLE_CORE.a(bearer_adv.c.obj)
                0x00000000000225c6                bearer_adv_interval_reset
 *fill*         0x00000000000225f6        0x2 
 .text.bearer_adv_scan_start
                0x00000000000225f8       0x60 ../../mesh/lib_51_MBTLE_CORE.a(bearer_adv.c.obj)
                0x00000000000225f8                bearer_adv_scan_start
 .text.bearer_adv_gap_type_set
                0x0000000000022658       0x60 ../../mesh/lib_51_MBTLE_CORE.a(bearer_adv.c.obj)
                0x0000000000022658                bearer_adv_gap_type_set
 .text.bearer_adv_addr_get
                0x00000000000226b8       0x28 ../../mesh/lib_51_MBTLE_CORE.a(bearer_adv.c.obj)
                0x00000000000226b8                bearer_adv_addr_get
 .text.bearer_adv_addr_default_set
                0x00000000000226e0       0x30 ../../mesh/lib_51_MBTLE_CORE.a(bearer_adv.c.obj)
                0x00000000000226e0                bearer_adv_addr_default_set
 .text.bearer_adv_init
                0x0000000000022710       0xf4 ../../mesh/lib_51_MBTLE_CORE.a(bearer_adv.c.obj)
                0x0000000000022710                bearer_adv_init
 .text.fifo_init
                0x0000000000022804       0x60 ../../mesh/lib_51_MBTLE_CORE.a(fifo.c.obj)
                0x0000000000022804                fifo_init
 .text.fifo_push
                0x0000000000022864       0x64 ../../mesh/lib_51_MBTLE_CORE.a(fifo.c.obj)
                0x0000000000022864                fifo_push
 .text.fifo_pop
                0x00000000000228c8       0x62 ../../mesh/lib_51_MBTLE_CORE.a(fifo.c.obj)
                0x00000000000228c8                fifo_pop
 .text.fifo_peek_at
                0x000000000002292a       0x62 ../../mesh/lib_51_MBTLE_CORE.a(fifo.c.obj)
                0x000000000002292a                fifo_peek_at
 .text.fifo_peek
                0x000000000002298c        0xa ../../mesh/lib_51_MBTLE_CORE.a(fifo.c.obj)
                0x000000000002298c                fifo_peek
 .text.fifo_get_len
                0x0000000000022996        0x8 ../../mesh/lib_51_MBTLE_CORE.a(fifo.c.obj)
                0x0000000000022996                fifo_get_len
 .text.fifo_is_empty
                0x000000000002299e        0xe ../../mesh/lib_51_MBTLE_CORE.a(fifo.c.obj)
                0x000000000002299e                fifo_is_empty
 .text.packet_mgr_init
                0x00000000000229ac       0x5c ../../mesh/lib_51_MBTLE_CORE.a(packet_mgr.c.obj)
                0x00000000000229ac                packet_mgr_init
 .text.packet_mgr_alloc
                0x0000000000022a08      0x1f4 ../../mesh/lib_51_MBTLE_CORE.a(packet_mgr.c.obj)
                0x0000000000022a08                packet_mgr_alloc
 .text.packet_mgr_free
                0x0000000000022bfc       0x74 ../../mesh/lib_51_MBTLE_CORE.a(packet_mgr.c.obj)
                0x0000000000022bfc                packet_mgr_free
 .text.radio_init
                0x0000000000022c70       0x60 ../../mesh/lib_51_MBTLE_CORE.a(radio.c.obj)
                0x0000000000022c70                radio_init
 .text.radio_order
                0x0000000000022cd0      0x13c ../../mesh/lib_51_MBTLE_CORE.a(radio.c.obj)
                0x0000000000022cd0                radio_order
 .text.radio_invoke
                0x0000000000022e0c       0x28 ../../mesh/lib_51_MBTLE_CORE.a(radio.c.obj)
                0x0000000000022e0c                radio_invoke
 .text.radio_stop
                0x0000000000022e34       0x28 ../../mesh/lib_51_MBTLE_CORE.a(radio.c.obj)
                0x0000000000022e34                radio_stop
 .text.purge_preemptable
                0x0000000000022e5c       0x7c ../../mesh/lib_51_MBTLE_CORE.a(radio.c.obj)
 .text.radio_preemptable_cancel
                0x0000000000022ed8       0x2c ../../mesh/lib_51_MBTLE_CORE.a(radio.c.obj)
                0x0000000000022ed8                radio_preemptable_cancel
 .text.radio_event_handler
                0x0000000000022f04      0x134 ../../mesh/lib_51_MBTLE_CORE.a(radio.c.obj)
                0x0000000000022f04                radio_event_handler
 .text.radio_on_ts_begin
                0x0000000000023038       0x50 ../../mesh/lib_51_MBTLE_CORE.a(radio.c.obj)
                0x0000000000023038                radio_on_ts_begin
 .text.radio_on_ts_end
                0x0000000000023088        0x8 ../../mesh/lib_51_MBTLE_CORE.a(radio.c.obj)
                0x0000000000023088                radio_on_ts_end
 .text.timer_order_cb
                0x0000000000023090       0x9c ../../mesh/lib_51_MBTLE_CORE.a(timer.c.obj)
                0x0000000000023090                timer_order_cb
 .text.timer_abort
                0x000000000002312c       0x8c ../../mesh/lib_51_MBTLE_CORE.a(timer.c.obj)
                0x000000000002312c                timer_abort
 .text.timer_now
                0x00000000000231b8       0x58 ../../mesh/lib_51_MBTLE_CORE.a(timer.c.obj)
                0x00000000000231b8                timer_now
 .text.timer_event_handler
                0x0000000000023210       0xa0 ../../mesh/lib_51_MBTLE_CORE.a(timer.c.obj)
                0x0000000000023210                timer_event_handler
 .text.timer_on_ts_begin
                0x00000000000232b0      0x138 ../../mesh/lib_51_MBTLE_CORE.a(timer.c.obj)
                0x00000000000232b0                timer_on_ts_begin
 .text.timer_on_ts_end
                0x00000000000233e8       0x48 ../../mesh/lib_51_MBTLE_CORE.a(timer.c.obj)
                0x00000000000233e8                timer_on_ts_end
 .text.add_evt  0x0000000000023430       0x90 ../../mesh/lib_51_MBTLE_CORE.a(timer_scheduler.c.obj)
 .text.process_add_list
                0x00000000000234c0       0x50 ../../mesh/lib_51_MBTLE_CORE.a(timer_scheduler.c.obj)
 .text.process_dirty_events
                0x0000000000023510       0xb8 ../../mesh/lib_51_MBTLE_CORE.a(timer_scheduler.c.obj)
 .text.flag_event_cb
                0x00000000000235c8      0x138 ../../mesh/lib_51_MBTLE_CORE.a(timer_scheduler.c.obj)
 .text.timer_cb
                0x0000000000023700       0x10 ../../mesh/lib_51_MBTLE_CORE.a(timer_scheduler.c.obj)
 .text.timer_sch_init
                0x0000000000023710       0x24 ../../mesh/lib_51_MBTLE_CORE.a(timer_scheduler.c.obj)
                0x0000000000023710                timer_sch_init
 .text.timer_sch_schedule
                0x0000000000023734       0x94 ../../mesh/lib_51_MBTLE_CORE.a(timer_scheduler.c.obj)
                0x0000000000023734                timer_sch_schedule
 .text.timer_sch_abort
                0x00000000000237c8       0x6c ../../mesh/lib_51_MBTLE_CORE.a(timer_scheduler.c.obj)
                0x00000000000237c8                timer_sch_abort
 .text.timer_sch_reschedule
                0x0000000000023834       0xb4 ../../mesh/lib_51_MBTLE_CORE.a(timer_scheduler.c.obj)
                0x0000000000023834                timer_sch_reschedule
 .text.beacon_init
                0x00000000000238e8       0x44 ../../mesh/lib_51_MBTLE_CORE.a(beacon.c.obj)
                0x00000000000238e8                beacon_init
 .text.beacon_create
                0x000000000002392c       0x5e ../../mesh/lib_51_MBTLE_CORE.a(beacon.c.obj)
                0x000000000002392c                beacon_create
 *fill*         0x000000000002398a        0x2 
 .text.beacon_tx
                0x000000000002398c       0x48 ../../mesh/lib_51_MBTLE_CORE.a(beacon.c.obj)
                0x000000000002398c                beacon_tx
 .text.beacon_pkt_in
                0x00000000000239d4      0x19c ../../mesh/lib_51_MBTLE_CORE.a(beacon.c.obj)
                0x00000000000239d4                beacon_pkt_in
 .text.bearer_rx_cb
                0x0000000000023b70      0x3a0 ../../mesh/lib_51_MBTLE_CORE.a(bearer.c.obj)
 .text.bearer_init
                0x0000000000023f10       0x68 ../../mesh/lib_51_MBTLE_CORE.a(bearer.c.obj)
                0x0000000000023f10                bearer_init
 .text.bearer_enable
                0x0000000000023f78        0xa ../../mesh/lib_51_MBTLE_CORE.a(bearer.c.obj)
                0x0000000000023f78                bearer_enable
 *fill*         0x0000000000023f82        0x2 
 .text.bearer_tx
                0x0000000000023f84       0x50 ../../mesh/lib_51_MBTLE_CORE.a(bearer.c.obj)
                0x0000000000023f84                bearer_tx
 .text.bearer_rx
                0x0000000000023fd4       0x3c ../../mesh/lib_51_MBTLE_CORE.a(bearer.c.obj)
                0x0000000000023fd4                bearer_rx
 .text.evt_push
                0x0000000000024010       0x28 ../../mesh/lib_51_MBTLE_CORE.a(bearer_event.c.obj)
 .text.QDEC_IRQHandler
                0x0000000000024038       0xb4 ../../mesh/lib_51_MBTLE_CORE.a(bearer_event.c.obj)
                0x0000000000024038                QDEC_IRQHandler
 .text.bearer_event_init
                0x00000000000240ec       0x40 ../../mesh/lib_51_MBTLE_CORE.a(bearer_event.c.obj)
                0x00000000000240ec                bearer_event_init
 .text.bearer_event_generic_post
                0x000000000002412c       0x38 ../../mesh/lib_51_MBTLE_CORE.a(bearer_event.c.obj)
                0x000000000002412c                bearer_event_generic_post
 .text.bearer_event_timer_post
                0x0000000000024164       0x38 ../../mesh/lib_51_MBTLE_CORE.a(bearer_event.c.obj)
                0x0000000000024164                bearer_event_timer_post
 .text.bearer_event_critical_section_begin
                0x000000000002419c       0x48 ../../mesh/lib_51_MBTLE_CORE.a(bearer_event.c.obj)
                0x000000000002419c                bearer_event_critical_section_begin
 .text.bearer_event_critical_section_end
                0x00000000000241e4       0x50 ../../mesh/lib_51_MBTLE_CORE.a(bearer_event.c.obj)
                0x00000000000241e4                bearer_event_critical_section_end
 .text.bearer_event_flag_add
                0x0000000000024234       0x58 ../../mesh/lib_51_MBTLE_CORE.a(bearer_event.c.obj)
                0x0000000000024234                bearer_event_flag_add
 .text.bearer_event_flag_set
                0x000000000002428c       0x5c ../../mesh/lib_51_MBTLE_CORE.a(bearer_event.c.obj)
                0x000000000002428c                bearer_event_flag_set
 .text.nrf_mesh_configure_device_uuid_reset
                0x00000000000242e8       0x28 ../../mesh/lib_51_MBTLE_CORE.a(nrf_mesh_configure.c.obj)
                0x00000000000242e8                nrf_mesh_configure_device_uuid_reset
 .text.nrf_mesh_configure_device_uuid_get
                0x0000000000024310        0x8 ../../mesh/lib_51_MBTLE_CORE.a(nrf_mesh_configure.c.obj)
                0x0000000000024310                nrf_mesh_configure_device_uuid_get
 .text.enc_aes_encrypt
                0x0000000000024318        0x8 ../../mesh/lib_51_MBTLE_CORE.a(enc.c.obj)
                0x0000000000024318                enc_aes_encrypt
 .text.enc_aes_cmac
                0x0000000000024320        0x8 ../../mesh/lib_51_MBTLE_CORE.a(enc.c.obj)
                0x0000000000024320                enc_aes_cmac
 .text.enc_aes_ccm_encrypt
                0x0000000000024328        0x8 ../../mesh/lib_51_MBTLE_CORE.a(enc.c.obj)
                0x0000000000024328                enc_aes_ccm_encrypt
 .text.enc_aes_ccm_decrypt
                0x0000000000024330        0x8 ../../mesh/lib_51_MBTLE_CORE.a(enc.c.obj)
                0x0000000000024330                enc_aes_ccm_decrypt
 .text.enc_nonce_generate
                0x0000000000024338       0xcc ../../mesh/lib_51_MBTLE_CORE.a(enc.c.obj)
                0x0000000000024338                enc_nonce_generate
 .text.enc_s1   0x0000000000024404       0x44 ../../mesh/lib_51_MBTLE_CORE.a(enc.c.obj)
                0x0000000000024404                enc_s1
 .text.enc_k1   0x0000000000024448       0x58 ../../mesh/lib_51_MBTLE_CORE.a(enc.c.obj)
                0x0000000000024448                enc_k1
 .text.enc_k2   0x00000000000244a0       0xfc ../../mesh/lib_51_MBTLE_CORE.a(enc.c.obj)
                0x00000000000244a0                enc_k2
 .text.enc_k3   0x000000000002459c       0x68 ../../mesh/lib_51_MBTLE_CORE.a(enc.c.obj)
                0x000000000002459c                enc_k3
 .text.enc_k4   0x0000000000024604       0x64 ../../mesh/lib_51_MBTLE_CORE.a(enc.c.obj)
                0x0000000000024604                enc_k4
 .text.event_handle
                0x0000000000024668       0x38 ../../mesh/lib_51_MBTLE_CORE.a(event.c.obj)
                0x0000000000024668                event_handle
 .text.event_handler_add
                0x00000000000246a0       0x98 ../../mesh/lib_51_MBTLE_CORE.a(event.c.obj)
                0x00000000000246a0                event_handler_add
 .text.log_callback_rtt
                0x0000000000024738       0x2c ../../mesh/lib_51_MBTLE_CORE.a(log.c.obj)
                0x0000000000024738                log_callback_rtt
 .text.log_init
                0x0000000000024764       0x1c ../../mesh/lib_51_MBTLE_CORE.a(log.c.obj)
                0x0000000000024764                log_init
 .text.log_vprintf
                0x0000000000024780       0x20 ../../mesh/lib_51_MBTLE_CORE.a(log.c.obj)
                0x0000000000024780                log_vprintf
 .text.log_printf
                0x00000000000247a0       0x16 ../../mesh/lib_51_MBTLE_CORE.a(log.c.obj)
                0x00000000000247a0                log_printf
 *fill*         0x00000000000247b6        0x2 
 .text.network_beacon_tx_cb
                0x00000000000247b8      0x124 ../../mesh/lib_51_MBTLE_CORE.a(net_beacon.c.obj)
 .text.net_beacon_init
                0x00000000000248dc       0x60 ../../mesh/lib_51_MBTLE_CORE.a(net_beacon.c.obj)
                0x00000000000248dc                net_beacon_init
 .text.net_beacon_pkt_in
                0x000000000002493c       0xe8 ../../mesh/lib_51_MBTLE_CORE.a(net_beacon.c.obj)
                0x000000000002493c                net_beacon_pkt_in
 .text.flash_mem_available
                0x0000000000024a24       0x20 ../../mesh/lib_51_MBTLE_CORE.a(net_state.c.obj)
 .text.flash_store_iv_index
                0x0000000000024a44       0x34 ../../mesh/lib_51_MBTLE_CORE.a(net_state.c.obj)
 .text.seqnum_block_allocate
                0x0000000000024a78       0x54 ../../mesh/lib_51_MBTLE_CORE.a(net_state.c.obj)
 .text.flash_write_complete
                0x0000000000024acc       0x84 ../../mesh/lib_51_MBTLE_CORE.a(net_state.c.obj)
 .text.net_state_recover_from_flash
                0x0000000000024b50       0x98 ../../mesh/lib_51_MBTLE_CORE.a(net_state.c.obj)
                0x0000000000024b50                net_state_recover_from_flash
 .text.net_state_flash_area_get
                0x0000000000024be8       0x14 ../../mesh/lib_51_MBTLE_CORE.a(net_state.c.obj)
                0x0000000000024be8                net_state_flash_area_get
 .text.init_flash_storage
                0x0000000000024bfc       0x44 ../../mesh/lib_51_MBTLE_CORE.a(net_state.c.obj)
 .text.net_state_init
                0x0000000000024c40       0x48 ../../mesh/lib_51_MBTLE_CORE.a(net_state.c.obj)
                0x0000000000024c40                net_state_init
 .text.net_state_iv_update_start
                0x0000000000024c88       0x70 ../../mesh/lib_51_MBTLE_CORE.a(net_state.c.obj)
                0x0000000000024c88                net_state_iv_update_start
 .text.iv_update_trigger_if_pending
                0x0000000000024cf8       0x98 ../../mesh/lib_51_MBTLE_CORE.a(net_state.c.obj)
 .text.iv_update_timer_handler
                0x0000000000024d90       0x8c ../../mesh/lib_51_MBTLE_CORE.a(net_state.c.obj)
 .text.net_state_seqnum_alloc
                0x0000000000024e1c       0x74 ../../mesh/lib_51_MBTLE_CORE.a(net_state.c.obj)
                0x0000000000024e1c                net_state_seqnum_alloc
 .text.net_state_iv_index_lock
                0x0000000000024e90       0x5c ../../mesh/lib_51_MBTLE_CORE.a(net_state.c.obj)
                0x0000000000024e90                net_state_iv_index_lock
 .text.net_state_beacon_received
                0x0000000000024eec       0xc0 ../../mesh/lib_51_MBTLE_CORE.a(net_state.c.obj)
                0x0000000000024eec                net_state_beacon_received
 .text.net_state_beacon_iv_index_get
                0x0000000000024fac        0xc ../../mesh/lib_51_MBTLE_CORE.a(net_state.c.obj)
                0x0000000000024fac                net_state_beacon_iv_index_get
 .text.net_state_tx_iv_index_get
                0x0000000000024fb8       0x1c ../../mesh/lib_51_MBTLE_CORE.a(net_state.c.obj)
                0x0000000000024fb8                net_state_tx_iv_index_get
 .text.net_state_rx_iv_index_get
                0x0000000000024fd4       0x18 ../../mesh/lib_51_MBTLE_CORE.a(net_state.c.obj)
                0x0000000000024fd4                net_state_rx_iv_index_get
 .text.net_state_iv_update_get
                0x0000000000024fec        0xc ../../mesh/lib_51_MBTLE_CORE.a(net_state.c.obj)
                0x0000000000024fec                net_state_iv_update_get
 .text.sd_softdevice_is_enabled
                0x0000000000024ff8        0x4 ../../mesh/lib_51_MBTLE_CORE.a(nrf_mesh.c.obj)
 .text.nrf_mesh_init
                0x0000000000024ffc       0xb0 ../../mesh/lib_51_MBTLE_CORE.a(nrf_mesh.c.obj)
                0x0000000000024ffc                nrf_mesh_init
 .text.nrf_mesh_enable
                0x00000000000250ac       0x4c ../../mesh/lib_51_MBTLE_CORE.a(nrf_mesh.c.obj)
                0x00000000000250ac                nrf_mesh_enable
 .text.nrf_mesh_packet_send
                0x00000000000250f8       0x54 ../../mesh/lib_51_MBTLE_CORE.a(nrf_mesh.c.obj)
                0x00000000000250f8                nrf_mesh_packet_send
 .text.nrf_mesh_process
                0x000000000002514c      0x23c ../../mesh/lib_51_MBTLE_CORE.a(nrf_mesh.c.obj)
                0x000000000002514c                nrf_mesh_process
 .text.nrf_mesh_on_ble_evt
                0x0000000000025388        0x4 ../../mesh/lib_51_MBTLE_CORE.a(nrf_mesh.c.obj)
                0x0000000000025388                nrf_mesh_on_ble_evt
 .text.nrf_mesh_on_sd_evt
                0x000000000002538c        0xa ../../mesh/lib_51_MBTLE_CORE.a(nrf_mesh.c.obj)
                0x000000000002538c                nrf_mesh_on_sd_evt
 .text.nrf_mesh_evt_handler_add
                0x0000000000025396        0x8 ../../mesh/lib_51_MBTLE_CORE.a(nrf_mesh.c.obj)
                0x0000000000025396                nrf_mesh_evt_handler_add
 .text.nrf_mesh_keygen_aid
                0x000000000002539e       0x1a ../../mesh/lib_51_MBTLE_CORE.a(nrf_mesh_keygen.c.obj)
                0x000000000002539e                nrf_mesh_keygen_aid
 .text.nrf_mesh_keygen_network_secmat
                0x00000000000253b8       0x2a ../../mesh/lib_51_MBTLE_CORE.a(nrf_mesh_keygen.c.obj)
                0x00000000000253b8                nrf_mesh_keygen_network_secmat
 *fill*         0x00000000000253e2        0x2 
 .text.nrf_mesh_keygen_beacon_secmat
                0x00000000000253e4       0x58 ../../mesh/lib_51_MBTLE_CORE.a(nrf_mesh_keygen.c.obj)
                0x00000000000253e4                nrf_mesh_keygen_beacon_secmat
 .text.nrf_mesh_keygen_virtual_address
                0x000000000002543c       0x54 ../../mesh/lib_51_MBTLE_CORE.a(nrf_mesh_keygen.c.obj)
                0x000000000002543c                nrf_mesh_keygen_virtual_address
 .text.nrf_mesh_address_type_get
                0x0000000000025490       0x14 ../../mesh/lib_51_MBTLE_CORE.a(nrf_mesh_utils.c.obj)
                0x0000000000025490                nrf_mesh_address_type_get
 .text.nrf_mesh_gap_address_type_get
                0x00000000000254a4       0x48 ../../mesh/lib_51_MBTLE_CORE.a(nrf_mesh_utils.c.obj)
                0x00000000000254a4                nrf_mesh_gap_address_type_get
 .text.radio_config_reset
                0x00000000000254ec       0x48 ../../mesh/lib_51_MBTLE_CORE.a(radio_config.c.obj)
                0x00000000000254ec                radio_config_reset
 .text.radio_config_channel_set
                0x0000000000025534       0x40 ../../mesh/lib_51_MBTLE_CORE.a(radio_config.c.obj)
                0x0000000000025534                radio_config_channel_set
 .text.radio_config_config
                0x0000000000025574       0xd8 ../../mesh/lib_51_MBTLE_CORE.a(radio_config.c.obj)
                0x0000000000025574                radio_config_config
 .text.sd_rand_application_bytes_available_get
                0x000000000002564c        0x4 ../../mesh/lib_51_MBTLE_CORE.a(rand.c.obj)
 .text.sd_rand_application_vector_get
                0x0000000000025650        0x4 ../../mesh/lib_51_MBTLE_CORE.a(rand.c.obj)
 .text.rand_prng_get
                0x0000000000025654       0x2e ../../mesh/lib_51_MBTLE_CORE.a(rand.c.obj)
                0x0000000000025654                rand_prng_get
 *fill*         0x0000000000025682        0x2 
 .text.rand_hw_rng_get
                0x0000000000025684       0x64 ../../mesh/lib_51_MBTLE_CORE.a(rand.c.obj)
                0x0000000000025684                rand_hw_rng_get
 .text.rand_prng_seed
                0x00000000000256e8       0x34 ../../mesh/lib_51_MBTLE_CORE.a(rand.c.obj)
                0x00000000000256e8                rand_prng_seed
 .text.timer_cb
                0x000000000002571c       0x10 ../../mesh/lib_51_MBTLE_CORE.a(ticker.c.obj)
 .text.ticker_init
                0x000000000002572c       0x38 ../../mesh/lib_51_MBTLE_CORE.a(ticker.c.obj)
                0x000000000002572c                ticker_init
 .text.packet_mesh_trs_seq_auth_get
                0x0000000000025764       0x40 ../../mesh/lib_51_MBTLE_CORE.a(transport.c.obj)
 .text.trs_sar_ack_timeout_cb
                0x00000000000257a4       0x18 ../../mesh/lib_51_MBTLE_CORE.a(transport.c.obj)
 .text.trs_sar_tx_timeout_cb
                0x00000000000257bc        0xc ../../mesh/lib_51_MBTLE_CORE.a(transport.c.obj)
 .text.trs_sar_session_next_timeout_get
                0x00000000000257c8       0x6c ../../mesh/lib_51_MBTLE_CORE.a(transport.c.obj)
 .text.m_send_sar_cancel_event
                0x0000000000025834       0x26 ../../mesh/lib_51_MBTLE_CORE.a(transport.c.obj)
 .text.m_send_replay_cache_full_event
                0x000000000002585a       0x2e ../../mesh/lib_51_MBTLE_CORE.a(transport.c.obj)
 .text.test_transport_decrypt
                0x0000000000025888       0xa8 ../../mesh/lib_51_MBTLE_CORE.a(transport.c.obj)
 .text.trs_sar_drop_session
                0x0000000000025930      0x12c ../../mesh/lib_51_MBTLE_CORE.a(transport.c.obj)
 .text.trs_sar_session_cb
                0x0000000000025a5c       0xa8 ../../mesh/lib_51_MBTLE_CORE.a(transport.c.obj)
 .text.trs_sar_pkt_ack
                0x0000000000025b04      0x154 ../../mesh/lib_51_MBTLE_CORE.a(transport.c.obj)
 .text.sar_segment_send
                0x0000000000025c58      0x19c ../../mesh/lib_51_MBTLE_CORE.a(transport.c.obj)
 .text.trs_sar_session_timer_order
                0x0000000000025df4       0x34 ../../mesh/lib_51_MBTLE_CORE.a(transport.c.obj)
 .text.trs_sar_pkt_decrypt
                0x0000000000025e28      0x4c4 ../../mesh/lib_51_MBTLE_CORE.a(transport.c.obj)
                0x0000000000025e28                trs_sar_pkt_decrypt
 .text.transport_sar_mem_funcs_reset
                0x00000000000262ec       0x2c ../../mesh/lib_51_MBTLE_CORE.a(transport.c.obj)
                0x00000000000262ec                transport_sar_mem_funcs_reset
 .text.transport_init
                0x0000000000026318       0xb8 ../../mesh/lib_51_MBTLE_CORE.a(transport.c.obj)
                0x0000000000026318                transport_init
 .text.transport_sar_mem_funcs_set
                0x00000000000263d0       0x44 ../../mesh/lib_51_MBTLE_CORE.a(transport.c.obj)
                0x00000000000263d0                transport_sar_mem_funcs_set
 .text.transport_pkt_in
                0x0000000000026414     0x1168 ../../mesh/lib_51_MBTLE_CORE.a(transport.c.obj)
                0x0000000000026414                transport_pkt_in
 .text.transport_sar_process
                0x000000000002757c      0x510 ../../mesh/lib_51_MBTLE_CORE.a(transport.c.obj)
                0x000000000002757c                transport_sar_process
 .text.transport_tx
                0x0000000000027a8c      0x234 ../../mesh/lib_51_MBTLE_CORE.a(transport.c.obj)
                0x0000000000027a8c                transport_tx
 .text.transport_seg_maxlen_get
                0x0000000000027cc0       0x14 ../../mesh/lib_51_MBTLE_CORE.a(transport.c.obj)
                0x0000000000027cc0                transport_seg_maxlen_get
 .text.transport_tx_sar
                0x0000000000027cd4      0x558 ../../mesh/lib_51_MBTLE_CORE.a(transport.c.obj)
                0x0000000000027cd4                transport_tx_sar
 .text.transport_unseg_maxlen_get
                0x000000000002822c        0x4 ../../mesh/lib_51_MBTLE_CORE.a(transport.c.obj)
                0x000000000002822c                transport_unseg_maxlen_get
 .text.internal_event_push
                0x0000000000028230       0x34 ../../mesh/lib_51_MBTLE_CORE.a(internal_event.c.obj)
                0x0000000000028230                internal_event_push
 .text.flash_area_is_blank
                0x0000000000028264       0x60 ../../mesh/lib_51_MBTLE_CORE.a(flash_manager.c.obj)
 .text.free_packet_buffer
                0x00000000000282c4       0x58 ../../mesh/lib_51_MBTLE_CORE.a(flash_manager.c.obj)
 .text.reserve_action_buffer
                0x000000000002831c       0x28 ../../mesh/lib_51_MBTLE_CORE.a(flash_manager.c.obj)
 .text.get_last_entry
                0x0000000000028344       0x7c ../../mesh/lib_51_MBTLE_CORE.a(flash_manager.c.obj)
 .text.process_action_queue
                0x00000000000283c0      0x740 ../../mesh/lib_51_MBTLE_CORE.a(flash_manager.c.obj)
 .text.flash_op_ended_callback
                0x0000000000028b00       0x28 ../../mesh/lib_51_MBTLE_CORE.a(flash_manager.c.obj)
 .text.flash_manager_init
                0x0000000000028b28       0x6c ../../mesh/lib_51_MBTLE_CORE.a(flash_manager.c.obj)
                0x0000000000028b28                flash_manager_init
 .text.flash_manager_entry_next_get
                0x0000000000028b94      0x140 ../../mesh/lib_51_MBTLE_CORE.a(flash_manager.c.obj)
                0x0000000000028b94                flash_manager_entry_next_get
 .text.flash_manager_entry_alloc
                0x0000000000028cd4       0x8c ../../mesh/lib_51_MBTLE_CORE.a(flash_manager.c.obj)
                0x0000000000028cd4                flash_manager_entry_alloc
 .text.flash_manager_entry_commit
                0x0000000000028d60       0x6c ../../mesh/lib_51_MBTLE_CORE.a(flash_manager.c.obj)
                0x0000000000028d60                flash_manager_entry_commit
 .text.flash_manager_entry_invalidate
                0x0000000000028dcc       0xa4 ../../mesh/lib_51_MBTLE_CORE.a(flash_manager.c.obj)
                0x0000000000028dcc                flash_manager_entry_invalidate
 .text.flash_manager_add
                0x0000000000028e70      0x3b8 ../../mesh/lib_51_MBTLE_CORE.a(flash_manager.c.obj)
                0x0000000000028e70                flash_manager_add
 .text.flash_manager_mem_listener_register
                0x0000000000029228       0x4c ../../mesh/lib_51_MBTLE_CORE.a(flash_manager.c.obj)
                0x0000000000029228                flash_manager_mem_listener_register
 .text.flash_manager_is_stable
                0x0000000000029274       0x24 ../../mesh/lib_51_MBTLE_CORE.a(flash_manager.c.obj)
                0x0000000000029274                flash_manager_is_stable
 .text.flash_manager_on_defrag_end
                0x0000000000029298       0x68 ../../mesh/lib_51_MBTLE_CORE.a(flash_manager.c.obj)
                0x0000000000029298                flash_manager_on_defrag_end
 .text.flash_manager_recovery_page_get
                0x0000000000029300        0x8 ../../mesh/lib_51_MBTLE_CORE.a(flash_manager.c.obj)
                0x0000000000029300                flash_manager_recovery_page_get
 .text.defrag_on_end
                0x0000000000029308       0x1c ../../mesh/lib_51_MBTLE_CORE.a(flash_manager_defrag.c.obj)
 .text.execute_procedure_step
                0x0000000000029324       0xc0 ../../mesh/lib_51_MBTLE_CORE.a(flash_manager_defrag.c.obj)
 .text.on_flash_op_end
                0x00000000000293e4       0x40 ../../mesh/lib_51_MBTLE_CORE.a(flash_manager_defrag.c.obj)
 .text.erase_source
                0x0000000000029424       0x30 ../../mesh/lib_51_MBTLE_CORE.a(flash_manager_defrag.c.obj)
 .text.erase_recovery_area
                0x0000000000029454       0x30 ../../mesh/lib_51_MBTLE_CORE.a(flash_manager_defrag.c.obj)
 .text.post_process
                0x0000000000029484       0x6c ../../mesh/lib_51_MBTLE_CORE.a(flash_manager_defrag.c.obj)
 .text.write_back
                0x00000000000294f0       0x48 ../../mesh/lib_51_MBTLE_CORE.a(flash_manager_defrag.c.obj)
 .text.write_defrag_start_pointer
                0x0000000000029538       0x38 ../../mesh/lib_51_MBTLE_CORE.a(flash_manager_defrag.c.obj)
 .text.copy_metadata
                0x0000000000029570       0x5c ../../mesh/lib_51_MBTLE_CORE.a(flash_manager_defrag.c.obj)
 .text.seal_storage_page
                0x00000000000295cc       0x7c ../../mesh/lib_51_MBTLE_CORE.a(flash_manager_defrag.c.obj)
 .text.check_for_invalid_entries
                0x0000000000029648       0x50 ../../mesh/lib_51_MBTLE_CORE.a(flash_manager_defrag.c.obj)
 .text.invalidate_duplicate_entries
                0x0000000000029698      0x174 ../../mesh/lib_51_MBTLE_CORE.a(flash_manager_defrag.c.obj)
 .text.backup_entries
                0x000000000002980c      0x214 ../../mesh/lib_51_MBTLE_CORE.a(flash_manager_defrag.c.obj)
 .text.flash_manager_defrag_init
                0x0000000000029a20       0xa8 ../../mesh/lib_51_MBTLE_CORE.a(flash_manager_defrag.c.obj)
                0x0000000000029a20                flash_manager_defrag_init
 .text.flash_manager_defrag_is_running
                0x0000000000029ac8       0x10 ../../mesh/lib_51_MBTLE_CORE.a(flash_manager_defrag.c.obj)
                0x0000000000029ac8                flash_manager_defrag_is_running
 .text.flash_manager_defrag
                0x0000000000029ad8       0xec ../../mesh/lib_51_MBTLE_CORE.a(flash_manager_defrag.c.obj)
                0x0000000000029ad8                flash_manager_defrag
 .text.flash_manager_defrag_recovery_page_get
                0x0000000000029bc4        0xc ../../mesh/lib_51_MBTLE_CORE.a(flash_manager_defrag.c.obj)
                0x0000000000029bc4                flash_manager_defrag_recovery_page_get
 .text.entry_get
                0x0000000000029bd0       0x9c ../../mesh/lib_51_MBTLE_CORE.a(flash_manager_internal.c.obj)
                0x0000000000029bd0                entry_get
 .text.sd_ecb_block_encrypt
                0x0000000000029c6c        0x4 ../../mesh/lib_51_MBTLE_CORE.a(aes.c.obj)
 .text.aes_encrypt
                0x0000000000029c70       0x78 ../../mesh/lib_51_MBTLE_CORE.a(aes.c.obj)
                0x0000000000029c70                aes_encrypt
 .text.queue_init
                0x0000000000029ce8       0x24 ../../mesh/lib_51_MBTLE_CORE.a(queue.c.obj)
                0x0000000000029ce8                queue_init
 .text.queue_push
                0x0000000000029d0c       0x58 ../../mesh/lib_51_MBTLE_CORE.a(queue.c.obj)
                0x0000000000029d0c                queue_push
 .text.queue_pop
                0x0000000000029d64       0x40 ../../mesh/lib_51_MBTLE_CORE.a(queue.c.obj)
                0x0000000000029d64                queue_pop
 .text.sd_radio_session_open
                0x0000000000029da4        0x4 ../../mesh/lib_51_MBTLE_CORE.a(timeslot.c.obj)
 .text.sd_radio_request
                0x0000000000029da8        0x4 ../../mesh/lib_51_MBTLE_CORE.a(timeslot.c.obj)
 .text.ts_order_earliest
                0x0000000000029dac       0x38 ../../mesh/lib_51_MBTLE_CORE.a(timeslot.c.obj)
 .text.ts_extend
                0x0000000000029de4       0x30 ../../mesh/lib_51_MBTLE_CORE.a(timeslot.c.obj)
 .text.end_timer_handler
                0x0000000000029e14        0xc ../../mesh/lib_51_MBTLE_CORE.a(timeslot.c.obj)
 .text.start_time_update
                0x0000000000029e20       0x84 ../../mesh/lib_51_MBTLE_CORE.a(timeslot.c.obj)
                0x0000000000029e20                start_time_update
 .text.timeslot_sd_event_handler
                0x0000000000029ea4       0x58 ../../mesh/lib_51_MBTLE_CORE.a(timeslot.c.obj)
                0x0000000000029ea4                timeslot_sd_event_handler
 .text.timeslot_init
                0x0000000000029efc       0x94 ../../mesh/lib_51_MBTLE_CORE.a(timeslot.c.obj)
                0x0000000000029efc                timeslot_init
 .text.timeslot_resume
                0x0000000000029f90       0x4c ../../mesh/lib_51_MBTLE_CORE.a(timeslot.c.obj)
                0x0000000000029f90                timeslot_resume
 .text.timeslot_end_time_get
                0x0000000000029fdc       0x24 ../../mesh/lib_51_MBTLE_CORE.a(timeslot.c.obj)
                0x0000000000029fdc                timeslot_end_time_get
 .text.timeslot_end
                0x000000000002a000       0x80 ../../mesh/lib_51_MBTLE_CORE.a(timeslot.c.obj)
 .text.timeslot_remaining_time_get
                0x000000000002a080       0x34 ../../mesh/lib_51_MBTLE_CORE.a(timeslot.c.obj)
                0x000000000002a080                timeslot_remaining_time_get
 .text.radio_signal_callback
                0x000000000002a0b4      0x1f0 ../../mesh/lib_51_MBTLE_CORE.a(timeslot.c.obj)
 .text.aes_cmac_subkey_generate
                0x000000000002a2a4       0xac ../../mesh/lib_51_MBTLE_CORE.a(aes_cmac.c.obj)
                0x000000000002a2a4                aes_cmac_subkey_generate
 .text.aes_cmac
                0x000000000002a350       0xf4 ../../mesh/lib_51_MBTLE_CORE.a(aes_cmac.c.obj)
                0x000000000002a350                aes_cmac
 .text.ccm_soft_crypt
                0x000000000002a444       0xa2 ../../mesh/lib_51_MBTLE_CORE.a(ccm_soft.c.obj)
 .text.ccm_soft_authenticate_blocks
                0x000000000002a4e6       0x86 ../../mesh/lib_51_MBTLE_CORE.a(ccm_soft.c.obj)
 .text.ccm_soft_authenticate
                0x000000000002a56c       0x8c ../../mesh/lib_51_MBTLE_CORE.a(ccm_soft.c.obj)
 .text.ccm_soft_encrypt
                0x000000000002a5f8       0x8a ../../mesh/lib_51_MBTLE_CORE.a(ccm_soft.c.obj)
                0x000000000002a5f8                ccm_soft_encrypt
 .text.ccm_soft_decrypt
                0x000000000002a682      0x166 ../../mesh/lib_51_MBTLE_CORE.a(ccm_soft.c.obj)
                0x000000000002a682                ccm_soft_decrypt
 .text.msg_cache_init
                0x000000000002a7e8       0x38 ../../mesh/lib_51_MBTLE_CORE.a(msg_cache.c.obj)
                0x000000000002a7e8                msg_cache_init
 .text.msg_cache_entry_exists
                0x000000000002a820       0xa8 ../../mesh/lib_51_MBTLE_CORE.a(msg_cache.c.obj)
                0x000000000002a820                msg_cache_entry_exists
 .text.msg_cache_entry_add
                0x000000000002a8c8       0x40 ../../mesh/lib_51_MBTLE_CORE.a(msg_cache.c.obj)
                0x000000000002a8c8                msg_cache_entry_add
 .text.header_transfuscate
                0x000000000002a908       0x58 ../../mesh/lib_51_MBTLE_CORE.a(network.c.obj)
 .text.network_pkt_encrypt
                0x000000000002a960       0x7a ../../mesh/lib_51_MBTLE_CORE.a(network.c.obj)
 *fill*         0x000000000002a9da        0x2 
 .text.network_pkt_relay
                0x000000000002a9dc      0x1e0 ../../mesh/lib_51_MBTLE_CORE.a(network.c.obj)
                0x000000000002a9dc                network_pkt_relay
 .text.network_init
                0x000000000002abbc       0x3c ../../mesh/lib_51_MBTLE_CORE.a(network.c.obj)
                0x000000000002abbc                network_init
 .text.network_pkt_out
                0x000000000002abf8      0x170 ../../mesh/lib_51_MBTLE_CORE.a(network.c.obj)
                0x000000000002abf8                network_pkt_out
 .text.network_pkt_in
                0x000000000002ad68      0x3d4 ../../mesh/lib_51_MBTLE_CORE.a(network.c.obj)
                0x000000000002ad68                network_pkt_in
 .text.packet_type_packet_get
                0x000000000002b13c       0x60 ../../mesh/lib_51_MBTLE_CORE.a(packet.c.obj)
                0x000000000002b13c                packet_type_packet_get
 .text.m_index_increment
                0x000000000002b19c       0x2c ../../mesh/lib_51_MBTLE_CORE.a(packet_buffer.c.obj)
 .text.m_free_popped_packet
                0x000000000002b1c8       0x58 ../../mesh/lib_51_MBTLE_CORE.a(packet_buffer.c.obj)
 .text.m_adjust_desired_packet_length
                0x000000000002b220       0x34 ../../mesh/lib_51_MBTLE_CORE.a(packet_buffer.c.obj)
 .text.packet_buffer_init
                0x000000000002b254       0xe0 ../../mesh/lib_51_MBTLE_CORE.a(packet_buffer.c.obj)
                0x000000000002b254                packet_buffer_init
 .text.packet_buffer_reserve
                0x000000000002b334      0x110 ../../mesh/lib_51_MBTLE_CORE.a(packet_buffer.c.obj)
                0x000000000002b334                packet_buffer_reserve
 .text.packet_buffer_commit
                0x000000000002b444      0x128 ../../mesh/lib_51_MBTLE_CORE.a(packet_buffer.c.obj)
                0x000000000002b444                packet_buffer_commit
 .text.packet_buffer_pop
                0x000000000002b56c       0x84 ../../mesh/lib_51_MBTLE_CORE.a(packet_buffer.c.obj)
                0x000000000002b56c                packet_buffer_pop
 .text.packet_buffer_can_pop
                0x000000000002b5f0       0x48 ../../mesh/lib_51_MBTLE_CORE.a(packet_buffer.c.obj)
                0x000000000002b5f0                packet_buffer_can_pop
 .text.packet_buffer_free
                0x000000000002b638       0x9c ../../mesh/lib_51_MBTLE_CORE.a(packet_buffer.c.obj)
                0x000000000002b638                packet_buffer_free
 .text.replay_cache_add
                0x000000000002b6d4       0x98 ../../mesh/lib_51_MBTLE_CORE.a(replay_cache.c.obj)
                0x000000000002b6d4                replay_cache_add
 .text.replay_cache_has_room
                0x000000000002b76c       0x44 ../../mesh/lib_51_MBTLE_CORE.a(replay_cache.c.obj)
                0x000000000002b76c                replay_cache_has_room
 .text.replay_cache_has_elem
                0x000000000002b7b0       0x48 ../../mesh/lib_51_MBTLE_CORE.a(replay_cache.c.obj)
                0x000000000002b7b0                replay_cache_has_elem
 .text.replay_cache_clear
                0x000000000002b7f8       0x28 ../../mesh/lib_51_MBTLE_CORE.a(replay_cache.c.obj)
                0x000000000002b7f8                replay_cache_clear
 .text.replay_cache_init
                0x000000000002b820        0x8 ../../mesh/lib_51_MBTLE_CORE.a(replay_cache.c.obj)
                0x000000000002b820                replay_cache_init
 .text.send_end_events
                0x000000000002b828       0x88 ../../mesh/lib_51_MBTLE_CORE.a(mesh_flash.c.obj)
 .text.mesh_flash_init
                0x000000000002b8b0       0x90 ../../mesh/lib_51_MBTLE_CORE.a(mesh_flash.c.obj)
                0x000000000002b8b0                mesh_flash_init
 .text.mesh_flash_user_callback_set
                0x000000000002b940       0x30 ../../mesh/lib_51_MBTLE_CORE.a(mesh_flash.c.obj)
                0x000000000002b940                mesh_flash_user_callback_set
 .text.mesh_flash_op_push
                0x000000000002b970      0x168 ../../mesh/lib_51_MBTLE_CORE.a(mesh_flash.c.obj)
                0x000000000002b970                mesh_flash_op_push
 .text.mesh_flash_op_execute
                0x000000000002bad8      0x1d0 ../../mesh/lib_51_MBTLE_CORE.a(mesh_flash.c.obj)
                0x000000000002bad8                mesh_flash_op_execute
 .text.nrf_flash_erase
                0x000000000002bca8       0x78 ../../mesh/lib_51_MBTLE_CORE.a(nrf_flash.c.obj)
                0x000000000002bca8                nrf_flash_erase
 .text.nrf_flash_write
                0x000000000002bd20       0x78 ../../mesh/lib_51_MBTLE_CORE.a(nrf_flash.c.obj)
                0x000000000002bd20                nrf_flash_write
 .text.msq_get  0x000000000002bd98       0x7c ../../mesh/lib_51_MBTLE_CORE.a(msqueue.c.obj)
                0x000000000002bd98                msq_get
 .text.msq_move
                0x000000000002be14       0x70 ../../mesh/lib_51_MBTLE_CORE.a(msqueue.c.obj)
                0x000000000002be14                msq_move
 .text.msq_reset
                0x000000000002be84       0x34 ../../mesh/lib_51_MBTLE_CORE.a(msqueue.c.obj)
                0x000000000002be84                msq_reset
 .text.msq_init
                0x000000000002beb8       0x8c ../../mesh/lib_51_MBTLE_CORE.a(msqueue.c.obj)
                0x000000000002beb8                msq_init
 .text.msq_available
                0x000000000002bf44       0x60 ../../mesh/lib_51_MBTLE_CORE.a(msqueue.c.obj)
                0x000000000002bf44                msq_available
 .text.uECC_vli_add
                0x000000000002bfa4       0x4a ../../lib/micro-ecc/lib_51_UECC_LIB.a(uECC.c.obj)
 .text.uECC_vli_sub
                0x000000000002bfee       0x4c ../../lib/micro-ecc/lib_51_UECC_LIB.a(uECC.c.obj)
 .text.uECC_vli_mult
                0x000000000002c03a       0x90 ../../lib/micro-ecc/lib_51_UECC_LIB.a(uECC.c.obj)
 .text.uECC_vli_clear
                0x000000000002c0ca       0x1a ../../lib/micro-ecc/lib_51_UECC_LIB.a(uECC.c.obj)
 .text.uECC_vli_isZero
                0x000000000002c0e4       0x24 ../../lib/micro-ecc/lib_51_UECC_LIB.a(uECC.c.obj)
 .text.uECC_vli_testBit
                0x000000000002c108       0x12 ../../lib/micro-ecc/lib_51_UECC_LIB.a(uECC.c.obj)
 *fill*         0x000000000002c11a        0x2 
 .text.uECC_vli_numBits
                0x000000000002c11c       0x54 ../../lib/micro-ecc/lib_51_UECC_LIB.a(uECC.c.obj)
 .text.uECC_vli_set
                0x000000000002c170       0x1c ../../lib/micro-ecc/lib_51_UECC_LIB.a(uECC.c.obj)
 .text.uECC_vli_cmp_unsafe
                0x000000000002c18c       0x46 ../../lib/micro-ecc/lib_51_UECC_LIB.a(uECC.c.obj)
 .text.uECC_vli_cmp
                0x000000000002c1d2       0x2c ../../lib/micro-ecc/lib_51_UECC_LIB.a(uECC.c.obj)
 .text.uECC_vli_rshift1
                0x000000000002c1fe       0x2c ../../lib/micro-ecc/lib_51_UECC_LIB.a(uECC.c.obj)
 .text.uECC_vli_modAdd
                0x000000000002c22a       0x32 ../../lib/micro-ecc/lib_51_UECC_LIB.a(uECC.c.obj)
 .text.uECC_vli_modSub
                0x000000000002c25c       0x26 ../../lib/micro-ecc/lib_51_UECC_LIB.a(uECC.c.obj)
 .text.uECC_vli_modMult_fast
                0x000000000002c282       0x20 ../../lib/micro-ecc/lib_51_UECC_LIB.a(uECC.c.obj)
 .text.uECC_vli_modSquare_fast
                0x000000000002c2a2        0xc ../../lib/micro-ecc/lib_51_UECC_LIB.a(uECC.c.obj)
 *fill*         0x000000000002c2ae        0x2 
 .text.vli_modInv_update
                0x000000000002c2b0       0x48 ../../lib/micro-ecc/lib_51_UECC_LIB.a(uECC.c.obj)
 .text.uECC_vli_modInv
                0x000000000002c2f8      0x134 ../../lib/micro-ecc/lib_51_UECC_LIB.a(uECC.c.obj)
 .text.double_jacobian_default
                0x000000000002c42c      0x168 ../../lib/micro-ecc/lib_51_UECC_LIB.a(uECC.c.obj)
 .text.x_side_default
                0x000000000002c594       0x58 ../../lib/micro-ecc/lib_51_UECC_LIB.a(uECC.c.obj)
 .text.vli_mmod_fast_secp256r1
                0x000000000002c5ec      0x1bc ../../lib/micro-ecc/lib_51_UECC_LIB.a(uECC.c.obj)
 .text.apply_z  0x000000000002c7a8       0x3e ../../lib/micro-ecc/lib_51_UECC_LIB.a(uECC.c.obj)
 .text.XYcZ_add
                0x000000000002c7e6       0xcc ../../lib/micro-ecc/lib_51_UECC_LIB.a(uECC.c.obj)
 .text.XYcZ_addC
                0x000000000002c8b2      0x11c ../../lib/micro-ecc/lib_51_UECC_LIB.a(uECC.c.obj)
 .text.EccPoint_mult
                0x000000000002c9ce      0x1cc ../../lib/micro-ecc/lib_51_UECC_LIB.a(uECC.c.obj)
 .text.regularize_k
                0x000000000002cb9a       0x60 ../../lib/micro-ecc/lib_51_UECC_LIB.a(uECC.c.obj)
 .text.EccPoint_compute_public_key
                0x000000000002cbfa       0x4c ../../lib/micro-ecc/lib_51_UECC_LIB.a(uECC.c.obj)
 .text.uECC_vli_nativeToBytes
                0x000000000002cc46       0x2a ../../lib/micro-ecc/lib_51_UECC_LIB.a(uECC.c.obj)
 .text.uECC_vli_bytesToNative
                0x000000000002cc70       0x56 ../../lib/micro-ecc/lib_51_UECC_LIB.a(uECC.c.obj)
 *fill*         0x000000000002ccc6        0x2 
 .text.uECC_generate_random_int
                0x000000000002ccc8       0x84 ../../lib/micro-ecc/lib_51_UECC_LIB.a(uECC.c.obj)
 .text.default_RNG
                0x000000000002cd4c        0xc ../../lib/micro-ecc/lib_51_UECC_LIB.a(uECC.c.obj)
 .text.uECC_secp256r1
                0x000000000002cd58        0x8 ../../lib/micro-ecc/lib_51_UECC_LIB.a(uECC.c.obj)
                0x000000000002cd58                uECC_secp256r1
 .text.uECC_make_key
                0x000000000002cd60       0x88 ../../lib/micro-ecc/lib_51_UECC_LIB.a(uECC.c.obj)
                0x000000000002cd60                uECC_make_key
 .text.uECC_shared_secret
                0x000000000002cde8       0xc8 ../../lib/micro-ecc/lib_51_UECC_LIB.a(uECC.c.obj)
                0x000000000002cde8                uECC_shared_secret
 .text.uECC_valid_point
                0x000000000002ceb0       0x92 ../../lib/micro-ecc/lib_51_UECC_LIB.a(uECC.c.obj)
                0x000000000002ceb0                uECC_valid_point
 .text.uECC_valid_public_key
                0x000000000002cf42       0x32 ../../lib/micro-ecc/lib_51_UECC_LIB.a(uECC.c.obj)
                0x000000000002cf42                uECC_valid_public_key
 .text._GetAvailWriteSpace
                0x000000000002cf74       0x18 ../../lib/rtt/lib_51_RTT_LIB.a(SEGGER_RTT.c.obj)
 .text._WriteNoCheck
                0x000000000002cf8c       0x3a ../../lib/rtt/lib_51_RTT_LIB.a(SEGGER_RTT.c.obj)
 .text._WriteBlocking
                0x000000000002cfc6       0x6c ../../lib/rtt/lib_51_RTT_LIB.a(SEGGER_RTT.c.obj)
 *fill*         0x000000000002d032        0x2 
 .text._DoInit  0x000000000002d034       0x60 ../../lib/rtt/lib_51_RTT_LIB.a(SEGGER_RTT.c.obj)
 .text.SEGGER_RTT_ReadNoLock
                0x000000000002d094       0xd8 ../../lib/rtt/lib_51_RTT_LIB.a(SEGGER_RTT.c.obj)
                0x000000000002d094                SEGGER_RTT_ReadNoLock
 .text.SEGGER_RTT_Read
                0x000000000002d16c       0x1a ../../lib/rtt/lib_51_RTT_LIB.a(SEGGER_RTT.c.obj)
                0x000000000002d16c                SEGGER_RTT_Read
 *fill*         0x000000000002d186        0x2 
 .text.SEGGER_RTT_WriteNoLock
                0x000000000002d188       0x70 ../../lib/rtt/lib_51_RTT_LIB.a(SEGGER_RTT.c.obj)
                0x000000000002d188                SEGGER_RTT_WriteNoLock
 .text.SEGGER_RTT_Write
                0x000000000002d1f8       0x34 ../../lib/rtt/lib_51_RTT_LIB.a(SEGGER_RTT.c.obj)
                0x000000000002d1f8                SEGGER_RTT_Write
 .text.SEGGER_RTT_GetKey
                0x000000000002d22c       0x22 ../../lib/rtt/lib_51_RTT_LIB.a(SEGGER_RTT.c.obj)
                0x000000000002d22c                SEGGER_RTT_GetKey
 .text._StoreChar
                0x000000000002d24e       0x40 ../../lib/rtt/lib_51_RTT_LIB.a(SEGGER_RTT_printf.c.obj)
 *fill*         0x000000000002d28e        0x2 
 .text._PrintUnsigned
                0x000000000002d290      0x114 ../../lib/rtt/lib_51_RTT_LIB.a(SEGGER_RTT_printf.c.obj)
 .text.SEGGER_RTT_vprintf
                0x000000000002d3a4      0x2ee ../../lib/rtt/lib_51_RTT_LIB.a(SEGGER_RTT_printf.c.obj)
                0x000000000002d3a4                SEGGER_RTT_vprintf
 .text.SEGGER_RTT_printf
                0x000000000002d692       0x1a ../../lib/rtt/lib_51_RTT_LIB.a(SEGGER_RTT_printf.c.obj)
                0x000000000002d692                SEGGER_RTT_printf
 .text          0x000000000002d6ac      0x114 /usr/bin/../lib/gcc/arm-none-eabi/6.3.1/thumb/v6-m/libgcc.a(_udivsi3.o)
                0x000000000002d6ac                __udivsi3
                0x000000000002d6ac                __aeabi_uidiv
                0x000000000002d7b8                __aeabi_uidivmod
 .text          0x000000000002d7c0      0x1d4 /usr/bin/../lib/gcc/arm-none-eabi/6.3.1/thumb/v6-m/libgcc.a(_divsi3.o)
                0x000000000002d7c0                __aeabi_idiv
                0x000000000002d7c0                __divsi3
                0x000000000002d98c                __aeabi_idivmod
 .text          0x000000000002d994        0x4 /usr/bin/../lib/gcc/arm-none-eabi/6.3.1/thumb/v6-m/libgcc.a(_dvmd_tls.o)
                0x000000000002d994                __aeabi_ldiv0
                0x000000000002d994                __aeabi_idiv0
 .text          0x000000000002d998       0x54 /usr/bin/../lib/gcc/arm-none-eabi/6.3.1/thumb/v6-m/libgcc.a(_muldi3.o)
                0x000000000002d998                __aeabi_lmul
                0x000000000002d998                __muldi3
 .text.exit     0x000000000002d9ec       0x2c /usr/bin/../lib/gcc/arm-none-eabi/6.3.1/../../../../arm-none-eabi/lib/thumb/v6-m/libg_nano.a(lib_a-exit.o)
                0x000000000002d9ec                exit
 .text.__libc_init_array
                0x000000000002da18       0x48 /usr/bin/../lib/gcc/arm-none-eabi/6.3.1/../../../../arm-none-eabi/lib/thumb/v6-m/libg_nano.a(lib_a-init.o)
                0x000000000002da18                __libc_init_array
 .text.malloc   0x000000000002da60       0x14 /usr/bin/../lib/gcc/arm-none-eabi/6.3.1/../../../../arm-none-eabi/lib/thumb/v6-m/libg_nano.a(lib_a-malloc.o)
                0x000000000002da60                malloc
 .text.free     0x000000000002da74       0x14 /usr/bin/../lib/gcc/arm-none-eabi/6.3.1/../../../../arm-none-eabi/lib/thumb/v6-m/libg_nano.a(lib_a-malloc.o)
                0x000000000002da74                free
 .text.memcmp   0x000000000002da88       0x1e /usr/bin/../lib/gcc/arm-none-eabi/6.3.1/../../../../arm-none-eabi/lib/thumb/v6-m/libg_nano.a(lib_a-memcmp.o)
                0x000000000002da88                memcmp
 .text.memcpy   0x000000000002daa6       0x12 /usr/bin/../lib/gcc/arm-none-eabi/6.3.1/../../../../arm-none-eabi/lib/thumb/v6-m/libg_nano.a(lib_a-memcpy-stub.o)
                0x000000000002daa6                memcpy
 .text.memset   0x000000000002dab8       0x10 /usr/bin/../lib/gcc/arm-none-eabi/6.3.1/../../../../arm-none-eabi/lib/thumb/v6-m/libg_nano.a(lib_a-memset.o)
                0x000000000002dab8                memset
 .text._free_r  0x000000000002dac8       0x94 /usr/bin/../lib/gcc/arm-none-eabi/6.3.1/../../../../arm-none-eabi/lib/thumb/v6-m/libg_nano.a(lib_a-nano-freer.o)
                0x000000000002dac8                _free_r
 .text._malloc_r
                0x000000000002db5c       0xbc /usr/bin/../lib/gcc/arm-none-eabi/6.3.1/../../../../arm-none-eabi/lib/thumb/v6-m/libg_nano.a(lib_a-nano-mallocr.o)
                0x000000000002db5c                _malloc_r
 .text._sbrk_r  0x000000000002dc18       0x24 /usr/bin/../lib/gcc/arm-none-eabi/6.3.1/../../../../arm-none-eabi/lib/thumb/v6-m/libg_nano.a(lib_a-sbrkr.o)
                0x000000000002dc18                _sbrk_r
 .text.strcpy   0x000000000002dc3c       0x10 /usr/bin/../lib/gcc/arm-none-eabi/6.3.1/../../../../arm-none-eabi/lib/thumb/v6-m/libg_nano.a(lib_a-strcpy.o)
                0x000000000002dc3c                strcpy
 .text          0x000000000002dc4c        0xe /usr/bin/../lib/gcc/arm-none-eabi/6.3.1/../../../../arm-none-eabi/lib/thumb/v6-m/libg_nano.a(lib_a-strlen.o)
                0x000000000002dc4c                strlen
 .text.strrchr  0x000000000002dc5a       0x24 /usr/bin/../lib/gcc/arm-none-eabi/6.3.1/../../../../arm-none-eabi/lib/thumb/v6-m/libg_nano.a(lib_a-strrchr.o)
                0x000000000002dc5a                strrchr
 .text.__malloc_lock
                0x000000000002dc7e        0x2 /usr/bin/../lib/gcc/arm-none-eabi/6.3.1/../../../../arm-none-eabi/lib/thumb/v6-m/libg_nano.a(lib_a-mlock.o)
                0x000000000002dc7e                __malloc_lock
 .text.__malloc_unlock
                0x000000000002dc80        0x2 /usr/bin/../lib/gcc/arm-none-eabi/6.3.1/../../../../arm-none-eabi/lib/thumb/v6-m/libg_nano.a(lib_a-mlock.o)
                0x000000000002dc80                __malloc_unlock
 .text.strchr   0x000000000002dc82       0x1c /usr/bin/../lib/gcc/arm-none-eabi/6.3.1/../../../../arm-none-eabi/lib/thumb/v6-m/libg_nano.a(lib_a-strchr.o)
                0x000000000002dc82                strchr
 *fill*         0x000000000002dc9e        0x2 
 .text._sbrk    0x000000000002dca0       0x1c /usr/bin/../lib/gcc/arm-none-eabi/6.3.1/../../../../arm-none-eabi/lib/thumb/v6-m/libnosys.a(sbrk.o)
                0x000000000002dca0                _sbrk
 .text._exit    0x000000000002dcbc        0x4 /usr/bin/../lib/gcc/arm-none-eabi/6.3.1/../../../../arm-none-eabi/lib/thumb/v6-m/libnosys.a(_exit.o)
                0x000000000002dcbc                _exit
 *(.init)
 .init          0x000000000002dcc0        0x4 /usr/bin/../lib/gcc/arm-none-eabi/6.3.1/thumb/v6-m/crti.o
                0x000000000002dcc0                _init
 .init          0x000000000002dcc4        0x8 /usr/bin/../lib/gcc/arm-none-eabi/6.3.1/thumb/v6-m/crtn.o
 *(.fini)
 .fini          0x000000000002dccc        0x4 /usr/bin/../lib/gcc/arm-none-eabi/6.3.1/thumb/v6-m/crti.o
                0x000000000002dccc                _fini
 .fini          0x000000000002dcd0        0x8 /usr/bin/../lib/gcc/arm-none-eabi/6.3.1/thumb/v6-m/crtn.o
 *crtbegin.o(.ctors)
 *crtbegin?.o(.ctors)
 *(EXCLUDE_FILE(*crtend.o *crtend?.o) .ctors)
 *(SORT(.ctors.*))
 *(.ctors)
 *crtbegin.o(.dtors)
 *crtbegin?.o(.dtors)
 *(EXCLUDE_FILE(*crtend.o *crtend?.o) .dtors)
 *(SORT(.dtors.*))
 *(.dtors)
 *(.rodata*)
 .rodata.mesh_evt_handler
                0x000000000002dcd8       0x30 CMakeFiles/51_pb_remote_client.dir/src/main.c.obj
 .rodata.main   0x000000000002dd08       0xdc CMakeFiles/51_pb_remote_client.dir/src/main.c.obj
 .rodata        0x000000000002dde4       0x10 CMakeFiles/51_pb_remote_client.dir/src/main.c.obj
 .rodata.USAGE_STRING
                0x000000000002ddf4      0x11b CMakeFiles/51_pb_remote_client.dir/src/main.c.obj
                0x000000000002ddf4                USAGE_STRING
 *fill*         0x000000000002df0f        0x1 
 .rodata.m_netkey
                0x000000000002df10       0x10 CMakeFiles/51_pb_remote_client.dir/src/main.c.obj
 .rodata.main.str1.4
                0x000000000002df20      0x1a7 CMakeFiles/51_pb_remote_client.dir/src/main.c.obj
 *fill*         0x000000000002e0c7        0x1 
 .rodata.mesh_evt_handler.str1.4
                0x000000000002e0c8      0x15f CMakeFiles/51_pb_remote_client.dir/src/main.c.obj
 *fill*         0x000000000002e227        0x1 
 .rodata.remote_client_event_cb.str1.4
                0x000000000002e228       0x76 CMakeFiles/51_pb_remote_client.dir/src/main.c.obj
 *fill*         0x000000000002e29e        0x2 
 .rodata.pb_remote_client_event_link_status_cb
                0x000000000002e2a0       0x18 CMakeFiles/51_pb_remote_client.dir/__/__/mesh/models/pb_remote/src/pb_remote_client.c.obj
 .rodata        0x000000000002e2b8       0x2a CMakeFiles/51_pb_remote_client.dir/__/__/mesh/models/pb_remote/src/pb_remote_client.c.obj
 *fill*         0x000000000002e2e2        0x2 
 .rodata.client_reliable_status_cb.str1.4
                0x000000000002e2e4       0x41 CMakeFiles/51_pb_remote_client.dir/__/__/mesh/models/pb_remote/src/pb_remote_client.c.obj
 *fill*         0x000000000002e325        0x3 
 .rodata.m_opcode_handlers
                0x000000000002e328       0x38 CMakeFiles/51_pb_remote_client.dir/__/__/mesh/models/pb_remote/src/pb_remote_client.c.obj
 .rodata.m_pb_remote_client_event_handler_callbacks
                0x000000000002e360       0x38 CMakeFiles/51_pb_remote_client.dir/__/__/mesh/models/pb_remote/src/pb_remote_client.c.obj
                0x000000000002e360                m_pb_remote_client_event_handler_callbacks
 .rodata.m_prov_interface
                0x000000000002e398       0x14 CMakeFiles/51_pb_remote_client.dir/__/__/mesh/models/pb_remote/src/pb_remote_client.c.obj
                0x000000000002e398                m_prov_interface
 .rodata.pb_remote_client_event_link_close_cb.str1.4
                0x000000000002e3ac       0x2a CMakeFiles/51_pb_remote_client.dir/__/__/mesh/models/pb_remote/src/pb_remote_client.c.obj
 *fill*         0x000000000002e3d6        0x2 
 .rodata.pb_remote_client_event_link_status_cb.str1.4
                0x000000000002e3d8       0x68 CMakeFiles/51_pb_remote_client.dir/__/__/mesh/models/pb_remote/src/pb_remote_client.c.obj
 .rodata.pb_remote_client_event_link_status_report_cb.str1.4
                0x000000000002e440       0x50 CMakeFiles/51_pb_remote_client.dir/__/__/mesh/models/pb_remote/src/pb_remote_client.c.obj
 .rodata.pb_remote_client_event_local_packet_cb.str1.4
                0x000000000002e490       0x1c CMakeFiles/51_pb_remote_client.dir/__/__/mesh/models/pb_remote/src/pb_remote_client.c.obj
 .rodata.pb_remote_client_event_packet_transfer_cb.str1.4
                0x000000000002e4ac       0x2d CMakeFiles/51_pb_remote_client.dir/__/__/mesh/models/pb_remote/src/pb_remote_client.c.obj
 *fill*         0x000000000002e4d9        0x3 
 .rodata.pb_remote_client_event_scan_cancel_cb.str1.4
                0x000000000002e4dc       0x1e CMakeFiles/51_pb_remote_client.dir/__/__/mesh/models/pb_remote/src/pb_remote_client.c.obj
 *fill*         0x000000000002e4fa        0x2 
 .rodata.pb_remote_client_event_scan_start_cb.str1.4
                0x000000000002e4fc       0x1d CMakeFiles/51_pb_remote_client.dir/__/__/mesh/models/pb_remote/src/pb_remote_client.c.obj
 *fill*         0x000000000002e519        0x3 
 .rodata.pb_remote_client_event_scan_status_cb.str1.4
                0x000000000002e51c       0x64 CMakeFiles/51_pb_remote_client.dir/__/__/mesh/models/pb_remote/src/pb_remote_client.c.obj
 .rodata.pb_remote_client_event_transfer_status_cb.str1.4
                0x000000000002e580       0x81 CMakeFiles/51_pb_remote_client.dir/__/__/mesh/models/pb_remote/src/pb_remote_client.c.obj
 *fill*         0x000000000002e601        0x3 
 .rodata.pb_remote_client_event_transfer_status_report_cb.str1.4
                0x000000000002e604       0x43 CMakeFiles/51_pb_remote_client.dir/__/__/mesh/models/pb_remote/src/pb_remote_client.c.obj
 *fill*         0x000000000002e647        0x1 
 .rodata.pb_remote_client_event_unprov_number_cb.str1.4
                0x000000000002e648       0x2b CMakeFiles/51_pb_remote_client.dir/__/__/mesh/models/pb_remote/src/pb_remote_client.c.obj
 *fill*         0x000000000002e673        0x1 
 .rodata.pb_remote_client_event_unprov_uuid_cb.str1.4
                0x000000000002e674       0x24 CMakeFiles/51_pb_remote_client.dir/__/__/mesh/models/pb_remote/src/pb_remote_client.c.obj
 .rodata.pb_remote_client_process.str1.4
                0x000000000002e698       0x23 CMakeFiles/51_pb_remote_client.dir/__/__/mesh/models/pb_remote/src/pb_remote_client.c.obj
 *fill*         0x000000000002e6bb        0x1 
 .rodata.mesh_evt_cb.str1.4
                0x000000000002e6bc       0x13 CMakeFiles/51_pb_remote_client.dir/__/__/mesh/src/access/access.c.obj
 *fill*         0x000000000002e6cf        0x1 
 .rodata.packet_tx.str1.4
                0x000000000002e6d0       0x5b CMakeFiles/51_pb_remote_client.dir/__/__/mesh/src/access/access.c.obj
 *fill*         0x000000000002e72b        0x1 
 .rodata.m_flash_groups
                0x000000000002e72c       0xc0 CMakeFiles/51_pb_remote_client.dir/__/__/mesh/src/access/device_state_manager.c.obj
 .rodata.HardFault_Handler.str1.4
                0x000000000002e7ec        0xe CMakeFiles/51_pb_remote_client.dir/__/nrf_mesh_sdk.c.obj
 *fill*         0x000000000002e7fa        0x2 
 .rodata.app_error_handler.str1.4
                0x000000000002e7fc       0x1d CMakeFiles/51_pb_remote_client.dir/__/nrf_mesh_sdk.c.obj
 *fill*         0x000000000002e819        0x3 
 .rodata.mesh_assert_handler.str1.4
                0x000000000002e81c       0x19 CMakeFiles/51_pb_remote_client.dir/__/nrf_mesh_sdk.c.obj
 *fill*         0x000000000002e835        0x3 
 .rodata.mesh_softdevice_enable.str1.4
                0x000000000002e838       0x65 CMakeFiles/51_pb_remote_client.dir/__/nrf_mesh_sdk.c.obj
 *fill*         0x000000000002e89d        0x3 
 .rodata.softdevice_assert_handler.str1.4
                0x000000000002e8a0       0x65 CMakeFiles/51_pb_remote_client.dir/__/nrf_mesh_sdk.c.obj
 *fill*         0x000000000002e905        0x3 
 .rodata.pdu_sizes.8302
                0x000000000002e908        0xa ../../mesh/lib_51_MBTLE_PB_ADV_ER.a(provisioning.c.obj)
 *fill*         0x000000000002e912        0x2 
 .rodata.prov_cb_pkt_in.str1.4
                0x000000000002e914       0x60 ../../mesh/lib_51_MBTLE_PB_ADV_ER.a(provisioning.c.obj)
 .rodata.add_active_bearer.str1.4
                0x000000000002e974       0x2c ../../mesh/lib_51_MBTLE_PB_ADV_ER.a(prov_bearer_adv.c.obj)
 .rodata.crctable.8268
                0x000000000002e9a0      0x100 ../../mesh/lib_51_MBTLE_PB_ADV_ER.a(prov_bearer_adv.c.obj)
 .rodata.interface.8482
                0x000000000002eaa0       0x14 ../../mesh/lib_51_MBTLE_PB_ADV_ER.a(prov_bearer_adv.c.obj)
 .rodata.prov_bearer_adv_pkt_in.str1.4
                0x000000000002eab4      0x283 ../../mesh/lib_51_MBTLE_PB_ADV_ER.a(prov_bearer_adv.c.obj)
 *fill*         0x000000000002ed37        0x1 
 .rodata.tx_retry_cb.str1.4
                0x000000000002ed38       0x64 ../../mesh/lib_51_MBTLE_PB_ADV_ER.a(prov_bearer_adv.c.obj)
 .rodata.alphanumeric.8393
                0x000000000002ed9c       0x25 ../../mesh/lib_51_MBTLE_PB_ADV_ER.a(prov_utils.c.obj)
 *fill*         0x000000000002edc1        0x3 
 .rodata.numeric_max.8387
                0x000000000002edc4       0x24 ../../mesh/lib_51_MBTLE_PB_ADV_ER.a(prov_utils.c.obj)
 .rodata.prov_utils_authentication_values_derive.str1.4
                0x000000000002ede8        0x5 ../../mesh/lib_51_MBTLE_PB_ADV_ER.a(prov_utils.c.obj)
 *fill*         0x000000000002eded        0x3 
 .rodata.prov_utils_derive_keys.str1.4
                0x000000000002edf0       0x15 ../../mesh/lib_51_MBTLE_PB_ADV_ER.a(prov_utils.c.obj)
 *fill*         0x000000000002ee05        0x3 
 .rodata.prov_provisioner_pkt_in
                0x000000000002ee08       0x28 ../../mesh/lib_51_MBTLE_PB_ADV_ER.a(prov_provisioner.c.obj)
 .rodata.m_prov_callbacks
                0x000000000002ee30       0x10 ../../mesh/lib_51_MBTLE_PB_ADV_ER.a(prov_provisioner.c.obj)
 .rodata        0x000000000002ee40       0x14 ../../mesh/lib_51_MBTLE_CORE.a(bearer_adv.c.obj)
 .rodata.bearer_adv_advertiser_init.str1.4
                0x000000000002ee54       0x39 ../../mesh/lib_51_MBTLE_CORE.a(bearer_adv.c.obj)
 *fill*         0x000000000002ee8d        0x3 
 .rodata.bearer_adv_init.str1.4
                0x000000000002ee90       0x1d ../../mesh/lib_51_MBTLE_CORE.a(bearer_adv.c.obj)
 *fill*         0x000000000002eead        0x3 
 .rodata.scan_order.str1.4
                0x000000000002eeb0       0x86 ../../mesh/lib_51_MBTLE_CORE.a(bearer_adv.c.obj)
 *fill*         0x000000000002ef36        0x2 
 .rodata.beacon_pkt_in.str1.4
                0x000000000002ef38       0x81 ../../mesh/lib_51_MBTLE_CORE.a(beacon.c.obj)
                                         0x8c (size before relaxing)
 *fill*         0x000000000002efb9        0x3 
 .rodata        0x000000000002efbc       0x1c ../../mesh/lib_51_MBTLE_CORE.a(bearer.c.obj)
 .rodata.bearer_rx_cb.str1.4
                0x000000000002efd8       0x76 ../../mesh/lib_51_MBTLE_CORE.a(bearer.c.obj)
 *fill*         0x000000000002f04e        0x2 
 .rodata        0x000000000002f050       0x18 ../../mesh/lib_51_MBTLE_CORE.a(enc.c.obj)
 .rodata.log_callback_rtt.str1.4
                0x000000000002f068       0x15 ../../mesh/lib_51_MBTLE_CORE.a(log.c.obj)
 *fill*         0x000000000002f07d        0x3 
 .rodata.str1.4
                0x000000000002f080       0x11 ../../mesh/lib_51_MBTLE_CORE.a(log.c.obj)
 *fill*         0x000000000002f091        0x3 
 .rodata.net_beacon_init.str1.4
                0x000000000002f094        0x5 ../../mesh/lib_51_MBTLE_CORE.a(net_beacon.c.obj)
 *fill*         0x000000000002f099        0x3 
 .rodata.nrf_mesh_adv_send.str1.4
                0x000000000002f09c       0x78 ../../mesh/lib_51_MBTLE_CORE.a(nrf_mesh.c.obj)
 .rodata.nrf_mesh_process.str1.4
                0x000000000002f114       0x76 ../../mesh/lib_51_MBTLE_CORE.a(nrf_mesh.c.obj)
 *fill*         0x000000000002f18a        0x2 
 .rodata        0x000000000002f18c        0x7 ../../mesh/lib_51_MBTLE_CORE.a(nrf_mesh_keygen.c.obj)
 *fill*         0x000000000002f193        0x1 
 .rodata.types_lookup.6530
                0x000000000002f194        0x4 ../../mesh/lib_51_MBTLE_CORE.a(nrf_mesh_utils.c.obj)
 .rodata.channel_rf_offsets.6165
                0x000000000002f198       0x28 ../../mesh/lib_51_MBTLE_CORE.a(radio_config.c.obj)
 .rodata.sar_segment_send.str1.4
                0x000000000002f1c0       0x39 ../../mesh/lib_51_MBTLE_CORE.a(transport.c.obj)
 *fill*         0x000000000002f1f9        0x3 
 .rodata.test_transport_decrypt.str1.4
                0x000000000002f1fc       0x5f ../../mesh/lib_51_MBTLE_CORE.a(transport.c.obj)
 *fill*         0x000000000002f25b        0x1 
 .rodata.transport_pkt_in.str1.4
                0x000000000002f25c      0x1b0 ../../mesh/lib_51_MBTLE_CORE.a(transport.c.obj)
 .rodata.transport_sar_process.str1.4
                0x000000000002f40c       0xbb ../../mesh/lib_51_MBTLE_CORE.a(transport.c.obj)
 *fill*         0x000000000002f4c7        0x1 
 .rodata.transport_tx.str1.4
                0x000000000002f4c8       0x30 ../../mesh/lib_51_MBTLE_CORE.a(transport.c.obj)
 .rodata.transport_tx_sar.str1.4
                0x000000000002f4f8       0x99 ../../mesh/lib_51_MBTLE_CORE.a(transport.c.obj)
 *fill*         0x000000000002f591        0x3 
 .rodata.trs_sar_drop_session.str1.4
                0x000000000002f594       0x18 ../../mesh/lib_51_MBTLE_CORE.a(transport.c.obj)
                                         0x48 (size before relaxing)
 .rodata.trs_sar_pkt_decrypt.str1.4
                0x000000000002f5ac       0x61 ../../mesh/lib_51_MBTLE_CORE.a(transport.c.obj)
                                         0x69 (size before relaxing)
 *fill*         0x000000000002f60d        0x3 
 .rodata.trs_sar_session_cb.str1.4
                0x000000000002f610       0x1b ../../mesh/lib_51_MBTLE_CORE.a(transport.c.obj)
 *fill*         0x000000000002f62b        0x1 
 .rodata.process_action_queue
                0x000000000002f62c       0x14 ../../mesh/lib_51_MBTLE_CORE.a(flash_manager.c.obj)
 .rodata.INVALID_HEADER
                0x000000000002f640        0x4 ../../mesh/lib_51_MBTLE_CORE.a(flash_manager.c.obj)
                0x000000000002f640                INVALID_HEADER
 .rodata.PADDING_HEADER
                0x000000000002f644        0x4 ../../mesh/lib_51_MBTLE_CORE.a(flash_manager.c.obj)
                0x000000000002f644                PADDING_HEADER
 .rodata.SEAL_HEADER
                0x000000000002f648        0x4 ../../mesh/lib_51_MBTLE_CORE.a(flash_manager.c.obj)
                0x000000000002f648                SEAL_HEADER
 .rodata.process_action_queue.str1.4
                0x000000000002f64c       0x4d ../../mesh/lib_51_MBTLE_CORE.a(flash_manager.c.obj)
                                         0x7e (size before relaxing)
 *fill*         0x000000000002f699        0x3 
 .rodata.flash_manager_defrag.str1.4
                0x000000000002f69c       0x54 ../../mesh/lib_51_MBTLE_CORE.a(flash_manager_defrag.c.obj)
                                         0x82 (size before relaxing)
 .rodata.m_procedure_steps
                0x000000000002f6f0       0x28 ../../mesh/lib_51_MBTLE_CORE.a(flash_manager_defrag.c.obj)
 .rodata.timeslot_init
                0x000000000002f718       0x20 ../../mesh/lib_51_MBTLE_CORE.a(timeslot.c.obj)
 .rodata.radio_signal_callback
                0x000000000002f738       0x14 ../../mesh/lib_51_MBTLE_CORE.a(timeslot.c.obj)
 .rodata.Rb.5041
                0x000000000002f74c       0x10 ../../mesh/lib_51_MBTLE_CORE.a(aes_cmac.c.obj)
 .rodata.network_pkt_in.str1.4
                0x000000000002f75c       0x13 ../../mesh/lib_51_MBTLE_CORE.a(network.c.obj)
                                         0x1c (size before relaxing)
 *fill*         0x000000000002f76f        0x1 
 .rodata.network_pkt_out.str1.4
                0x000000000002f770       0x25 ../../mesh/lib_51_MBTLE_CORE.a(network.c.obj)
 *fill*         0x000000000002f795        0x3 
 .rodata.network_pkt_relay.str1.4
                0x000000000002f798       0x75 ../../mesh/lib_51_MBTLE_CORE.a(network.c.obj)
                                         0xa6 (size before relaxing)
 *fill*         0x000000000002f80d        0x3 
 .rodata.m_all_operations
                0x000000000002f810       0x10 ../../mesh/lib_51_MBTLE_CORE.a(mesh_flash.c.obj)
 .rodata.curve_secp256r1
                0x000000000002f820       0xb0 ../../lib/micro-ecc/lib_51_UECC_LIB.a(uECC.c.obj)
 .rodata._DoInit.str1.4
                0x000000000002f8d0       0x18 ../../lib/rtt/lib_51_RTT_LIB.a(SEGGER_RTT.c.obj)
                                         0x17 (size before relaxing)
 .rodata._aV2C.4378
                0x000000000002f8e8       0x10 ../../lib/rtt/lib_51_RTT_LIB.a(SEGGER_RTT_printf.c.obj)
 .rodata._global_impure_ptr
                0x000000000002f8f8        0x4 /usr/bin/../lib/gcc/arm-none-eabi/6.3.1/../../../../arm-none-eabi/lib/thumb/v6-m/libg_nano.a(lib_a-impure.o)
                0x000000000002f8f8                _global_impure_ptr
 *(.eh_frame*)
 .eh_frame      0x000000000002f8fc        0x0 /usr/bin/../lib/gcc/arm-none-eabi/6.3.1/thumb/v6-m/crtbegin.o
 .eh_frame      0x000000000002f8fc        0x4 /usr/bin/../lib/gcc/arm-none-eabi/6.3.1/thumb/v6-m/crtend.o

.glue_7         0x000000000002f900        0x0
 .glue_7        0x000000000002f900        0x0 linker stubs

.glue_7t        0x000000000002f900        0x0
 .glue_7t       0x000000000002f900        0x0 linker stubs

.vfp11_veneer   0x000000000002f900        0x0
 .vfp11_veneer  0x000000000002f900        0x0 linker stubs

.v4_bx          0x000000000002f900        0x0
 .v4_bx         0x000000000002f900        0x0 linker stubs

.iplt           0x000000000002f900        0x0
 .iplt          0x000000000002f900        0x0 /usr/bin/../lib/gcc/arm-none-eabi/6.3.1/thumb/v6-m/crtbegin.o

.ARM.extab
 *(.ARM.extab* .gnu.linkonce.armextab.*)
                0x000000000002f900                __exidx_start = .

.ARM.exidx      0x000000000002f900        0x8
 *(.ARM.exidx* .gnu.linkonce.armexidx.*)
 .ARM.exidx     0x000000000002f900        0x8 /usr/bin/../lib/gcc/arm-none-eabi/6.3.1/../../../../arm-none-eabi/lib/thumb/v6-m/crt0.o
                0x000000000002f908                __exidx_end = .
                0x000000000002f908                __etext = .

.rel.dyn        0x000000000002f908        0x0
 .rel.iplt      0x000000000002f908        0x0 /usr/bin/../lib/gcc/arm-none-eabi/6.3.1/thumb/v6-m/crtbegin.o

.data           0x00000000200022d8       0xf8 load address 0x000000000002f908
                0x00000000200022d8                __data_start__ = .
 *(vtable)
 *(.data*)
 .data.m_next_unprov_address
                0x00000000200022d8        0x2 CMakeFiles/51_pb_remote_client.dir/src/main.c.obj
 *fill*         0x00000000200022da        0x2 
 .data.flash_add_mem_available_struct.7923
                0x00000000200022dc       0x10 CMakeFiles/51_pb_remote_client.dir/__/__/mesh/src/access/access.c.obj
 .data.m_default_ttl
                0x00000000200022ec        0x1 CMakeFiles/51_pb_remote_client.dir/__/__/mesh/src/access/access.c.obj
 *fill*         0x00000000200022ed        0x3 
 .data.mem_listener.8204
                0x00000000200022f0       0x10 CMakeFiles/51_pb_remote_client.dir/__/__/mesh/src/access/device_state_manager.c.obj
 .data.m_unprov_report
                0x0000000020002300        0x1 ../../mesh/lib_51_MBTLE_PB_ADV_ER.a(prov_beacon.c.obj)
 .data.m_radio_state
                0x0000000020002301        0x1 ../../mesh/lib_51_MBTLE_CORE.a(radio.c.obj)
 *fill*         0x0000000020002302        0x2 
 .data.g_log_debug_level
                0x0000000020002304        0x4 ../../mesh/lib_51_MBTLE_CORE.a(log.c.obj)
                0x0000000020002304                g_log_debug_level
 .data.g_log_debug_msk
                0x0000000020002308        0x4 ../../mesh/lib_51_MBTLE_CORE.a(log.c.obj)
                0x0000000020002308                g_log_debug_msk
 .data.g_log_hex_digits
                0x000000002000230c        0x4 ../../mesh/lib_51_MBTLE_CORE.a(log.c.obj)
                0x000000002000230c                g_log_hex_digits
 .data.m_log_callback
                0x0000000020002310        0x4 ../../mesh/lib_51_MBTLE_CORE.a(log.c.obj)
                0x0000000020002310                m_log_callback
 .data.mem_listener.7415
                0x0000000020002314       0x10 ../../mesh/lib_51_MBTLE_CORE.a(net_state.c.obj)
 .data.mem_listener.7420
                0x0000000020002324       0x10 ../../mesh/lib_51_MBTLE_CORE.a(net_state.c.obj)
 .data.mem_listener.7434
                0x0000000020002334       0x10 ../../mesh/lib_51_MBTLE_CORE.a(net_state.c.obj)
 .data.m_lfclk_ppm
                0x0000000020002344        0x4 ../../mesh/lib_51_MBTLE_CORE.a(timeslot.c.obj)
 .data.m_negotiate_timeslot_length
                0x0000000020002348        0x4 ../../mesh/lib_51_MBTLE_CORE.a(timeslot.c.obj)
 .data.m_radio_request_earliest
                0x000000002000234c       0x10 ../../mesh/lib_51_MBTLE_CORE.a(timeslot.c.obj)
 .data.g_rng_function
                0x000000002000235c        0x4 ../../lib/micro-ecc/lib_51_UECC_LIB.a(uECC.c.obj)
 .data._impure_ptr
                0x0000000020002360        0x4 /usr/bin/../lib/gcc/arm-none-eabi/6.3.1/../../../../arm-none-eabi/lib/thumb/v6-m/libg_nano.a(lib_a-impure.o)
                0x0000000020002360                _impure_ptr
 .data.impure_data
                0x0000000020002364       0x60 /usr/bin/../lib/gcc/arm-none-eabi/6.3.1/../../../../arm-none-eabi/lib/thumb/v6-m/libg_nano.a(lib_a-impure.o)
                0x00000000200023c4                . = ALIGN (0x4)
                0x00000000200023c4                PROVIDE (__preinit_array_start, .)
 *(.preinit_array)
                0x00000000200023c4                PROVIDE (__preinit_array_end, .)
                0x00000000200023c4                . = ALIGN (0x4)
                0x00000000200023c4                PROVIDE (__init_array_start, .)
 *(SORT(.init_array.*))
 *(.init_array)
 .init_array    0x00000000200023c4        0x4 /usr/bin/../lib/gcc/arm-none-eabi/6.3.1/thumb/v6-m/crtbegin.o
                0x00000000200023c8                PROVIDE (__init_array_end, .)
                0x00000000200023c8                . = ALIGN (0x4)
                [!provide]                        PROVIDE (__fini_array_start, .)
 *(SORT(.fini_array.*))
 *(.fini_array)
 .fini_array    0x00000000200023c8        0x4 /usr/bin/../lib/gcc/arm-none-eabi/6.3.1/thumb/v6-m/crtbegin.o
                [!provide]                        PROVIDE (__fini_array_end, .)
 *(.jcr*)
 .jcr           0x00000000200023cc        0x0 /usr/bin/../lib/gcc/arm-none-eabi/6.3.1/thumb/v6-m/crtbegin.o
 .jcr           0x00000000200023cc        0x4 /usr/bin/../lib/gcc/arm-none-eabi/6.3.1/thumb/v6-m/crtend.o
                0x00000000200023d0                . = ALIGN (0x4)
                0x00000000200023d0                __data_end__ = .

.igot.plt       0x00000000200023d0        0x0 load address 0x000000000002fa00
 .igot.plt      0x00000000200023d0        0x0 /usr/bin/../lib/gcc/arm-none-eabi/6.3.1/thumb/v6-m/crtbegin.o

.bss            0x00000000200023d0     0x29a4 load address 0x000000000002fa00
                0x00000000200023d0                . = ALIGN (0x4)
                0x00000000200023d0                __bss_start__ = .
 *(.bss*)
 .bss           0x00000000200023d0       0x1c /usr/bin/../lib/gcc/arm-none-eabi/6.3.1/thumb/v6-m/crtbegin.o
 .bss.m_appkey_handles
                0x00000000200023ec        0x2 CMakeFiles/51_pb_remote_client.dir/src/main.c.obj
 *fill*         0x00000000200023ee        0x2 
 .bss.m_device_address_handles
                0x00000000200023f0        0x8 CMakeFiles/51_pb_remote_client.dir/src/main.c.obj
 .bss.m_device_state
                0x00000000200023f8        0x1 CMakeFiles/51_pb_remote_client.dir/src/main.c.obj
 *fill*         0x00000000200023f9        0x3 
 .bss.m_devkey_handles
                0x00000000200023fc        0xa CMakeFiles/51_pb_remote_client.dir/src/main.c.obj
 *fill*         0x0000000020002406        0x2 
 .bss.m_evt_handler
                0x0000000020002408        0x8 CMakeFiles/51_pb_remote_client.dir/src/main.c.obj
 .bss.m_netkey_handles
                0x0000000020002410        0x2 CMakeFiles/51_pb_remote_client.dir/src/main.c.obj
 .bss.m_next_unprov_index
                0x0000000020002412        0x1 CMakeFiles/51_pb_remote_client.dir/src/main.c.obj
 *fill*         0x0000000020002413        0x1 
 .bss.m_num_elements_of_last_guy
                0x0000000020002414        0x2 CMakeFiles/51_pb_remote_client.dir/src/main.c.obj
 *fill*         0x0000000020002416        0x2 
 .bss.m_private_key
                0x0000000020002418       0x20 CMakeFiles/51_pb_remote_client.dir/src/main.c.obj
 .bss.m_prov_ctx
                0x0000000020002438      0x2c0 CMakeFiles/51_pb_remote_client.dir/src/main.c.obj
 .bss.m_public_key
                0x00000000200026f8       0x40 CMakeFiles/51_pb_remote_client.dir/src/main.c.obj
 .bss.m_remote_client
                0x0000000020002738       0x2c CMakeFiles/51_pb_remote_client.dir/src/main.c.obj
 .bss.m_is_interrupting
                0x0000000020002764        0x1 CMakeFiles/51_pb_remote_client.dir/__/__/mesh/models/pb_remote/src/pb_remote_client.c.obj
 *fill*         0x0000000020002765        0x3 
 .bss.m_packet  0x0000000020002768       0x41 CMakeFiles/51_pb_remote_client.dir/__/__/mesh/models/pb_remote/src/pb_remote_client.c.obj
 *fill*         0x00000000200027a9        0x3 
 .bss.m_pbr_client_event_queue
                0x00000000200027ac       0x14 CMakeFiles/51_pb_remote_client.dir/__/__/mesh/models/pb_remote/src/pb_remote_client.c.obj
 .bss.m_pbr_client_event_queue_buffer
                0x00000000200027c0       0x90 CMakeFiles/51_pb_remote_client.dir/__/__/mesh/models/pb_remote/src/pb_remote_client.c.obj
 .bss.mp_pb_remote_client_model
                0x0000000020002850        0x4 CMakeFiles/51_pb_remote_client.dir/__/__/mesh/models/pb_remote/src/pb_remote_client.c.obj
 .bss.m_element_pool
                0x0000000020002854        0x6 CMakeFiles/51_pb_remote_client.dir/__/__/mesh/src/access/access.c.obj
 *fill*         0x000000002000285a        0x2 
 .bss.m_evt_handler
                0x000000002000285c        0x8 CMakeFiles/51_pb_remote_client.dir/__/__/mesh/src/access/access.c.obj
 .bss.m_flash_manager
                0x0000000020002864       0x24 CMakeFiles/51_pb_remote_client.dir/__/__/mesh/src/access/access.c.obj
 .bss.m_flash_not_ready
                0x0000000020002888        0x1 CMakeFiles/51_pb_remote_client.dir/__/__/mesh/src/access/access.c.obj
 *fill*         0x0000000020002889        0x3 
 .bss.m_model_pool
                0x000000002000288c       0x34 CMakeFiles/51_pb_remote_client.dir/__/__/mesh/src/access/access.c.obj
 .bss.m_subscription_list_pool
                0x00000000200028c0        0x8 CMakeFiles/51_pb_remote_client.dir/__/__/mesh/src/access/access.c.obj
 .bss.m_reliable
                0x00000000200028c8       0x44 CMakeFiles/51_pb_remote_client.dir/__/__/mesh/src/access/access_reliable.c.obj
 .bss.m_addr_nonvirtual_allocated
                0x000000002000290c        0x4 CMakeFiles/51_pb_remote_client.dir/__/__/mesh/src/access/device_state_manager.c.obj
 .bss.m_addr_nonvirtual_needs_flashing
                0x0000000020002910        0x4 CMakeFiles/51_pb_remote_client.dir/__/__/mesh/src/access/device_state_manager.c.obj
 .bss.m_addr_unicast_allocated
                0x0000000020002914        0x4 CMakeFiles/51_pb_remote_client.dir/__/__/mesh/src/access/device_state_manager.c.obj
 .bss.m_addr_unicast_needs_flashing
                0x0000000020002918        0x4 CMakeFiles/51_pb_remote_client.dir/__/__/mesh/src/access/device_state_manager.c.obj
 .bss.m_addr_virtual_allocated
                0x000000002000291c        0x4 CMakeFiles/51_pb_remote_client.dir/__/__/mesh/src/access/device_state_manager.c.obj
 .bss.m_addr_virtual_needs_flashing
                0x0000000020002920        0x4 CMakeFiles/51_pb_remote_client.dir/__/__/mesh/src/access/device_state_manager.c.obj
 .bss.m_addresses
                0x0000000020002924       0x10 CMakeFiles/51_pb_remote_client.dir/__/__/mesh/src/access/device_state_manager.c.obj
 .bss.m_appkey_allocated
                0x0000000020002934        0x4 CMakeFiles/51_pb_remote_client.dir/__/__/mesh/src/access/device_state_manager.c.obj
 .bss.m_appkey_needs_flashing
                0x0000000020002938        0x4 CMakeFiles/51_pb_remote_client.dir/__/__/mesh/src/access/device_state_manager.c.obj
 .bss.m_appkeys
                0x000000002000293c       0x16 CMakeFiles/51_pb_remote_client.dir/__/__/mesh/src/access/device_state_manager.c.obj
 *fill*         0x0000000020002952        0x2 
 .bss.m_devkey_allocated
                0x0000000020002954        0x4 CMakeFiles/51_pb_remote_client.dir/__/__/mesh/src/access/device_state_manager.c.obj
 .bss.m_devkey_needs_flashing
                0x0000000020002958        0x4 CMakeFiles/51_pb_remote_client.dir/__/__/mesh/src/access/device_state_manager.c.obj
 .bss.m_devkeys
                0x000000002000295c       0x6e CMakeFiles/51_pb_remote_client.dir/__/__/mesh/src/access/device_state_manager.c.obj
 .bss.m_flash_is_available
                0x00000000200029ca        0x1 CMakeFiles/51_pb_remote_client.dir/__/__/mesh/src/access/device_state_manager.c.obj
 *fill*         0x00000000200029cb        0x1 
 .bss.m_flash_manager
                0x00000000200029cc       0x24 CMakeFiles/51_pb_remote_client.dir/__/__/mesh/src/access/device_state_manager.c.obj
 .bss.m_flash_mem_listener_update_all
                0x00000000200029f0       0x10 CMakeFiles/51_pb_remote_client.dir/__/__/mesh/src/access/device_state_manager.c.obj
 .bss.m_has_primary_subnet
                0x0000000020002a00        0x1 CMakeFiles/51_pb_remote_client.dir/__/__/mesh/src/access/device_state_manager.c.obj
 *fill*         0x0000000020002a01        0x3 
 .bss.m_local_unicast_addr
                0x0000000020002a04        0x4 CMakeFiles/51_pb_remote_client.dir/__/__/mesh/src/access/device_state_manager.c.obj
 .bss.m_subnet_allocated
                0x0000000020002a08        0x4 CMakeFiles/51_pb_remote_client.dir/__/__/mesh/src/access/device_state_manager.c.obj
 .bss.m_subnet_needs_flashing
                0x0000000020002a0c        0x4 CMakeFiles/51_pb_remote_client.dir/__/__/mesh/src/access/device_state_manager.c.obj
 .bss.m_subnets
                0x0000000020002a10       0x5c CMakeFiles/51_pb_remote_client.dir/__/__/mesh/src/access/device_state_manager.c.obj
 .bss.m_virtual_addresses
                0x0000000020002a6c       0x14 CMakeFiles/51_pb_remote_client.dir/__/__/mesh/src/access/device_state_manager.c.obj
 .bss.m_ble_evt_buffer
                0x0000000020002a80       0x47 CMakeFiles/51_pb_remote_client.dir/__/nrf_mesh_sdk.c.obj
 *fill*         0x0000000020002ac7        0x1 
 .bss.mp_bearer_head
                0x0000000020002ac8        0x4 ../../mesh/lib_51_MBTLE_PB_ADV_ER.a(prov_bearer_adv.c.obj)
 .bss.m_offload_ecdh
                0x0000000020002acc        0x1 ../../mesh/lib_51_MBTLE_PB_ADV_ER.a(prov_utils.c.obj)
 *fill*         0x0000000020002acd        0x3 
 .bss.m_default_gap_addr
                0x0000000020002ad0        0x7 ../../mesh/lib_51_MBTLE_CORE.a(bearer_adv.c.obj)
 .bss.m_is_scanning
                0x0000000020002ad7        0x1 ../../mesh/lib_51_MBTLE_CORE.a(bearer_adv.c.obj)
 .bss.m_scan_ch
                0x0000000020002ad8        0x1 ../../mesh/lib_51_MBTLE_CORE.a(bearer_adv.c.obj)
 *fill*         0x0000000020002ad9        0x3 
 .bss.m_scan_config
                0x0000000020002adc        0xc ../../mesh/lib_51_MBTLE_CORE.a(bearer_adv.c.obj)
 .bss.m_scan_evt
                0x0000000020002ae8       0x18 ../../mesh/lib_51_MBTLE_CORE.a(bearer_adv.c.obj)
 .bss.m_scan_window_end_evt
                0x0000000020002b00       0x18 ../../mesh/lib_51_MBTLE_CORE.a(bearer_adv.c.obj)
 .bss.m_pool    0x0000000020002b18     0x1000 ../../mesh/lib_51_MBTLE_CORE.a(packet_mgr.c.obj)
 .bss.mp_free_head
                0x0000000020003b18        0x4 ../../mesh/lib_51_MBTLE_CORE.a(packet_mgr.c.obj)
 .bss.m_idle_cb
                0x0000000020003b1c        0x4 ../../mesh/lib_51_MBTLE_CORE.a(radio.c.obj)
 .bss.m_radio_config
                0x0000000020003b20        0x8 ../../mesh/lib_51_MBTLE_CORE.a(radio.c.obj)
 .bss.m_radio_fifo
                0x0000000020003b28       0x14 ../../mesh/lib_51_MBTLE_CORE.a(radio.c.obj)
 .bss.m_radio_fifo_queue
                0x0000000020003b3c       0x60 ../../mesh/lib_51_MBTLE_CORE.a(radio.c.obj)
 .bss.m_rx_cb   0x0000000020003b9c        0x4 ../../mesh/lib_51_MBTLE_CORE.a(radio.c.obj)
 .bss.m_tx_cb   0x0000000020003ba0        0x4 ../../mesh/lib_51_MBTLE_CORE.a(radio.c.obj)
 .bss.s_fifo_reserved.6682
                0x0000000020003ba4        0x4 ../../mesh/lib_51_MBTLE_CORE.a(radio.c.obj)
 .bss.m_attributes
                0x0000000020003ba8        0x3 ../../mesh/lib_51_MBTLE_CORE.a(timer.c.obj)
 *fill*         0x0000000020003bab        0x1 
 .bss.m_callbacks
                0x0000000020003bac        0xc ../../mesh/lib_51_MBTLE_CORE.a(timer.c.obj)
 .bss.m_is_in_ts
                0x0000000020003bb8        0x1 ../../mesh/lib_51_MBTLE_CORE.a(timer.c.obj)
 *fill*         0x0000000020003bb9        0x3 
 .bss.m_reference_time
                0x0000000020003bbc        0x4 ../../mesh/lib_51_MBTLE_CORE.a(timer.c.obj)
 .bss.m_timeouts
                0x0000000020003bc0        0xc ../../mesh/lib_51_MBTLE_CORE.a(timer.c.obj)
 .bss.m_timer_mut
                0x0000000020003bcc        0x4 ../../mesh/lib_51_MBTLE_CORE.a(timer.c.obj)
 .bss.m_ts_end_time
                0x0000000020003bd0        0x4 ../../mesh/lib_51_MBTLE_CORE.a(timer.c.obj)
 .bss.mp_ppi_tasks
                0x0000000020003bd4        0xc ../../mesh/lib_51_MBTLE_CORE.a(timer.c.obj)
 .bss.m_event_flag
                0x0000000020003be0        0x4 ../../mesh/lib_51_MBTLE_CORE.a(timer_scheduler.c.obj)
 .bss.m_scheduler
                0x0000000020003be4       0x10 ../../mesh/lib_51_MBTLE_CORE.a(timer_scheduler.c.obj)
 .bss.m_advertiser
                0x0000000020003bf4       0xe0 ../../mesh/lib_51_MBTLE_CORE.a(beacon.c.obj)
 .bss.m_addr_filter
                0x0000000020003cd4        0x8 ../../mesh/lib_51_MBTLE_CORE.a(bearer.c.obj)
 .bss.m_adtype_filter
                0x0000000020003cdc       0x20 ../../mesh/lib_51_MBTLE_CORE.a(bearer.c.obj)
 .bss.m_adtype_filtering
                0x0000000020003cfc        0x1 ../../mesh/lib_51_MBTLE_CORE.a(bearer.c.obj)
 *fill*         0x0000000020003cfd        0x3 
 .bss.m_regular_advertiser
                0x0000000020003d00       0xe0 ../../mesh/lib_51_MBTLE_CORE.a(bearer.c.obj)
 .bss.m_rx_fifo
                0x0000000020003de0       0x14 ../../mesh/lib_51_MBTLE_CORE.a(bearer.c.obj)
 .bss.m_rx_fifo_buffer
                0x0000000020003df4       0xa0 ../../mesh/lib_51_MBTLE_CORE.a(bearer.c.obj)
 .bss.packets_accepted
                0x0000000020003e94        0x4 ../../mesh/lib_51_MBTLE_CORE.a(bearer.c.obj)
 .bss.packets_dropped_invalid_addr
                0x0000000020003e98        0x4 ../../mesh/lib_51_MBTLE_CORE.a(bearer.c.obj)
 .bss.packets_dropped_invalid_adtype
                0x0000000020003e9c        0x4 ../../mesh/lib_51_MBTLE_CORE.a(bearer.c.obj)
 .bss.packets_dropped_invalid_length
                0x0000000020003ea0        0x4 ../../mesh/lib_51_MBTLE_CORE.a(bearer.c.obj)
 .bss.m_bearer_event_fifo
                0x0000000020003ea4       0x14 ../../mesh/lib_51_MBTLE_CORE.a(bearer_event.c.obj)
 .bss.m_bearer_event_fifo_buffer
                0x0000000020003eb8      0x100 ../../mesh/lib_51_MBTLE_CORE.a(bearer_event.c.obj)
 .bss.m_critical
                0x0000000020003fb8        0x4 ../../mesh/lib_51_MBTLE_CORE.a(bearer_event.c.obj)
 .bss.m_flag_count
                0x0000000020003fbc        0x4 ../../mesh/lib_51_MBTLE_CORE.a(bearer_event.c.obj)
 .bss.m_flag_event_callbacks
                0x0000000020003fc0       0x10 ../../mesh/lib_51_MBTLE_CORE.a(bearer_event.c.obj)
 .bss.m_flags   0x0000000020003fd0        0x4 ../../mesh/lib_51_MBTLE_CORE.a(bearer_event.c.obj)
 .bss.m_uuid    0x0000000020003fd4       0x10 ../../mesh/lib_51_MBTLE_CORE.a(nrf_mesh_configure.c.obj)
 .bss.mp_evt_handlers_head
                0x0000000020003fe4        0x4 ../../mesh/lib_51_MBTLE_CORE.a(event.c.obj)
 .bss.m_beacon_salt
                0x0000000020003fe8       0x10 ../../mesh/lib_51_MBTLE_CORE.a(net_beacon.c.obj)
 .bss.m_enabled
                0x0000000020003ff8        0x1 ../../mesh/lib_51_MBTLE_CORE.a(net_beacon.c.obj)
 *fill*         0x0000000020003ff9        0x3 
 .bss.m_tx_event
                0x0000000020003ffc       0x18 ../../mesh/lib_51_MBTLE_CORE.a(net_beacon.c.obj)
 .bss.lock_count.7474
                0x0000000020004014        0x4 ../../mesh/lib_51_MBTLE_CORE.a(net_state.c.obj)
 .bss.m_flash_manager
                0x0000000020004018       0x24 ../../mesh/lib_51_MBTLE_CORE.a(net_state.c.obj)
 .bss.m_iv_update_timer
                0x000000002000403c       0x18 ../../mesh/lib_51_MBTLE_CORE.a(net_state.c.obj)
 .bss.m_net_state
                0x0000000020004054       0x14 ../../mesh/lib_51_MBTLE_CORE.a(net_state.c.obj)
 .bss.m_seqnum_allocation_in_progress
                0x0000000020004068        0x1 ../../mesh/lib_51_MBTLE_CORE.a(net_state.c.obj)
 .bss.m_test_mode
                0x0000000020004069        0x1 ../../mesh/lib_51_MBTLE_CORE.a(net_state.c.obj)
 .bss.m_is_enabled
                0x000000002000406a        0x1 ../../mesh/lib_51_MBTLE_CORE.a(nrf_mesh.c.obj)
 .bss.m_is_initialized
                0x000000002000406b        0x1 ../../mesh/lib_51_MBTLE_CORE.a(nrf_mesh.c.obj)
 .bss.m_rx_cb   0x000000002000406c        0x4 ../../mesh/lib_51_MBTLE_CORE.a(nrf_mesh.c.obj)
 .bss.m_current_time
                0x0000000020004070        0x4 ../../mesh/lib_51_MBTLE_CORE.a(ticker.c.obj)
 .bss.m_timer   0x0000000020004074       0x18 ../../mesh/lib_51_MBTLE_CORE.a(ticker.c.obj)
 .bss.m_sar_alloc
                0x000000002000408c        0x4 ../../mesh/lib_51_MBTLE_CORE.a(transport.c.obj)
 .bss.m_sar_release
                0x0000000020004090        0x4 ../../mesh/lib_51_MBTLE_CORE.a(transport.c.obj)
 .bss.m_transport_pkt_buf
                0x0000000020004094       0x13 ../../mesh/lib_51_MBTLE_CORE.a(transport.c.obj)
 *fill*         0x00000000200040a7        0x1 
 .bss.m_trs_config
                0x00000000200040a8       0x14 ../../mesh/lib_51_MBTLE_CORE.a(transport.c.obj)
 .bss.m_trs_sar_ack_timeout
                0x00000000200040bc        0x1 ../../mesh/lib_51_MBTLE_CORE.a(transport.c.obj)
 .bss.m_trs_sar_ack_timer_active
                0x00000000200040bd        0x1 ../../mesh/lib_51_MBTLE_CORE.a(transport.c.obj)
 *fill*         0x00000000200040be        0x2 
 .bss.m_trs_sar_rx_ack_timer
                0x00000000200040c0       0x18 ../../mesh/lib_51_MBTLE_CORE.a(transport.c.obj)
 .bss.m_trs_sar_rx_sessions
                0x00000000200040d8       0x50 ../../mesh/lib_51_MBTLE_CORE.a(transport.c.obj)
 .bss.m_trs_sar_session_timer
                0x0000000020004128       0x18 ../../mesh/lib_51_MBTLE_CORE.a(transport.c.obj)
 .bss.m_trs_sar_tx_sessions
                0x0000000020004140       0x50 ../../mesh/lib_51_MBTLE_CORE.a(transport.c.obj)
 .bss.m_trs_sar_tx_timeout
                0x0000000020004190        0x1 ../../mesh/lib_51_MBTLE_CORE.a(transport.c.obj)
 *fill*         0x0000000020004191        0x3 
 .bss.m_trs_sar_tx_timer
                0x0000000020004194       0x18 ../../mesh/lib_51_MBTLE_CORE.a(transport.c.obj)
 .bss.m_internal_event_fifo
                0x00000000200041ac       0x14 ../../mesh/lib_51_MBTLE_CORE.a(internal_event.c.obj)
 .bss.m_internal_event_initialized
                0x00000000200041c0        0x1 ../../mesh/lib_51_MBTLE_CORE.a(internal_event.c.obj)
 *fill*         0x00000000200041c1        0x3 
 .bss.m_report_cb
                0x00000000200041c4        0x4 ../../mesh/lib_51_MBTLE_CORE.a(internal_event.c.obj)
 .bss.m_action_queue
                0x00000000200041c8        0xc ../../mesh/lib_51_MBTLE_CORE.a(flash_manager.c.obj)
 .bss.m_action_queue_buffer
                0x00000000200041d4      0x104 ../../mesh/lib_51_MBTLE_CORE.a(flash_manager.c.obj)
 .bss.m_action_state
                0x00000000200042d8        0x1 ../../mesh/lib_51_MBTLE_CORE.a(flash_manager.c.obj)
 *fill*         0x00000000200042d9        0x3 
 .bss.m_memory_listener_queue
                0x00000000200042dc        0x8 ../../mesh/lib_51_MBTLE_CORE.a(flash_manager.c.obj)
 .bss.m_processing_flag
                0x00000000200042e4        0x4 ../../mesh/lib_51_MBTLE_CORE.a(flash_manager.c.obj)
 .bss.m_state   0x00000000200042e8        0x1 ../../mesh/lib_51_MBTLE_CORE.a(flash_manager.c.obj)
 *fill*         0x00000000200042e9        0x1 
 .bss.m_token   0x00000000200042ea        0x2 ../../mesh/lib_51_MBTLE_CORE.a(flash_manager.c.obj)
 .bss.p_current.8667
                0x00000000200042ec        0x4 ../../mesh/lib_51_MBTLE_CORE.a(flash_manager.c.obj)
 .bss.result.8668
                0x00000000200042f0        0x1 ../../mesh/lib_51_MBTLE_CORE.a(flash_manager.c.obj)
 *fill*         0x00000000200042f1        0x3 
 .bss.m_defrag  0x00000000200042f4       0x1c ../../mesh/lib_51_MBTLE_CORE.a(flash_manager_defrag.c.obj)
 .bss.m_token   0x0000000020004310        0x2 ../../mesh/lib_51_MBTLE_CORE.a(flash_manager_defrag.c.obj)
 *fill*         0x0000000020004312        0x2 
 .bss.mp_recovery_area
                0x0000000020004314        0x4 ../../mesh/lib_51_MBTLE_CORE.a(flash_manager_defrag.c.obj)
 .bss.p_null_ptr.7732
                0x0000000020004318        0x4 ../../mesh/lib_51_MBTLE_CORE.a(flash_manager_defrag.c.obj)
 .bss.m_end_timer_triggered
                0x000000002000431c        0x1 ../../mesh/lib_51_MBTLE_CORE.a(timeslot.c.obj)
 .bss.m_framework_initialized
                0x000000002000431d        0x1 ../../mesh/lib_51_MBTLE_CORE.a(timeslot.c.obj)
 .bss.m_is_in_callback
                0x000000002000431e        0x1 ../../mesh/lib_51_MBTLE_CORE.a(timeslot.c.obj)
 .bss.m_is_in_timeslot
                0x000000002000431f        0x1 ../../mesh/lib_51_MBTLE_CORE.a(timeslot.c.obj)
 .bss.m_ret_param
                0x0000000020004320        0x8 ../../mesh/lib_51_MBTLE_CORE.a(timeslot.c.obj)
 .bss.m_start_time
                0x0000000020004328        0x4 ../../mesh/lib_51_MBTLE_CORE.a(timeslot.c.obj)
 .bss.m_timeslot_count
                0x000000002000432c        0x4 ../../mesh/lib_51_MBTLE_CORE.a(timeslot.c.obj)
 .bss.m_timeslot_forced_command
                0x0000000020004330        0x1 ../../mesh/lib_51_MBTLE_CORE.a(timeslot.c.obj)
 *fill*         0x0000000020004331        0x3 
 .bss.m_timeslot_length
                0x0000000020004334        0x4 ../../mesh/lib_51_MBTLE_CORE.a(timeslot.c.obj)
 .bss.requested_extend_time.8330
                0x0000000020004338        0x4 ../../mesh/lib_51_MBTLE_CORE.a(timeslot.c.obj)
 *fill*         0x000000002000433c        0x4 
 .bss.s_last_rtc_value.8302
                0x0000000020004340        0x8 ../../mesh/lib_51_MBTLE_CORE.a(timeslot.c.obj)
 .bss.m_128buf  0x0000000020004348       0x10 ../../mesh/lib_51_MBTLE_CORE.a(aes_cmac.c.obj)
 .bss.m_subkey1
                0x0000000020004358       0x10 ../../mesh/lib_51_MBTLE_CORE.a(aes_cmac.c.obj)
 .bss.m_subkey2
                0x0000000020004368       0x10 ../../mesh/lib_51_MBTLE_CORE.a(aes_cmac.c.obj)
 .bss.m_msg_cache
                0x0000000020004378      0x100 ../../mesh/lib_51_MBTLE_CORE.a(msg_cache.c.obj)
 .bss.m_msg_cache_head
                0x0000000020004478        0x4 ../../mesh/lib_51_MBTLE_CORE.a(msg_cache.c.obj)
 .bss.m_relay_check_cb
                0x000000002000447c        0x4 ../../mesh/lib_51_MBTLE_CORE.a(network.c.obj)
 .bss.m_relay_enable
                0x0000000020004480        0x1 ../../mesh/lib_51_MBTLE_CORE.a(network.c.obj)
 .bss.m_relay_retransmit_count
                0x0000000020004481        0x1 ../../mesh/lib_51_MBTLE_CORE.a(network.c.obj)
 .bss.m_cache_full
                0x0000000020004482        0x1 ../../mesh/lib_51_MBTLE_CORE.a(replay_cache.c.obj)
 .bss.m_cache_index
                0x0000000020004483        0x1 ../../mesh/lib_51_MBTLE_CORE.a(replay_cache.c.obj)
 .bss.m_replay_cache
                0x0000000020004484      0x200 ../../mesh/lib_51_MBTLE_CORE.a(replay_cache.c.obj)
 .bss.m_event_flag
                0x0000000020004684        0x4 ../../mesh/lib_51_MBTLE_CORE.a(mesh_flash.c.obj)
 .bss.m_suspended
                0x0000000020004688        0x1 ../../mesh/lib_51_MBTLE_CORE.a(mesh_flash.c.obj)
 *fill*         0x0000000020004689        0x3 
 .bss.m_users   0x000000002000468c      0x1d4 ../../mesh/lib_51_MBTLE_CORE.a(mesh_flash.c.obj)
 .bss._acDownBuffer
                0x0000000020004860       0x80 ../../lib/rtt/lib_51_RTT_LIB.a(SEGGER_RTT.c.obj)
 .bss._acUpBuffer
                0x00000000200048e0      0x400 ../../lib/rtt/lib_51_RTT_LIB.a(SEGGER_RTT.c.obj)
 .bss.__malloc_free_list
                0x0000000020004ce0        0x4 /usr/bin/../lib/gcc/arm-none-eabi/6.3.1/../../../../arm-none-eabi/lib/thumb/v6-m/libg_nano.a(lib_a-nano-mallocr.o)
                0x0000000020004ce0                __malloc_free_list
 .bss.__malloc_sbrk_start
                0x0000000020004ce4        0x4 /usr/bin/../lib/gcc/arm-none-eabi/6.3.1/../../../../arm-none-eabi/lib/thumb/v6-m/libg_nano.a(lib_a-nano-mallocr.o)
                0x0000000020004ce4                __malloc_sbrk_start
 .bss.heap_end.4116
                0x0000000020004ce8        0x4 /usr/bin/../lib/gcc/arm-none-eabi/6.3.1/../../../../arm-none-eabi/lib/thumb/v6-m/libnosys.a(sbrk.o)
 *(COMMON)
 COMMON         0x0000000020004cec        0x8 CMakeFiles/51_pb_remote_client.dir/__/nrf_mesh_sdk.c.obj
                0x0000000020004cec                nrf_nvic_state
 COMMON         0x0000000020004cf4        0x4 ../../mesh/lib_51_MBTLE_CORE.a(nrf_mesh.c.obj)
                0x0000000020004cf4                m_assertion_handler
 COMMON         0x0000000020004cf8       0x78 ../../lib/rtt/lib_51_RTT_LIB.a(SEGGER_RTT.c.obj)
                0x0000000020004cf8                _SEGGER_RTT
 COMMON         0x0000000020004d70        0x4 /usr/bin/../lib/gcc/arm-none-eabi/6.3.1/../../../../arm-none-eabi/lib/thumb/v6-m/libg_nano.a(lib_a-reent.o)
                0x0000000020004d70                errno
                0x0000000020004d74                . = ALIGN (0x4)
                0x0000000020004d74                __bss_end__ = .

.heap           0x0000000020004d78       0x80
                0x0000000020004d78                __HeapBase = .
                0x0000000020004d78                __end__ = .
                0x0000000020004d78                PROVIDE (end, .)
 *(.heap*)
 .heap          0x0000000020004d78       0x80 CMakeFiles/51_pb_remote_client.dir/__/__/toolchain/gcc/gcc_startup_nrf51.S.obj
                0x0000000020004df8                __HeapLimit = .

.stack_dummy    0x0000000020004d78      0x800
 *(.stack*)
 .stack         0x0000000020004d78      0x800 CMakeFiles/51_pb_remote_client.dir/__/__/toolchain/gcc/gcc_startup_nrf51.S.obj
                0x0000000020007d00                __StackTop = (ORIGIN (RAM) + LENGTH (RAM))
                0x0000000020007500                __StackLimit = (__StackTop - SIZEOF (.stack_dummy))
                0x0000000020007d00                PROVIDE (__stack, __StackTop)
                0x0000000000000001                ASSERT ((__StackLimit >= __HeapLimit), region RAM overflowed with stack)
OUTPUT(51_pb_remote_client.elf elf32-littlearm)

.ARM.attributes
                0x0000000000000000       0x28
 .ARM.attributes
                0x0000000000000000       0x1e /usr/bin/../lib/gcc/arm-none-eabi/6.3.1/thumb/v6-m/crti.o
 .ARM.attributes
                0x000000000000001e       0x2c /usr/bin/../lib/gcc/arm-none-eabi/6.3.1/thumb/v6-m/crtbegin.o
 .ARM.attributes
                0x000000000000004a       0x1b /usr/bin/../lib/gcc/arm-none-eabi/6.3.1/../../../../arm-none-eabi/lib/thumb/v6-m/crt0.o
 .ARM.attributes
                0x0000000000000065       0x31 CMakeFiles/51_pb_remote_client.dir/src/main.c.obj
 .ARM.attributes
                0x0000000000000096       0x31 CMakeFiles/51_pb_remote_client.dir/__/__/mesh/models/pb_remote/src/pb_remote_client.c.obj
 .ARM.attributes
                0x00000000000000c7       0x31 CMakeFiles/51_pb_remote_client.dir/__/__/mesh/src/access/access.c.obj
 .ARM.attributes
                0x00000000000000f8       0x31 CMakeFiles/51_pb_remote_client.dir/__/__/mesh/src/access/access_reliable.c.obj
 .ARM.attributes
                0x0000000000000129       0x31 CMakeFiles/51_pb_remote_client.dir/__/__/mesh/src/access/device_state_manager.c.obj
 .ARM.attributes
                0x000000000000015a       0x31 CMakeFiles/51_pb_remote_client.dir/__/nrf_mesh_sdk.c.obj
 .ARM.attributes
                0x000000000000018b       0x1b CMakeFiles/51_pb_remote_client.dir/__/__/toolchain/gcc/gcc_startup_nrf51.S.obj
 .ARM.attributes
                0x00000000000001a6       0x31 CMakeFiles/51_pb_remote_client.dir/__/__/toolchain/system_nrf51.c.obj
 .ARM.attributes
                0x00000000000001d7       0x31 ../../mesh/lib_51_MBTLE_PB_ADV_ER.a(provisioning.c.obj)
 .ARM.attributes
                0x0000000000000208       0x31 ../../mesh/lib_51_MBTLE_PB_ADV_ER.a(nrf_mesh_prov.c.obj)
 .ARM.attributes
                0x0000000000000239       0x31 ../../mesh/lib_51_MBTLE_PB_ADV_ER.a(prov_bearer_adv.c.obj)
 .ARM.attributes
                0x000000000000026a       0x31 ../../mesh/lib_51_MBTLE_PB_ADV_ER.a(prov_utils.c.obj)
 .ARM.attributes
                0x000000000000029b       0x31 ../../mesh/lib_51_MBTLE_PB_ADV_ER.a(prov_beacon.c.obj)
 .ARM.attributes
                0x00000000000002cc       0x31 ../../mesh/lib_51_MBTLE_PB_ADV_ER.a(prov_provisioner.c.obj)
 .ARM.attributes
                0x00000000000002fd       0x31 ../../mesh/lib_51_MBTLE_CORE.a(nrf_mesh_weak.c.obj)
 .ARM.attributes
                0x000000000000032e       0x31 ../../mesh/lib_51_MBTLE_CORE.a(bearer_adv.c.obj)
 .ARM.attributes
                0x000000000000035f       0x31 ../../mesh/lib_51_MBTLE_CORE.a(fifo.c.obj)
 .ARM.attributes
                0x0000000000000390       0x31 ../../mesh/lib_51_MBTLE_CORE.a(packet_mgr.c.obj)
 .ARM.attributes
                0x00000000000003c1       0x31 ../../mesh/lib_51_MBTLE_CORE.a(radio.c.obj)
 .ARM.attributes
                0x00000000000003f2       0x31 ../../mesh/lib_51_MBTLE_CORE.a(timer.c.obj)
 .ARM.attributes
                0x0000000000000423       0x31 ../../mesh/lib_51_MBTLE_CORE.a(timer_scheduler.c.obj)
 .ARM.attributes
                0x0000000000000454       0x31 ../../mesh/lib_51_MBTLE_CORE.a(beacon.c.obj)
 .ARM.attributes
                0x0000000000000485       0x31 ../../mesh/lib_51_MBTLE_CORE.a(bearer.c.obj)
 .ARM.attributes
                0x00000000000004b6       0x31 ../../mesh/lib_51_MBTLE_CORE.a(bearer_event.c.obj)
 .ARM.attributes
                0x00000000000004e7       0x31 ../../mesh/lib_51_MBTLE_CORE.a(nrf_mesh_configure.c.obj)
 .ARM.attributes
                0x0000000000000518       0x31 ../../mesh/lib_51_MBTLE_CORE.a(enc.c.obj)
 .ARM.attributes
                0x0000000000000549       0x31 ../../mesh/lib_51_MBTLE_CORE.a(event.c.obj)
 .ARM.attributes
                0x000000000000057a       0x31 ../../mesh/lib_51_MBTLE_CORE.a(log.c.obj)
 .ARM.attributes
                0x00000000000005ab       0x31 ../../mesh/lib_51_MBTLE_CORE.a(net_beacon.c.obj)
 .ARM.attributes
                0x00000000000005dc       0x31 ../../mesh/lib_51_MBTLE_CORE.a(net_state.c.obj)
 .ARM.attributes
                0x000000000000060d       0x31 ../../mesh/lib_51_MBTLE_CORE.a(nrf_mesh.c.obj)
 .ARM.attributes
                0x000000000000063e       0x31 ../../mesh/lib_51_MBTLE_CORE.a(nrf_mesh_keygen.c.obj)
 .ARM.attributes
                0x000000000000066f       0x31 ../../mesh/lib_51_MBTLE_CORE.a(nrf_mesh_utils.c.obj)
 .ARM.attributes
                0x00000000000006a0       0x31 ../../mesh/lib_51_MBTLE_CORE.a(radio_config.c.obj)
 .ARM.attributes
                0x00000000000006d1       0x31 ../../mesh/lib_51_MBTLE_CORE.a(rand.c.obj)
 .ARM.attributes
                0x0000000000000702       0x31 ../../mesh/lib_51_MBTLE_CORE.a(ticker.c.obj)
 .ARM.attributes
                0x0000000000000733       0x31 ../../mesh/lib_51_MBTLE_CORE.a(transport.c.obj)
 .ARM.attributes
                0x0000000000000764       0x31 ../../mesh/lib_51_MBTLE_CORE.a(internal_event.c.obj)
 .ARM.attributes
                0x0000000000000795       0x31 ../../mesh/lib_51_MBTLE_CORE.a(flash_manager.c.obj)
 .ARM.attributes
                0x00000000000007c6       0x31 ../../mesh/lib_51_MBTLE_CORE.a(flash_manager_defrag.c.obj)
 .ARM.attributes
                0x00000000000007f7       0x31 ../../mesh/lib_51_MBTLE_CORE.a(flash_manager_internal.c.obj)
 .ARM.attributes
                0x0000000000000828       0x31 ../../mesh/lib_51_MBTLE_CORE.a(aes.c.obj)
 .ARM.attributes
                0x0000000000000859       0x31 ../../mesh/lib_51_MBTLE_CORE.a(queue.c.obj)
 .ARM.attributes
                0x000000000000088a       0x31 ../../mesh/lib_51_MBTLE_CORE.a(timeslot.c.obj)
 .ARM.attributes
                0x00000000000008bb       0x31 ../../mesh/lib_51_MBTLE_CORE.a(aes_cmac.c.obj)
 .ARM.attributes
                0x00000000000008ec       0x31 ../../mesh/lib_51_MBTLE_CORE.a(ccm_soft.c.obj)
 .ARM.attributes
                0x000000000000091d       0x31 ../../mesh/lib_51_MBTLE_CORE.a(msg_cache.c.obj)
 .ARM.attributes
                0x000000000000094e       0x31 ../../mesh/lib_51_MBTLE_CORE.a(network.c.obj)
 .ARM.attributes
                0x000000000000097f       0x31 ../../mesh/lib_51_MBTLE_CORE.a(packet.c.obj)
 .ARM.attributes
                0x00000000000009b0       0x31 ../../mesh/lib_51_MBTLE_CORE.a(packet_buffer.c.obj)
 .ARM.attributes
                0x00000000000009e1       0x31 ../../mesh/lib_51_MBTLE_CORE.a(replay_cache.c.obj)
 .ARM.attributes
                0x0000000000000a12       0x31 ../../mesh/lib_51_MBTLE_CORE.a(mesh_flash.c.obj)
 .ARM.attributes
                0x0000000000000a43       0x31 ../../mesh/lib_51_MBTLE_CORE.a(nrf_flash.c.obj)
 .ARM.attributes
                0x0000000000000a74       0x31 ../../mesh/lib_51_MBTLE_CORE.a(msqueue.c.obj)
 .ARM.attributes
                0x0000000000000aa5       0x31 ../../lib/micro-ecc/lib_51_UECC_LIB.a(uECC.c.obj)
 .ARM.attributes
                0x0000000000000ad6       0x31 ../../lib/rtt/lib_51_RTT_LIB.a(SEGGER_RTT.c.obj)
 .ARM.attributes
                0x0000000000000b07       0x31 ../../lib/rtt/lib_51_RTT_LIB.a(SEGGER_RTT_printf.c.obj)
 .ARM.attributes
                0x0000000000000b38       0x1e /usr/bin/../lib/gcc/arm-none-eabi/6.3.1/thumb/v6-m/libgcc.a(_udivsi3.o)
 .ARM.attributes
                0x0000000000000b56       0x1e /usr/bin/../lib/gcc/arm-none-eabi/6.3.1/thumb/v6-m/libgcc.a(_divsi3.o)
 .ARM.attributes
                0x0000000000000b74       0x1e /usr/bin/../lib/gcc/arm-none-eabi/6.3.1/thumb/v6-m/libgcc.a(_dvmd_tls.o)
 .ARM.attributes
                0x0000000000000b92       0x2c /usr/bin/../lib/gcc/arm-none-eabi/6.3.1/thumb/v6-m/libgcc.a(_muldi3.o)
 .ARM.attributes
                0x0000000000000bbe       0x2c /usr/bin/../lib/gcc/arm-none-eabi/6.3.1/../../../../arm-none-eabi/lib/thumb/v6-m/libg_nano.a(lib_a-exit.o)
 .ARM.attributes
                0x0000000000000bea       0x2c /usr/bin/../lib/gcc/arm-none-eabi/6.3.1/../../../../arm-none-eabi/lib/thumb/v6-m/libg_nano.a(lib_a-impure.o)
 .ARM.attributes
                0x0000000000000c16       0x2c /usr/bin/../lib/gcc/arm-none-eabi/6.3.1/../../../../arm-none-eabi/lib/thumb/v6-m/libg_nano.a(lib_a-init.o)
 .ARM.attributes
                0x0000000000000c42       0x2c /usr/bin/../lib/gcc/arm-none-eabi/6.3.1/../../../../arm-none-eabi/lib/thumb/v6-m/libg_nano.a(lib_a-malloc.o)
 .ARM.attributes
                0x0000000000000c6e       0x2c /usr/bin/../lib/gcc/arm-none-eabi/6.3.1/../../../../arm-none-eabi/lib/thumb/v6-m/libg_nano.a(lib_a-memcmp.o)
 .ARM.attributes
                0x0000000000000c9a       0x2c /usr/bin/../lib/gcc/arm-none-eabi/6.3.1/../../../../arm-none-eabi/lib/thumb/v6-m/libg_nano.a(lib_a-memcpy-stub.o)
 .ARM.attributes
                0x0000000000000cc6       0x2c /usr/bin/../lib/gcc/arm-none-eabi/6.3.1/../../../../arm-none-eabi/lib/thumb/v6-m/libg_nano.a(lib_a-memset.o)
 .ARM.attributes
                0x0000000000000cf2       0x2c /usr/bin/../lib/gcc/arm-none-eabi/6.3.1/../../../../arm-none-eabi/lib/thumb/v6-m/libg_nano.a(lib_a-nano-freer.o)
 .ARM.attributes
                0x0000000000000d1e       0x2c /usr/bin/../lib/gcc/arm-none-eabi/6.3.1/../../../../arm-none-eabi/lib/thumb/v6-m/libg_nano.a(lib_a-nano-mallocr.o)
 .ARM.attributes
                0x0000000000000d4a       0x2c /usr/bin/../lib/gcc/arm-none-eabi/6.3.1/../../../../arm-none-eabi/lib/thumb/v6-m/libg_nano.a(lib_a-sbrkr.o)
 .ARM.attributes
                0x0000000000000d76       0x2c /usr/bin/../lib/gcc/arm-none-eabi/6.3.1/../../../../arm-none-eabi/lib/thumb/v6-m/libg_nano.a(lib_a-strcpy.o)
 .ARM.attributes
                0x0000000000000da2       0x1c /usr/bin/../lib/gcc/arm-none-eabi/6.3.1/../../../../arm-none-eabi/lib/thumb/v6-m/libg_nano.a(lib_a-strlen.o)
 .ARM.attributes
                0x0000000000000dbe       0x2c /usr/bin/../lib/gcc/arm-none-eabi/6.3.1/../../../../arm-none-eabi/lib/thumb/v6-m/libg_nano.a(lib_a-strrchr.o)
 .ARM.attributes
                0x0000000000000dea       0x2c /usr/bin/../lib/gcc/arm-none-eabi/6.3.1/../../../../arm-none-eabi/lib/thumb/v6-m/libg_nano.a(lib_a-mlock.o)
 .ARM.attributes
                0x0000000000000e16       0x2c /usr/bin/../lib/gcc/arm-none-eabi/6.3.1/../../../../arm-none-eabi/lib/thumb/v6-m/libg_nano.a(lib_a-reent.o)
 .ARM.attributes
                0x0000000000000e42       0x2c /usr/bin/../lib/gcc/arm-none-eabi/6.3.1/../../../../arm-none-eabi/lib/thumb/v6-m/libg_nano.a(lib_a-strchr.o)
 .ARM.attributes
                0x0000000000000e6e       0x2c /usr/bin/../lib/gcc/arm-none-eabi/6.3.1/thumb/v6-m/crtend.o
 .ARM.attributes
                0x0000000000000e9a       0x1e /usr/bin/../lib/gcc/arm-none-eabi/6.3.1/thumb/v6-m/crtn.o
 .ARM.attributes
                0x0000000000000eb8       0x2c /usr/bin/../lib/gcc/arm-none-eabi/6.3.1/../../../../arm-none-eabi/lib/thumb/v6-m/libnosys.a(sbrk.o)
 .ARM.attributes
                0x0000000000000ee4       0x2c /usr/bin/../lib/gcc/arm-none-eabi/6.3.1/../../../../arm-none-eabi/lib/thumb/v6-m/libnosys.a(_exit.o)

.comment        0x0000000000000000       0x7f
 .comment       0x0000000000000000       0x7f CMakeFiles/51_pb_remote_client.dir/src/main.c.obj
                                         0x80 (size before relaxing)
 .comment       0x000000000000007f       0x80 CMakeFiles/51_pb_remote_client.dir/__/__/mesh/models/pb_remote/src/pb_remote_client.c.obj
 .comment       0x000000000000007f       0x80 CMakeFiles/51_pb_remote_client.dir/__/__/mesh/src/access/access.c.obj
 .comment       0x000000000000007f       0x80 CMakeFiles/51_pb_remote_client.dir/__/__/mesh/src/access/access_reliable.c.obj
 .comment       0x000000000000007f       0x80 CMakeFiles/51_pb_remote_client.dir/__/__/mesh/src/access/device_state_manager.c.obj
 .comment       0x000000000000007f       0x80 CMakeFiles/51_pb_remote_client.dir/__/nrf_mesh_sdk.c.obj
 .comment       0x000000000000007f       0x80 CMakeFiles/51_pb_remote_client.dir/__/__/toolchain/system_nrf51.c.obj
 .comment       0x000000000000007f       0x80 ../../mesh/lib_51_MBTLE_PB_ADV_ER.a(provisioning.c.obj)
 .comment       0x000000000000007f       0x80 ../../mesh/lib_51_MBTLE_PB_ADV_ER.a(nrf_mesh_prov.c.obj)
 .comment       0x000000000000007f       0x80 ../../mesh/lib_51_MBTLE_PB_ADV_ER.a(prov_bearer_adv.c.obj)
 .comment       0x000000000000007f       0x80 ../../mesh/lib_51_MBTLE_PB_ADV_ER.a(prov_utils.c.obj)
 .comment       0x000000000000007f       0x80 ../../mesh/lib_51_MBTLE_PB_ADV_ER.a(prov_beacon.c.obj)
 .comment       0x000000000000007f       0x80 ../../mesh/lib_51_MBTLE_PB_ADV_ER.a(prov_provisioner.c.obj)
 .comment       0x000000000000007f       0x80 ../../mesh/lib_51_MBTLE_CORE.a(nrf_mesh_weak.c.obj)
 .comment       0x000000000000007f       0x80 ../../mesh/lib_51_MBTLE_CORE.a(bearer_adv.c.obj)
 .comment       0x000000000000007f       0x80 ../../mesh/lib_51_MBTLE_CORE.a(fifo.c.obj)
 .comment       0x000000000000007f       0x80 ../../mesh/lib_51_MBTLE_CORE.a(packet_mgr.c.obj)
 .comment       0x000000000000007f       0x80 ../../mesh/lib_51_MBTLE_CORE.a(radio.c.obj)
 .comment       0x000000000000007f       0x80 ../../mesh/lib_51_MBTLE_CORE.a(timer.c.obj)
 .comment       0x000000000000007f       0x80 ../../mesh/lib_51_MBTLE_CORE.a(timer_scheduler.c.obj)
 .comment       0x000000000000007f       0x80 ../../mesh/lib_51_MBTLE_CORE.a(beacon.c.obj)
 .comment       0x000000000000007f       0x80 ../../mesh/lib_51_MBTLE_CORE.a(bearer.c.obj)
 .comment       0x000000000000007f       0x80 ../../mesh/lib_51_MBTLE_CORE.a(bearer_event.c.obj)
 .comment       0x000000000000007f       0x80 ../../mesh/lib_51_MBTLE_CORE.a(nrf_mesh_configure.c.obj)
 .comment       0x000000000000007f       0x80 ../../mesh/lib_51_MBTLE_CORE.a(enc.c.obj)
 .comment       0x000000000000007f       0x80 ../../mesh/lib_51_MBTLE_CORE.a(event.c.obj)
 .comment       0x000000000000007f       0x80 ../../mesh/lib_51_MBTLE_CORE.a(log.c.obj)
 .comment       0x000000000000007f       0x80 ../../mesh/lib_51_MBTLE_CORE.a(net_beacon.c.obj)
 .comment       0x000000000000007f       0x80 ../../mesh/lib_51_MBTLE_CORE.a(net_state.c.obj)
 .comment       0x000000000000007f       0x80 ../../mesh/lib_51_MBTLE_CORE.a(nrf_mesh.c.obj)
 .comment       0x000000000000007f       0x80 ../../mesh/lib_51_MBTLE_CORE.a(nrf_mesh_keygen.c.obj)
 .comment       0x000000000000007f       0x80 ../../mesh/lib_51_MBTLE_CORE.a(nrf_mesh_utils.c.obj)
 .comment       0x000000000000007f       0x80 ../../mesh/lib_51_MBTLE_CORE.a(radio_config.c.obj)
 .comment       0x000000000000007f       0x80 ../../mesh/lib_51_MBTLE_CORE.a(rand.c.obj)
 .comment       0x000000000000007f       0x80 ../../mesh/lib_51_MBTLE_CORE.a(ticker.c.obj)
 .comment       0x000000000000007f       0x80 ../../mesh/lib_51_MBTLE_CORE.a(transport.c.obj)
 .comment       0x000000000000007f       0x80 ../../mesh/lib_51_MBTLE_CORE.a(internal_event.c.obj)
 .comment       0x000000000000007f       0x80 ../../mesh/lib_51_MBTLE_CORE.a(flash_manager.c.obj)
 .comment       0x000000000000007f       0x80 ../../mesh/lib_51_MBTLE_CORE.a(flash_manager_defrag.c.obj)
 .comment       0x000000000000007f       0x80 ../../mesh/lib_51_MBTLE_CORE.a(flash_manager_internal.c.obj)
 .comment       0x000000000000007f       0x80 ../../mesh/lib_51_MBTLE_CORE.a(aes.c.obj)
 .comment       0x000000000000007f       0x80 ../../mesh/lib_51_MBTLE_CORE.a(queue.c.obj)
 .comment       0x000000000000007f       0x80 ../../mesh/lib_51_MBTLE_CORE.a(timeslot.c.obj)
 .comment       0x000000000000007f       0x80 ../../mesh/lib_51_MBTLE_CORE.a(aes_cmac.c.obj)
 .comment       0x000000000000007f       0x80 ../../mesh/lib_51_MBTLE_CORE.a(ccm_soft.c.obj)
 .comment       0x000000000000007f       0x80 ../../mesh/lib_51_MBTLE_CORE.a(msg_cache.c.obj)
 .comment       0x000000000000007f       0x80 ../../mesh/lib_51_MBTLE_CORE.a(network.c.obj)
 .comment       0x000000000000007f       0x80 ../../mesh/lib_51_MBTLE_CORE.a(packet.c.obj)
 .comment       0x000000000000007f       0x80 ../../mesh/lib_51_MBTLE_CORE.a(packet_buffer.c.obj)
 .comment       0x000000000000007f       0x80 ../../mesh/lib_51_MBTLE_CORE.a(replay_cache.c.obj)
 .comment       0x000000000000007f       0x80 ../../mesh/lib_51_MBTLE_CORE.a(mesh_flash.c.obj)
 .comment       0x000000000000007f       0x80 ../../mesh/lib_51_MBTLE_CORE.a(nrf_flash.c.obj)
 .comment       0x000000000000007f       0x80 ../../mesh/lib_51_MBTLE_CORE.a(msqueue.c.obj)
 .comment       0x000000000000007f       0x80 ../../lib/micro-ecc/lib_51_UECC_LIB.a(uECC.c.obj)
 .comment       0x000000000000007f       0x80 ../../lib/rtt/lib_51_RTT_LIB.a(SEGGER_RTT.c.obj)
 .comment       0x000000000000007f       0x80 ../../lib/rtt/lib_51_RTT_LIB.a(SEGGER_RTT_printf.c.obj)

.debug_info     0x0000000000000000    0x633d1
 .debug_info    0x0000000000000000     0x3e41 CMakeFiles/51_pb_remote_client.dir/src/main.c.obj
 .debug_info    0x0000000000003e41     0x4afe CMakeFiles/51_pb_remote_client.dir/__/__/mesh/models/pb_remote/src/pb_remote_client.c.obj
 .debug_info    0x000000000000893f     0x4728 CMakeFiles/51_pb_remote_client.dir/__/__/mesh/src/access/access.c.obj
 .debug_info    0x000000000000d067     0x14a6 CMakeFiles/51_pb_remote_client.dir/__/__/mesh/src/access/access_reliable.c.obj
 .debug_info    0x000000000000e50d     0x5a79 CMakeFiles/51_pb_remote_client.dir/__/__/mesh/src/access/device_state_manager.c.obj
 .debug_info    0x0000000000013f86     0x2e53 CMakeFiles/51_pb_remote_client.dir/__/nrf_mesh_sdk.c.obj
 .debug_info    0x0000000000016dd9       0xc8 CMakeFiles/51_pb_remote_client.dir/__/__/toolchain/gcc/gcc_startup_nrf51.S.obj
 .debug_info    0x0000000000016ea1      0x1e1 CMakeFiles/51_pb_remote_client.dir/__/__/toolchain/system_nrf51.c.obj
 .debug_info    0x0000000000017082     0x1fdb ../../mesh/lib_51_MBTLE_PB_ADV_ER.a(provisioning.c.obj)
 .debug_info    0x000000000001905d     0x19e0 ../../mesh/lib_51_MBTLE_PB_ADV_ER.a(nrf_mesh_prov.c.obj)
 .debug_info    0x000000000001aa3d     0x388b ../../mesh/lib_51_MBTLE_PB_ADV_ER.a(prov_bearer_adv.c.obj)
 .debug_info    0x000000000001e2c8     0x20fc ../../mesh/lib_51_MBTLE_PB_ADV_ER.a(prov_utils.c.obj)
 .debug_info    0x00000000000203c4     0x1a54 ../../mesh/lib_51_MBTLE_PB_ADV_ER.a(prov_beacon.c.obj)
 .debug_info    0x0000000000021e18     0x2fdc ../../mesh/lib_51_MBTLE_PB_ADV_ER.a(prov_provisioner.c.obj)
 .debug_info    0x0000000000024df4      0x924 ../../mesh/lib_51_MBTLE_CORE.a(nrf_mesh_weak.c.obj)
 .debug_info    0x0000000000025718     0x3587 ../../mesh/lib_51_MBTLE_CORE.a(bearer_adv.c.obj)
 .debug_info    0x0000000000028c9f      0xc92 ../../mesh/lib_51_MBTLE_CORE.a(fifo.c.obj)
 .debug_info    0x0000000000029931     0x115b ../../mesh/lib_51_MBTLE_CORE.a(packet_mgr.c.obj)
 .debug_info    0x000000000002aa8c     0x18e9 ../../mesh/lib_51_MBTLE_CORE.a(radio.c.obj)
 .debug_info    0x000000000002c375      0xbbe ../../mesh/lib_51_MBTLE_CORE.a(timer.c.obj)
 .debug_info    0x000000000002cf33     0x10aa ../../mesh/lib_51_MBTLE_CORE.a(timer_scheduler.c.obj)
 .debug_info    0x000000000002dfdd     0x151c ../../mesh/lib_51_MBTLE_CORE.a(beacon.c.obj)
 .debug_info    0x000000000002f4f9     0x1ee8 ../../mesh/lib_51_MBTLE_CORE.a(bearer.c.obj)
 .debug_info    0x00000000000313e1     0x14cf ../../mesh/lib_51_MBTLE_CORE.a(bearer_event.c.obj)
 .debug_info    0x00000000000328b0      0xb9e ../../mesh/lib_51_MBTLE_CORE.a(nrf_mesh_configure.c.obj)
 .debug_info    0x000000000003344e     0x1607 ../../mesh/lib_51_MBTLE_CORE.a(enc.c.obj)
 .debug_info    0x0000000000034a55     0x1148 ../../mesh/lib_51_MBTLE_CORE.a(event.c.obj)
 .debug_info    0x0000000000035b9d      0xe12 ../../mesh/lib_51_MBTLE_CORE.a(log.c.obj)
 .debug_info    0x00000000000369af     0x1268 ../../mesh/lib_51_MBTLE_CORE.a(net_beacon.c.obj)
 .debug_info    0x0000000000037c17     0x25f5 ../../mesh/lib_51_MBTLE_CORE.a(net_state.c.obj)
 .debug_info    0x000000000003a20c     0x3b2c ../../mesh/lib_51_MBTLE_CORE.a(nrf_mesh.c.obj)
 .debug_info    0x000000000003dd38      0xcfc ../../mesh/lib_51_MBTLE_CORE.a(nrf_mesh_keygen.c.obj)
 .debug_info    0x000000000003ea34      0xa5f ../../mesh/lib_51_MBTLE_CORE.a(nrf_mesh_utils.c.obj)
 .debug_info    0x000000000003f493      0x854 ../../mesh/lib_51_MBTLE_CORE.a(radio_config.c.obj)
 .debug_info    0x000000000003fce7      0x41e ../../mesh/lib_51_MBTLE_CORE.a(rand.c.obj)
 .debug_info    0x0000000000040105      0x204 ../../mesh/lib_51_MBTLE_CORE.a(ticker.c.obj)
 .debug_info    0x0000000000040309     0x6fb9 ../../mesh/lib_51_MBTLE_CORE.a(transport.c.obj)
 .debug_info    0x00000000000472c2      0xc28 ../../mesh/lib_51_MBTLE_CORE.a(internal_event.c.obj)
 .debug_info    0x0000000000047eea     0x3a47 ../../mesh/lib_51_MBTLE_CORE.a(flash_manager.c.obj)
 .debug_info    0x000000000004b931     0x248f ../../mesh/lib_51_MBTLE_CORE.a(flash_manager_defrag.c.obj)
 .debug_info    0x000000000004ddc0      0xb72 ../../mesh/lib_51_MBTLE_CORE.a(flash_manager_internal.c.obj)
 .debug_info    0x000000000004e932      0xd90 ../../mesh/lib_51_MBTLE_CORE.a(aes.c.obj)
 .debug_info    0x000000000004f6c2      0xadb ../../mesh/lib_51_MBTLE_CORE.a(queue.c.obj)
 .debug_info    0x000000000005019d     0x1aef ../../mesh/lib_51_MBTLE_CORE.a(timeslot.c.obj)
 .debug_info    0x0000000000051c8c      0xe95 ../../mesh/lib_51_MBTLE_CORE.a(aes_cmac.c.obj)
 .debug_info    0x0000000000052b21     0x114a ../../mesh/lib_51_MBTLE_CORE.a(ccm_soft.c.obj)
 .debug_info    0x0000000000053c6b      0xb4d ../../mesh/lib_51_MBTLE_CORE.a(msg_cache.c.obj)
 .debug_info    0x00000000000547b8     0x23ad ../../mesh/lib_51_MBTLE_CORE.a(network.c.obj)
 .debug_info    0x0000000000056b65      0xadf ../../mesh/lib_51_MBTLE_CORE.a(packet.c.obj)
 .debug_info    0x0000000000057644     0x193b ../../mesh/lib_51_MBTLE_CORE.a(packet_buffer.c.obj)
 .debug_info    0x0000000000058f7f      0xae5 ../../mesh/lib_51_MBTLE_CORE.a(replay_cache.c.obj)
 .debug_info    0x0000000000059a64     0x14e5 ../../mesh/lib_51_MBTLE_CORE.a(mesh_flash.c.obj)
 .debug_info    0x000000000005af49      0xad9 ../../mesh/lib_51_MBTLE_CORE.a(nrf_flash.c.obj)
 .debug_info    0x000000000005ba22      0xcdb ../../mesh/lib_51_MBTLE_CORE.a(msqueue.c.obj)
 .debug_info    0x000000000005c6fd     0x4488 ../../lib/micro-ecc/lib_51_UECC_LIB.a(uECC.c.obj)
 .debug_info    0x0000000000060b85     0x18aa ../../lib/rtt/lib_51_RTT_LIB.a(SEGGER_RTT.c.obj)
 .debug_info    0x000000000006242f      0xfa2 ../../lib/rtt/lib_51_RTT_LIB.a(SEGGER_RTT_printf.c.obj)

.debug_abbrev   0x0000000000000000     0xc20a
 .debug_abbrev  0x0000000000000000      0x4be CMakeFiles/51_pb_remote_client.dir/src/main.c.obj
 .debug_abbrev  0x00000000000004be      0x4e3 CMakeFiles/51_pb_remote_client.dir/__/__/mesh/models/pb_remote/src/pb_remote_client.c.obj
 .debug_abbrev  0x00000000000009a1      0x642 CMakeFiles/51_pb_remote_client.dir/__/__/mesh/src/access/access.c.obj
 .debug_abbrev  0x0000000000000fe3      0x3dc CMakeFiles/51_pb_remote_client.dir/__/__/mesh/src/access/access_reliable.c.obj
 .debug_abbrev  0x00000000000013bf      0x59b CMakeFiles/51_pb_remote_client.dir/__/__/mesh/src/access/device_state_manager.c.obj
 .debug_abbrev  0x000000000000195a      0x482 CMakeFiles/51_pb_remote_client.dir/__/nrf_mesh_sdk.c.obj
 .debug_abbrev  0x0000000000001ddc       0x14 CMakeFiles/51_pb_remote_client.dir/__/__/toolchain/gcc/gcc_startup_nrf51.S.obj
 .debug_abbrev  0x0000000000001df0      0x106 CMakeFiles/51_pb_remote_client.dir/__/__/toolchain/system_nrf51.c.obj
 .debug_abbrev  0x0000000000001ef6      0x32e ../../mesh/lib_51_MBTLE_PB_ADV_ER.a(provisioning.c.obj)
 .debug_abbrev  0x0000000000002224      0x2a9 ../../mesh/lib_51_MBTLE_PB_ADV_ER.a(nrf_mesh_prov.c.obj)
 .debug_abbrev  0x00000000000024cd      0x4f3 ../../mesh/lib_51_MBTLE_PB_ADV_ER.a(prov_bearer_adv.c.obj)
 .debug_abbrev  0x00000000000029c0      0x3c8 ../../mesh/lib_51_MBTLE_PB_ADV_ER.a(prov_utils.c.obj)
 .debug_abbrev  0x0000000000002d88      0x322 ../../mesh/lib_51_MBTLE_PB_ADV_ER.a(prov_beacon.c.obj)
 .debug_abbrev  0x00000000000030aa      0x415 ../../mesh/lib_51_MBTLE_PB_ADV_ER.a(prov_provisioner.c.obj)
 .debug_abbrev  0x00000000000034bf      0x1a7 ../../mesh/lib_51_MBTLE_CORE.a(nrf_mesh_weak.c.obj)
 .debug_abbrev  0x0000000000003666      0x4d2 ../../mesh/lib_51_MBTLE_CORE.a(bearer_adv.c.obj)
 .debug_abbrev  0x0000000000003b38      0x2d8 ../../mesh/lib_51_MBTLE_CORE.a(fifo.c.obj)
 .debug_abbrev  0x0000000000003e10      0x3e2 ../../mesh/lib_51_MBTLE_CORE.a(packet_mgr.c.obj)
 .debug_abbrev  0x00000000000041f2      0x40b ../../mesh/lib_51_MBTLE_CORE.a(radio.c.obj)
 .debug_abbrev  0x00000000000045fd      0x2d3 ../../mesh/lib_51_MBTLE_CORE.a(timer.c.obj)
 .debug_abbrev  0x00000000000048d0      0x3d1 ../../mesh/lib_51_MBTLE_CORE.a(timer_scheduler.c.obj)
 .debug_abbrev  0x0000000000004ca1      0x365 ../../mesh/lib_51_MBTLE_CORE.a(beacon.c.obj)
 .debug_abbrev  0x0000000000005006      0x454 ../../mesh/lib_51_MBTLE_CORE.a(bearer.c.obj)
 .debug_abbrev  0x000000000000545a      0x49e ../../mesh/lib_51_MBTLE_CORE.a(bearer_event.c.obj)
 .debug_abbrev  0x00000000000058f8      0x240 ../../mesh/lib_51_MBTLE_CORE.a(nrf_mesh_configure.c.obj)
 .debug_abbrev  0x0000000000005b38      0x324 ../../mesh/lib_51_MBTLE_CORE.a(enc.c.obj)
 .debug_abbrev  0x0000000000005e5c      0x2ab ../../mesh/lib_51_MBTLE_CORE.a(event.c.obj)
 .debug_abbrev  0x0000000000006107      0x24e ../../mesh/lib_51_MBTLE_CORE.a(log.c.obj)
 .debug_abbrev  0x0000000000006355      0x3b5 ../../mesh/lib_51_MBTLE_CORE.a(net_beacon.c.obj)
 .debug_abbrev  0x000000000000670a      0x4f5 ../../mesh/lib_51_MBTLE_CORE.a(net_state.c.obj)
 .debug_abbrev  0x0000000000006bff      0x49d ../../mesh/lib_51_MBTLE_CORE.a(nrf_mesh.c.obj)
 .debug_abbrev  0x000000000000709c      0x20d ../../mesh/lib_51_MBTLE_CORE.a(nrf_mesh_keygen.c.obj)
 .debug_abbrev  0x00000000000072a9      0x24a ../../mesh/lib_51_MBTLE_CORE.a(nrf_mesh_utils.c.obj)
 .debug_abbrev  0x00000000000074f3      0x1a8 ../../mesh/lib_51_MBTLE_CORE.a(radio_config.c.obj)
 .debug_abbrev  0x000000000000769b      0x1af ../../mesh/lib_51_MBTLE_CORE.a(rand.c.obj)
 .debug_abbrev  0x000000000000784a      0x14d ../../mesh/lib_51_MBTLE_CORE.a(ticker.c.obj)
 .debug_abbrev  0x0000000000007997      0x68c ../../mesh/lib_51_MBTLE_CORE.a(transport.c.obj)
 .debug_abbrev  0x0000000000008023      0x24a ../../mesh/lib_51_MBTLE_CORE.a(internal_event.c.obj)
 .debug_abbrev  0x000000000000826d      0x53e ../../mesh/lib_51_MBTLE_CORE.a(flash_manager.c.obj)
 .debug_abbrev  0x00000000000087ab      0x504 ../../mesh/lib_51_MBTLE_CORE.a(flash_manager_defrag.c.obj)
 .debug_abbrev  0x0000000000008caf      0x283 ../../mesh/lib_51_MBTLE_CORE.a(flash_manager_internal.c.obj)
 .debug_abbrev  0x0000000000008f32      0x2f8 ../../mesh/lib_51_MBTLE_CORE.a(aes.c.obj)
 .debug_abbrev  0x000000000000922a      0x222 ../../mesh/lib_51_MBTLE_CORE.a(queue.c.obj)
 .debug_abbrev  0x000000000000944c      0x496 ../../mesh/lib_51_MBTLE_CORE.a(timeslot.c.obj)
 .debug_abbrev  0x00000000000098e2      0x2a4 ../../mesh/lib_51_MBTLE_CORE.a(aes_cmac.c.obj)
 .debug_abbrev  0x0000000000009b86      0x29c ../../mesh/lib_51_MBTLE_CORE.a(ccm_soft.c.obj)
 .debug_abbrev  0x0000000000009e22      0x278 ../../mesh/lib_51_MBTLE_CORE.a(msg_cache.c.obj)
 .debug_abbrev  0x000000000000a09a      0x50c ../../mesh/lib_51_MBTLE_CORE.a(network.c.obj)
 .debug_abbrev  0x000000000000a5a6      0x242 ../../mesh/lib_51_MBTLE_CORE.a(packet.c.obj)
 .debug_abbrev  0x000000000000a7e8      0x417 ../../mesh/lib_51_MBTLE_CORE.a(packet_buffer.c.obj)
 .debug_abbrev  0x000000000000abff      0x24c ../../mesh/lib_51_MBTLE_CORE.a(replay_cache.c.obj)
 .debug_abbrev  0x000000000000ae4b      0x3f6 ../../mesh/lib_51_MBTLE_CORE.a(mesh_flash.c.obj)
 .debug_abbrev  0x000000000000b241      0x22b ../../mesh/lib_51_MBTLE_CORE.a(nrf_flash.c.obj)
 .debug_abbrev  0x000000000000b46c      0x2a5 ../../mesh/lib_51_MBTLE_CORE.a(msqueue.c.obj)
 .debug_abbrev  0x000000000000b711      0x44a ../../lib/micro-ecc/lib_51_UECC_LIB.a(uECC.c.obj)
 .debug_abbrev  0x000000000000bb5b      0x34b ../../lib/rtt/lib_51_RTT_LIB.a(SEGGER_RTT.c.obj)
 .debug_abbrev  0x000000000000bea6      0x364 ../../lib/rtt/lib_51_RTT_LIB.a(SEGGER_RTT_printf.c.obj)

.debug_loc      0x0000000000000000    0x209d9
 .debug_loc     0x0000000000000000      0x597 CMakeFiles/51_pb_remote_client.dir/src/main.c.obj
 .debug_loc     0x0000000000000597     0x1ede CMakeFiles/51_pb_remote_client.dir/__/__/mesh/models/pb_remote/src/pb_remote_client.c.obj
 .debug_loc     0x0000000000002475     0x251a CMakeFiles/51_pb_remote_client.dir/__/__/mesh/src/access/access.c.obj
 .debug_loc     0x000000000000498f      0x78e CMakeFiles/51_pb_remote_client.dir/__/__/mesh/src/access/access_reliable.c.obj
 .debug_loc     0x000000000000511d     0x3708 CMakeFiles/51_pb_remote_client.dir/__/__/mesh/src/access/device_state_manager.c.obj
 .debug_loc     0x0000000000008825      0x35a CMakeFiles/51_pb_remote_client.dir/__/nrf_mesh_sdk.c.obj
 .debug_loc     0x0000000000008b7f      0x826 ../../mesh/lib_51_MBTLE_PB_ADV_ER.a(provisioning.c.obj)
 .debug_loc     0x00000000000093a5      0x889 ../../mesh/lib_51_MBTLE_PB_ADV_ER.a(nrf_mesh_prov.c.obj)
 .debug_loc     0x0000000000009c2e     0x14aa ../../mesh/lib_51_MBTLE_PB_ADV_ER.a(prov_bearer_adv.c.obj)
 .debug_loc     0x000000000000b0d8      0x5a0 ../../mesh/lib_51_MBTLE_PB_ADV_ER.a(prov_utils.c.obj)
 .debug_loc     0x000000000000b678      0x1c9 ../../mesh/lib_51_MBTLE_PB_ADV_ER.a(prov_beacon.c.obj)
 .debug_loc     0x000000000000b841      0x759 ../../mesh/lib_51_MBTLE_PB_ADV_ER.a(prov_provisioner.c.obj)
 .debug_loc     0x000000000000bf9a     0x1082 ../../mesh/lib_51_MBTLE_CORE.a(bearer_adv.c.obj)
 .debug_loc     0x000000000000d01c      0x584 ../../mesh/lib_51_MBTLE_CORE.a(fifo.c.obj)
 .debug_loc     0x000000000000d5a0      0x730 ../../mesh/lib_51_MBTLE_CORE.a(packet_mgr.c.obj)
 .debug_loc     0x000000000000dcd0      0x39a ../../mesh/lib_51_MBTLE_CORE.a(radio.c.obj)
 .debug_loc     0x000000000000e06a      0x7b7 ../../mesh/lib_51_MBTLE_CORE.a(timer.c.obj)
 .debug_loc     0x000000000000e821      0x5ed ../../mesh/lib_51_MBTLE_CORE.a(timer_scheduler.c.obj)
 .debug_loc     0x000000000000ee0e      0x5d9 ../../mesh/lib_51_MBTLE_CORE.a(beacon.c.obj)
 .debug_loc     0x000000000000f3e7      0x8c7 ../../mesh/lib_51_MBTLE_CORE.a(bearer.c.obj)
 .debug_loc     0x000000000000fcae      0x545 ../../mesh/lib_51_MBTLE_CORE.a(bearer_event.c.obj)
 .debug_loc     0x00000000000101f3       0x2c ../../mesh/lib_51_MBTLE_CORE.a(nrf_mesh_configure.c.obj)
 .debug_loc     0x000000000001021f      0xc1f ../../mesh/lib_51_MBTLE_CORE.a(enc.c.obj)
 .debug_loc     0x0000000000010e3e      0x312 ../../mesh/lib_51_MBTLE_CORE.a(event.c.obj)
 .debug_loc     0x0000000000011150      0x2f0 ../../mesh/lib_51_MBTLE_CORE.a(log.c.obj)
 .debug_loc     0x0000000000011440      0x3e5 ../../mesh/lib_51_MBTLE_CORE.a(net_beacon.c.obj)
 .debug_loc     0x0000000000011825      0x729 ../../mesh/lib_51_MBTLE_CORE.a(net_state.c.obj)
 .debug_loc     0x0000000000011f4e      0x3dc ../../mesh/lib_51_MBTLE_CORE.a(nrf_mesh.c.obj)
 .debug_loc     0x000000000001232a      0x226 ../../mesh/lib_51_MBTLE_CORE.a(nrf_mesh_keygen.c.obj)
 .debug_loc     0x0000000000012550      0x12a ../../mesh/lib_51_MBTLE_CORE.a(nrf_mesh_utils.c.obj)
 .debug_loc     0x000000000001267a      0x2e2 ../../mesh/lib_51_MBTLE_CORE.a(radio_config.c.obj)
 .debug_loc     0x000000000001295c      0x1b2 ../../mesh/lib_51_MBTLE_CORE.a(rand.c.obj)
 .debug_loc     0x0000000000012b0e     0x248a ../../mesh/lib_51_MBTLE_CORE.a(transport.c.obj)
 .debug_loc     0x0000000000014f98      0x135 ../../mesh/lib_51_MBTLE_CORE.a(internal_event.c.obj)
 .debug_loc     0x00000000000150cd     0x2190 ../../mesh/lib_51_MBTLE_CORE.a(flash_manager.c.obj)
 .debug_loc     0x000000000001725d      0xc03 ../../mesh/lib_51_MBTLE_CORE.a(flash_manager_defrag.c.obj)
 .debug_loc     0x0000000000017e60      0x149 ../../mesh/lib_51_MBTLE_CORE.a(flash_manager_internal.c.obj)
 .debug_loc     0x0000000000017fa9       0xcb ../../mesh/lib_51_MBTLE_CORE.a(aes.c.obj)
 .debug_loc     0x0000000000018074      0x251 ../../mesh/lib_51_MBTLE_CORE.a(queue.c.obj)
 .debug_loc     0x00000000000182c5      0x31f ../../mesh/lib_51_MBTLE_CORE.a(timeslot.c.obj)
 .debug_loc     0x00000000000185e4      0x4c9 ../../mesh/lib_51_MBTLE_CORE.a(aes_cmac.c.obj)
 .debug_loc     0x0000000000018aad      0x88b ../../mesh/lib_51_MBTLE_CORE.a(ccm_soft.c.obj)
 .debug_loc     0x0000000000019338      0x139 ../../mesh/lib_51_MBTLE_CORE.a(msg_cache.c.obj)
 .debug_loc     0x0000000000019471      0xafd ../../mesh/lib_51_MBTLE_CORE.a(network.c.obj)
 .debug_loc     0x0000000000019f6e      0x144 ../../mesh/lib_51_MBTLE_CORE.a(packet.c.obj)
 .debug_loc     0x000000000001a0b2      0xe4d ../../mesh/lib_51_MBTLE_CORE.a(packet_buffer.c.obj)
 .debug_loc     0x000000000001aeff      0x248 ../../mesh/lib_51_MBTLE_CORE.a(replay_cache.c.obj)
 .debug_loc     0x000000000001b147      0xa6a ../../mesh/lib_51_MBTLE_CORE.a(mesh_flash.c.obj)
 .debug_loc     0x000000000001bbb1       0xf4 ../../mesh/lib_51_MBTLE_CORE.a(nrf_flash.c.obj)
 .debug_loc     0x000000000001bca5      0x4d7 ../../mesh/lib_51_MBTLE_CORE.a(msqueue.c.obj)
 .debug_loc     0x000000000001c17c     0x27fd ../../lib/micro-ecc/lib_51_UECC_LIB.a(uECC.c.obj)
 .debug_loc     0x000000000001e979     0x18a4 ../../lib/rtt/lib_51_RTT_LIB.a(SEGGER_RTT.c.obj)
 .debug_loc     0x000000000002021d      0x7bc ../../lib/rtt/lib_51_RTT_LIB.a(SEGGER_RTT_printf.c.obj)

.debug_aranges  0x0000000000000000     0x1a20
 .debug_aranges
                0x0000000000000000       0x38 CMakeFiles/51_pb_remote_client.dir/src/main.c.obj
 .debug_aranges
                0x0000000000000038       0xf0 CMakeFiles/51_pb_remote_client.dir/__/__/mesh/models/pb_remote/src/pb_remote_client.c.obj
 .debug_aranges
                0x0000000000000128      0x190 CMakeFiles/51_pb_remote_client.dir/__/__/mesh/src/access/access.c.obj
 .debug_aranges
                0x00000000000002b8       0x50 CMakeFiles/51_pb_remote_client.dir/__/__/mesh/src/access/access_reliable.c.obj
 .debug_aranges
                0x0000000000000308      0x298 CMakeFiles/51_pb_remote_client.dir/__/__/mesh/src/access/device_state_manager.c.obj
 .debug_aranges
                0x00000000000005a0       0x78 CMakeFiles/51_pb_remote_client.dir/__/nrf_mesh_sdk.c.obj
 .debug_aranges
                0x0000000000000618       0x20 CMakeFiles/51_pb_remote_client.dir/__/__/toolchain/gcc/gcc_startup_nrf51.S.obj
 .debug_aranges
                0x0000000000000638       0x28 CMakeFiles/51_pb_remote_client.dir/__/__/toolchain/system_nrf51.c.obj
 .debug_aranges
                0x0000000000000660       0xc8 ../../mesh/lib_51_MBTLE_PB_ADV_ER.a(provisioning.c.obj)
 .debug_aranges
                0x0000000000000728       0x58 ../../mesh/lib_51_MBTLE_PB_ADV_ER.a(nrf_mesh_prov.c.obj)
 .debug_aranges
                0x0000000000000780       0xb8 ../../mesh/lib_51_MBTLE_PB_ADV_ER.a(prov_bearer_adv.c.obj)
 .debug_aranges
                0x0000000000000838       0x70 ../../mesh/lib_51_MBTLE_PB_ADV_ER.a(prov_utils.c.obj)
 .debug_aranges
                0x00000000000008a8       0x30 ../../mesh/lib_51_MBTLE_PB_ADV_ER.a(prov_beacon.c.obj)
 .debug_aranges
                0x00000000000008d8       0x70 ../../mesh/lib_51_MBTLE_PB_ADV_ER.a(prov_provisioner.c.obj)
 .debug_aranges
                0x0000000000000948       0x28 ../../mesh/lib_51_MBTLE_CORE.a(nrf_mesh_weak.c.obj)
 .debug_aranges
                0x0000000000000970      0x100 ../../mesh/lib_51_MBTLE_CORE.a(bearer_adv.c.obj)
 .debug_aranges
                0x0000000000000a70       0x60 ../../mesh/lib_51_MBTLE_CORE.a(fifo.c.obj)
 .debug_aranges
                0x0000000000000ad0       0x48 ../../mesh/lib_51_MBTLE_CORE.a(packet_mgr.c.obj)
 .debug_aranges
                0x0000000000000b18       0x98 ../../mesh/lib_51_MBTLE_CORE.a(radio.c.obj)
 .debug_aranges
                0x0000000000000bb0       0x58 ../../mesh/lib_51_MBTLE_CORE.a(timer.c.obj)
 .debug_aranges
                0x0000000000000c08       0x60 ../../mesh/lib_51_MBTLE_CORE.a(timer_scheduler.c.obj)
 .debug_aranges
                0x0000000000000c68       0x38 ../../mesh/lib_51_MBTLE_CORE.a(beacon.c.obj)
 .debug_aranges
                0x0000000000000ca0       0x90 ../../mesh/lib_51_MBTLE_CORE.a(bearer.c.obj)
 .debug_aranges
                0x0000000000000d30       0x70 ../../mesh/lib_51_MBTLE_CORE.a(bearer_event.c.obj)
 .debug_aranges
                0x0000000000000da0       0x30 ../../mesh/lib_51_MBTLE_CORE.a(nrf_mesh_configure.c.obj)
 .debug_aranges
                0x0000000000000dd0       0x70 ../../mesh/lib_51_MBTLE_CORE.a(enc.c.obj)
 .debug_aranges
                0x0000000000000e40       0x30 ../../mesh/lib_51_MBTLE_CORE.a(event.c.obj)
 .debug_aranges
                0x0000000000000e70       0x48 ../../mesh/lib_51_MBTLE_CORE.a(log.c.obj)
 .debug_aranges
                0x0000000000000eb8       0x40 ../../mesh/lib_51_MBTLE_CORE.a(net_beacon.c.obj)
 .debug_aranges
                0x0000000000000ef8       0xb8 ../../mesh/lib_51_MBTLE_CORE.a(net_state.c.obj)
 .debug_aranges
                0x0000000000000fb0       0x80 ../../mesh/lib_51_MBTLE_CORE.a(nrf_mesh.c.obj)
 .debug_aranges
                0x0000000000001030       0x40 ../../mesh/lib_51_MBTLE_CORE.a(nrf_mesh_keygen.c.obj)
 .debug_aranges
                0x0000000000001070       0x30 ../../mesh/lib_51_MBTLE_CORE.a(nrf_mesh_utils.c.obj)
 .debug_aranges
                0x00000000000010a0       0x40 ../../mesh/lib_51_MBTLE_CORE.a(radio_config.c.obj)
 .debug_aranges
                0x00000000000010e0       0x40 ../../mesh/lib_51_MBTLE_CORE.a(rand.c.obj)
 .debug_aranges
                0x0000000000001120       0x30 ../../mesh/lib_51_MBTLE_CORE.a(ticker.c.obj)
 .debug_aranges
                0x0000000000001150       0xd8 ../../mesh/lib_51_MBTLE_CORE.a(transport.c.obj)
 .debug_aranges
                0x0000000000001228       0x30 ../../mesh/lib_51_MBTLE_CORE.a(internal_event.c.obj)
 .debug_aranges
                0x0000000000001258       0xb8 ../../mesh/lib_51_MBTLE_CORE.a(flash_manager.c.obj)
 .debug_aranges
                0x0000000000001310       0xa8 ../../mesh/lib_51_MBTLE_CORE.a(flash_manager_defrag.c.obj)
 .debug_aranges
                0x00000000000013b8       0x20 ../../mesh/lib_51_MBTLE_CORE.a(flash_manager_internal.c.obj)
 .debug_aranges
                0x00000000000013d8       0x28 ../../mesh/lib_51_MBTLE_CORE.a(aes.c.obj)
 .debug_aranges
                0x0000000000001400       0x38 ../../mesh/lib_51_MBTLE_CORE.a(queue.c.obj)
 .debug_aranges
                0x0000000000001438       0xa8 ../../mesh/lib_51_MBTLE_CORE.a(timeslot.c.obj)
 .debug_aranges
                0x00000000000014e0       0x28 ../../mesh/lib_51_MBTLE_CORE.a(aes_cmac.c.obj)
 .debug_aranges
                0x0000000000001508       0x40 ../../mesh/lib_51_MBTLE_CORE.a(ccm_soft.c.obj)
 .debug_aranges
                0x0000000000001548       0x38 ../../mesh/lib_51_MBTLE_CORE.a(msg_cache.c.obj)
 .debug_aranges
                0x0000000000001580       0x58 ../../mesh/lib_51_MBTLE_CORE.a(network.c.obj)
 .debug_aranges
                0x00000000000015d8       0x20 ../../mesh/lib_51_MBTLE_CORE.a(packet.c.obj)
 .debug_aranges
                0x00000000000015f8       0x68 ../../mesh/lib_51_MBTLE_CORE.a(packet_buffer.c.obj)
 .debug_aranges
                0x0000000000001660       0x48 ../../mesh/lib_51_MBTLE_CORE.a(replay_cache.c.obj)
 .debug_aranges
                0x00000000000016a8       0x58 ../../mesh/lib_51_MBTLE_CORE.a(mesh_flash.c.obj)
 .debug_aranges
                0x0000000000001700       0x28 ../../mesh/lib_51_MBTLE_CORE.a(nrf_flash.c.obj)
 .debug_aranges
                0x0000000000001728       0x40 ../../mesh/lib_51_MBTLE_CORE.a(msqueue.c.obj)
 .debug_aranges
                0x0000000000001768      0x1a8 ../../lib/micro-ecc/lib_51_UECC_LIB.a(uECC.c.obj)
 .debug_aranges
                0x0000000000001910       0xd8 ../../lib/rtt/lib_51_RTT_LIB.a(SEGGER_RTT.c.obj)
 .debug_aranges
                0x00000000000019e8       0x38 ../../lib/rtt/lib_51_RTT_LIB.a(SEGGER_RTT_printf.c.obj)

.debug_ranges   0x0000000000000000     0x4e00
 .debug_ranges  0x0000000000000000      0x248 CMakeFiles/51_pb_remote_client.dir/src/main.c.obj
 .debug_ranges  0x0000000000000248      0x5b8 CMakeFiles/51_pb_remote_client.dir/__/__/mesh/models/pb_remote/src/pb_remote_client.c.obj
 .debug_ranges  0x0000000000000800      0x608 CMakeFiles/51_pb_remote_client.dir/__/__/mesh/src/access/access.c.obj
 .debug_ranges  0x0000000000000e08      0x218 CMakeFiles/51_pb_remote_client.dir/__/__/mesh/src/access/access_reliable.c.obj
 .debug_ranges  0x0000000000001020      0x850 CMakeFiles/51_pb_remote_client.dir/__/__/mesh/src/access/device_state_manager.c.obj
 .debug_ranges  0x0000000000001870       0xc8 CMakeFiles/51_pb_remote_client.dir/__/nrf_mesh_sdk.c.obj
 .debug_ranges  0x0000000000001938       0x70 CMakeFiles/51_pb_remote_client.dir/__/__/toolchain/system_nrf51.c.obj
 .debug_ranges  0x00000000000019a8       0xb8 ../../mesh/lib_51_MBTLE_PB_ADV_ER.a(provisioning.c.obj)
 .debug_ranges  0x0000000000001a60       0x60 ../../mesh/lib_51_MBTLE_PB_ADV_ER.a(nrf_mesh_prov.c.obj)
 .debug_ranges  0x0000000000001ac0      0x258 ../../mesh/lib_51_MBTLE_PB_ADV_ER.a(prov_bearer_adv.c.obj)
 .debug_ranges  0x0000000000001d18       0x90 ../../mesh/lib_51_MBTLE_PB_ADV_ER.a(prov_utils.c.obj)
 .debug_ranges  0x0000000000001da8       0x50 ../../mesh/lib_51_MBTLE_PB_ADV_ER.a(prov_beacon.c.obj)
 .debug_ranges  0x0000000000001df8       0x78 ../../mesh/lib_51_MBTLE_PB_ADV_ER.a(prov_provisioner.c.obj)
 .debug_ranges  0x0000000000001e70       0x18 ../../mesh/lib_51_MBTLE_CORE.a(nrf_mesh_weak.c.obj)
 .debug_ranges  0x0000000000001e88      0x198 ../../mesh/lib_51_MBTLE_CORE.a(bearer_adv.c.obj)
 .debug_ranges  0x0000000000002020       0x80 ../../mesh/lib_51_MBTLE_CORE.a(fifo.c.obj)
 .debug_ranges  0x00000000000020a0      0x148 ../../mesh/lib_51_MBTLE_CORE.a(packet_mgr.c.obj)
 .debug_ranges  0x00000000000021e8      0x110 ../../mesh/lib_51_MBTLE_CORE.a(radio.c.obj)
 .debug_ranges  0x00000000000022f8       0xa8 ../../mesh/lib_51_MBTLE_CORE.a(timer.c.obj)
 .debug_ranges  0x00000000000023a0      0x250 ../../mesh/lib_51_MBTLE_CORE.a(timer_scheduler.c.obj)
 .debug_ranges  0x00000000000025f0       0x58 ../../mesh/lib_51_MBTLE_CORE.a(beacon.c.obj)
 .debug_ranges  0x0000000000002648      0x1c0 ../../mesh/lib_51_MBTLE_CORE.a(bearer.c.obj)
 .debug_ranges  0x0000000000002808       0xf8 ../../mesh/lib_51_MBTLE_CORE.a(bearer_event.c.obj)
 .debug_ranges  0x0000000000002900       0x20 ../../mesh/lib_51_MBTLE_CORE.a(nrf_mesh_configure.c.obj)
 .debug_ranges  0x0000000000002920       0x60 ../../mesh/lib_51_MBTLE_CORE.a(enc.c.obj)
 .debug_ranges  0x0000000000002980       0xa8 ../../mesh/lib_51_MBTLE_CORE.a(event.c.obj)
 .debug_ranges  0x0000000000002a28       0x38 ../../mesh/lib_51_MBTLE_CORE.a(log.c.obj)
 .debug_ranges  0x0000000000002a60       0xa8 ../../mesh/lib_51_MBTLE_CORE.a(net_beacon.c.obj)
 .debug_ranges  0x0000000000002b08      0x170 ../../mesh/lib_51_MBTLE_CORE.a(net_state.c.obj)
 .debug_ranges  0x0000000000002c78       0xa8 ../../mesh/lib_51_MBTLE_CORE.a(nrf_mesh.c.obj)
 .debug_ranges  0x0000000000002d20       0x30 ../../mesh/lib_51_MBTLE_CORE.a(nrf_mesh_keygen.c.obj)
 .debug_ranges  0x0000000000002d50       0x20 ../../mesh/lib_51_MBTLE_CORE.a(nrf_mesh_utils.c.obj)
 .debug_ranges  0x0000000000002d70       0xf8 ../../mesh/lib_51_MBTLE_CORE.a(radio_config.c.obj)
 .debug_ranges  0x0000000000002e68       0x30 ../../mesh/lib_51_MBTLE_CORE.a(rand.c.obj)
 .debug_ranges  0x0000000000002e98       0x20 ../../mesh/lib_51_MBTLE_CORE.a(ticker.c.obj)
 .debug_ranges  0x0000000000002eb8      0x518 ../../mesh/lib_51_MBTLE_CORE.a(transport.c.obj)
 .debug_ranges  0x00000000000033d0       0x20 ../../mesh/lib_51_MBTLE_CORE.a(internal_event.c.obj)
 .debug_ranges  0x00000000000033f0      0x998 ../../mesh/lib_51_MBTLE_CORE.a(flash_manager.c.obj)
 .debug_ranges  0x0000000000003d88      0x340 ../../mesh/lib_51_MBTLE_CORE.a(flash_manager_defrag.c.obj)
 .debug_ranges  0x00000000000040c8       0x68 ../../mesh/lib_51_MBTLE_CORE.a(flash_manager_internal.c.obj)
 .debug_ranges  0x0000000000004130       0x18 ../../mesh/lib_51_MBTLE_CORE.a(aes.c.obj)
 .debug_ranges  0x0000000000004148       0x28 ../../mesh/lib_51_MBTLE_CORE.a(queue.c.obj)
 .debug_ranges  0x0000000000004170       0xc8 ../../mesh/lib_51_MBTLE_CORE.a(timeslot.c.obj)
 .debug_ranges  0x0000000000004238       0x18 ../../mesh/lib_51_MBTLE_CORE.a(aes_cmac.c.obj)
 .debug_ranges  0x0000000000004250       0x30 ../../mesh/lib_51_MBTLE_CORE.a(ccm_soft.c.obj)
 .debug_ranges  0x0000000000004280       0x40 ../../mesh/lib_51_MBTLE_CORE.a(msg_cache.c.obj)
 .debug_ranges  0x00000000000042c0      0x110 ../../mesh/lib_51_MBTLE_CORE.a(network.c.obj)
 .debug_ranges  0x00000000000043d0       0x28 ../../mesh/lib_51_MBTLE_CORE.a(packet.c.obj)
 .debug_ranges  0x00000000000043f8      0x220 ../../mesh/lib_51_MBTLE_CORE.a(packet_buffer.c.obj)
 .debug_ranges  0x0000000000004618       0x88 ../../mesh/lib_51_MBTLE_CORE.a(replay_cache.c.obj)
 .debug_ranges  0x00000000000046a0      0x268 ../../mesh/lib_51_MBTLE_CORE.a(mesh_flash.c.obj)
 .debug_ranges  0x0000000000004908       0x48 ../../mesh/lib_51_MBTLE_CORE.a(nrf_flash.c.obj)
 .debug_ranges  0x0000000000004950       0xf0 ../../mesh/lib_51_MBTLE_CORE.a(msqueue.c.obj)
 .debug_ranges  0x0000000000004a40      0x250 ../../lib/micro-ecc/lib_51_UECC_LIB.a(uECC.c.obj)
 .debug_ranges  0x0000000000004c90      0x148 ../../lib/rtt/lib_51_RTT_LIB.a(SEGGER_RTT.c.obj)
 .debug_ranges  0x0000000000004dd8       0x28 ../../lib/rtt/lib_51_RTT_LIB.a(SEGGER_RTT_printf.c.obj)

.debug_line     0x0000000000000000    0x13d03
 .debug_line    0x0000000000000000      0x9a2 CMakeFiles/51_pb_remote_client.dir/src/main.c.obj
 .debug_line    0x00000000000009a2      0xf37 CMakeFiles/51_pb_remote_client.dir/__/__/mesh/models/pb_remote/src/pb_remote_client.c.obj
 .debug_line    0x00000000000018d9      0xe42 CMakeFiles/51_pb_remote_client.dir/__/__/mesh/src/access/access.c.obj
 .debug_line    0x000000000000271b      0x4c8 CMakeFiles/51_pb_remote_client.dir/__/__/mesh/src/access/access_reliable.c.obj
 .debug_line    0x0000000000002be3     0x1464 CMakeFiles/51_pb_remote_client.dir/__/__/mesh/src/access/device_state_manager.c.obj
 .debug_line    0x0000000000004047      0x63e CMakeFiles/51_pb_remote_client.dir/__/nrf_mesh_sdk.c.obj
 .debug_line    0x0000000000004685       0xac CMakeFiles/51_pb_remote_client.dir/__/__/toolchain/gcc/gcc_startup_nrf51.S.obj
 .debug_line    0x0000000000004731      0x17c CMakeFiles/51_pb_remote_client.dir/__/__/toolchain/system_nrf51.c.obj
 .debug_line    0x00000000000048ad      0x5f5 ../../mesh/lib_51_MBTLE_PB_ADV_ER.a(provisioning.c.obj)
 .debug_line    0x0000000000004ea2      0x4b9 ../../mesh/lib_51_MBTLE_PB_ADV_ER.a(nrf_mesh_prov.c.obj)
 .debug_line    0x000000000000535b      0xae8 ../../mesh/lib_51_MBTLE_PB_ADV_ER.a(prov_bearer_adv.c.obj)
 .debug_line    0x0000000000005e43      0x53b ../../mesh/lib_51_MBTLE_PB_ADV_ER.a(prov_utils.c.obj)
 .debug_line    0x000000000000637e      0x39f ../../mesh/lib_51_MBTLE_PB_ADV_ER.a(prov_beacon.c.obj)
 .debug_line    0x000000000000671d      0x602 ../../mesh/lib_51_MBTLE_PB_ADV_ER.a(prov_provisioner.c.obj)
 .debug_line    0x0000000000006d1f      0x231 ../../mesh/lib_51_MBTLE_CORE.a(nrf_mesh_weak.c.obj)
 .debug_line    0x0000000000006f50      0x974 ../../mesh/lib_51_MBTLE_CORE.a(bearer_adv.c.obj)
 .debug_line    0x00000000000078c4      0x405 ../../mesh/lib_51_MBTLE_CORE.a(fifo.c.obj)
 .debug_line    0x0000000000007cc9      0x4af ../../mesh/lib_51_MBTLE_CORE.a(packet_mgr.c.obj)
 .debug_line    0x0000000000008178      0x564 ../../mesh/lib_51_MBTLE_CORE.a(radio.c.obj)
 .debug_line    0x00000000000086dc      0x4a5 ../../mesh/lib_51_MBTLE_CORE.a(timer.c.obj)
 .debug_line    0x0000000000008b81      0x501 ../../mesh/lib_51_MBTLE_CORE.a(timer_scheduler.c.obj)
 .debug_line    0x0000000000009082      0x506 ../../mesh/lib_51_MBTLE_CORE.a(beacon.c.obj)
 .debug_line    0x0000000000009588      0x63a ../../mesh/lib_51_MBTLE_CORE.a(bearer.c.obj)
 .debug_line    0x0000000000009bc2      0x53b ../../mesh/lib_51_MBTLE_CORE.a(bearer_event.c.obj)
 .debug_line    0x000000000000a0fd      0x21c ../../mesh/lib_51_MBTLE_CORE.a(nrf_mesh_configure.c.obj)
 .debug_line    0x000000000000a319      0x44e ../../mesh/lib_51_MBTLE_CORE.a(enc.c.obj)
 .debug_line    0x000000000000a767      0x31a ../../mesh/lib_51_MBTLE_CORE.a(event.c.obj)
 .debug_line    0x000000000000aa81      0x28c ../../mesh/lib_51_MBTLE_CORE.a(log.c.obj)
 .debug_line    0x000000000000ad0d      0x399 ../../mesh/lib_51_MBTLE_CORE.a(net_beacon.c.obj)
 .debug_line    0x000000000000b0a6      0x6df ../../mesh/lib_51_MBTLE_CORE.a(net_state.c.obj)
 .debug_line    0x000000000000b785      0x77c ../../mesh/lib_51_MBTLE_CORE.a(nrf_mesh.c.obj)
 .debug_line    0x000000000000bf01      0x2cd ../../mesh/lib_51_MBTLE_CORE.a(nrf_mesh_keygen.c.obj)
 .debug_line    0x000000000000c1ce      0x27b ../../mesh/lib_51_MBTLE_CORE.a(nrf_mesh_utils.c.obj)
 .debug_line    0x000000000000c449      0x355 ../../mesh/lib_51_MBTLE_CORE.a(radio_config.c.obj)
 .debug_line    0x000000000000c79e      0x2ab ../../mesh/lib_51_MBTLE_CORE.a(rand.c.obj)
 .debug_line    0x000000000000ca49      0x163 ../../mesh/lib_51_MBTLE_CORE.a(ticker.c.obj)
 .debug_line    0x000000000000cbac     0x1513 ../../mesh/lib_51_MBTLE_CORE.a(transport.c.obj)
 .debug_line    0x000000000000e0bf      0x2a8 ../../mesh/lib_51_MBTLE_CORE.a(internal_event.c.obj)
 .debug_line    0x000000000000e367      0xbb2 ../../mesh/lib_51_MBTLE_CORE.a(flash_manager.c.obj)
 .debug_line    0x000000000000ef19      0x828 ../../mesh/lib_51_MBTLE_CORE.a(flash_manager_defrag.c.obj)
 .debug_line    0x000000000000f741      0x2a8 ../../mesh/lib_51_MBTLE_CORE.a(flash_manager_internal.c.obj)
 .debug_line    0x000000000000f9e9      0x313 ../../mesh/lib_51_MBTLE_CORE.a(aes.c.obj)
 .debug_line    0x000000000000fcfc      0x329 ../../mesh/lib_51_MBTLE_CORE.a(queue.c.obj)
 .debug_line    0x0000000000010025      0x5f4 ../../mesh/lib_51_MBTLE_CORE.a(timeslot.c.obj)
 .debug_line    0x0000000000010619      0x2b1 ../../mesh/lib_51_MBTLE_CORE.a(aes_cmac.c.obj)
 .debug_line    0x00000000000108ca      0x323 ../../mesh/lib_51_MBTLE_CORE.a(ccm_soft.c.obj)
 .debug_line    0x0000000000010bed      0x2b4 ../../mesh/lib_51_MBTLE_CORE.a(msg_cache.c.obj)
 .debug_line    0x0000000000010ea1      0x6f9 ../../mesh/lib_51_MBTLE_CORE.a(network.c.obj)
 .debug_line    0x000000000001159a      0x27a ../../mesh/lib_51_MBTLE_CORE.a(packet.c.obj)
 .debug_line    0x0000000000011814      0x6a4 ../../mesh/lib_51_MBTLE_CORE.a(packet_buffer.c.obj)
 .debug_line    0x0000000000011eb8      0x20f ../../mesh/lib_51_MBTLE_CORE.a(replay_cache.c.obj)
 .debug_line    0x00000000000120c7      0x546 ../../mesh/lib_51_MBTLE_CORE.a(mesh_flash.c.obj)
 .debug_line    0x000000000001260d      0x2e7 ../../mesh/lib_51_MBTLE_CORE.a(nrf_flash.c.obj)
 .debug_line    0x00000000000128f4      0x397 ../../mesh/lib_51_MBTLE_CORE.a(msqueue.c.obj)
 .debug_line    0x0000000000012c8b      0x908 ../../lib/micro-ecc/lib_51_UECC_LIB.a(uECC.c.obj)
 .debug_line    0x0000000000013593      0x4b5 ../../lib/rtt/lib_51_RTT_LIB.a(SEGGER_RTT.c.obj)
 .debug_line    0x0000000000013a48      0x2bb ../../lib/rtt/lib_51_RTT_LIB.a(SEGGER_RTT_printf.c.obj)

.debug_str      0x0000000000000000     0xfbc8
 .debug_str     0x0000000000000000     0x2772 CMakeFiles/51_pb_remote_client.dir/src/main.c.obj
                                       0x29e8 (size before relaxing)
 .debug_str     0x0000000000002772     0x1e84 CMakeFiles/51_pb_remote_client.dir/__/__/mesh/models/pb_remote/src/pb_remote_client.c.obj
                                       0x316e (size before relaxing)
 .debug_str     0x00000000000045f6     0x117b CMakeFiles/51_pb_remote_client.dir/__/__/mesh/src/access/access.c.obj
                                       0x3145 (size before relaxing)
 .debug_str     0x0000000000005771      0x18f CMakeFiles/51_pb_remote_client.dir/__/__/mesh/src/access/access_reliable.c.obj
                                        0xc41 (size before relaxing)
 .debug_str     0x0000000000005900     0x10be CMakeFiles/51_pb_remote_client.dir/__/__/mesh/src/access/device_state_manager.c.obj
                                       0x336e (size before relaxing)
 .debug_str     0x00000000000069be     0x15a9 CMakeFiles/51_pb_remote_client.dir/__/nrf_mesh_sdk.c.obj
                                       0x1f1f (size before relaxing)
 .debug_str     0x0000000000007f67      0x116 CMakeFiles/51_pb_remote_client.dir/__/__/toolchain/system_nrf51.c.obj
                                        0x2c4 (size before relaxing)
 .debug_str     0x000000000000807d      0x453 ../../mesh/lib_51_MBTLE_PB_ADV_ER.a(provisioning.c.obj)
                                       0x16bd (size before relaxing)
 .debug_str     0x00000000000084d0      0x1f1 ../../mesh/lib_51_MBTLE_PB_ADV_ER.a(nrf_mesh_prov.c.obj)
                                       0x1a10 (size before relaxing)
 .debug_str     0x00000000000086c1      0x5b5 ../../mesh/lib_51_MBTLE_PB_ADV_ER.a(prov_bearer_adv.c.obj)
                                       0x16b9 (size before relaxing)
 .debug_str     0x0000000000008c76      0x657 ../../mesh/lib_51_MBTLE_PB_ADV_ER.a(prov_utils.c.obj)
                                       0x1ee2 (size before relaxing)
 .debug_str     0x00000000000092cd      0x10c ../../mesh/lib_51_MBTLE_PB_ADV_ER.a(prov_beacon.c.obj)
                                       0x1c1c (size before relaxing)
 .debug_str     0x00000000000093d9      0x194 ../../mesh/lib_51_MBTLE_PB_ADV_ER.a(prov_provisioner.c.obj)
                                       0x2d20 (size before relaxing)
 .debug_str     0x000000000000956d       0x68 ../../mesh/lib_51_MBTLE_CORE.a(nrf_mesh_weak.c.obj)
                                        0x670 (size before relaxing)
 .debug_str     0x00000000000095d5      0x736 ../../mesh/lib_51_MBTLE_CORE.a(bearer_adv.c.obj)
                                       0x2b92 (size before relaxing)
 .debug_str     0x0000000000009d0b       0x7a ../../mesh/lib_51_MBTLE_CORE.a(fifo.c.obj)
                                        0x6d8 (size before relaxing)
 .debug_str     0x0000000000009d85      0x291 ../../mesh/lib_51_MBTLE_CORE.a(packet_mgr.c.obj)
                                        0x9e5 (size before relaxing)
 .debug_str     0x000000000000a016      0x488 ../../mesh/lib_51_MBTLE_CORE.a(radio.c.obj)
                                       0x1066 (size before relaxing)
 .debug_str     0x000000000000a49e      0x279 ../../mesh/lib_51_MBTLE_CORE.a(timer.c.obj)
                                        0x72b (size before relaxing)
 .debug_str     0x000000000000a717      0x188 ../../mesh/lib_51_MBTLE_CORE.a(timer_scheduler.c.obj)
                                        0x931 (size before relaxing)
 .debug_str     0x000000000000a89f       0xcc ../../mesh/lib_51_MBTLE_CORE.a(beacon.c.obj)
                                        0xd16 (size before relaxing)
 .debug_str     0x000000000000a96b      0x664 ../../mesh/lib_51_MBTLE_CORE.a(bearer.c.obj)
                                       0x149f (size before relaxing)
 .debug_str     0x000000000000afcf      0x233 ../../mesh/lib_51_MBTLE_CORE.a(bearer_event.c.obj)
                                        0xbe4 (size before relaxing)
 .debug_str     0x000000000000b202       0xa1 ../../mesh/lib_51_MBTLE_CORE.a(nrf_mesh_configure.c.obj)
                                        0x737 (size before relaxing)
 .debug_str     0x000000000000b2a3      0x1e5 ../../mesh/lib_51_MBTLE_CORE.a(enc.c.obj)
                                        0x917 (size before relaxing)
 .debug_str     0x000000000000b488       0xef ../../mesh/lib_51_MBTLE_CORE.a(event.c.obj)
                                       0x1742 (size before relaxing)
 .debug_str     0x000000000000b577      0x11c ../../mesh/lib_51_MBTLE_CORE.a(log.c.obj)
                                        0x7f3 (size before relaxing)
 .debug_str     0x000000000000b693      0x252 ../../mesh/lib_51_MBTLE_CORE.a(net_beacon.c.obj)
                                        0xc04 (size before relaxing)
 .debug_str     0x000000000000b8e5      0x339 ../../mesh/lib_51_MBTLE_CORE.a(net_state.c.obj)
                                       0x246b (size before relaxing)
 .debug_str     0x000000000000bc1e      0x37c ../../mesh/lib_51_MBTLE_CORE.a(nrf_mesh.c.obj)
                                       0x2f64 (size before relaxing)
 .debug_str     0x000000000000bf9a       0x83 ../../mesh/lib_51_MBTLE_CORE.a(nrf_mesh_keygen.c.obj)
                                        0x7e8 (size before relaxing)
 .debug_str     0x000000000000c01d       0xa7 ../../mesh/lib_51_MBTLE_CORE.a(nrf_mesh_utils.c.obj)
                                        0x74e (size before relaxing)
 .debug_str     0x000000000000c0c4       0xc0 ../../mesh/lib_51_MBTLE_CORE.a(radio_config.c.obj)
                                        0x700 (size before relaxing)
 .debug_str     0x000000000000c184       0xab ../../mesh/lib_51_MBTLE_CORE.a(rand.c.obj)
                                        0x70d (size before relaxing)
 .debug_str     0x000000000000c22f       0x68 ../../mesh/lib_51_MBTLE_CORE.a(ticker.c.obj)
                                        0x34e (size before relaxing)
 .debug_str     0x000000000000c297      0x9eb ../../mesh/lib_51_MBTLE_CORE.a(transport.c.obj)
                                       0x3285 (size before relaxing)
 .debug_str     0x000000000000cc82       0xec ../../mesh/lib_51_MBTLE_CORE.a(internal_event.c.obj)
                                        0xa9b (size before relaxing)
 .debug_str     0x000000000000cd6e      0x8ef ../../mesh/lib_51_MBTLE_CORE.a(flash_manager.c.obj)
                                       0x1994 (size before relaxing)
 .debug_str     0x000000000000d65d      0x3d6 ../../mesh/lib_51_MBTLE_CORE.a(flash_manager_defrag.c.obj)
                                       0x1507 (size before relaxing)
 .debug_str     0x000000000000da33       0x64 ../../mesh/lib_51_MBTLE_CORE.a(flash_manager_internal.c.obj)
                                        0x7e1 (size before relaxing)
 .debug_str     0x000000000000da97      0x16d ../../mesh/lib_51_MBTLE_CORE.a(aes.c.obj)
                                        0xb80 (size before relaxing)
 .debug_str     0x000000000000dc04       0x50 ../../mesh/lib_51_MBTLE_CORE.a(queue.c.obj)
                                        0x680 (size before relaxing)
 .debug_str     0x000000000000dc54      0x798 ../../mesh/lib_51_MBTLE_CORE.a(timeslot.c.obj)
                                       0x1787 (size before relaxing)
 .debug_str     0x000000000000e3ec       0xf6 ../../mesh/lib_51_MBTLE_CORE.a(aes_cmac.c.obj)
                                        0x738 (size before relaxing)
 .debug_str     0x000000000000e4e2       0xb1 ../../mesh/lib_51_MBTLE_CORE.a(ccm_soft.c.obj)
                                        0x780 (size before relaxing)
 .debug_str     0x000000000000e593       0xbf ../../mesh/lib_51_MBTLE_CORE.a(msg_cache.c.obj)
                                        0x750 (size before relaxing)
 .debug_str     0x000000000000e652      0x282 ../../mesh/lib_51_MBTLE_CORE.a(network.c.obj)
                                       0x15cd (size before relaxing)
 .debug_str     0x000000000000e8d4       0x46 ../../mesh/lib_51_MBTLE_CORE.a(packet.c.obj)
                                        0x732 (size before relaxing)
 .debug_str     0x000000000000e91a      0x2ae ../../mesh/lib_51_MBTLE_CORE.a(packet_buffer.c.obj)
                                        0xba6 (size before relaxing)
 .debug_str     0x000000000000ebc8       0xcb ../../mesh/lib_51_MBTLE_CORE.a(replay_cache.c.obj)
                                        0x6b2 (size before relaxing)
 .debug_str     0x000000000000ec93      0x345 ../../mesh/lib_51_MBTLE_CORE.a(mesh_flash.c.obj)
                                        0xbf7 (size before relaxing)
 .debug_str     0x000000000000efd8       0xa8 ../../mesh/lib_51_MBTLE_CORE.a(nrf_flash.c.obj)
                                        0x6a6 (size before relaxing)
 .debug_str     0x000000000000f080       0x7f ../../mesh/lib_51_MBTLE_CORE.a(msqueue.c.obj)
                                        0x6bc (size before relaxing)
 .debug_str     0x000000000000f0ff      0x6a0 ../../lib/micro-ecc/lib_51_UECC_LIB.a(uECC.c.obj)
                                        0x87d (size before relaxing)
 .debug_str     0x000000000000f79f      0x2e6 ../../lib/rtt/lib_51_RTT_LIB.a(SEGGER_RTT.c.obj)
                                        0x91f (size before relaxing)
 .debug_str     0x000000000000fa85      0x143 ../../lib/rtt/lib_51_RTT_LIB.a(SEGGER_RTT_printf.c.obj)
                                        0x7cc (size before relaxing)

.debug_frame    0x0000000000000000     0x4b60
 .debug_frame   0x0000000000000000       0xa0 CMakeFiles/51_pb_remote_client.dir/src/main.c.obj
 .debug_frame   0x00000000000000a0      0x2fc CMakeFiles/51_pb_remote_client.dir/__/__/mesh/models/pb_remote/src/pb_remote_client.c.obj
 .debug_frame   0x000000000000039c      0x424 CMakeFiles/51_pb_remote_client.dir/__/__/mesh/src/access/access.c.obj
 .debug_frame   0x00000000000007c0       0xc8 CMakeFiles/51_pb_remote_client.dir/__/__/mesh/src/access/access_reliable.c.obj
 .debug_frame   0x0000000000000888      0x830 CMakeFiles/51_pb_remote_client.dir/__/__/mesh/src/access/device_state_manager.c.obj
 .debug_frame   0x00000000000010b8      0x124 CMakeFiles/51_pb_remote_client.dir/__/nrf_mesh_sdk.c.obj
 .debug_frame   0x00000000000011dc       0x30 CMakeFiles/51_pb_remote_client.dir/__/__/toolchain/system_nrf51.c.obj
 .debug_frame   0x000000000000120c      0x240 ../../mesh/lib_51_MBTLE_PB_ADV_ER.a(provisioning.c.obj)
 .debug_frame   0x000000000000144c       0xe0 ../../mesh/lib_51_MBTLE_PB_ADV_ER.a(nrf_mesh_prov.c.obj)
 .debug_frame   0x000000000000152c      0x260 ../../mesh/lib_51_MBTLE_PB_ADV_ER.a(prov_bearer_adv.c.obj)
 .debug_frame   0x000000000000178c      0x134 ../../mesh/lib_51_MBTLE_PB_ADV_ER.a(prov_utils.c.obj)
 .debug_frame   0x00000000000018c0       0x60 ../../mesh/lib_51_MBTLE_PB_ADV_ER.a(prov_beacon.c.obj)
 .debug_frame   0x0000000000001920      0x148 ../../mesh/lib_51_MBTLE_PB_ADV_ER.a(prov_provisioner.c.obj)
 .debug_frame   0x0000000000001a68       0x30 ../../mesh/lib_51_MBTLE_CORE.a(nrf_mesh_weak.c.obj)
 .debug_frame   0x0000000000001a98      0x324 ../../mesh/lib_51_MBTLE_CORE.a(bearer_adv.c.obj)
 .debug_frame   0x0000000000001dbc       0xd4 ../../mesh/lib_51_MBTLE_CORE.a(fifo.c.obj)
 .debug_frame   0x0000000000001e90       0xa4 ../../mesh/lib_51_MBTLE_CORE.a(packet_mgr.c.obj)
 .debug_frame   0x0000000000001f34      0x16c ../../mesh/lib_51_MBTLE_CORE.a(radio.c.obj)
 .debug_frame   0x00000000000020a0       0xf8 ../../mesh/lib_51_MBTLE_CORE.a(timer.c.obj)
 .debug_frame   0x0000000000002198      0x11c ../../mesh/lib_51_MBTLE_CORE.a(timer_scheduler.c.obj)
 .debug_frame   0x00000000000022b4       0x90 ../../mesh/lib_51_MBTLE_CORE.a(beacon.c.obj)
 .debug_frame   0x0000000000002344      0x188 ../../mesh/lib_51_MBTLE_CORE.a(bearer.c.obj)
 .debug_frame   0x00000000000024cc      0x128 ../../mesh/lib_51_MBTLE_CORE.a(bearer_event.c.obj)
 .debug_frame   0x00000000000025f4       0x50 ../../mesh/lib_51_MBTLE_CORE.a(nrf_mesh_configure.c.obj)
 .debug_frame   0x0000000000002644      0x150 ../../mesh/lib_51_MBTLE_CORE.a(enc.c.obj)
 .debug_frame   0x0000000000002794       0x64 ../../mesh/lib_51_MBTLE_CORE.a(event.c.obj)
 .debug_frame   0x00000000000027f8       0xa0 ../../mesh/lib_51_MBTLE_CORE.a(log.c.obj)
 .debug_frame   0x0000000000002898       0xa4 ../../mesh/lib_51_MBTLE_CORE.a(net_beacon.c.obj)
 .debug_frame   0x000000000000293c      0x1d8 ../../mesh/lib_51_MBTLE_CORE.a(net_state.c.obj)
 .debug_frame   0x0000000000002b14      0x140 ../../mesh/lib_51_MBTLE_CORE.a(nrf_mesh.c.obj)
 .debug_frame   0x0000000000002c54       0xa0 ../../mesh/lib_51_MBTLE_CORE.a(nrf_mesh_keygen.c.obj)
 .debug_frame   0x0000000000002cf4       0x50 ../../mesh/lib_51_MBTLE_CORE.a(nrf_mesh_utils.c.obj)
 .debug_frame   0x0000000000002d44       0x84 ../../mesh/lib_51_MBTLE_CORE.a(radio_config.c.obj)
 .debug_frame   0x0000000000002dc8       0x90 ../../mesh/lib_51_MBTLE_CORE.a(rand.c.obj)
 .debug_frame   0x0000000000002e58       0x48 ../../mesh/lib_51_MBTLE_CORE.a(ticker.c.obj)
 .debug_frame   0x0000000000002ea0      0x2c8 ../../mesh/lib_51_MBTLE_CORE.a(transport.c.obj)
 .debug_frame   0x0000000000003168       0x58 ../../mesh/lib_51_MBTLE_CORE.a(internal_event.c.obj)
 .debug_frame   0x00000000000031c0      0x264 ../../mesh/lib_51_MBTLE_CORE.a(flash_manager.c.obj)
 .debug_frame   0x0000000000003424      0x1e8 ../../mesh/lib_51_MBTLE_CORE.a(flash_manager_defrag.c.obj)
 .debug_frame   0x000000000000360c       0x38 ../../mesh/lib_51_MBTLE_CORE.a(flash_manager_internal.c.obj)
 .debug_frame   0x0000000000003644       0x3c ../../mesh/lib_51_MBTLE_CORE.a(aes.c.obj)
 .debug_frame   0x0000000000003680       0x74 ../../mesh/lib_51_MBTLE_CORE.a(queue.c.obj)
 .debug_frame   0x00000000000036f4      0x178 ../../mesh/lib_51_MBTLE_CORE.a(timeslot.c.obj)
 .debug_frame   0x000000000000386c       0x50 ../../mesh/lib_51_MBTLE_CORE.a(aes_cmac.c.obj)
 .debug_frame   0x00000000000038bc       0xe0 ../../mesh/lib_51_MBTLE_CORE.a(ccm_soft.c.obj)
 .debug_frame   0x000000000000399c       0x84 ../../mesh/lib_51_MBTLE_CORE.a(msg_cache.c.obj)
 .debug_frame   0x0000000000003a20       0xfc ../../mesh/lib_51_MBTLE_CORE.a(network.c.obj)
 .debug_frame   0x0000000000003b1c       0x30 ../../mesh/lib_51_MBTLE_CORE.a(packet.c.obj)
 .debug_frame   0x0000000000003b4c      0x124 ../../mesh/lib_51_MBTLE_CORE.a(packet_buffer.c.obj)
 .debug_frame   0x0000000000003c70       0xa8 ../../mesh/lib_51_MBTLE_CORE.a(replay_cache.c.obj)
 .debug_frame   0x0000000000003d18      0x10c ../../mesh/lib_51_MBTLE_CORE.a(mesh_flash.c.obj)
 .debug_frame   0x0000000000003e24       0x48 ../../mesh/lib_51_MBTLE_CORE.a(nrf_flash.c.obj)
 .debug_frame   0x0000000000003e6c       0x94 ../../mesh/lib_51_MBTLE_CORE.a(msqueue.c.obj)
 .debug_frame   0x0000000000003f00      0x5c4 ../../lib/micro-ecc/lib_51_UECC_LIB.a(uECC.c.obj)
 .debug_frame   0x00000000000044c4      0x2dc ../../lib/rtt/lib_51_RTT_LIB.a(SEGGER_RTT.c.obj)
 .debug_frame   0x00000000000047a0       0x9c ../../lib/rtt/lib_51_RTT_LIB.a(SEGGER_RTT_printf.c.obj)
 .debug_frame   0x000000000000483c       0x20 /usr/bin/../lib/gcc/arm-none-eabi/6.3.1/thumb/v6-m/libgcc.a(_udivsi3.o)
 .debug_frame   0x000000000000485c       0x20 /usr/bin/../lib/gcc/arm-none-eabi/6.3.1/thumb/v6-m/libgcc.a(_divsi3.o)
 .debug_frame   0x000000000000487c       0x34 /usr/bin/../lib/gcc/arm-none-eabi/6.3.1/thumb/v6-m/libgcc.a(_muldi3.o)
 .debug_frame   0x00000000000048b0       0x28 /usr/bin/../lib/gcc/arm-none-eabi/6.3.1/../../../../arm-none-eabi/lib/thumb/v6-m/libg_nano.a(lib_a-exit.o)
 .debug_frame   0x00000000000048d8       0x2c /usr/bin/../lib/gcc/arm-none-eabi/6.3.1/../../../../arm-none-eabi/lib/thumb/v6-m/libg_nano.a(lib_a-init.o)
 .debug_frame   0x0000000000004904       0x40 /usr/bin/../lib/gcc/arm-none-eabi/6.3.1/../../../../arm-none-eabi/lib/thumb/v6-m/libg_nano.a(lib_a-malloc.o)
 .debug_frame   0x0000000000004944       0x2c /usr/bin/../lib/gcc/arm-none-eabi/6.3.1/../../../../arm-none-eabi/lib/thumb/v6-m/libg_nano.a(lib_a-memcmp.o)
 .debug_frame   0x0000000000004970       0x28 /usr/bin/../lib/gcc/arm-none-eabi/6.3.1/../../../../arm-none-eabi/lib/thumb/v6-m/libg_nano.a(lib_a-memcpy-stub.o)
 .debug_frame   0x0000000000004998       0x20 /usr/bin/../lib/gcc/arm-none-eabi/6.3.1/../../../../arm-none-eabi/lib/thumb/v6-m/libg_nano.a(lib_a-memset.o)
 .debug_frame   0x00000000000049b8       0x2c /usr/bin/../lib/gcc/arm-none-eabi/6.3.1/../../../../arm-none-eabi/lib/thumb/v6-m/libg_nano.a(lib_a-nano-freer.o)
 .debug_frame   0x00000000000049e4       0x2c /usr/bin/../lib/gcc/arm-none-eabi/6.3.1/../../../../arm-none-eabi/lib/thumb/v6-m/libg_nano.a(lib_a-nano-mallocr.o)
 .debug_frame   0x0000000000004a10       0x2c /usr/bin/../lib/gcc/arm-none-eabi/6.3.1/../../../../arm-none-eabi/lib/thumb/v6-m/libg_nano.a(lib_a-sbrkr.o)
 .debug_frame   0x0000000000004a3c       0x20 /usr/bin/../lib/gcc/arm-none-eabi/6.3.1/../../../../arm-none-eabi/lib/thumb/v6-m/libg_nano.a(lib_a-strcpy.o)
 .debug_frame   0x0000000000004a5c       0x2c /usr/bin/../lib/gcc/arm-none-eabi/6.3.1/../../../../arm-none-eabi/lib/thumb/v6-m/libg_nano.a(lib_a-strrchr.o)
 .debug_frame   0x0000000000004a88       0x30 /usr/bin/../lib/gcc/arm-none-eabi/6.3.1/../../../../arm-none-eabi/lib/thumb/v6-m/libg_nano.a(lib_a-mlock.o)
 .debug_frame   0x0000000000004ab8       0x48 /usr/bin/../lib/gcc/arm-none-eabi/6.3.1/../../../../arm-none-eabi/lib/thumb/v6-m/libg_nano.a(lib_a-reent.o)
 .debug_frame   0x0000000000004b00       0x20 /usr/bin/../lib/gcc/arm-none-eabi/6.3.1/../../../../arm-none-eabi/lib/thumb/v6-m/libg_nano.a(lib_a-strchr.o)
 .debug_frame   0x0000000000004b20       0x20 /usr/bin/../lib/gcc/arm-none-eabi/6.3.1/../../../../arm-none-eabi/lib/thumb/v6-m/libnosys.a(sbrk.o)
 .debug_frame   0x0000000000004b40       0x20 /usr/bin/../lib/gcc/arm-none-eabi/6.3.1/../../../../arm-none-eabi/lib/thumb/v6-m/libnosys.a(_exit.o)
