Archive member included to satisfy reference by file (symbol)

../../mesh/lib_51_MBTLE_PB_ADV_EE.a(nrf_mesh_prov.c.obj)
                              CMakeFiles/51_dfu.dir/__/__/mesh/src/access/nrf_mesh_node_config.c.obj (nrf_mesh_prov_init)
../../mesh/lib_51_MBTLE_PB_ADV_EE.a(prov_bearer_adv.c.obj)
                              ../../mesh/lib_51_MBTLE_PB_ADV_EE.a(nrf_mesh_prov.c.obj) (prov_bearer_adv_interface_get)
../../mesh/lib_51_MBTLE_PB_ADV_EE.a(prov_utils.c.obj)
                              ../../mesh/lib_51_MBTLE_PB_ADV_EE.a(nrf_mesh_prov.c.obj) (prov_utils_keys_generate)
../../mesh/lib_51_MBTLE_PB_ADV_EE.a(prov_beacon.c.obj)
                              ../../mesh/lib_51_MBTLE_PB_ADV_EE.a(prov_bearer_adv.c.obj) (prov_beacon_unprov_build)
../../mesh/lib_51_MBTLE_PB_ADV_EE.a(prov_provisionee.c.obj)
                              ../../mesh/lib_51_MBTLE_PB_ADV_EE.a(nrf_mesh_prov.c.obj) (prov_provisionee_init)
../../mesh/lib_51_MBTLE_PB_ADV_EE.a(provisioning.c.obj)
                              ../../mesh/lib_51_MBTLE_PB_ADV_EE.a(prov_provisionee.c.obj) (prov_packet_length_valid)
../../mesh/lib_51_MBTLE_PB_ADV_ER.a(prov_provisioner.c.obj)
                              ../../mesh/lib_51_MBTLE_PB_ADV_EE.a(nrf_mesh_prov.c.obj) (prov_provisioner_provision)
../../mesh/lib_51_MBTLE_CORE.a(bearer_adv.c.obj)
                              CMakeFiles/51_dfu.dir/__/__/mesh/src/serial/serial_handler_device.c.obj (bearer_adv_advertiser_init)
../../mesh/lib_51_MBTLE_CORE.a(fifo.c.obj)
                              ../../mesh/lib_51_MBTLE_CORE.a(bearer_adv.c.obj) (fifo_init)
../../mesh/lib_51_MBTLE_CORE.a(packet_mgr.c.obj)
                              CMakeFiles/51_dfu.dir/__/__/mesh/src/serial/serial_handler_device.c.obj (packet_mgr_alloc)
../../mesh/lib_51_MBTLE_CORE.a(radio.c.obj)
                              ../../mesh/lib_51_MBTLE_CORE.a(bearer_adv.c.obj) (radio_init)
../../mesh/lib_51_MBTLE_CORE.a(timer.c.obj)
                              CMakeFiles/51_dfu.dir/__/__/mesh/src/access/access_publish.c.obj (timer_now)
../../mesh/lib_51_MBTLE_CORE.a(timer_scheduler.c.obj)
                              CMakeFiles/51_dfu.dir/__/__/mesh/src/access/access_publish.c.obj (timer_sch_schedule)
../../mesh/lib_51_MBTLE_CORE.a(beacon.c.obj)
                              ../../mesh/lib_51_MBTLE_PB_ADV_EE.a(prov_beacon.c.obj) (beacon_create)
../../mesh/lib_51_MBTLE_CORE.a(bearer.c.obj)
                              ../../mesh/lib_51_MBTLE_CORE.a(bearer_adv.c.obj) (bearer_adtype_filtering_set)
../../mesh/lib_51_MBTLE_CORE.a(bearer_event.c.obj)
                              CMakeFiles/51_dfu.dir/__/__/mesh/src/serial/serial.c.obj (bearer_event_generic_post)
../../mesh/lib_51_MBTLE_CORE.a(nrf_mesh_configure.c.obj)
                              CMakeFiles/51_dfu.dir/__/__/mesh/src/serial/serial_handler_config.c.obj (nrf_mesh_configure_device_uuid_set)
../../mesh/lib_51_MBTLE_CORE.a(enc.c.obj)
                              ../../mesh/lib_51_MBTLE_PB_ADV_EE.a(prov_utils.c.obj) (enc_aes_cmac)
../../mesh/lib_51_MBTLE_CORE.a(event.c.obj)
                              CMakeFiles/51_dfu.dir/__/__/mesh/src/access/access.c.obj (event_handle)
../../mesh/lib_51_MBTLE_CORE.a(hal.c.obj)
                              CMakeFiles/51_dfu.dir/__/__/mesh/src/serial/serial_handler_device.c.obj (hal_device_reset)
../../mesh/lib_51_MBTLE_CORE.a(log.c.obj)
                              CMakeFiles/51_dfu.dir/src/main.c.obj (log_callback_rtt)
../../mesh/lib_51_MBTLE_CORE.a(net_beacon.c.obj)
                              CMakeFiles/51_dfu.dir/__/__/mesh/models/config/src/config_server.c.obj (net_beacon_state_set)
../../mesh/lib_51_MBTLE_CORE.a(net_state.c.obj)
                              CMakeFiles/51_dfu.dir/__/__/mesh/src/access/nrf_mesh_node_config.c.obj (net_state_reset)
../../mesh/lib_51_MBTLE_CORE.a(nrf_mesh.c.obj)
                              CMakeFiles/51_dfu.dir/src/main.c.obj (nrf_mesh_init)
../../mesh/lib_51_MBTLE_CORE.a(nrf_mesh_keygen.c.obj)
                              CMakeFiles/51_dfu.dir/__/__/mesh/src/access/device_state_manager.c.obj (nrf_mesh_keygen_aid)
../../mesh/lib_51_MBTLE_CORE.a(nrf_mesh_utils.c.obj)
                              CMakeFiles/51_dfu.dir/__/__/mesh/src/access/device_state_manager.c.obj (nrf_mesh_address_type_get)
../../mesh/lib_51_MBTLE_CORE.a(nrf_mesh_opt.c.obj)
                              CMakeFiles/51_dfu.dir/__/__/mesh/models/config/src/config_server.c.obj (nrf_mesh_opt_set)
../../mesh/lib_51_MBTLE_CORE.a(radio_config.c.obj)
                              ../../mesh/lib_51_MBTLE_CORE.a(radio.c.obj) (radio_config_reset)
../../mesh/lib_51_MBTLE_CORE.a(packet_buffer.c.obj)
                              CMakeFiles/51_dfu.dir/__/__/mesh/src/serial/serial_bearer.c.obj (packet_buffer_max_packet_len_get)
../../mesh/lib_51_MBTLE_CORE.a(rand.c.obj)
                              CMakeFiles/51_dfu.dir/__/__/mesh/src/dfu/nrf_mesh_dfu.c.obj (rand_prng_get)
../../mesh/lib_51_MBTLE_CORE.a(ticker.c.obj)
                              ../../mesh/lib_51_MBTLE_CORE.a(nrf_mesh.c.obj) (ticker_init)
../../mesh/lib_51_MBTLE_CORE.a(transport.c.obj)
                              ../../mesh/lib_51_MBTLE_CORE.a(nrf_mesh.c.obj) (transport_init)
../../mesh/lib_51_MBTLE_CORE.a(internal_event.c.obj)
                              CMakeFiles/51_dfu.dir/__/__/mesh/src/serial/serial_handler_device.c.obj (internal_event_init)
../../mesh/lib_51_MBTLE_CORE.a(mesh_flash.c.obj)
                              ../../mesh/lib_51_MBTLE_CORE.a(nrf_mesh.c.obj) (mesh_flash_init)
../../mesh/lib_51_MBTLE_CORE.a(nrf_flash.c.obj)
                              ../../mesh/lib_51_MBTLE_CORE.a(mesh_flash.c.obj) (nrf_flash_erase)
../../mesh/lib_51_MBTLE_CORE.a(flash_manager.c.obj)
                              ../../mesh/lib_51_MBTLE_CORE.a(nrf_mesh.c.obj) (flash_manager_init)
../../mesh/lib_51_MBTLE_CORE.a(flash_manager_defrag.c.obj)
                              ../../mesh/lib_51_MBTLE_CORE.a(flash_manager.c.obj) (flash_manager_defrag_init)
../../mesh/lib_51_MBTLE_CORE.a(flash_manager_internal.c.obj)
                              ../../mesh/lib_51_MBTLE_CORE.a(flash_manager.c.obj) (entry_get)
../../mesh/lib_51_MBTLE_CORE.a(aes.c.obj)
                              ../../mesh/lib_51_MBTLE_CORE.a(enc.c.obj) (aes_encrypt)
../../mesh/lib_51_MBTLE_CORE.a(queue.c.obj)
                              ../../mesh/lib_51_MBTLE_CORE.a(flash_manager.c.obj) (queue_init)
../../mesh/lib_51_MBTLE_CORE.a(msqueue.c.obj)
                              ../../mesh/lib_51_MBTLE_CORE.a(mesh_flash.c.obj) (msq_get)
../../mesh/lib_51_MBTLE_CORE.a(timeslot.c.obj)
                              ../../mesh/lib_51_MBTLE_CORE.a(nrf_mesh.c.obj) (timeslot_sd_event_handler)
../../mesh/lib_51_MBTLE_CORE.a(aes_cmac.c.obj)
                              ../../mesh/lib_51_MBTLE_CORE.a(enc.c.obj) (aes_cmac)
../../mesh/lib_51_MBTLE_CORE.a(ccm_soft.c.obj)
                              ../../mesh/lib_51_MBTLE_CORE.a(enc.c.obj) (ccm_soft_encrypt)
../../mesh/lib_51_MBTLE_CORE.a(msg_cache.c.obj)
                              ../../mesh/lib_51_MBTLE_CORE.a(nrf_mesh.c.obj) (msg_cache_init)
../../mesh/lib_51_MBTLE_CORE.a(network.c.obj)
                              ../../mesh/lib_51_MBTLE_CORE.a(transport.c.obj) (network_pkt_relay)
../../mesh/lib_51_MBTLE_CORE.a(packet.c.obj)
                              ../../mesh/lib_51_MBTLE_CORE.a(network.c.obj) (packet_type_packet_get)
../../mesh/lib_51_MBTLE_CORE.a(replay_cache.c.obj)
                              ../../mesh/lib_51_MBTLE_CORE.a(transport.c.obj) (replay_cache_add)
../../lib/rtt/lib_51_RTT_LIB.a(SEGGER_RTT.c.obj)
                              ../../mesh/lib_51_MBTLE_CORE.a(log.c.obj) (SEGGER_RTT_Write)
../../lib/rtt/lib_51_RTT_LIB.a(SEGGER_RTT_printf.c.obj)
                              ../../mesh/lib_51_MBTLE_CORE.a(log.c.obj) (SEGGER_RTT_vprintf)
../../lib/micro-ecc/lib_51_UECC_LIB.a(uECC.c.obj)
                              ../../mesh/lib_51_MBTLE_PB_ADV_EE.a(prov_utils.c.obj) (uECC_secp256r1)
/usr/bin/../lib/gcc/arm-none-eabi/6.3.1/thumb/v6-m/libgcc.a(_udivsi3.o)
                              CMakeFiles/51_dfu.dir/__/__/mesh/src/access/access_publish.c.obj (__aeabi_uidiv)
/usr/bin/../lib/gcc/arm-none-eabi/6.3.1/thumb/v6-m/libgcc.a(_divsi3.o)
                              CMakeFiles/51_dfu.dir/__/__/mesh/src/access/access_reliable.c.obj (__aeabi_idiv)
/usr/bin/../lib/gcc/arm-none-eabi/6.3.1/thumb/v6-m/libgcc.a(_dvmd_tls.o)
                              /usr/bin/../lib/gcc/arm-none-eabi/6.3.1/thumb/v6-m/libgcc.a(_udivsi3.o) (__aeabi_idiv0)
/usr/bin/../lib/gcc/arm-none-eabi/6.3.1/thumb/v6-m/libgcc.a(_muldi3.o)
                              ../../mesh/lib_51_MBTLE_CORE.a(timeslot.c.obj) (__aeabi_lmul)
/usr/bin/../lib/gcc/arm-none-eabi/6.3.1/../../../../arm-none-eabi/lib/thumb/v6-m/libg_nano.a(lib_a-exit.o)
                              /usr/bin/../lib/gcc/arm-none-eabi/6.3.1/../../../../arm-none-eabi/lib/thumb/v6-m/crt0.o (exit)
/usr/bin/../lib/gcc/arm-none-eabi/6.3.1/../../../../arm-none-eabi/lib/thumb/v6-m/libg_nano.a(lib_a-impure.o)
                              /usr/bin/../lib/gcc/arm-none-eabi/6.3.1/../../../../arm-none-eabi/lib/thumb/v6-m/libg_nano.a(lib_a-exit.o) (_global_impure_ptr)
/usr/bin/../lib/gcc/arm-none-eabi/6.3.1/../../../../arm-none-eabi/lib/thumb/v6-m/libg_nano.a(lib_a-init.o)
                              /usr/bin/../lib/gcc/arm-none-eabi/6.3.1/../../../../arm-none-eabi/lib/thumb/v6-m/crt0.o (__libc_init_array)
/usr/bin/../lib/gcc/arm-none-eabi/6.3.1/../../../../arm-none-eabi/lib/thumb/v6-m/libg_nano.a(lib_a-malloc.o)
                              ../../mesh/lib_51_MBTLE_CORE.a(transport.c.obj) (malloc)
/usr/bin/../lib/gcc/arm-none-eabi/6.3.1/../../../../arm-none-eabi/lib/thumb/v6-m/libg_nano.a(lib_a-memcmp.o)
                              CMakeFiles/51_dfu.dir/__/__/mesh/src/access/device_state_manager.c.obj (memcmp)
/usr/bin/../lib/gcc/arm-none-eabi/6.3.1/../../../../arm-none-eabi/lib/thumb/v6-m/libg_nano.a(lib_a-memcpy-stub.o)
                              CMakeFiles/51_dfu.dir/__/__/mesh/src/access/access.c.obj (memcpy)
/usr/bin/../lib/gcc/arm-none-eabi/6.3.1/../../../../arm-none-eabi/lib/thumb/v6-m/libg_nano.a(lib_a-memset.o)
                              /usr/bin/../lib/gcc/arm-none-eabi/6.3.1/../../../../arm-none-eabi/lib/thumb/v6-m/crt0.o (memset)
/usr/bin/../lib/gcc/arm-none-eabi/6.3.1/../../../../arm-none-eabi/lib/thumb/v6-m/libg_nano.a(lib_a-nano-freer.o)
                              /usr/bin/../lib/gcc/arm-none-eabi/6.3.1/../../../../arm-none-eabi/lib/thumb/v6-m/libg_nano.a(lib_a-malloc.o) (_free_r)
/usr/bin/../lib/gcc/arm-none-eabi/6.3.1/../../../../arm-none-eabi/lib/thumb/v6-m/libg_nano.a(lib_a-nano-mallocr.o)
                              /usr/bin/../lib/gcc/arm-none-eabi/6.3.1/../../../../arm-none-eabi/lib/thumb/v6-m/libg_nano.a(lib_a-malloc.o) (_malloc_r)
/usr/bin/../lib/gcc/arm-none-eabi/6.3.1/../../../../arm-none-eabi/lib/thumb/v6-m/libg_nano.a(lib_a-sbrkr.o)
                              /usr/bin/../lib/gcc/arm-none-eabi/6.3.1/../../../../arm-none-eabi/lib/thumb/v6-m/libg_nano.a(lib_a-nano-mallocr.o) (_sbrk_r)
/usr/bin/../lib/gcc/arm-none-eabi/6.3.1/../../../../arm-none-eabi/lib/thumb/v6-m/libg_nano.a(lib_a-strcpy.o)
                              ../../lib/rtt/lib_51_RTT_LIB.a(SEGGER_RTT.c.obj) (strcpy)
/usr/bin/../lib/gcc/arm-none-eabi/6.3.1/../../../../arm-none-eabi/lib/thumb/v6-m/libg_nano.a(lib_a-strlen.o)
                              ../../mesh/lib_51_MBTLE_PB_ADV_EE.a(prov_beacon.c.obj) (strlen)
/usr/bin/../lib/gcc/arm-none-eabi/6.3.1/../../../../arm-none-eabi/lib/thumb/v6-m/libg_nano.a(lib_a-strrchr.o)
                              CMakeFiles/51_dfu.dir/src/main.c.obj (strrchr)
/usr/bin/../lib/gcc/arm-none-eabi/6.3.1/../../../../arm-none-eabi/lib/thumb/v6-m/libg_nano.a(lib_a-mlock.o)
                              /usr/bin/../lib/gcc/arm-none-eabi/6.3.1/../../../../arm-none-eabi/lib/thumb/v6-m/libg_nano.a(lib_a-nano-freer.o) (__malloc_lock)
/usr/bin/../lib/gcc/arm-none-eabi/6.3.1/../../../../arm-none-eabi/lib/thumb/v6-m/libg_nano.a(lib_a-reent.o)
                              /usr/bin/../lib/gcc/arm-none-eabi/6.3.1/../../../../arm-none-eabi/lib/thumb/v6-m/libg_nano.a(lib_a-sbrkr.o) (errno)
/usr/bin/../lib/gcc/arm-none-eabi/6.3.1/../../../../arm-none-eabi/lib/thumb/v6-m/libg_nano.a(lib_a-strchr.o)
                              /usr/bin/../lib/gcc/arm-none-eabi/6.3.1/../../../../arm-none-eabi/lib/thumb/v6-m/libg_nano.a(lib_a-strrchr.o) (strchr)
/usr/bin/../lib/gcc/arm-none-eabi/6.3.1/../../../../arm-none-eabi/lib/thumb/v6-m/libnosys.a(sbrk.o)
                              /usr/bin/../lib/gcc/arm-none-eabi/6.3.1/../../../../arm-none-eabi/lib/thumb/v6-m/libg_nano.a(lib_a-sbrkr.o) (_sbrk)
/usr/bin/../lib/gcc/arm-none-eabi/6.3.1/../../../../arm-none-eabi/lib/thumb/v6-m/libnosys.a(_exit.o)
                              /usr/bin/../lib/gcc/arm-none-eabi/6.3.1/../../../../arm-none-eabi/lib/thumb/v6-m/libg_nano.a(lib_a-exit.o) (_exit)

Allocating common symbols
Common symbol       size              file

nrf_nvic_state      0x8               CMakeFiles/51_dfu.dir/__/nrf_mesh_sdk.c.obj
bank_addr           0x4               CMakeFiles/51_dfu.dir/src/main.c.obj
rom_length          0x4               CMakeFiles/51_dfu.dir/src/main.c.obj
m_cmd_handler       0x4               CMakeFiles/51_dfu.dir/__/__/mesh/src/dfu/nrf_mesh_dfu.c.obj
errno               0x4               /usr/bin/../lib/gcc/arm-none-eabi/6.3.1/../../../../arm-none-eabi/lib/thumb/v6-m/libg_nano.a(lib_a-reent.o)
m_assertion_handler
                    0x4               ../../mesh/lib_51_MBTLE_CORE.a(nrf_mesh.c.obj)
_SEGGER_RTT         0x78              ../../lib/rtt/lib_51_RTT_LIB.a(SEGGER_RTT.c.obj)

Discarded input sections

 .text          0x0000000000000000        0x0 /usr/bin/../lib/gcc/arm-none-eabi/6.3.1/thumb/v6-m/crti.o
 .data          0x0000000000000000        0x0 /usr/bin/../lib/gcc/arm-none-eabi/6.3.1/thumb/v6-m/crti.o
 .bss           0x0000000000000000        0x0 /usr/bin/../lib/gcc/arm-none-eabi/6.3.1/thumb/v6-m/crti.o
 .data          0x0000000000000000        0x4 /usr/bin/../lib/gcc/arm-none-eabi/6.3.1/thumb/v6-m/crtbegin.o
 .data          0x0000000000000000        0x0 /usr/bin/../lib/gcc/arm-none-eabi/6.3.1/../../../../arm-none-eabi/lib/thumb/v6-m/crt0.o
 .bss           0x0000000000000000        0x0 /usr/bin/../lib/gcc/arm-none-eabi/6.3.1/../../../../arm-none-eabi/lib/thumb/v6-m/crt0.o
 .ARM.extab     0x0000000000000000        0x0 /usr/bin/../lib/gcc/arm-none-eabi/6.3.1/../../../../arm-none-eabi/lib/thumb/v6-m/crt0.o
 .text          0x0000000000000000        0x0 CMakeFiles/51_dfu.dir/src/main.c.obj
 .data          0x0000000000000000        0x0 CMakeFiles/51_dfu.dir/src/main.c.obj
 .bss           0x0000000000000000        0x0 CMakeFiles/51_dfu.dir/src/main.c.obj
 .text          0x0000000000000000        0x0 CMakeFiles/51_dfu.dir/__/nrf_mesh_sdk.c.obj
 .data          0x0000000000000000        0x0 CMakeFiles/51_dfu.dir/__/nrf_mesh_sdk.c.obj
 .bss           0x0000000000000000        0x0 CMakeFiles/51_dfu.dir/__/nrf_mesh_sdk.c.obj
 .text          0x0000000000000000        0x0 CMakeFiles/51_dfu.dir/__/__/mesh/src/access/access.c.obj
 .data          0x0000000000000000        0x0 CMakeFiles/51_dfu.dir/__/__/mesh/src/access/access.c.obj
 .bss           0x0000000000000000        0x0 CMakeFiles/51_dfu.dir/__/__/mesh/src/access/access.c.obj
 .text.is_valid_opcode
                0x0000000000000000       0x58 CMakeFiles/51_dfu.dir/__/__/mesh/src/access/access.c.obj
 .text.flash_invalidate_complete
                0x0000000000000000       0x18 CMakeFiles/51_dfu.dir/__/__/mesh/src/access/access.c.obj
 .text.restore_acquired_subscription
                0x0000000000000000       0x24 CMakeFiles/51_dfu.dir/__/__/mesh/src/access/access.c.obj
 .text.restore_acquired_element
                0x0000000000000000       0x1c CMakeFiles/51_dfu.dir/__/__/mesh/src/access/access.c.obj
 .text.restore_flash_data
                0x0000000000000000       0x64 CMakeFiles/51_dfu.dir/__/__/mesh/src/access/access.c.obj
 .text.restore_acquired_model
                0x0000000000000000       0x88 CMakeFiles/51_dfu.dir/__/__/mesh/src/access/access.c.obj
 .text.add_flash_manager
                0x0000000000000000       0x64 CMakeFiles/51_dfu.dir/__/__/mesh/src/access/access.c.obj
 .text.flash_remove_complete
                0x0000000000000000       0x4c CMakeFiles/51_dfu.dir/__/__/mesh/src/access/access.c.obj
 .text.flash_write_complete
                0x0000000000000000       0x68 CMakeFiles/51_dfu.dir/__/__/mesh/src/access/access.c.obj
 .text.packet_tx
                0x0000000000000000      0x230 CMakeFiles/51_dfu.dir/__/__/mesh/src/access/access.c.obj
 .text.mesh_evt_cb
                0x0000000000000000      0x2d0 CMakeFiles/51_dfu.dir/__/__/mesh/src/access/access.c.obj
 .text.access_flash_config_load
                0x0000000000000000      0x17c CMakeFiles/51_dfu.dir/__/__/mesh/src/access/access.c.obj
 .text.access_init
                0x0000000000000000       0x24 CMakeFiles/51_dfu.dir/__/__/mesh/src/access/access.c.obj
 .text.access_model_add
                0x0000000000000000      0x194 CMakeFiles/51_dfu.dir/__/__/mesh/src/access/access.c.obj
 .text.access_model_publish
                0x0000000000000000       0x14 CMakeFiles/51_dfu.dir/__/__/mesh/src/access/access.c.obj
 .text.access_model_reply
                0x0000000000000000       0x20 CMakeFiles/51_dfu.dir/__/__/mesh/src/access/access.c.obj
 .text.access_model_subscription_list_alloc
                0x0000000000000000       0x44 CMakeFiles/51_dfu.dir/__/__/mesh/src/access/access.c.obj
 .text.access_model_subscription_lists_share
                0x0000000000000000       0x30 CMakeFiles/51_dfu.dir/__/__/mesh/src/access/access.c.obj
 .text.access_default_ttl_set
                0x0000000000000000       0x10 CMakeFiles/51_dfu.dir/__/__/mesh/src/access/access.c.obj
 .text.access_default_ttl_get
                0x0000000000000000        0xc CMakeFiles/51_dfu.dir/__/__/mesh/src/access/access.c.obj
 .text.access_model_p_args_get
                0x0000000000000000       0x2c CMakeFiles/51_dfu.dir/__/__/mesh/src/access/access.c.obj
 .bss.m_evt_handler
                0x0000000000000000        0x8 CMakeFiles/51_dfu.dir/__/__/mesh/src/access/access.c.obj
 .data.flash_add_mem_available_struct.7923
                0x0000000000000000       0x10 CMakeFiles/51_dfu.dir/__/__/mesh/src/access/access.c.obj
 .data.m_default_ttl
                0x0000000000000000        0x1 CMakeFiles/51_dfu.dir/__/__/mesh/src/access/access.c.obj
 .rodata.mesh_evt_cb.str1.4
                0x0000000000000000       0x13 CMakeFiles/51_dfu.dir/__/__/mesh/src/access/access.c.obj
 .rodata.multiply_de_bruijn_bit_position.6706
                0x0000000000000000       0x20 CMakeFiles/51_dfu.dir/__/__/mesh/src/access/access.c.obj
 .rodata.packet_tx.str1.4
                0x0000000000000000       0x5b CMakeFiles/51_dfu.dir/__/__/mesh/src/access/access.c.obj
 .text          0x0000000000000000        0x0 CMakeFiles/51_dfu.dir/__/__/mesh/src/access/access_publish.c.obj
 .data          0x0000000000000000        0x0 CMakeFiles/51_dfu.dir/__/__/mesh/src/access/access_publish.c.obj
 .bss           0x0000000000000000        0x0 CMakeFiles/51_dfu.dir/__/__/mesh/src/access/access_publish.c.obj
 .text.publish_timer_tick
                0x0000000000000000       0xe0 CMakeFiles/51_dfu.dir/__/__/mesh/src/access/access_publish.c.obj
 .text.access_publish_init
                0x0000000000000000       0x38 CMakeFiles/51_dfu.dir/__/__/mesh/src/access/access_publish.c.obj
 .text          0x0000000000000000        0x0 CMakeFiles/51_dfu.dir/__/__/mesh/src/access/access_reliable.c.obj
 .data          0x0000000000000000        0x0 CMakeFiles/51_dfu.dir/__/__/mesh/src/access/access_reliable.c.obj
 .bss           0x0000000000000000        0x0 CMakeFiles/51_dfu.dir/__/__/mesh/src/access/access_reliable.c.obj
 .text.remove_and_reschedule
                0x0000000000000000       0xe0 CMakeFiles/51_dfu.dir/__/__/mesh/src/access/access_reliable.c.obj
 .text.reliable_timer_cb
                0x0000000000000000      0x148 CMakeFiles/51_dfu.dir/__/__/mesh/src/access/access_reliable.c.obj
 .text.access_reliable_message_rx_cb
                0x0000000000000000       0x64 CMakeFiles/51_dfu.dir/__/__/mesh/src/access/access_reliable.c.obj
 .text.access_reliable_init
                0x0000000000000000       0x1c CMakeFiles/51_dfu.dir/__/__/mesh/src/access/access_reliable.c.obj
 .text.access_model_reliable_cancel
                0x0000000000000000       0x34 CMakeFiles/51_dfu.dir/__/__/mesh/src/access/access_reliable.c.obj
 .text.access_model_reliable_publish
                0x0000000000000000      0x17c CMakeFiles/51_dfu.dir/__/__/mesh/src/access/access_reliable.c.obj
 .text          0x0000000000000000        0x0 CMakeFiles/51_dfu.dir/__/__/mesh/src/access/device_state_manager.c.obj
 .data          0x0000000000000000        0x0 CMakeFiles/51_dfu.dir/__/__/mesh/src/access/device_state_manager.c.obj
 .bss           0x0000000000000000        0x0 CMakeFiles/51_dfu.dir/__/__/mesh/src/access/device_state_manager.c.obj
 .text.flash_update_all
                0x0000000000000000       0xd4 CMakeFiles/51_dfu.dir/__/__/mesh/src/access/device_state_manager.c.obj
 .text.flash_operation_complete
                0x0000000000000000       0x6c CMakeFiles/51_dfu.dir/__/__/mesh/src/access/device_state_manager.c.obj
 .text.flash_invalidate_complete
                0x0000000000000000        0xc CMakeFiles/51_dfu.dir/__/__/mesh/src/access/device_state_manager.c.obj
 .text.flash_write_complete
                0x0000000000000000        0xc CMakeFiles/51_dfu.dir/__/__/mesh/src/access/device_state_manager.c.obj
 .text.dsm_flash_config_load
                0x0000000000000000      0x140 CMakeFiles/51_dfu.dir/__/__/mesh/src/access/device_state_manager.c.obj
 .text.dsm_has_unflashed_data
                0x0000000000000000       0x5c CMakeFiles/51_dfu.dir/__/__/mesh/src/access/device_state_manager.c.obj
 .text.dsm_flash_area_get
                0x0000000000000000       0x14 CMakeFiles/51_dfu.dir/__/__/mesh/src/access/device_state_manager.c.obj
 .text.build_flash_area
                0x0000000000000000       0x90 CMakeFiles/51_dfu.dir/__/__/mesh/src/access/device_state_manager.c.obj
 .text.dsm_init
                0x0000000000000000       0x28 CMakeFiles/51_dfu.dir/__/__/mesh/src/access/device_state_manager.c.obj
 .text.flash_remove_complete
                0x0000000000000000        0x8 CMakeFiles/51_dfu.dir/__/__/mesh/src/access/device_state_manager.c.obj
 .text.dsm_address_publish_add_handle
                0x0000000000000000       0x78 CMakeFiles/51_dfu.dir/__/__/mesh/src/access/device_state_manager.c.obj
 .text.dsm_address_subscription_add_handle
                0x0000000000000000       0x78 CMakeFiles/51_dfu.dir/__/__/mesh/src/access/device_state_manager.c.obj
 .text.dsm_address_subscription_count_get
                0x0000000000000000       0x98 CMakeFiles/51_dfu.dir/__/__/mesh/src/access/device_state_manager.c.obj
 .text.dsm_net_key_index_to_subnet_handle
                0x0000000000000000       0x60 CMakeFiles/51_dfu.dir/__/__/mesh/src/access/device_state_manager.c.obj
 .text.dsm_subnet_handle_to_netkey_index
                0x0000000000000000       0x40 CMakeFiles/51_dfu.dir/__/__/mesh/src/access/device_state_manager.c.obj
 .text.dsm_app_key_index_to_appkey_handle
                0x0000000000000000       0x20 CMakeFiles/51_dfu.dir/__/__/mesh/src/access/device_state_manager.c.obj
 .text.dsm_appkey_handle_to_appkey_index
                0x0000000000000000       0x40 CMakeFiles/51_dfu.dir/__/__/mesh/src/access/device_state_manager.c.obj
 .text.dsm_devkey_handle_get
                0x0000000000000000       0x3a CMakeFiles/51_dfu.dir/__/__/mesh/src/access/device_state_manager.c.obj
 .text.dsm_beacon_secmat_get
                0x0000000000000000       0x44 CMakeFiles/51_dfu.dir/__/__/mesh/src/access/device_state_manager.c.obj
 .text.dsm_proxy_identity_get
                0x0000000000000000        0x4 CMakeFiles/51_dfu.dir/__/__/mesh/src/access/device_state_manager.c.obj
 .data.mem_listener.8204
                0x0000000000000000       0x10 CMakeFiles/51_dfu.dir/__/__/mesh/src/access/device_state_manager.c.obj
 .text          0x0000000000000000        0x0 CMakeFiles/51_dfu.dir/__/__/mesh/src/access/nrf_mesh_node_config.c.obj
 .data          0x0000000000000000        0x0 CMakeFiles/51_dfu.dir/__/__/mesh/src/access/nrf_mesh_node_config.c.obj
 .bss           0x0000000000000000        0x0 CMakeFiles/51_dfu.dir/__/__/mesh/src/access/nrf_mesh_node_config.c.obj
 .text.sd_softdevice_enable
                0x0000000000000000        0x4 CMakeFiles/51_dfu.dir/__/__/mesh/src/access/nrf_mesh_node_config.c.obj
 .text.default_mesh_assertion_handler
                0x0000000000000000       0x88 CMakeFiles/51_dfu.dir/__/__/mesh/src/access/nrf_mesh_node_config.c.obj
 .text.start_provisionee
                0x0000000000000000       0x1c CMakeFiles/51_dfu.dir/__/__/mesh/src/access/nrf_mesh_node_config.c.obj
 .text.mesh_evt_handler
                0x0000000000000000      0x10c CMakeFiles/51_dfu.dir/__/__/mesh/src/access/nrf_mesh_node_config.c.obj
 .text.default_softdevice_assertion_handler
                0x0000000000000000       0x90 CMakeFiles/51_dfu.dir/__/__/mesh/src/access/nrf_mesh_node_config.c.obj
 .text.softdevice_setup
                0x0000000000000000       0x74 CMakeFiles/51_dfu.dir/__/__/mesh/src/access/nrf_mesh_node_config.c.obj
 .text.nrf_mesh_node_config
                0x0000000000000000       0xf8 CMakeFiles/51_dfu.dir/__/__/mesh/src/access/nrf_mesh_node_config.c.obj
 .text.nrf_mesh_node_config_clear
                0x0000000000000000       0x1c CMakeFiles/51_dfu.dir/__/__/mesh/src/access/nrf_mesh_node_config.c.obj
 .bss.m_evt_handler
                0x0000000000000000        0x8 CMakeFiles/51_dfu.dir/__/__/mesh/src/access/nrf_mesh_node_config.c.obj
 .bss.m_node_provisioned
                0x0000000000000000        0x1 CMakeFiles/51_dfu.dir/__/__/mesh/src/access/nrf_mesh_node_config.c.obj
 .bss.m_private_key
                0x0000000000000000       0x20 CMakeFiles/51_dfu.dir/__/__/mesh/src/access/nrf_mesh_node_config.c.obj
 .bss.m_prov_ctx
                0x0000000000000000      0x2c0 CMakeFiles/51_dfu.dir/__/__/mesh/src/access/nrf_mesh_node_config.c.obj
 .bss.m_public_key
                0x0000000000000000       0x40 CMakeFiles/51_dfu.dir/__/__/mesh/src/access/nrf_mesh_node_config.c.obj
 .bss.m_sd_initialized
                0x0000000000000000        0x1 CMakeFiles/51_dfu.dir/__/__/mesh/src/access/nrf_mesh_node_config.c.obj
 .bss.mp_init_params
                0x0000000000000000        0x4 CMakeFiles/51_dfu.dir/__/__/mesh/src/access/nrf_mesh_node_config.c.obj
 .rodata.default_mesh_assertion_handler.str1.4
                0x0000000000000000       0x71 CMakeFiles/51_dfu.dir/__/__/mesh/src/access/nrf_mesh_node_config.c.obj
 .rodata.default_softdevice_assertion_handler.str1.4
                0x0000000000000000       0x1d CMakeFiles/51_dfu.dir/__/__/mesh/src/access/nrf_mesh_node_config.c.obj
 .debug_info    0x0000000000000000     0x277f CMakeFiles/51_dfu.dir/__/__/mesh/src/access/nrf_mesh_node_config.c.obj
 .debug_abbrev  0x0000000000000000      0x526 CMakeFiles/51_dfu.dir/__/__/mesh/src/access/nrf_mesh_node_config.c.obj
 .debug_loc     0x0000000000000000      0x44c CMakeFiles/51_dfu.dir/__/__/mesh/src/access/nrf_mesh_node_config.c.obj
 .debug_aranges
                0x0000000000000000       0x58 CMakeFiles/51_dfu.dir/__/__/mesh/src/access/nrf_mesh_node_config.c.obj
 .debug_ranges  0x0000000000000000       0xd8 CMakeFiles/51_dfu.dir/__/__/mesh/src/access/nrf_mesh_node_config.c.obj
 .debug_line    0x0000000000000000      0x681 CMakeFiles/51_dfu.dir/__/__/mesh/src/access/nrf_mesh_node_config.c.obj
 .debug_str     0x0000000000000000     0x24d8 CMakeFiles/51_dfu.dir/__/__/mesh/src/access/nrf_mesh_node_config.c.obj
 .comment       0x0000000000000000       0x80 CMakeFiles/51_dfu.dir/__/__/mesh/src/access/nrf_mesh_node_config.c.obj
 .debug_frame   0x0000000000000000       0xdc CMakeFiles/51_dfu.dir/__/__/mesh/src/access/nrf_mesh_node_config.c.obj
 .ARM.attributes
                0x0000000000000000       0x31 CMakeFiles/51_dfu.dir/__/__/mesh/src/access/nrf_mesh_node_config.c.obj
 .text          0x0000000000000000        0x0 CMakeFiles/51_dfu.dir/__/__/mesh/models/config/src/config_server.c.obj
 .data          0x0000000000000000        0x0 CMakeFiles/51_dfu.dir/__/__/mesh/models/config/src/config_server.c.obj
 .bss           0x0000000000000000        0x0 CMakeFiles/51_dfu.dir/__/__/mesh/models/config/src/config_server.c.obj
 .text.get_element_index
                0x0000000000000000       0x2c CMakeFiles/51_dfu.dir/__/__/mesh/models/config/src/config_server.c.obj
 .text.send_reply
                0x0000000000000000       0x20 CMakeFiles/51_dfu.dir/__/__/mesh/models/config/src/config_server.c.obj
 .text.send_generic_error_reply
                0x0000000000000000       0x3e CMakeFiles/51_dfu.dir/__/__/mesh/models/config/src/config_server.c.obj
 .text.handle_model_app_get
                0x0000000000000000      0x208 CMakeFiles/51_dfu.dir/__/__/mesh/models/config/src/config_server.c.obj
 .text.handle_node_reset
                0x0000000000000000       0x20 CMakeFiles/51_dfu.dir/__/__/mesh/models/config/src/config_server.c.obj
 .text.handle_node_identity_set
                0x0000000000000000       0x38 CMakeFiles/51_dfu.dir/__/__/mesh/models/config/src/config_server.c.obj
 .text.handle_node_identity_get
                0x0000000000000000       0x38 CMakeFiles/51_dfu.dir/__/__/mesh/models/config/src/config_server.c.obj
 .text.handle_heartbeat_subscription_set
                0x0000000000000000       0x30 CMakeFiles/51_dfu.dir/__/__/mesh/models/config/src/config_server.c.obj
 .text.handle_heartbeat_subscription_get
                0x0000000000000000       0x30 CMakeFiles/51_dfu.dir/__/__/mesh/models/config/src/config_server.c.obj
 .text.handle_heartbeat_publication_set
                0x0000000000000000       0x2a CMakeFiles/51_dfu.dir/__/__/mesh/models/config/src/config_server.c.obj
 .text.handle_heartbeat_publication_get
                0x0000000000000000       0x2a CMakeFiles/51_dfu.dir/__/__/mesh/models/config/src/config_server.c.obj
 .text.send_subscription_status
                0x0000000000000000       0x50 CMakeFiles/51_dfu.dir/__/__/mesh/models/config/src/config_server.c.obj
 .text.handle_config_gatt_proxy_set
                0x0000000000000000       0x24 CMakeFiles/51_dfu.dir/__/__/mesh/models/config/src/config_server.c.obj
 .text.handle_config_gatt_proxy_get
                0x0000000000000000       0x24 CMakeFiles/51_dfu.dir/__/__/mesh/models/config/src/config_server.c.obj
 .text.handle_config_friend_set
                0x0000000000000000       0x24 CMakeFiles/51_dfu.dir/__/__/mesh/models/config/src/config_server.c.obj
 .text.handle_config_friend_get
                0x0000000000000000       0x24 CMakeFiles/51_dfu.dir/__/__/mesh/models/config/src/config_server.c.obj
 .text.handle_netkey_get
                0x0000000000000000       0x74 CMakeFiles/51_dfu.dir/__/__/mesh/models/config/src/config_server.c.obj
 .text.handle_netkey_delete
                0x0000000000000000       0x7c CMakeFiles/51_dfu.dir/__/__/mesh/models/config/src/config_server.c.obj
 .text.handle_model_app_bind_unbind
                0x0000000000000000      0x16c CMakeFiles/51_dfu.dir/__/__/mesh/models/config/src/config_server.c.obj
 .text.handle_config_vendor_model_subscription_get
                0x0000000000000000      0x124 CMakeFiles/51_dfu.dir/__/__/mesh/models/config/src/config_server.c.obj
 .text.send_relay_status
                0x0000000000000000       0x8c CMakeFiles/51_dfu.dir/__/__/mesh/models/config/src/config_server.c.obj
 .text.handle_config_relay_set
                0x0000000000000000       0xa0 CMakeFiles/51_dfu.dir/__/__/mesh/models/config/src/config_server.c.obj
 .text.handle_config_relay_get
                0x0000000000000000       0x10 CMakeFiles/51_dfu.dir/__/__/mesh/models/config/src/config_server.c.obj
 .text.handle_config_model_subscription_virtual_address_add
                0x0000000000000000      0x190 CMakeFiles/51_dfu.dir/__/__/mesh/models/config/src/config_server.c.obj
 .text.delete_all_subscriptions
                0x0000000000000000       0xa0 CMakeFiles/51_dfu.dir/__/__/mesh/models/config/src/config_server.c.obj
 .text.handle_config_model_subscription_virtual_address_overwrite
                0x0000000000000000      0x1c4 CMakeFiles/51_dfu.dir/__/__/mesh/models/config/src/config_server.c.obj
 .text.handle_config_model_subscription_delete_all
                0x0000000000000000       0xfc CMakeFiles/51_dfu.dir/__/__/mesh/models/config/src/config_server.c.obj
 .text.handle_config_model_subscription_virtual_address_delete
                0x0000000000000000      0x190 CMakeFiles/51_dfu.dir/__/__/mesh/models/config/src/config_server.c.obj
 .text.handle_config_model_subscription_delete
                0x0000000000000000      0x204 CMakeFiles/51_dfu.dir/__/__/mesh/models/config/src/config_server.c.obj
 .text.handle_config_model_subscription_overwrite
                0x0000000000000000      0x1f0 CMakeFiles/51_dfu.dir/__/__/mesh/models/config/src/config_server.c.obj
 .text.handle_config_model_subscription_add
                0x0000000000000000      0x1bc CMakeFiles/51_dfu.dir/__/__/mesh/models/config/src/config_server.c.obj
 .text.send_publication_status
                0x0000000000000000      0x1b0 CMakeFiles/51_dfu.dir/__/__/mesh/models/config/src/config_server.c.obj
 .text.handle_config_model_publication_get
                0x0000000000000000       0xa8 CMakeFiles/51_dfu.dir/__/__/mesh/models/config/src/config_server.c.obj
 .text.handle_config_default_ttl_getset
                0x0000000000000000       0x58 CMakeFiles/51_dfu.dir/__/__/mesh/models/config/src/config_server.c.obj
 .text.send_net_beacon_state
                0x0000000000000000       0x2c CMakeFiles/51_dfu.dir/__/__/mesh/models/config/src/config_server.c.obj
 .text.handle_config_beacon_set
                0x0000000000000000       0x2a CMakeFiles/51_dfu.dir/__/__/mesh/models/config/src/config_server.c.obj
 .text.handle_config_beacon_get
                0x0000000000000000       0x10 CMakeFiles/51_dfu.dir/__/__/mesh/models/config/src/config_server.c.obj
 .text.handle_composition_data_get
                0x0000000000000000       0x54 CMakeFiles/51_dfu.dir/__/__/mesh/models/config/src/config_server.c.obj
 .text.handle_appkey_get
                0x0000000000000000       0xd0 CMakeFiles/51_dfu.dir/__/__/mesh/models/config/src/config_server.c.obj
 .text.handle_appkey_delete
                0x0000000000000000       0x80 CMakeFiles/51_dfu.dir/__/__/mesh/models/config/src/config_server.c.obj
 .text.handle_config_model_publication_set
                0x0000000000000000      0x2b8 CMakeFiles/51_dfu.dir/__/__/mesh/models/config/src/config_server.c.obj
 .text.handle_config_sig_model_subscription_get
                0x0000000000000000       0xfc CMakeFiles/51_dfu.dir/__/__/mesh/models/config/src/config_server.c.obj
 .text.handle_netkey_add_update
                0x0000000000000000       0xa0 CMakeFiles/51_dfu.dir/__/__/mesh/models/config/src/config_server.c.obj
 .text.handle_appkey_add_update
                0x0000000000000000       0xbc CMakeFiles/51_dfu.dir/__/__/mesh/models/config/src/config_server.c.obj
 .text.config_server_init
                0x0000000000000000       0x54 CMakeFiles/51_dfu.dir/__/__/mesh/models/config/src/config_server.c.obj
 .text.config_server_bind
                0x0000000000000000       0x14 CMakeFiles/51_dfu.dir/__/__/mesh/models/config/src/config_server.c.obj
 .data.m_config_server_handle
                0x0000000000000000        0x2 CMakeFiles/51_dfu.dir/__/__/mesh/models/config/src/config_server.c.obj
 .rodata.opcode_handlers
                0x0000000000000000      0x150 CMakeFiles/51_dfu.dir/__/__/mesh/models/config/src/config_server.c.obj
 .debug_info    0x0000000000000000     0x5a6c CMakeFiles/51_dfu.dir/__/__/mesh/models/config/src/config_server.c.obj
 .debug_abbrev  0x0000000000000000      0x4d8 CMakeFiles/51_dfu.dir/__/__/mesh/models/config/src/config_server.c.obj
 .debug_loc     0x0000000000000000     0x3f2b CMakeFiles/51_dfu.dir/__/__/mesh/models/config/src/config_server.c.obj
 .debug_aranges
                0x0000000000000000      0x188 CMakeFiles/51_dfu.dir/__/__/mesh/models/config/src/config_server.c.obj
 .debug_ranges  0x0000000000000000      0x680 CMakeFiles/51_dfu.dir/__/__/mesh/models/config/src/config_server.c.obj
 .debug_line    0x0000000000000000      0xfa2 CMakeFiles/51_dfu.dir/__/__/mesh/models/config/src/config_server.c.obj
 .debug_str     0x0000000000000000     0x305b CMakeFiles/51_dfu.dir/__/__/mesh/models/config/src/config_server.c.obj
 .comment       0x0000000000000000       0x80 CMakeFiles/51_dfu.dir/__/__/mesh/models/config/src/config_server.c.obj
 .debug_frame   0x0000000000000000      0x600 CMakeFiles/51_dfu.dir/__/__/mesh/models/config/src/config_server.c.obj
 .ARM.attributes
                0x0000000000000000       0x31 CMakeFiles/51_dfu.dir/__/__/mesh/models/config/src/config_server.c.obj
 .text          0x0000000000000000        0x0 CMakeFiles/51_dfu.dir/__/__/mesh/models/config/src/packed_index_list.c.obj
 .data          0x0000000000000000        0x0 CMakeFiles/51_dfu.dir/__/__/mesh/models/config/src/packed_index_list.c.obj
 .bss           0x0000000000000000        0x0 CMakeFiles/51_dfu.dir/__/__/mesh/models/config/src/packed_index_list.c.obj
 .text.packed_index_list_size
                0x0000000000000000       0x12 CMakeFiles/51_dfu.dir/__/__/mesh/models/config/src/packed_index_list.c.obj
 .text.packed_index_list_create
                0x0000000000000000       0x36 CMakeFiles/51_dfu.dir/__/__/mesh/models/config/src/packed_index_list.c.obj
 .debug_info    0x0000000000000000      0x149 CMakeFiles/51_dfu.dir/__/__/mesh/models/config/src/packed_index_list.c.obj
 .debug_abbrev  0x0000000000000000       0xad CMakeFiles/51_dfu.dir/__/__/mesh/models/config/src/packed_index_list.c.obj
 .debug_loc     0x0000000000000000       0xcb CMakeFiles/51_dfu.dir/__/__/mesh/models/config/src/packed_index_list.c.obj
 .debug_aranges
                0x0000000000000000       0x28 CMakeFiles/51_dfu.dir/__/__/mesh/models/config/src/packed_index_list.c.obj
 .debug_ranges  0x0000000000000000       0x18 CMakeFiles/51_dfu.dir/__/__/mesh/models/config/src/packed_index_list.c.obj
 .debug_line    0x0000000000000000      0x10b CMakeFiles/51_dfu.dir/__/__/mesh/models/config/src/packed_index_list.c.obj
 .debug_str     0x0000000000000000      0x26b CMakeFiles/51_dfu.dir/__/__/mesh/models/config/src/packed_index_list.c.obj
 .comment       0x0000000000000000       0x80 CMakeFiles/51_dfu.dir/__/__/mesh/models/config/src/packed_index_list.c.obj
 .debug_frame   0x0000000000000000       0x40 CMakeFiles/51_dfu.dir/__/__/mesh/models/config/src/packed_index_list.c.obj
 .ARM.attributes
                0x0000000000000000       0x31 CMakeFiles/51_dfu.dir/__/__/mesh/models/config/src/packed_index_list.c.obj
 .text          0x0000000000000000        0x0 CMakeFiles/51_dfu.dir/__/__/mesh/models/config/src/composition_data.c.obj
 .data          0x0000000000000000        0x0 CMakeFiles/51_dfu.dir/__/__/mesh/models/config/src/composition_data.c.obj
 .bss           0x0000000000000000        0x0 CMakeFiles/51_dfu.dir/__/__/mesh/models/config/src/composition_data.c.obj
 .text.config_composition_data_get
                0x0000000000000000      0x1d8 CMakeFiles/51_dfu.dir/__/__/mesh/models/config/src/composition_data.c.obj
 .debug_info    0x0000000000000000      0xe4f CMakeFiles/51_dfu.dir/__/__/mesh/models/config/src/composition_data.c.obj
 .debug_abbrev  0x0000000000000000      0x2d2 CMakeFiles/51_dfu.dir/__/__/mesh/models/config/src/composition_data.c.obj
 .debug_loc     0x0000000000000000      0x328 CMakeFiles/51_dfu.dir/__/__/mesh/models/config/src/composition_data.c.obj
 .debug_aranges
                0x0000000000000000       0x20 CMakeFiles/51_dfu.dir/__/__/mesh/models/config/src/composition_data.c.obj
 .debug_ranges  0x0000000000000000       0xd0 CMakeFiles/51_dfu.dir/__/__/mesh/models/config/src/composition_data.c.obj
 .debug_line    0x0000000000000000      0x353 CMakeFiles/51_dfu.dir/__/__/mesh/models/config/src/composition_data.c.obj
 .debug_str     0x0000000000000000      0x8ed CMakeFiles/51_dfu.dir/__/__/mesh/models/config/src/composition_data.c.obj
 .comment       0x0000000000000000       0x80 CMakeFiles/51_dfu.dir/__/__/mesh/models/config/src/composition_data.c.obj
 .debug_frame   0x0000000000000000       0x3c CMakeFiles/51_dfu.dir/__/__/mesh/models/config/src/composition_data.c.obj
 .ARM.attributes
                0x0000000000000000       0x31 CMakeFiles/51_dfu.dir/__/__/mesh/models/config/src/composition_data.c.obj
 .text          0x0000000000000000        0x0 CMakeFiles/51_dfu.dir/__/__/mesh/src/serial/nrf_mesh_serial.c.obj
 .data          0x0000000000000000        0x0 CMakeFiles/51_dfu.dir/__/__/mesh/src/serial/nrf_mesh_serial.c.obj
 .bss           0x0000000000000000        0x0 CMakeFiles/51_dfu.dir/__/__/mesh/src/serial/nrf_mesh_serial.c.obj
 .text.nrf_mesh_serial_state_get
                0x0000000000000000        0x8 CMakeFiles/51_dfu.dir/__/__/mesh/src/serial/nrf_mesh_serial.c.obj
 .text.nrf_mesh_serial_tx
                0x0000000000000000       0x68 CMakeFiles/51_dfu.dir/__/__/mesh/src/serial/nrf_mesh_serial.c.obj
 .text          0x0000000000000000        0x0 CMakeFiles/51_dfu.dir/__/__/mesh/src/serial/serial.c.obj
 .data          0x0000000000000000        0x0 CMakeFiles/51_dfu.dir/__/__/mesh/src/serial/serial.c.obj
 .bss           0x0000000000000000        0x0 CMakeFiles/51_dfu.dir/__/__/mesh/src/serial/serial.c.obj
 .text          0x0000000000000000        0x0 CMakeFiles/51_dfu.dir/__/__/mesh/src/serial/serial_bearer.c.obj
 .data          0x0000000000000000        0x0 CMakeFiles/51_dfu.dir/__/__/mesh/src/serial/serial_bearer.c.obj
 .bss           0x0000000000000000        0x0 CMakeFiles/51_dfu.dir/__/__/mesh/src/serial/serial_bearer.c.obj
 .text.serial_bearer_rx_pending
                0x0000000000000000       0x10 CMakeFiles/51_dfu.dir/__/__/mesh/src/serial/serial_bearer.c.obj
 .text          0x0000000000000000        0x0 CMakeFiles/51_dfu.dir/__/__/mesh/src/serial/serial_handler_common.c.obj
 .data          0x0000000000000000        0x0 CMakeFiles/51_dfu.dir/__/__/mesh/src/serial/serial_handler_common.c.obj
 .bss           0x0000000000000000        0x0 CMakeFiles/51_dfu.dir/__/__/mesh/src/serial/serial_handler_common.c.obj
 .text          0x0000000000000000        0x0 CMakeFiles/51_dfu.dir/__/__/mesh/src/serial/serial_handler_access.c.obj
 .data          0x0000000000000000        0x0 CMakeFiles/51_dfu.dir/__/__/mesh/src/serial/serial_handler_access.c.obj
 .bss           0x0000000000000000        0x0 CMakeFiles/51_dfu.dir/__/__/mesh/src/serial/serial_handler_access.c.obj
 .text          0x0000000000000000        0x0 CMakeFiles/51_dfu.dir/__/__/mesh/src/serial/serial_handler_app.c.obj
 .data          0x0000000000000000        0x0 CMakeFiles/51_dfu.dir/__/__/mesh/src/serial/serial_handler_app.c.obj
 .bss           0x0000000000000000        0x0 CMakeFiles/51_dfu.dir/__/__/mesh/src/serial/serial_handler_app.c.obj
 .text          0x0000000000000000        0x0 CMakeFiles/51_dfu.dir/__/__/mesh/src/serial/serial_handler_config.c.obj
 .data          0x0000000000000000        0x0 CMakeFiles/51_dfu.dir/__/__/mesh/src/serial/serial_handler_config.c.obj
 .bss           0x0000000000000000        0x0 CMakeFiles/51_dfu.dir/__/__/mesh/src/serial/serial_handler_config.c.obj
 .text          0x0000000000000000        0x0 CMakeFiles/51_dfu.dir/__/__/mesh/src/serial/serial_handler_device.c.obj
 .data          0x0000000000000000        0x0 CMakeFiles/51_dfu.dir/__/__/mesh/src/serial/serial_handler_device.c.obj
 .bss           0x0000000000000000        0x0 CMakeFiles/51_dfu.dir/__/__/mesh/src/serial/serial_handler_device.c.obj
 .text          0x0000000000000000        0x0 CMakeFiles/51_dfu.dir/__/__/mesh/src/serial/serial_handler_dfu.c.obj
 .data          0x0000000000000000        0x0 CMakeFiles/51_dfu.dir/__/__/mesh/src/serial/serial_handler_dfu.c.obj
 .bss           0x0000000000000000        0x0 CMakeFiles/51_dfu.dir/__/__/mesh/src/serial/serial_handler_dfu.c.obj
 .text          0x0000000000000000        0x0 CMakeFiles/51_dfu.dir/__/__/mesh/src/serial/serial_handler_mesh.c.obj
 .data          0x0000000000000000        0x0 CMakeFiles/51_dfu.dir/__/__/mesh/src/serial/serial_handler_mesh.c.obj
 .bss           0x0000000000000000        0x0 CMakeFiles/51_dfu.dir/__/__/mesh/src/serial/serial_handler_mesh.c.obj
 .text          0x0000000000000000        0x0 CMakeFiles/51_dfu.dir/__/__/mesh/src/serial/serial_handler_models.c.obj
 .data          0x0000000000000000        0x0 CMakeFiles/51_dfu.dir/__/__/mesh/src/serial/serial_handler_models.c.obj
 .bss           0x0000000000000000        0x0 CMakeFiles/51_dfu.dir/__/__/mesh/src/serial/serial_handler_models.c.obj
 .text.serial_handler_models_register
                0x0000000000000000       0x40 CMakeFiles/51_dfu.dir/__/__/mesh/src/serial/serial_handler_models.c.obj
 .text          0x0000000000000000        0x0 CMakeFiles/51_dfu.dir/__/__/mesh/src/serial/serial_handler_openmesh.c.obj
 .data          0x0000000000000000        0x0 CMakeFiles/51_dfu.dir/__/__/mesh/src/serial/serial_handler_openmesh.c.obj
 .bss           0x0000000000000000        0x0 CMakeFiles/51_dfu.dir/__/__/mesh/src/serial/serial_handler_openmesh.c.obj
 .text          0x0000000000000000        0x0 CMakeFiles/51_dfu.dir/__/__/mesh/src/serial/serial_handler_prov.c.obj
 .data          0x0000000000000000        0x0 CMakeFiles/51_dfu.dir/__/__/mesh/src/serial/serial_handler_prov.c.obj
 .bss           0x0000000000000000        0x0 CMakeFiles/51_dfu.dir/__/__/mesh/src/serial/serial_handler_prov.c.obj
 .text.serial_handler_prov_context_get
                0x0000000000000000       0x20 CMakeFiles/51_dfu.dir/__/__/mesh/src/serial/serial_handler_prov.c.obj
 .text.serial_handler_prov_keys_get
                0x0000000000000000       0x14 CMakeFiles/51_dfu.dir/__/__/mesh/src/serial/serial_handler_prov.c.obj
 .text.serial_handler_prov_oob_caps_get
                0x0000000000000000        0xc CMakeFiles/51_dfu.dir/__/__/mesh/src/serial/serial_handler_prov.c.obj
 .text          0x0000000000000000        0x0 CMakeFiles/51_dfu.dir/__/__/mesh/src/serial/serial_uart.c.obj
 .data          0x0000000000000000        0x0 CMakeFiles/51_dfu.dir/__/__/mesh/src/serial/serial_uart.c.obj
 .bss           0x0000000000000000        0x0 CMakeFiles/51_dfu.dir/__/__/mesh/src/serial/serial_uart.c.obj
 .text          0x0000000000000000        0x0 CMakeFiles/51_dfu.dir/__/__/mesh/src/dfu/nrf_mesh_dfu.c.obj
 .data          0x0000000000000000        0x0 CMakeFiles/51_dfu.dir/__/__/mesh/src/dfu/nrf_mesh_dfu.c.obj
 .bss           0x0000000000000000        0x0 CMakeFiles/51_dfu.dir/__/__/mesh/src/dfu/nrf_mesh_dfu.c.obj
 .data          0x0000000000000000        0x0 CMakeFiles/51_dfu.dir/__/__/toolchain/gcc/gcc_startup_nrf51.S.obj
 .bss           0x0000000000000000        0x0 CMakeFiles/51_dfu.dir/__/__/toolchain/gcc/gcc_startup_nrf51.S.obj
 .text          0x0000000000000000        0x0 CMakeFiles/51_dfu.dir/__/__/toolchain/system_nrf51.c.obj
 .data          0x0000000000000000        0x0 CMakeFiles/51_dfu.dir/__/__/toolchain/system_nrf51.c.obj
 .bss           0x0000000000000000        0x0 CMakeFiles/51_dfu.dir/__/__/toolchain/system_nrf51.c.obj
 .text.SystemCoreClockUpdate
                0x0000000000000000       0x10 CMakeFiles/51_dfu.dir/__/__/toolchain/system_nrf51.c.obj
 .data.SystemCoreClock
                0x0000000000000000        0x4 CMakeFiles/51_dfu.dir/__/__/toolchain/system_nrf51.c.obj
 .text          0x0000000000000000        0x0 ../../mesh/lib_51_MBTLE_PB_ADV_EE.a(nrf_mesh_prov.c.obj)
 .data          0x0000000000000000        0x0 ../../mesh/lib_51_MBTLE_PB_ADV_EE.a(nrf_mesh_prov.c.obj)
 .bss           0x0000000000000000        0x0 ../../mesh/lib_51_MBTLE_PB_ADV_EE.a(nrf_mesh_prov.c.obj)
 .text.nrf_mesh_prov_pubkey_provide
                0x0000000000000000       0x1c ../../mesh/lib_51_MBTLE_PB_ADV_EE.a(nrf_mesh_prov.c.obj)
 .text          0x0000000000000000        0x0 ../../mesh/lib_51_MBTLE_PB_ADV_EE.a(prov_bearer_adv.c.obj)
 .data          0x0000000000000000        0x0 ../../mesh/lib_51_MBTLE_PB_ADV_EE.a(prov_bearer_adv.c.obj)
 .bss           0x0000000000000000        0x0 ../../mesh/lib_51_MBTLE_PB_ADV_EE.a(prov_bearer_adv.c.obj)
 .text          0x0000000000000000        0x0 ../../mesh/lib_51_MBTLE_PB_ADV_EE.a(prov_utils.c.obj)
 .data          0x0000000000000000        0x0 ../../mesh/lib_51_MBTLE_PB_ADV_EE.a(prov_utils.c.obj)
 .bss           0x0000000000000000        0x0 ../../mesh/lib_51_MBTLE_PB_ADV_EE.a(prov_utils.c.obj)
 .text.prov_utils_opt_set
                0x0000000000000000       0x28 ../../mesh/lib_51_MBTLE_PB_ADV_EE.a(prov_utils.c.obj)
 .text.prov_utils_opt_get
                0x0000000000000000       0x1c ../../mesh/lib_51_MBTLE_PB_ADV_EE.a(prov_utils.c.obj)
 .text          0x0000000000000000        0x0 ../../mesh/lib_51_MBTLE_PB_ADV_EE.a(prov_beacon.c.obj)
 .data          0x0000000000000000        0x0 ../../mesh/lib_51_MBTLE_PB_ADV_EE.a(prov_beacon.c.obj)
 .bss           0x0000000000000000        0x0 ../../mesh/lib_51_MBTLE_PB_ADV_EE.a(prov_beacon.c.obj)
 .text.prov_beacon_unprov_report
                0x0000000000000000        0xc ../../mesh/lib_51_MBTLE_PB_ADV_EE.a(prov_beacon.c.obj)
 .text          0x0000000000000000        0x0 ../../mesh/lib_51_MBTLE_PB_ADV_EE.a(prov_provisionee.c.obj)
 .data          0x0000000000000000        0x0 ../../mesh/lib_51_MBTLE_PB_ADV_EE.a(prov_provisionee.c.obj)
 .bss           0x0000000000000000        0x0 ../../mesh/lib_51_MBTLE_PB_ADV_EE.a(prov_provisionee.c.obj)
 .text          0x0000000000000000        0x0 ../../mesh/lib_51_MBTLE_PB_ADV_EE.a(provisioning.c.obj)
 .data          0x0000000000000000        0x0 ../../mesh/lib_51_MBTLE_PB_ADV_EE.a(provisioning.c.obj)
 .bss           0x0000000000000000        0x0 ../../mesh/lib_51_MBTLE_PB_ADV_EE.a(provisioning.c.obj)
 .text.prov_listen_stop
                0x0000000000000000        0xe ../../mesh/lib_51_MBTLE_PB_ADV_EE.a(provisioning.c.obj)
 .text.prov_tx  0x0000000000000000        0x8 ../../mesh/lib_51_MBTLE_PB_ADV_EE.a(provisioning.c.obj)
 .text          0x0000000000000000        0x0 ../../mesh/lib_51_MBTLE_PB_ADV_ER.a(prov_provisioner.c.obj)
 .data          0x0000000000000000        0x0 ../../mesh/lib_51_MBTLE_PB_ADV_ER.a(prov_provisioner.c.obj)
 .bss           0x0000000000000000        0x0 ../../mesh/lib_51_MBTLE_PB_ADV_ER.a(prov_provisioner.c.obj)
 .text.prov_provisioner_oob_pubkey
                0x0000000000000000       0x40 ../../mesh/lib_51_MBTLE_PB_ADV_ER.a(prov_provisioner.c.obj)
 .text          0x0000000000000000        0x0 ../../mesh/lib_51_MBTLE_CORE.a(bearer_adv.c.obj)
 .data          0x0000000000000000        0x0 ../../mesh/lib_51_MBTLE_CORE.a(bearer_adv.c.obj)
 .bss           0x0000000000000000        0x0 ../../mesh/lib_51_MBTLE_CORE.a(bearer_adv.c.obj)
 .text.bearer_adv_opt_get
                0x0000000000000000       0xd8 ../../mesh/lib_51_MBTLE_CORE.a(bearer_adv.c.obj)
 .rodata.bearer_adv_opt_get
                0x0000000000000000       0x1c ../../mesh/lib_51_MBTLE_CORE.a(bearer_adv.c.obj)
 .text.bearer_adv_available
                0x0000000000000000       0x10 ../../mesh/lib_51_MBTLE_CORE.a(bearer_adv.c.obj)
 .text.bearer_adv_opt_set
                0x0000000000000000      0x124 ../../mesh/lib_51_MBTLE_CORE.a(bearer_adv.c.obj)
 .rodata.bearer_adv_opt_set
                0x0000000000000000       0x28 ../../mesh/lib_51_MBTLE_CORE.a(bearer_adv.c.obj)
 .text.bearer_adv_addr_set
                0x0000000000000000       0x3c ../../mesh/lib_51_MBTLE_CORE.a(bearer_adv.c.obj)
 .rodata.bearer_adv_opt_get.str1.4
                0x0000000000000000       0x15 ../../mesh/lib_51_MBTLE_CORE.a(bearer_adv.c.obj)
 .text          0x0000000000000000        0x0 ../../mesh/lib_51_MBTLE_CORE.a(fifo.c.obj)
 .data          0x0000000000000000        0x0 ../../mesh/lib_51_MBTLE_CORE.a(fifo.c.obj)
 .bss           0x0000000000000000        0x0 ../../mesh/lib_51_MBTLE_CORE.a(fifo.c.obj)
 .text.fifo_flush
                0x0000000000000000        0x6 ../../mesh/lib_51_MBTLE_CORE.a(fifo.c.obj)
 .text.fifo_is_full
                0x0000000000000000       0x14 ../../mesh/lib_51_MBTLE_CORE.a(fifo.c.obj)
 .text          0x0000000000000000        0x0 ../../mesh/lib_51_MBTLE_CORE.a(packet_mgr.c.obj)
 .data          0x0000000000000000        0x0 ../../mesh/lib_51_MBTLE_CORE.a(packet_mgr.c.obj)
 .bss           0x0000000000000000        0x0 ../../mesh/lib_51_MBTLE_CORE.a(packet_mgr.c.obj)
 .text.packet_mgr_get_free_space
                0x0000000000000000       0x1c ../../mesh/lib_51_MBTLE_CORE.a(packet_mgr.c.obj)
 .text.packet_mgr_refcount_get
                0x0000000000000000        0x6 ../../mesh/lib_51_MBTLE_CORE.a(packet_mgr.c.obj)
 .text.packet_mgr_size_get
                0x0000000000000000        0x6 ../../mesh/lib_51_MBTLE_CORE.a(packet_mgr.c.obj)
 .text          0x0000000000000000        0x0 ../../mesh/lib_51_MBTLE_CORE.a(radio.c.obj)
 .data          0x0000000000000000        0x0 ../../mesh/lib_51_MBTLE_CORE.a(radio.c.obj)
 .bss           0x0000000000000000        0x0 ../../mesh/lib_51_MBTLE_CORE.a(radio.c.obj)
 .text.radio_mode_set
                0x0000000000000000       0x14 ../../mesh/lib_51_MBTLE_CORE.a(radio.c.obj)
 .text.radio_access_addr_set
                0x0000000000000000        0xc ../../mesh/lib_51_MBTLE_CORE.a(radio.c.obj)
 .text.radio_tx_power_set
                0x0000000000000000        0xc ../../mesh/lib_51_MBTLE_CORE.a(radio.c.obj)
 .text.radio_mode_get
                0x0000000000000000        0xc ../../mesh/lib_51_MBTLE_CORE.a(radio.c.obj)
 .text.radio_access_addr_get
                0x0000000000000000        0xc ../../mesh/lib_51_MBTLE_CORE.a(radio.c.obj)
 .text.radio_resume
                0x0000000000000000       0x40 ../../mesh/lib_51_MBTLE_CORE.a(radio.c.obj)
 .text          0x0000000000000000        0x0 ../../mesh/lib_51_MBTLE_CORE.a(timer.c.obj)
 .data          0x0000000000000000        0x0 ../../mesh/lib_51_MBTLE_CORE.a(timer.c.obj)
 .bss           0x0000000000000000        0x0 ../../mesh/lib_51_MBTLE_CORE.a(timer.c.obj)
 .text.timer_order_cb_ppi
                0x0000000000000000       0xd0 ../../mesh/lib_51_MBTLE_CORE.a(timer.c.obj)
 .text.timer_order_ppi
                0x0000000000000000       0x90 ../../mesh/lib_51_MBTLE_CORE.a(timer.c.obj)
 .text          0x0000000000000000        0x0 ../../mesh/lib_51_MBTLE_CORE.a(timer_scheduler.c.obj)
 .data          0x0000000000000000        0x0 ../../mesh/lib_51_MBTLE_CORE.a(timer_scheduler.c.obj)
 .bss           0x0000000000000000        0x0 ../../mesh/lib_51_MBTLE_CORE.a(timer_scheduler.c.obj)
 .text          0x0000000000000000        0x0 ../../mesh/lib_51_MBTLE_CORE.a(beacon.c.obj)
 .data          0x0000000000000000        0x0 ../../mesh/lib_51_MBTLE_CORE.a(beacon.c.obj)
 .bss           0x0000000000000000        0x0 ../../mesh/lib_51_MBTLE_CORE.a(beacon.c.obj)
 .text          0x0000000000000000        0x0 ../../mesh/lib_51_MBTLE_CORE.a(bearer.c.obj)
 .data          0x0000000000000000        0x0 ../../mesh/lib_51_MBTLE_CORE.a(bearer.c.obj)
 .bss           0x0000000000000000        0x0 ../../mesh/lib_51_MBTLE_CORE.a(bearer.c.obj)
 .text.gap_addr_filter_set
                0x0000000000000000       0x40 ../../mesh/lib_51_MBTLE_CORE.a(bearer.c.obj)
 .text.bearer_adtype_filtering_set
                0x0000000000000000        0xc ../../mesh/lib_51_MBTLE_CORE.a(bearer.c.obj)
 .text.bearer_adtype_add
                0x0000000000000000       0x1c ../../mesh/lib_51_MBTLE_CORE.a(bearer.c.obj)
 .text.bearer_adtype_remove
                0x0000000000000000       0x1c ../../mesh/lib_51_MBTLE_CORE.a(bearer.c.obj)
 .text.bearer_filter_gap_addr_whitelist_set
                0x0000000000000000        0xa ../../mesh/lib_51_MBTLE_CORE.a(bearer.c.obj)
 .text.bearer_filter_gap_addr_blacklist_set
                0x0000000000000000        0xa ../../mesh/lib_51_MBTLE_CORE.a(bearer.c.obj)
 .text.bearer_filter_gap_addr_range_set
                0x0000000000000000       0x36 ../../mesh/lib_51_MBTLE_CORE.a(bearer.c.obj)
 .text.bearer_filter_gap_addr_clear
                0x0000000000000000       0x28 ../../mesh/lib_51_MBTLE_CORE.a(bearer.c.obj)
 .text.bearer_stats_get
                0x0000000000000000       0x2c ../../mesh/lib_51_MBTLE_CORE.a(bearer.c.obj)
 .text          0x0000000000000000        0x0 ../../mesh/lib_51_MBTLE_CORE.a(bearer_event.c.obj)
 .data          0x0000000000000000        0x0 ../../mesh/lib_51_MBTLE_CORE.a(bearer_event.c.obj)
 .bss           0x0000000000000000        0x0 ../../mesh/lib_51_MBTLE_CORE.a(bearer_event.c.obj)
 .text.bearer_event_timer_sch_post
                0x0000000000000000       0x3c ../../mesh/lib_51_MBTLE_CORE.a(bearer_event.c.obj)
 .text.bearer_event_in_progress
                0x0000000000000000       0x18 ../../mesh/lib_51_MBTLE_CORE.a(bearer_event.c.obj)
 .text          0x0000000000000000        0x0 ../../mesh/lib_51_MBTLE_CORE.a(nrf_mesh_configure.c.obj)
 .data          0x0000000000000000        0x0 ../../mesh/lib_51_MBTLE_CORE.a(nrf_mesh_configure.c.obj)
 .bss           0x0000000000000000        0x0 ../../mesh/lib_51_MBTLE_CORE.a(nrf_mesh_configure.c.obj)
 .text          0x0000000000000000        0x0 ../../mesh/lib_51_MBTLE_CORE.a(enc.c.obj)
 .data          0x0000000000000000        0x0 ../../mesh/lib_51_MBTLE_CORE.a(enc.c.obj)
 .bss           0x0000000000000000        0x0 ../../mesh/lib_51_MBTLE_CORE.a(enc.c.obj)
 .text.enc_key_generate
                0x0000000000000000        0xa ../../mesh/lib_51_MBTLE_CORE.a(enc.c.obj)
 .text          0x0000000000000000        0x0 ../../mesh/lib_51_MBTLE_CORE.a(event.c.obj)
 .data          0x0000000000000000        0x0 ../../mesh/lib_51_MBTLE_CORE.a(event.c.obj)
 .bss           0x0000000000000000        0x0 ../../mesh/lib_51_MBTLE_CORE.a(event.c.obj)
 .text.event_handler_remove
                0x0000000000000000       0x7c ../../mesh/lib_51_MBTLE_CORE.a(event.c.obj)
 .text          0x0000000000000000        0x0 ../../mesh/lib_51_MBTLE_CORE.a(hal.c.obj)
 .data          0x0000000000000000        0x0 ../../mesh/lib_51_MBTLE_CORE.a(hal.c.obj)
 .bss           0x0000000000000000        0x0 ../../mesh/lib_51_MBTLE_CORE.a(hal.c.obj)
 .text          0x0000000000000000        0x0 ../../mesh/lib_51_MBTLE_CORE.a(log.c.obj)
 .data          0x0000000000000000        0x0 ../../mesh/lib_51_MBTLE_CORE.a(log.c.obj)
 .bss           0x0000000000000000        0x0 ../../mesh/lib_51_MBTLE_CORE.a(log.c.obj)
 .text.log_callback_logview
                0x0000000000000000       0x38 ../../mesh/lib_51_MBTLE_CORE.a(log.c.obj)
 .text.log_set_callback
                0x0000000000000000        0xc ../../mesh/lib_51_MBTLE_CORE.a(log.c.obj)
 .rodata.log_callback_logview.str1.4
                0x0000000000000000       0x12 ../../mesh/lib_51_MBTLE_CORE.a(log.c.obj)
 .text          0x0000000000000000        0x0 ../../mesh/lib_51_MBTLE_CORE.a(net_beacon.c.obj)
 .data          0x0000000000000000        0x0 ../../mesh/lib_51_MBTLE_CORE.a(net_beacon.c.obj)
 .bss           0x0000000000000000        0x0 ../../mesh/lib_51_MBTLE_CORE.a(net_beacon.c.obj)
 .text.net_beacon_state_set
                0x0000000000000000       0x40 ../../mesh/lib_51_MBTLE_CORE.a(net_beacon.c.obj)
 .text.net_beacon_state_get
                0x0000000000000000        0xc ../../mesh/lib_51_MBTLE_CORE.a(net_beacon.c.obj)
 .text          0x0000000000000000        0x0 ../../mesh/lib_51_MBTLE_CORE.a(net_state.c.obj)
 .data          0x0000000000000000        0x0 ../../mesh/lib_51_MBTLE_CORE.a(net_state.c.obj)
 .bss           0x0000000000000000        0x0 ../../mesh/lib_51_MBTLE_CORE.a(net_state.c.obj)
 .text.net_state_iv_update_test_mode_set
                0x0000000000000000        0xc ../../mesh/lib_51_MBTLE_CORE.a(net_state.c.obj)
 .text          0x0000000000000000        0x0 ../../mesh/lib_51_MBTLE_CORE.a(nrf_mesh.c.obj)
 .data          0x0000000000000000        0x0 ../../mesh/lib_51_MBTLE_CORE.a(nrf_mesh.c.obj)
 .bss           0x0000000000000000        0x0 ../../mesh/lib_51_MBTLE_CORE.a(nrf_mesh.c.obj)
 .text.nrf_mesh_adv_send
                0x0000000000000000       0xbc ../../mesh/lib_51_MBTLE_CORE.a(nrf_mesh.c.obj)
 .text.nrf_mesh_evt_handler_remove
                0x0000000000000000        0x8 ../../mesh/lib_51_MBTLE_CORE.a(nrf_mesh.c.obj)
 .text.nrf_mesh_rx_cb_set
                0x0000000000000000        0xc ../../mesh/lib_51_MBTLE_CORE.a(nrf_mesh.c.obj)
 .text.nrf_mesh_rx_cb_clear
                0x0000000000000000        0xc ../../mesh/lib_51_MBTLE_CORE.a(nrf_mesh.c.obj)
 .text          0x0000000000000000        0x0 ../../mesh/lib_51_MBTLE_CORE.a(nrf_mesh_keygen.c.obj)
 .data          0x0000000000000000        0x0 ../../mesh/lib_51_MBTLE_CORE.a(nrf_mesh_keygen.c.obj)
 .bss           0x0000000000000000        0x0 ../../mesh/lib_51_MBTLE_CORE.a(nrf_mesh_keygen.c.obj)
 .text.nrf_mesh_keygen_identitykey
                0x0000000000000000       0x50 ../../mesh/lib_51_MBTLE_CORE.a(nrf_mesh_keygen.c.obj)
 .text          0x0000000000000000        0x0 ../../mesh/lib_51_MBTLE_CORE.a(nrf_mesh_utils.c.obj)
 .data          0x0000000000000000        0x0 ../../mesh/lib_51_MBTLE_CORE.a(nrf_mesh_utils.c.obj)
 .bss           0x0000000000000000        0x0 ../../mesh/lib_51_MBTLE_CORE.a(nrf_mesh_utils.c.obj)
 .text.nrf_mesh_rand_get
                0x0000000000000000       0x14 ../../mesh/lib_51_MBTLE_CORE.a(nrf_mesh_utils.c.obj)
 .text          0x0000000000000000        0x0 ../../mesh/lib_51_MBTLE_CORE.a(nrf_mesh_opt.c.obj)
 .data          0x0000000000000000        0x0 ../../mesh/lib_51_MBTLE_CORE.a(nrf_mesh_opt.c.obj)
 .bss           0x0000000000000000        0x0 ../../mesh/lib_51_MBTLE_CORE.a(nrf_mesh_opt.c.obj)
 .text.nrf_mesh_opt_set
                0x0000000000000000       0x4e ../../mesh/lib_51_MBTLE_CORE.a(nrf_mesh_opt.c.obj)
 .text.nrf_mesh_opt_get
                0x0000000000000000       0x4e ../../mesh/lib_51_MBTLE_CORE.a(nrf_mesh_opt.c.obj)
 .debug_info    0x0000000000000000      0xbb4 ../../mesh/lib_51_MBTLE_CORE.a(nrf_mesh_opt.c.obj)
 .debug_abbrev  0x0000000000000000      0x239 ../../mesh/lib_51_MBTLE_CORE.a(nrf_mesh_opt.c.obj)
 .debug_loc     0x0000000000000000      0x214 ../../mesh/lib_51_MBTLE_CORE.a(nrf_mesh_opt.c.obj)
 .debug_aranges
                0x0000000000000000       0x28 ../../mesh/lib_51_MBTLE_CORE.a(nrf_mesh_opt.c.obj)
 .debug_ranges  0x0000000000000000       0x18 ../../mesh/lib_51_MBTLE_CORE.a(nrf_mesh_opt.c.obj)
 .debug_line    0x0000000000000000      0x2e1 ../../mesh/lib_51_MBTLE_CORE.a(nrf_mesh_opt.c.obj)
 .debug_str     0x0000000000000000      0xaa2 ../../mesh/lib_51_MBTLE_CORE.a(nrf_mesh_opt.c.obj)
 .comment       0x0000000000000000       0x80 ../../mesh/lib_51_MBTLE_CORE.a(nrf_mesh_opt.c.obj)
 .debug_frame   0x0000000000000000       0x40 ../../mesh/lib_51_MBTLE_CORE.a(nrf_mesh_opt.c.obj)
 .ARM.attributes
                0x0000000000000000       0x31 ../../mesh/lib_51_MBTLE_CORE.a(nrf_mesh_opt.c.obj)
 .text          0x0000000000000000        0x0 ../../mesh/lib_51_MBTLE_CORE.a(radio_config.c.obj)
 .data          0x0000000000000000        0x0 ../../mesh/lib_51_MBTLE_CORE.a(radio_config.c.obj)
 .bss           0x0000000000000000        0x0 ../../mesh/lib_51_MBTLE_CORE.a(radio_config.c.obj)
 .text.radio_config_access_addr_set
                0x0000000000000000       0x78 ../../mesh/lib_51_MBTLE_CORE.a(radio_config.c.obj)
 .text.radio_config_access_addr_get
                0x0000000000000000       0x7c ../../mesh/lib_51_MBTLE_CORE.a(radio_config.c.obj)
 .text          0x0000000000000000        0x0 ../../mesh/lib_51_MBTLE_CORE.a(packet_buffer.c.obj)
 .data          0x0000000000000000        0x0 ../../mesh/lib_51_MBTLE_CORE.a(packet_buffer.c.obj)
 .bss           0x0000000000000000        0x0 ../../mesh/lib_51_MBTLE_CORE.a(packet_buffer.c.obj)
 .text          0x0000000000000000        0x0 ../../mesh/lib_51_MBTLE_CORE.a(rand.c.obj)
 .data          0x0000000000000000        0x0 ../../mesh/lib_51_MBTLE_CORE.a(rand.c.obj)
 .bss           0x0000000000000000        0x0 ../../mesh/lib_51_MBTLE_CORE.a(rand.c.obj)
 .text          0x0000000000000000        0x0 ../../mesh/lib_51_MBTLE_CORE.a(ticker.c.obj)
 .data          0x0000000000000000        0x0 ../../mesh/lib_51_MBTLE_CORE.a(ticker.c.obj)
 .bss           0x0000000000000000        0x0 ../../mesh/lib_51_MBTLE_CORE.a(ticker.c.obj)
 .text.ticker_get
                0x0000000000000000        0xc ../../mesh/lib_51_MBTLE_CORE.a(ticker.c.obj)
 .text          0x0000000000000000        0x0 ../../mesh/lib_51_MBTLE_CORE.a(transport.c.obj)
 .data          0x0000000000000000        0x0 ../../mesh/lib_51_MBTLE_CORE.a(transport.c.obj)
 .bss           0x0000000000000000        0x0 ../../mesh/lib_51_MBTLE_CORE.a(transport.c.obj)
 .text.transport_opt_set
                0x0000000000000000       0xdc ../../mesh/lib_51_MBTLE_CORE.a(transport.c.obj)
 .rodata.transport_opt_set
                0x0000000000000000       0x1c ../../mesh/lib_51_MBTLE_CORE.a(transport.c.obj)
 .text.transport_opt_get
                0x0000000000000000       0x80 ../../mesh/lib_51_MBTLE_CORE.a(transport.c.obj)
 .rodata.transport_opt_get
                0x0000000000000000       0x1c ../../mesh/lib_51_MBTLE_CORE.a(transport.c.obj)
 .text          0x0000000000000000        0x0 ../../mesh/lib_51_MBTLE_CORE.a(internal_event.c.obj)
 .data          0x0000000000000000        0x0 ../../mesh/lib_51_MBTLE_CORE.a(internal_event.c.obj)
 .bss           0x0000000000000000        0x0 ../../mesh/lib_51_MBTLE_CORE.a(internal_event.c.obj)
 .text.internal_event_pop
                0x0000000000000000       0x20 ../../mesh/lib_51_MBTLE_CORE.a(internal_event.c.obj)
 .text          0x0000000000000000        0x0 ../../mesh/lib_51_MBTLE_CORE.a(mesh_flash.c.obj)
 .data          0x0000000000000000        0x0 ../../mesh/lib_51_MBTLE_CORE.a(mesh_flash.c.obj)
 .bss           0x0000000000000000        0x0 ../../mesh/lib_51_MBTLE_CORE.a(mesh_flash.c.obj)
 .text.mesh_flash_op_available_slots
                0x0000000000000000       0x30 ../../mesh/lib_51_MBTLE_CORE.a(mesh_flash.c.obj)
 .text          0x0000000000000000        0x0 ../../mesh/lib_51_MBTLE_CORE.a(nrf_flash.c.obj)
 .data          0x0000000000000000        0x0 ../../mesh/lib_51_MBTLE_CORE.a(nrf_flash.c.obj)
 .bss           0x0000000000000000        0x0 ../../mesh/lib_51_MBTLE_CORE.a(nrf_flash.c.obj)
 .text          0x0000000000000000        0x0 ../../mesh/lib_51_MBTLE_CORE.a(flash_manager.c.obj)
 .data          0x0000000000000000        0x0 ../../mesh/lib_51_MBTLE_CORE.a(flash_manager.c.obj)
 .bss           0x0000000000000000        0x0 ../../mesh/lib_51_MBTLE_CORE.a(flash_manager.c.obj)
 .text.flash_manager_entry_get
                0x0000000000000000       0x54 ../../mesh/lib_51_MBTLE_CORE.a(flash_manager.c.obj)
 .text.flash_manager_entry_count_get
                0x0000000000000000       0xc4 ../../mesh/lib_51_MBTLE_CORE.a(flash_manager.c.obj)
 .text.flash_manager_entry_release
                0x0000000000000000       0x58 ../../mesh/lib_51_MBTLE_CORE.a(flash_manager.c.obj)
 .text          0x0000000000000000        0x0 ../../mesh/lib_51_MBTLE_CORE.a(flash_manager_defrag.c.obj)
 .data          0x0000000000000000        0x0 ../../mesh/lib_51_MBTLE_CORE.a(flash_manager_defrag.c.obj)
 .bss           0x0000000000000000        0x0 ../../mesh/lib_51_MBTLE_CORE.a(flash_manager_defrag.c.obj)
 .text.flash_manager_defragging
                0x0000000000000000       0x54 ../../mesh/lib_51_MBTLE_CORE.a(flash_manager_defrag.c.obj)
 .text          0x0000000000000000        0x0 ../../mesh/lib_51_MBTLE_CORE.a(flash_manager_internal.c.obj)
 .data          0x0000000000000000        0x0 ../../mesh/lib_51_MBTLE_CORE.a(flash_manager_internal.c.obj)
 .bss           0x0000000000000000        0x0 ../../mesh/lib_51_MBTLE_CORE.a(flash_manager_internal.c.obj)
 .text          0x0000000000000000        0x0 ../../mesh/lib_51_MBTLE_CORE.a(aes.c.obj)
 .data          0x0000000000000000        0x0 ../../mesh/lib_51_MBTLE_CORE.a(aes.c.obj)
 .bss           0x0000000000000000        0x0 ../../mesh/lib_51_MBTLE_CORE.a(aes.c.obj)
 .text          0x0000000000000000        0x0 ../../mesh/lib_51_MBTLE_CORE.a(queue.c.obj)
 .data          0x0000000000000000        0x0 ../../mesh/lib_51_MBTLE_CORE.a(queue.c.obj)
 .bss           0x0000000000000000        0x0 ../../mesh/lib_51_MBTLE_CORE.a(queue.c.obj)
 .text.queue_peek
                0x0000000000000000       0x20 ../../mesh/lib_51_MBTLE_CORE.a(queue.c.obj)
 .text          0x0000000000000000        0x0 ../../mesh/lib_51_MBTLE_CORE.a(msqueue.c.obj)
 .data          0x0000000000000000        0x0 ../../mesh/lib_51_MBTLE_CORE.a(msqueue.c.obj)
 .bss           0x0000000000000000        0x0 ../../mesh/lib_51_MBTLE_CORE.a(msqueue.c.obj)
 .text          0x0000000000000000        0x0 ../../mesh/lib_51_MBTLE_CORE.a(timeslot.c.obj)
 .data          0x0000000000000000        0x0 ../../mesh/lib_51_MBTLE_CORE.a(timeslot.c.obj)
 .bss           0x0000000000000000        0x0 ../../mesh/lib_51_MBTLE_CORE.a(timeslot.c.obj)
 .text.timeslot_restart
                0x0000000000000000       0x34 ../../mesh/lib_51_MBTLE_CORE.a(timeslot.c.obj)
 .text.timeslot_start_time_get
                0x0000000000000000        0xc ../../mesh/lib_51_MBTLE_CORE.a(timeslot.c.obj)
 .text.timeslot_is_in_ts
                0x0000000000000000        0xc ../../mesh/lib_51_MBTLE_CORE.a(timeslot.c.obj)
 .text          0x0000000000000000        0x0 ../../mesh/lib_51_MBTLE_CORE.a(aes_cmac.c.obj)
 .data          0x0000000000000000        0x0 ../../mesh/lib_51_MBTLE_CORE.a(aes_cmac.c.obj)
 .bss           0x0000000000000000        0x0 ../../mesh/lib_51_MBTLE_CORE.a(aes_cmac.c.obj)
 .text          0x0000000000000000        0x0 ../../mesh/lib_51_MBTLE_CORE.a(ccm_soft.c.obj)
 .data          0x0000000000000000        0x0 ../../mesh/lib_51_MBTLE_CORE.a(ccm_soft.c.obj)
 .bss           0x0000000000000000        0x0 ../../mesh/lib_51_MBTLE_CORE.a(ccm_soft.c.obj)
 .text          0x0000000000000000        0x0 ../../mesh/lib_51_MBTLE_CORE.a(msg_cache.c.obj)
 .data          0x0000000000000000        0x0 ../../mesh/lib_51_MBTLE_CORE.a(msg_cache.c.obj)
 .bss           0x0000000000000000        0x0 ../../mesh/lib_51_MBTLE_CORE.a(msg_cache.c.obj)
 .text.msg_cache_clear
                0x0000000000000000       0x20 ../../mesh/lib_51_MBTLE_CORE.a(msg_cache.c.obj)
 .text          0x0000000000000000        0x0 ../../mesh/lib_51_MBTLE_CORE.a(network.c.obj)
 .data          0x0000000000000000        0x0 ../../mesh/lib_51_MBTLE_CORE.a(network.c.obj)
 .bss           0x0000000000000000        0x0 ../../mesh/lib_51_MBTLE_CORE.a(network.c.obj)
 .text.network_opt_set
                0x0000000000000000       0x4c ../../mesh/lib_51_MBTLE_CORE.a(network.c.obj)
 .text.network_opt_get
                0x0000000000000000       0x48 ../../mesh/lib_51_MBTLE_CORE.a(network.c.obj)
 .text          0x0000000000000000        0x0 ../../mesh/lib_51_MBTLE_CORE.a(packet.c.obj)
 .data          0x0000000000000000        0x0 ../../mesh/lib_51_MBTLE_CORE.a(packet.c.obj)
 .bss           0x0000000000000000        0x0 ../../mesh/lib_51_MBTLE_CORE.a(packet.c.obj)
 .text          0x0000000000000000        0x0 ../../mesh/lib_51_MBTLE_CORE.a(replay_cache.c.obj)
 .data          0x0000000000000000        0x0 ../../mesh/lib_51_MBTLE_CORE.a(replay_cache.c.obj)
 .bss           0x0000000000000000        0x0 ../../mesh/lib_51_MBTLE_CORE.a(replay_cache.c.obj)
 .text.replay_cache_on_iv_update
                0x0000000000000000       0x28 ../../mesh/lib_51_MBTLE_CORE.a(replay_cache.c.obj)
 .text          0x0000000000000000        0x0 ../../lib/rtt/lib_51_RTT_LIB.a(SEGGER_RTT.c.obj)
 .data          0x0000000000000000        0x0 ../../lib/rtt/lib_51_RTT_LIB.a(SEGGER_RTT.c.obj)
 .bss           0x0000000000000000        0x0 ../../lib/rtt/lib_51_RTT_LIB.a(SEGGER_RTT.c.obj)
 .text._PostTerminalSwitch
                0x0000000000000000       0x20 ../../lib/rtt/lib_51_RTT_LIB.a(SEGGER_RTT.c.obj)
 .text.SEGGER_RTT_ReadNoLock
                0x0000000000000000       0xd8 ../../lib/rtt/lib_51_RTT_LIB.a(SEGGER_RTT.c.obj)
 .text.SEGGER_RTT_Read
                0x0000000000000000       0x1a ../../lib/rtt/lib_51_RTT_LIB.a(SEGGER_RTT.c.obj)
 .text.SEGGER_RTT_WriteSkipNoLock
                0x0000000000000000      0x124 ../../lib/rtt/lib_51_RTT_LIB.a(SEGGER_RTT.c.obj)
 .text.SEGGER_RTT_WriteString
                0x0000000000000000       0x18 ../../lib/rtt/lib_51_RTT_LIB.a(SEGGER_RTT.c.obj)
 .text.SEGGER_RTT_GetKey
                0x0000000000000000       0x22 ../../lib/rtt/lib_51_RTT_LIB.a(SEGGER_RTT.c.obj)
 .text.SEGGER_RTT_WaitKey
                0x0000000000000000        0xc ../../lib/rtt/lib_51_RTT_LIB.a(SEGGER_RTT.c.obj)
 .text.SEGGER_RTT_HasKey
                0x0000000000000000       0x24 ../../lib/rtt/lib_51_RTT_LIB.a(SEGGER_RTT.c.obj)
 .text.SEGGER_RTT_HasData
                0x0000000000000000       0x1c ../../lib/rtt/lib_51_RTT_LIB.a(SEGGER_RTT.c.obj)
 .text.SEGGER_RTT_AllocDownBuffer
                0x0000000000000000       0x78 ../../lib/rtt/lib_51_RTT_LIB.a(SEGGER_RTT.c.obj)
 .text.SEGGER_RTT_AllocUpBuffer
                0x0000000000000000       0x98 ../../lib/rtt/lib_51_RTT_LIB.a(SEGGER_RTT.c.obj)
 .text.SEGGER_RTT_ConfigUpBuffer
                0x0000000000000000       0x80 ../../lib/rtt/lib_51_RTT_LIB.a(SEGGER_RTT.c.obj)
 .text.SEGGER_RTT_ConfigDownBuffer
                0x0000000000000000       0x64 ../../lib/rtt/lib_51_RTT_LIB.a(SEGGER_RTT.c.obj)
 .text.SEGGER_RTT_SetNameUpBuffer
                0x0000000000000000       0x44 ../../lib/rtt/lib_51_RTT_LIB.a(SEGGER_RTT.c.obj)
 .text.SEGGER_RTT_SetNameDownBuffer
                0x0000000000000000       0x44 ../../lib/rtt/lib_51_RTT_LIB.a(SEGGER_RTT.c.obj)
 .text.SEGGER_RTT_Init
                0x0000000000000000       0x18 ../../lib/rtt/lib_51_RTT_LIB.a(SEGGER_RTT.c.obj)
 .text.SEGGER_RTT_SetTerminal
                0x0000000000000000       0x8c ../../lib/rtt/lib_51_RTT_LIB.a(SEGGER_RTT.c.obj)
 .text.SEGGER_RTT_TerminalOut
                0x0000000000000000       0xf0 ../../lib/rtt/lib_51_RTT_LIB.a(SEGGER_RTT.c.obj)
 .bss._ActiveTerminal
                0x0000000000000000        0x1 ../../lib/rtt/lib_51_RTT_LIB.a(SEGGER_RTT.c.obj)
 .rodata._aTerminalId
                0x0000000000000000       0x10 ../../lib/rtt/lib_51_RTT_LIB.a(SEGGER_RTT.c.obj)
 .text          0x0000000000000000        0x0 ../../lib/rtt/lib_51_RTT_LIB.a(SEGGER_RTT_printf.c.obj)
 .data          0x0000000000000000        0x0 ../../lib/rtt/lib_51_RTT_LIB.a(SEGGER_RTT_printf.c.obj)
 .bss           0x0000000000000000        0x0 ../../lib/rtt/lib_51_RTT_LIB.a(SEGGER_RTT_printf.c.obj)
 .text          0x0000000000000000        0x0 ../../lib/micro-ecc/lib_51_UECC_LIB.a(uECC.c.obj)
 .data          0x0000000000000000        0x0 ../../lib/micro-ecc/lib_51_UECC_LIB.a(uECC.c.obj)
 .bss           0x0000000000000000        0x0 ../../lib/micro-ecc/lib_51_UECC_LIB.a(uECC.c.obj)
 .text.uECC_vli_modMult
                0x0000000000000000      0x180 ../../lib/micro-ecc/lib_51_UECC_LIB.a(uECC.c.obj)
 .text.bits2int
                0x0000000000000000       0xa8 ../../lib/micro-ecc/lib_51_UECC_LIB.a(uECC.c.obj)
 .text.uECC_sign_with_k
                0x0000000000000000      0x184 ../../lib/micro-ecc/lib_51_UECC_LIB.a(uECC.c.obj)
 .text.HMAC_init
                0x0000000000000000       0x48 ../../lib/micro-ecc/lib_51_UECC_LIB.a(uECC.c.obj)
 .text.HMAC_update
                0x0000000000000000        0x8 ../../lib/micro-ecc/lib_51_UECC_LIB.a(uECC.c.obj)
 .text.HMAC_finish
                0x0000000000000000       0x64 ../../lib/micro-ecc/lib_51_UECC_LIB.a(uECC.c.obj)
 .text.update_V
                0x0000000000000000       0x22 ../../lib/micro-ecc/lib_51_UECC_LIB.a(uECC.c.obj)
 .text.uECC_set_rng
                0x0000000000000000        0xc ../../lib/micro-ecc/lib_51_UECC_LIB.a(uECC.c.obj)
 .text.uECC_get_rng
                0x0000000000000000        0xc ../../lib/micro-ecc/lib_51_UECC_LIB.a(uECC.c.obj)
 .text.uECC_curve_private_key_size
                0x0000000000000000       0x12 ../../lib/micro-ecc/lib_51_UECC_LIB.a(uECC.c.obj)
 .text.uECC_curve_public_key_size
                0x0000000000000000        0x8 ../../lib/micro-ecc/lib_51_UECC_LIB.a(uECC.c.obj)
 .text.uECC_compute_public_key
                0x0000000000000000       0x8a ../../lib/micro-ecc/lib_51_UECC_LIB.a(uECC.c.obj)
 .text.uECC_sign
                0x0000000000000000       0x5a ../../lib/micro-ecc/lib_51_UECC_LIB.a(uECC.c.obj)
 .text.uECC_sign_deterministic
                0x0000000000000000      0x1d6 ../../lib/micro-ecc/lib_51_UECC_LIB.a(uECC.c.obj)
 .text.uECC_verify
                0x0000000000000000      0x310 ../../lib/micro-ecc/lib_51_UECC_LIB.a(uECC.c.obj)
 .data          0x0000000000000000        0x0 /usr/bin/../lib/gcc/arm-none-eabi/6.3.1/thumb/v6-m/libgcc.a(_udivsi3.o)
 .bss           0x0000000000000000        0x0 /usr/bin/../lib/gcc/arm-none-eabi/6.3.1/thumb/v6-m/libgcc.a(_udivsi3.o)
 .data          0x0000000000000000        0x0 /usr/bin/../lib/gcc/arm-none-eabi/6.3.1/thumb/v6-m/libgcc.a(_divsi3.o)
 .bss           0x0000000000000000        0x0 /usr/bin/../lib/gcc/arm-none-eabi/6.3.1/thumb/v6-m/libgcc.a(_divsi3.o)
 .data          0x0000000000000000        0x0 /usr/bin/../lib/gcc/arm-none-eabi/6.3.1/thumb/v6-m/libgcc.a(_dvmd_tls.o)
 .bss           0x0000000000000000        0x0 /usr/bin/../lib/gcc/arm-none-eabi/6.3.1/thumb/v6-m/libgcc.a(_dvmd_tls.o)
 .data          0x0000000000000000        0x0 /usr/bin/../lib/gcc/arm-none-eabi/6.3.1/thumb/v6-m/libgcc.a(_muldi3.o)
 .bss           0x0000000000000000        0x0 /usr/bin/../lib/gcc/arm-none-eabi/6.3.1/thumb/v6-m/libgcc.a(_muldi3.o)
 .text          0x0000000000000000        0x0 /usr/bin/../lib/gcc/arm-none-eabi/6.3.1/../../../../arm-none-eabi/lib/thumb/v6-m/libg_nano.a(lib_a-exit.o)
 .data          0x0000000000000000        0x0 /usr/bin/../lib/gcc/arm-none-eabi/6.3.1/../../../../arm-none-eabi/lib/thumb/v6-m/libg_nano.a(lib_a-exit.o)
 .bss           0x0000000000000000        0x0 /usr/bin/../lib/gcc/arm-none-eabi/6.3.1/../../../../arm-none-eabi/lib/thumb/v6-m/libg_nano.a(lib_a-exit.o)
 .text          0x0000000000000000        0x0 /usr/bin/../lib/gcc/arm-none-eabi/6.3.1/../../../../arm-none-eabi/lib/thumb/v6-m/libg_nano.a(lib_a-impure.o)
 .data          0x0000000000000000        0x0 /usr/bin/../lib/gcc/arm-none-eabi/6.3.1/../../../../arm-none-eabi/lib/thumb/v6-m/libg_nano.a(lib_a-impure.o)
 .bss           0x0000000000000000        0x0 /usr/bin/../lib/gcc/arm-none-eabi/6.3.1/../../../../arm-none-eabi/lib/thumb/v6-m/libg_nano.a(lib_a-impure.o)
 .text          0x0000000000000000        0x0 /usr/bin/../lib/gcc/arm-none-eabi/6.3.1/../../../../arm-none-eabi/lib/thumb/v6-m/libg_nano.a(lib_a-init.o)
 .data          0x0000000000000000        0x0 /usr/bin/../lib/gcc/arm-none-eabi/6.3.1/../../../../arm-none-eabi/lib/thumb/v6-m/libg_nano.a(lib_a-init.o)
 .bss           0x0000000000000000        0x0 /usr/bin/../lib/gcc/arm-none-eabi/6.3.1/../../../../arm-none-eabi/lib/thumb/v6-m/libg_nano.a(lib_a-init.o)
 .text          0x0000000000000000        0x0 /usr/bin/../lib/gcc/arm-none-eabi/6.3.1/../../../../arm-none-eabi/lib/thumb/v6-m/libg_nano.a(lib_a-malloc.o)
 .data          0x0000000000000000        0x0 /usr/bin/../lib/gcc/arm-none-eabi/6.3.1/../../../../arm-none-eabi/lib/thumb/v6-m/libg_nano.a(lib_a-malloc.o)
 .bss           0x0000000000000000        0x0 /usr/bin/../lib/gcc/arm-none-eabi/6.3.1/../../../../arm-none-eabi/lib/thumb/v6-m/libg_nano.a(lib_a-malloc.o)
 .text          0x0000000000000000        0x0 /usr/bin/../lib/gcc/arm-none-eabi/6.3.1/../../../../arm-none-eabi/lib/thumb/v6-m/libg_nano.a(lib_a-memcmp.o)
 .data          0x0000000000000000        0x0 /usr/bin/../lib/gcc/arm-none-eabi/6.3.1/../../../../arm-none-eabi/lib/thumb/v6-m/libg_nano.a(lib_a-memcmp.o)
 .bss           0x0000000000000000        0x0 /usr/bin/../lib/gcc/arm-none-eabi/6.3.1/../../../../arm-none-eabi/lib/thumb/v6-m/libg_nano.a(lib_a-memcmp.o)
 .text          0x0000000000000000        0x0 /usr/bin/../lib/gcc/arm-none-eabi/6.3.1/../../../../arm-none-eabi/lib/thumb/v6-m/libg_nano.a(lib_a-memcpy-stub.o)
 .data          0x0000000000000000        0x0 /usr/bin/../lib/gcc/arm-none-eabi/6.3.1/../../../../arm-none-eabi/lib/thumb/v6-m/libg_nano.a(lib_a-memcpy-stub.o)
 .bss           0x0000000000000000        0x0 /usr/bin/../lib/gcc/arm-none-eabi/6.3.1/../../../../arm-none-eabi/lib/thumb/v6-m/libg_nano.a(lib_a-memcpy-stub.o)
 .text          0x0000000000000000        0x0 /usr/bin/../lib/gcc/arm-none-eabi/6.3.1/../../../../arm-none-eabi/lib/thumb/v6-m/libg_nano.a(lib_a-memset.o)
 .data          0x0000000000000000        0x0 /usr/bin/../lib/gcc/arm-none-eabi/6.3.1/../../../../arm-none-eabi/lib/thumb/v6-m/libg_nano.a(lib_a-memset.o)
 .bss           0x0000000000000000        0x0 /usr/bin/../lib/gcc/arm-none-eabi/6.3.1/../../../../arm-none-eabi/lib/thumb/v6-m/libg_nano.a(lib_a-memset.o)
 .text          0x0000000000000000        0x0 /usr/bin/../lib/gcc/arm-none-eabi/6.3.1/../../../../arm-none-eabi/lib/thumb/v6-m/libg_nano.a(lib_a-nano-freer.o)
 .data          0x0000000000000000        0x0 /usr/bin/../lib/gcc/arm-none-eabi/6.3.1/../../../../arm-none-eabi/lib/thumb/v6-m/libg_nano.a(lib_a-nano-freer.o)
 .bss           0x0000000000000000        0x0 /usr/bin/../lib/gcc/arm-none-eabi/6.3.1/../../../../arm-none-eabi/lib/thumb/v6-m/libg_nano.a(lib_a-nano-freer.o)
 .text          0x0000000000000000        0x0 /usr/bin/../lib/gcc/arm-none-eabi/6.3.1/../../../../arm-none-eabi/lib/thumb/v6-m/libg_nano.a(lib_a-nano-mallocr.o)
 .data          0x0000000000000000        0x0 /usr/bin/../lib/gcc/arm-none-eabi/6.3.1/../../../../arm-none-eabi/lib/thumb/v6-m/libg_nano.a(lib_a-nano-mallocr.o)
 .bss           0x0000000000000000        0x0 /usr/bin/../lib/gcc/arm-none-eabi/6.3.1/../../../../arm-none-eabi/lib/thumb/v6-m/libg_nano.a(lib_a-nano-mallocr.o)
 .text          0x0000000000000000        0x0 /usr/bin/../lib/gcc/arm-none-eabi/6.3.1/../../../../arm-none-eabi/lib/thumb/v6-m/libg_nano.a(lib_a-sbrkr.o)
 .data          0x0000000000000000        0x0 /usr/bin/../lib/gcc/arm-none-eabi/6.3.1/../../../../arm-none-eabi/lib/thumb/v6-m/libg_nano.a(lib_a-sbrkr.o)
 .bss           0x0000000000000000        0x0 /usr/bin/../lib/gcc/arm-none-eabi/6.3.1/../../../../arm-none-eabi/lib/thumb/v6-m/libg_nano.a(lib_a-sbrkr.o)
 .text          0x0000000000000000        0x0 /usr/bin/../lib/gcc/arm-none-eabi/6.3.1/../../../../arm-none-eabi/lib/thumb/v6-m/libg_nano.a(lib_a-strcpy.o)
 .data          0x0000000000000000        0x0 /usr/bin/../lib/gcc/arm-none-eabi/6.3.1/../../../../arm-none-eabi/lib/thumb/v6-m/libg_nano.a(lib_a-strcpy.o)
 .bss           0x0000000000000000        0x0 /usr/bin/../lib/gcc/arm-none-eabi/6.3.1/../../../../arm-none-eabi/lib/thumb/v6-m/libg_nano.a(lib_a-strcpy.o)
 .data          0x0000000000000000        0x0 /usr/bin/../lib/gcc/arm-none-eabi/6.3.1/../../../../arm-none-eabi/lib/thumb/v6-m/libg_nano.a(lib_a-strlen.o)
 .bss           0x0000000000000000        0x0 /usr/bin/../lib/gcc/arm-none-eabi/6.3.1/../../../../arm-none-eabi/lib/thumb/v6-m/libg_nano.a(lib_a-strlen.o)
 .text          0x0000000000000000        0x0 /usr/bin/../lib/gcc/arm-none-eabi/6.3.1/../../../../arm-none-eabi/lib/thumb/v6-m/libg_nano.a(lib_a-strrchr.o)
 .data          0x0000000000000000        0x0 /usr/bin/../lib/gcc/arm-none-eabi/6.3.1/../../../../arm-none-eabi/lib/thumb/v6-m/libg_nano.a(lib_a-strrchr.o)
 .bss           0x0000000000000000        0x0 /usr/bin/../lib/gcc/arm-none-eabi/6.3.1/../../../../arm-none-eabi/lib/thumb/v6-m/libg_nano.a(lib_a-strrchr.o)
 .text          0x0000000000000000        0x0 /usr/bin/../lib/gcc/arm-none-eabi/6.3.1/../../../../arm-none-eabi/lib/thumb/v6-m/libg_nano.a(lib_a-mlock.o)
 .data          0x0000000000000000        0x0 /usr/bin/../lib/gcc/arm-none-eabi/6.3.1/../../../../arm-none-eabi/lib/thumb/v6-m/libg_nano.a(lib_a-mlock.o)
 .bss           0x0000000000000000        0x0 /usr/bin/../lib/gcc/arm-none-eabi/6.3.1/../../../../arm-none-eabi/lib/thumb/v6-m/libg_nano.a(lib_a-mlock.o)
 .text          0x0000000000000000        0x0 /usr/bin/../lib/gcc/arm-none-eabi/6.3.1/../../../../arm-none-eabi/lib/thumb/v6-m/libg_nano.a(lib_a-reent.o)
 .data          0x0000000000000000        0x0 /usr/bin/../lib/gcc/arm-none-eabi/6.3.1/../../../../arm-none-eabi/lib/thumb/v6-m/libg_nano.a(lib_a-reent.o)
 .bss           0x0000000000000000        0x0 /usr/bin/../lib/gcc/arm-none-eabi/6.3.1/../../../../arm-none-eabi/lib/thumb/v6-m/libg_nano.a(lib_a-reent.o)
 .text.cleanup_glue
                0x0000000000000000       0x1a /usr/bin/../lib/gcc/arm-none-eabi/6.3.1/../../../../arm-none-eabi/lib/thumb/v6-m/libg_nano.a(lib_a-reent.o)
 .text._reclaim_reent
                0x0000000000000000       0xcc /usr/bin/../lib/gcc/arm-none-eabi/6.3.1/../../../../arm-none-eabi/lib/thumb/v6-m/libg_nano.a(lib_a-reent.o)
 .text          0x0000000000000000        0x0 /usr/bin/../lib/gcc/arm-none-eabi/6.3.1/../../../../arm-none-eabi/lib/thumb/v6-m/libg_nano.a(lib_a-strchr.o)
 .data          0x0000000000000000        0x0 /usr/bin/../lib/gcc/arm-none-eabi/6.3.1/../../../../arm-none-eabi/lib/thumb/v6-m/libg_nano.a(lib_a-strchr.o)
 .bss           0x0000000000000000        0x0 /usr/bin/../lib/gcc/arm-none-eabi/6.3.1/../../../../arm-none-eabi/lib/thumb/v6-m/libg_nano.a(lib_a-strchr.o)
 .text          0x0000000000000000        0x0 /usr/bin/../lib/gcc/arm-none-eabi/6.3.1/thumb/v6-m/crtend.o
 .data          0x0000000000000000        0x0 /usr/bin/../lib/gcc/arm-none-eabi/6.3.1/thumb/v6-m/crtend.o
 .bss           0x0000000000000000        0x0 /usr/bin/../lib/gcc/arm-none-eabi/6.3.1/thumb/v6-m/crtend.o
 .text          0x0000000000000000        0x0 /usr/bin/../lib/gcc/arm-none-eabi/6.3.1/thumb/v6-m/crtn.o
 .data          0x0000000000000000        0x0 /usr/bin/../lib/gcc/arm-none-eabi/6.3.1/thumb/v6-m/crtn.o
 .bss           0x0000000000000000        0x0 /usr/bin/../lib/gcc/arm-none-eabi/6.3.1/thumb/v6-m/crtn.o
 .text          0x0000000000000000        0x0 /usr/bin/../lib/gcc/arm-none-eabi/6.3.1/../../../../arm-none-eabi/lib/thumb/v6-m/libnosys.a(sbrk.o)
 .data          0x0000000000000000        0x0 /usr/bin/../lib/gcc/arm-none-eabi/6.3.1/../../../../arm-none-eabi/lib/thumb/v6-m/libnosys.a(sbrk.o)
 .bss           0x0000000000000000        0x0 /usr/bin/../lib/gcc/arm-none-eabi/6.3.1/../../../../arm-none-eabi/lib/thumb/v6-m/libnosys.a(sbrk.o)
 .text          0x0000000000000000        0x0 /usr/bin/../lib/gcc/arm-none-eabi/6.3.1/../../../../arm-none-eabi/lib/thumb/v6-m/libnosys.a(_exit.o)
 .data          0x0000000000000000        0x0 /usr/bin/../lib/gcc/arm-none-eabi/6.3.1/../../../../arm-none-eabi/lib/thumb/v6-m/libnosys.a(_exit.o)
 .bss           0x0000000000000000        0x0 /usr/bin/../lib/gcc/arm-none-eabi/6.3.1/../../../../arm-none-eabi/lib/thumb/v6-m/libnosys.a(_exit.o)

Memory Configuration

Name             Origin             Length             Attributes
FLASH            0x000000000001b000 0x000000000001f000 xr
RAM              0x00000000200022d8 0x0000000000005a28 xrw
*default*        0x0000000000000000 0xffffffffffffffff

Linker script and memory map

LOAD /usr/bin/../lib/gcc/arm-none-eabi/6.3.1/thumb/v6-m/crti.o
LOAD /usr/bin/../lib/gcc/arm-none-eabi/6.3.1/thumb/v6-m/crtbegin.o
LOAD /usr/bin/../lib/gcc/arm-none-eabi/6.3.1/../../../../arm-none-eabi/lib/thumb/v6-m/crt0.o
LOAD CMakeFiles/51_dfu.dir/src/main.c.obj
LOAD CMakeFiles/51_dfu.dir/__/nrf_mesh_sdk.c.obj
LOAD CMakeFiles/51_dfu.dir/__/__/mesh/src/access/access.c.obj
LOAD CMakeFiles/51_dfu.dir/__/__/mesh/src/access/access_publish.c.obj
LOAD CMakeFiles/51_dfu.dir/__/__/mesh/src/access/access_reliable.c.obj
LOAD CMakeFiles/51_dfu.dir/__/__/mesh/src/access/device_state_manager.c.obj
LOAD CMakeFiles/51_dfu.dir/__/__/mesh/src/access/nrf_mesh_node_config.c.obj
LOAD CMakeFiles/51_dfu.dir/__/__/mesh/models/config/src/config_server.c.obj
LOAD CMakeFiles/51_dfu.dir/__/__/mesh/models/config/src/packed_index_list.c.obj
LOAD CMakeFiles/51_dfu.dir/__/__/mesh/models/config/src/composition_data.c.obj
LOAD CMakeFiles/51_dfu.dir/__/__/mesh/src/serial/nrf_mesh_serial.c.obj
LOAD CMakeFiles/51_dfu.dir/__/__/mesh/src/serial/serial.c.obj
LOAD CMakeFiles/51_dfu.dir/__/__/mesh/src/serial/serial_bearer.c.obj
LOAD CMakeFiles/51_dfu.dir/__/__/mesh/src/serial/serial_handler_common.c.obj
LOAD CMakeFiles/51_dfu.dir/__/__/mesh/src/serial/serial_handler_access.c.obj
LOAD CMakeFiles/51_dfu.dir/__/__/mesh/src/serial/serial_handler_app.c.obj
LOAD CMakeFiles/51_dfu.dir/__/__/mesh/src/serial/serial_handler_config.c.obj
LOAD CMakeFiles/51_dfu.dir/__/__/mesh/src/serial/serial_handler_device.c.obj
LOAD CMakeFiles/51_dfu.dir/__/__/mesh/src/serial/serial_handler_dfu.c.obj
LOAD CMakeFiles/51_dfu.dir/__/__/mesh/src/serial/serial_handler_mesh.c.obj
LOAD CMakeFiles/51_dfu.dir/__/__/mesh/src/serial/serial_handler_models.c.obj
LOAD CMakeFiles/51_dfu.dir/__/__/mesh/src/serial/serial_handler_openmesh.c.obj
LOAD CMakeFiles/51_dfu.dir/__/__/mesh/src/serial/serial_handler_prov.c.obj
LOAD CMakeFiles/51_dfu.dir/__/__/mesh/src/serial/serial_uart.c.obj
LOAD CMakeFiles/51_dfu.dir/__/__/mesh/src/dfu/nrf_mesh_dfu.c.obj
LOAD CMakeFiles/51_dfu.dir/__/__/toolchain/gcc/gcc_startup_nrf51.S.obj
LOAD CMakeFiles/51_dfu.dir/__/__/toolchain/system_nrf51.c.obj
LOAD ../../mesh/lib_51_MBTLE_PB_ADV_EE.a
LOAD ../../mesh/lib_51_MBTLE_PB_ADV_ER.a
LOAD ../../mesh/lib_51_MBTLE_CORE.a
LOAD ../../lib/rtt/lib_51_RTT_LIB.a
LOAD ../../lib/micro-ecc/lib_51_UECC_LIB.a
START GROUP
LOAD /usr/bin/../lib/gcc/arm-none-eabi/6.3.1/thumb/v6-m/libgcc.a
LOAD /usr/bin/../lib/gcc/arm-none-eabi/6.3.1/../../../../arm-none-eabi/lib/thumb/v6-m/libg_nano.a
LOAD /usr/bin/../lib/gcc/arm-none-eabi/6.3.1/../../../../arm-none-eabi/lib/thumb/v6-m/libc_nano.a
END GROUP
START GROUP
LOAD /usr/bin/../lib/gcc/arm-none-eabi/6.3.1/thumb/v6-m/libgcc.a
LOAD /usr/bin/../lib/gcc/arm-none-eabi/6.3.1/../../../../arm-none-eabi/lib/thumb/v6-m/libc_nano.a
END GROUP
LOAD /usr/bin/../lib/gcc/arm-none-eabi/6.3.1/thumb/v6-m/crtend.o
LOAD /usr/bin/../lib/gcc/arm-none-eabi/6.3.1/thumb/v6-m/crtn.o
START GROUP
LOAD /usr/bin/../lib/gcc/arm-none-eabi/6.3.1/thumb/v6-m/libgcc.a
LOAD /usr/bin/../lib/gcc/arm-none-eabi/6.3.1/../../../../arm-none-eabi/lib/thumb/v6-m/libc.a
LOAD /usr/bin/../lib/gcc/arm-none-eabi/6.3.1/../../../../arm-none-eabi/lib/thumb/v6-m/libnosys.a
END GROUP

.text           0x000000000001b000    0x17264
 *(.isr_vector)
 .isr_vector    0x000000000001b000       0xc0 CMakeFiles/51_dfu.dir/__/__/toolchain/gcc/gcc_startup_nrf51.S.obj
                0x000000000001b000                __isr_vector
 *(.text*)
 .text          0x000000000001b0c0       0x60 /usr/bin/../lib/gcc/arm-none-eabi/6.3.1/thumb/v6-m/crtbegin.o
 .text          0x000000000001b120       0x78 /usr/bin/../lib/gcc/arm-none-eabi/6.3.1/../../../../arm-none-eabi/lib/thumb/v6-m/crt0.o
                0x000000000001b120                _mainCRTStartup
                0x000000000001b120                _start
 .text.mesh_evt_handler
                0x000000000001b198       0xf0 CMakeFiles/51_dfu.dir/src/main.c.obj
 .text.main     0x000000000001b288      0x4e4 CMakeFiles/51_dfu.dir/src/main.c.obj
                0x000000000001b288                main
 .text.sd_evt_get
                0x000000000001b76c        0x4 CMakeFiles/51_dfu.dir/__/nrf_mesh_sdk.c.obj
 .text.sd_softdevice_enable
                0x000000000001b770        0x4 CMakeFiles/51_dfu.dir/__/nrf_mesh_sdk.c.obj
 .text.sd_ble_enable
                0x000000000001b774        0x4 CMakeFiles/51_dfu.dir/__/nrf_mesh_sdk.c.obj
 .text.sd_ble_evt_get
                0x000000000001b778        0x4 CMakeFiles/51_dfu.dir/__/nrf_mesh_sdk.c.obj
 .text.sleep_forever
                0x000000000001b77c       0x24 CMakeFiles/51_dfu.dir/__/nrf_mesh_sdk.c.obj
 .text.softdevice_assert_handler
                0x000000000001b7a0       0x88 CMakeFiles/51_dfu.dir/__/nrf_mesh_sdk.c.obj
                0x000000000001b7a0                softdevice_assert_handler
 .text.app_error_handler
                0x000000000001b828       0x88 CMakeFiles/51_dfu.dir/__/nrf_mesh_sdk.c.obj
                0x000000000001b828                app_error_handler
 .text.mesh_assert_handler
                0x000000000001b8b0       0x80 CMakeFiles/51_dfu.dir/__/nrf_mesh_sdk.c.obj
                0x000000000001b8b0                mesh_assert_handler
 .text.HardFault_Handler
                0x000000000001b930       0x7c CMakeFiles/51_dfu.dir/__/nrf_mesh_sdk.c.obj
                0x000000000001b930                HardFault_Handler
 .text.SWI2_IRQHandler
                0x000000000001b9ac       0x44 CMakeFiles/51_dfu.dir/__/nrf_mesh_sdk.c.obj
                0x000000000001b9ac                SWI2_IRQHandler
 .text.mesh_softdevice_enable
                0x000000000001b9f0      0x154 CMakeFiles/51_dfu.dir/__/nrf_mesh_sdk.c.obj
                0x000000000001b9f0                mesh_softdevice_enable
 .text.mesh_softdevice_setup
                0x000000000001bb44       0x94 CMakeFiles/51_dfu.dir/__/nrf_mesh_sdk.c.obj
                0x000000000001bb44                mesh_softdevice_setup
 .text.flash_manager_mem_available
                0x000000000001bbd8        0x6 CMakeFiles/51_dfu.dir/__/__/mesh/src/access/access.c.obj
 *fill*         0x000000000001bbde        0x2 
 .text.access_flash_config_clear
                0x000000000001bbe0       0x28 CMakeFiles/51_dfu.dir/__/__/mesh/src/access/access.c.obj
 .text.access_flash_config_store
                0x000000000001bc08      0x104 CMakeFiles/51_dfu.dir/__/__/mesh/src/access/access.c.obj
                0x000000000001bc08                access_flash_config_store
 .text.access_state_clear
                0x000000000001bd0c       0x40 CMakeFiles/51_dfu.dir/__/__/mesh/src/access/access.c.obj
 .text.access_clear
                0x000000000001bd4c       0x10 CMakeFiles/51_dfu.dir/__/__/mesh/src/access/access.c.obj
                0x000000000001bd4c                access_clear
 .text.access_model_publish_address_set
                0x000000000001bd5c       0x3c CMakeFiles/51_dfu.dir/__/__/mesh/src/access/access.c.obj
                0x000000000001bd5c                access_model_publish_address_set
 .text.access_model_publish_address_get
                0x000000000001bd98       0x2c CMakeFiles/51_dfu.dir/__/__/mesh/src/access/access.c.obj
                0x000000000001bd98                access_model_publish_address_get
 .text.access_model_publish_period_set
                0x000000000001bdc4       0x74 CMakeFiles/51_dfu.dir/__/__/mesh/src/access/access.c.obj
                0x000000000001bdc4                access_model_publish_period_set
 .text.access_model_publish_period_get
                0x000000000001be38       0x44 CMakeFiles/51_dfu.dir/__/__/mesh/src/access/access.c.obj
                0x000000000001be38                access_model_publish_period_get
 .text.access_model_subscription_add
                0x000000000001be7c       0x64 CMakeFiles/51_dfu.dir/__/__/mesh/src/access/access.c.obj
                0x000000000001be7c                access_model_subscription_add
 .text.access_model_subscription_remove
                0x000000000001bee0       0x64 CMakeFiles/51_dfu.dir/__/__/mesh/src/access/access.c.obj
                0x000000000001bee0                access_model_subscription_remove
 .text.access_model_subscriptions_get
                0x000000000001bf44       0x98 CMakeFiles/51_dfu.dir/__/__/mesh/src/access/access.c.obj
                0x000000000001bf44                access_model_subscriptions_get
 .text.access_model_application_bind
                0x000000000001bfdc       0x50 CMakeFiles/51_dfu.dir/__/__/mesh/src/access/access.c.obj
                0x000000000001bfdc                access_model_application_bind
 .text.access_model_application_unbind
                0x000000000001c02c       0x50 CMakeFiles/51_dfu.dir/__/__/mesh/src/access/access.c.obj
                0x000000000001c02c                access_model_application_unbind
 .text.access_model_applications_get
                0x000000000001c07c       0x7c CMakeFiles/51_dfu.dir/__/__/mesh/src/access/access.c.obj
                0x000000000001c07c                access_model_applications_get
 .text.access_model_publish_application_set
                0x000000000001c0f8       0x3c CMakeFiles/51_dfu.dir/__/__/mesh/src/access/access.c.obj
                0x000000000001c0f8                access_model_publish_application_set
 .text.access_model_publish_application_get
                0x000000000001c134       0x2c CMakeFiles/51_dfu.dir/__/__/mesh/src/access/access.c.obj
                0x000000000001c134                access_model_publish_application_get
 .text.access_model_publish_ttl_set
                0x000000000001c160       0x44 CMakeFiles/51_dfu.dir/__/__/mesh/src/access/access.c.obj
                0x000000000001c160                access_model_publish_ttl_set
 .text.access_model_publish_ttl_get
                0x000000000001c1a4       0x2c CMakeFiles/51_dfu.dir/__/__/mesh/src/access/access.c.obj
                0x000000000001c1a4                access_model_publish_ttl_get
 .text.access_element_location_set
                0x000000000001c1d0       0x2c CMakeFiles/51_dfu.dir/__/__/mesh/src/access/access.c.obj
                0x000000000001c1d0                access_element_location_set
 .text.access_element_location_get
                0x000000000001c1fc       0x20 CMakeFiles/51_dfu.dir/__/__/mesh/src/access/access.c.obj
                0x000000000001c1fc                access_element_location_get
 .text.access_element_sig_model_count_get
                0x000000000001c21c       0x20 CMakeFiles/51_dfu.dir/__/__/mesh/src/access/access.c.obj
                0x000000000001c21c                access_element_sig_model_count_get
 .text.access_element_vendor_model_count_get
                0x000000000001c23c       0x20 CMakeFiles/51_dfu.dir/__/__/mesh/src/access/access.c.obj
                0x000000000001c23c                access_element_vendor_model_count_get
 .text.access_model_id_get
                0x000000000001c25c       0x3c CMakeFiles/51_dfu.dir/__/__/mesh/src/access/access.c.obj
                0x000000000001c25c                access_model_id_get
 .text.access_handle_get
                0x000000000001c298       0x4c CMakeFiles/51_dfu.dir/__/__/mesh/src/access/access.c.obj
                0x000000000001c298                access_handle_get
 .text.access_element_models_get
                0x000000000001c2e4       0x48 CMakeFiles/51_dfu.dir/__/__/mesh/src/access/access.c.obj
                0x000000000001c2e4                access_element_models_get
 .text.add_to_publication_list
                0x000000000001c32c       0xb0 CMakeFiles/51_dfu.dir/__/__/mesh/src/access/access_publish.c.obj
 .text.schedule_publication_timer
                0x000000000001c3dc      0x308 CMakeFiles/51_dfu.dir/__/__/mesh/src/access/access_publish.c.obj
 .text.access_publish_period_set
                0x000000000001c6e4       0xe4 CMakeFiles/51_dfu.dir/__/__/mesh/src/access/access_publish.c.obj
                0x000000000001c6e4                access_publish_period_set
 .text.access_publish_period_get
                0x000000000001c7c8       0x34 CMakeFiles/51_dfu.dir/__/__/mesh/src/access/access_publish.c.obj
                0x000000000001c7c8                access_publish_period_get
 .text.access_reliable_cancel_all
                0x000000000001c7fc       0x34 CMakeFiles/51_dfu.dir/__/__/mesh/src/access/access_reliable.c.obj
                0x000000000001c7fc                access_reliable_cancel_all
 .text.dev_key_handle_get
                0x000000000001c830       0x30 CMakeFiles/51_dfu.dir/__/__/mesh/src/access/device_state_manager.c.obj
 .text.app_key_handle_get
                0x000000000001c860       0x70 CMakeFiles/51_dfu.dir/__/__/mesh/src/access/device_state_manager.c.obj
 .text.get_subnet_handle
                0x000000000001c8d0       0x50 CMakeFiles/51_dfu.dir/__/__/mesh/src/access/device_state_manager.c.obj
 .text.get_app_handle
                0x000000000001c920       0x5c CMakeFiles/51_dfu.dir/__/__/mesh/src/access/device_state_manager.c.obj
 .text.nonvirtual_address_set
                0x000000000001c97c       0x3c CMakeFiles/51_dfu.dir/__/__/mesh/src/access/device_state_manager.c.obj
 .text.addr_nonvirtual_to_dsm_entry
                0x000000000001c9b8        0xe CMakeFiles/51_dfu.dir/__/__/mesh/src/access/device_state_manager.c.obj
 *fill*         0x000000000001c9c6        0x2 
 .text.addr_nonvirtual_to_flash_entry
                0x000000000001c9c8       0x10 CMakeFiles/51_dfu.dir/__/__/mesh/src/access/device_state_manager.c.obj
 .text.flash_mem_listener_callback
                0x000000000001c9d8       0x20 CMakeFiles/51_dfu.dir/__/__/mesh/src/access/device_state_manager.c.obj
 .text.devkey_set
                0x000000000001c9f8       0x60 CMakeFiles/51_dfu.dir/__/__/mesh/src/access/device_state_manager.c.obj
 .text.devkey_to_dsm_entry
                0x000000000001ca58       0x14 CMakeFiles/51_dfu.dir/__/__/mesh/src/access/device_state_manager.c.obj
 .text.devkey_to_flash_entry
                0x000000000001ca6c       0x28 CMakeFiles/51_dfu.dir/__/__/mesh/src/access/device_state_manager.c.obj
 .text.appkey_to_flash_entry
                0x000000000001ca94       0x28 CMakeFiles/51_dfu.dir/__/__/mesh/src/access/device_state_manager.c.obj
 .text.subnet_to_flash_entry
                0x000000000001cabc       0x20 CMakeFiles/51_dfu.dir/__/__/mesh/src/access/device_state_manager.c.obj
 .text.addr_virtual_to_flash_entry
                0x000000000001cadc       0x20 CMakeFiles/51_dfu.dir/__/__/mesh/src/access/device_state_manager.c.obj
 .text.addr_unicast_to_dsm_entry
                0x000000000001cafc       0x10 CMakeFiles/51_dfu.dir/__/__/mesh/src/access/device_state_manager.c.obj
 .text.addr_unicast_to_flash_entry
                0x000000000001cb0c       0x14 CMakeFiles/51_dfu.dir/__/__/mesh/src/access/device_state_manager.c.obj
 .text.appkey_set
                0x000000000001cb20       0x8c CMakeFiles/51_dfu.dir/__/__/mesh/src/access/device_state_manager.c.obj
 .text.appkey_to_dsm_entry
                0x000000000001cbac       0x12 CMakeFiles/51_dfu.dir/__/__/mesh/src/access/device_state_manager.c.obj
 *fill*         0x000000000001cbbe        0x2 
 .text.subnet_set
                0x000000000001cbc0       0xb4 CMakeFiles/51_dfu.dir/__/__/mesh/src/access/device_state_manager.c.obj
 .text.subnet_to_dsm_entry
                0x000000000001cc74       0x10 CMakeFiles/51_dfu.dir/__/__/mesh/src/access/device_state_manager.c.obj
 .text.virtual_address_set
                0x000000000001cc84       0x6c CMakeFiles/51_dfu.dir/__/__/mesh/src/access/device_state_manager.c.obj
 .text.addr_virtual_to_dsm_entry
                0x000000000001ccf0       0x12 CMakeFiles/51_dfu.dir/__/__/mesh/src/access/device_state_manager.c.obj
 *fill*         0x000000000001cd02        0x2 
 .text.flash_save
                0x000000000001cd04       0x94 CMakeFiles/51_dfu.dir/__/__/mesh/src/access/device_state_manager.c.obj
 .text.flash_invalidate
                0x000000000001cd98       0x80 CMakeFiles/51_dfu.dir/__/__/mesh/src/access/device_state_manager.c.obj
 .text.address_delete_if_unused
                0x000000000001ce18       0xc8 CMakeFiles/51_dfu.dir/__/__/mesh/src/access/device_state_manager.c.obj
 .text.reset_flash_area
                0x000000000001cee0       0x28 CMakeFiles/51_dfu.dir/__/__/mesh/src/access/device_state_manager.c.obj
 .text.add_address
                0x000000000001cf08      0x160 CMakeFiles/51_dfu.dir/__/__/mesh/src/access/device_state_manager.c.obj
 .text.virtual_address_uuid_index_get
                0x000000000001d068       0x7c CMakeFiles/51_dfu.dir/__/__/mesh/src/access/device_state_manager.c.obj
 .text.add_address_virtual
                0x000000000001d0e4       0x94 CMakeFiles/51_dfu.dir/__/__/mesh/src/access/device_state_manager.c.obj
 .text.dsm_clear
                0x000000000001d178       0x74 CMakeFiles/51_dfu.dir/__/__/mesh/src/access/device_state_manager.c.obj
                0x000000000001d178                dsm_clear
 .text.dsm_local_unicast_addresses_set
                0x000000000001d1ec       0x84 CMakeFiles/51_dfu.dir/__/__/mesh/src/access/device_state_manager.c.obj
                0x000000000001d1ec                dsm_local_unicast_addresses_set
 .text.dsm_local_unicast_addresses_get
                0x000000000001d270       0x2c CMakeFiles/51_dfu.dir/__/__/mesh/src/access/device_state_manager.c.obj
                0x000000000001d270                dsm_local_unicast_addresses_get
 .text.dsm_address_publish_add
                0x000000000001d29c        0xa CMakeFiles/51_dfu.dir/__/__/mesh/src/access/device_state_manager.c.obj
                0x000000000001d29c                dsm_address_publish_add
 .text.dsm_address_publish_virtual_add
                0x000000000001d2a6        0xa CMakeFiles/51_dfu.dir/__/__/mesh/src/access/device_state_manager.c.obj
                0x000000000001d2a6                dsm_address_publish_virtual_add
 .text.dsm_address_publish_remove
                0x000000000001d2b0       0x80 CMakeFiles/51_dfu.dir/__/__/mesh/src/access/device_state_manager.c.obj
                0x000000000001d2b0                dsm_address_publish_remove
 .text.dsm_address_subscription_add
                0x000000000001d330        0xa CMakeFiles/51_dfu.dir/__/__/mesh/src/access/device_state_manager.c.obj
                0x000000000001d330                dsm_address_subscription_add
 .text.dsm_address_subscription_virtual_add
                0x000000000001d33a        0xa CMakeFiles/51_dfu.dir/__/__/mesh/src/access/device_state_manager.c.obj
                0x000000000001d33a                dsm_address_subscription_virtual_add
 .text.dsm_address_subscription_get
                0x000000000001d344       0x7c CMakeFiles/51_dfu.dir/__/__/mesh/src/access/device_state_manager.c.obj
                0x000000000001d344                dsm_address_subscription_get
 .text.dsm_address_get
                0x000000000001d3c0       0x90 CMakeFiles/51_dfu.dir/__/__/mesh/src/access/device_state_manager.c.obj
                0x000000000001d3c0                dsm_address_get
 .text.dsm_address_subscription_remove
                0x000000000001d450       0xbc CMakeFiles/51_dfu.dir/__/__/mesh/src/access/device_state_manager.c.obj
                0x000000000001d450                dsm_address_subscription_remove
 .text.dsm_address_get_all
                0x000000000001d50c       0xac CMakeFiles/51_dfu.dir/__/__/mesh/src/access/device_state_manager.c.obj
                0x000000000001d50c                dsm_address_get_all
 .text.dsm_address_handle_get
                0x000000000001d5b8       0xc8 CMakeFiles/51_dfu.dir/__/__/mesh/src/access/device_state_manager.c.obj
                0x000000000001d5b8                dsm_address_handle_get
 .text.dsm_subnet_handle_get
                0x000000000001d680       0x14 CMakeFiles/51_dfu.dir/__/__/mesh/src/access/device_state_manager.c.obj
                0x000000000001d680                dsm_subnet_handle_get
 .text.dsm_appkey_handle_get
                0x000000000001d694       0x14 CMakeFiles/51_dfu.dir/__/__/mesh/src/access/device_state_manager.c.obj
                0x000000000001d694                dsm_appkey_handle_get
 .text.dsm_subnet_add
                0x000000000001d6a8       0xac CMakeFiles/51_dfu.dir/__/__/mesh/src/access/device_state_manager.c.obj
                0x000000000001d6a8                dsm_subnet_add
 .text.dsm_subnet_update
                0x000000000001d754       0x4c CMakeFiles/51_dfu.dir/__/__/mesh/src/access/device_state_manager.c.obj
                0x000000000001d754                dsm_subnet_update
 .text.dsm_subnet_get_all
                0x000000000001d7a0       0x78 CMakeFiles/51_dfu.dir/__/__/mesh/src/access/device_state_manager.c.obj
                0x000000000001d7a0                dsm_subnet_get_all
 .text.dsm_devkey_add
                0x000000000001d818       0x8c CMakeFiles/51_dfu.dir/__/__/mesh/src/access/device_state_manager.c.obj
                0x000000000001d818                dsm_devkey_add
 .text.dsm_devkey_delete
                0x000000000001d8a4       0x38 CMakeFiles/51_dfu.dir/__/__/mesh/src/access/device_state_manager.c.obj
                0x000000000001d8a4                dsm_devkey_delete
 .text.dsm_appkey_add
                0x000000000001d8dc       0x8c CMakeFiles/51_dfu.dir/__/__/mesh/src/access/device_state_manager.c.obj
                0x000000000001d8dc                dsm_appkey_add
 .text.dsm_appkey_update
                0x000000000001d968       0x54 CMakeFiles/51_dfu.dir/__/__/mesh/src/access/device_state_manager.c.obj
                0x000000000001d968                dsm_appkey_update
 .text.dsm_appkey_delete
                0x000000000001d9bc       0x38 CMakeFiles/51_dfu.dir/__/__/mesh/src/access/device_state_manager.c.obj
                0x000000000001d9bc                dsm_appkey_delete
 .text.dsm_subnet_delete
                0x000000000001d9f4       0xd4 CMakeFiles/51_dfu.dir/__/__/mesh/src/access/device_state_manager.c.obj
                0x000000000001d9f4                dsm_subnet_delete
 .text.dsm_appkey_get_all
                0x000000000001dac8       0xb0 CMakeFiles/51_dfu.dir/__/__/mesh/src/access/device_state_manager.c.obj
                0x000000000001dac8                dsm_appkey_get_all
 .text.dsm_tx_secmat_get
                0x000000000001db78      0x144 CMakeFiles/51_dfu.dir/__/__/mesh/src/access/device_state_manager.c.obj
                0x000000000001db78                dsm_tx_secmat_get
 .text.nrf_mesh_net_secmat_next_get
                0x000000000001dcbc       0xa4 CMakeFiles/51_dfu.dir/__/__/mesh/src/access/device_state_manager.c.obj
                0x000000000001dcbc                nrf_mesh_net_secmat_next_get
 .text.nrf_mesh_app_secmat_next_get
                0x000000000001dd60       0xe0 CMakeFiles/51_dfu.dir/__/__/mesh/src/access/device_state_manager.c.obj
                0x000000000001dd60                nrf_mesh_app_secmat_next_get
 .text.nrf_mesh_devkey_secmat_get
                0x000000000001de40       0x40 CMakeFiles/51_dfu.dir/__/__/mesh/src/access/device_state_manager.c.obj
                0x000000000001de40                nrf_mesh_devkey_secmat_get
 .text.nrf_mesh_beacon_info_next_get
                0x000000000001de80       0xf0 CMakeFiles/51_dfu.dir/__/__/mesh/src/access/device_state_manager.c.obj
                0x000000000001de80                nrf_mesh_beacon_info_next_get
 .text.nrf_mesh_rx_address_get
                0x000000000001df70      0x170 CMakeFiles/51_dfu.dir/__/__/mesh/src/access/device_state_manager.c.obj
                0x000000000001df70                nrf_mesh_rx_address_get
 .text.nrf_mesh_serial_init
                0x000000000001e0e0       0x3a CMakeFiles/51_dfu.dir/__/__/mesh/src/serial/nrf_mesh_serial.c.obj
                0x000000000001e0e0                nrf_mesh_serial_init
 .text.nrf_mesh_serial_enable
                0x000000000001e11a        0x8 CMakeFiles/51_dfu.dir/__/__/mesh/src/serial/nrf_mesh_serial.c.obj
                0x000000000001e11a                nrf_mesh_serial_enable
 *fill*         0x000000000001e122        0x2 
 .text.serial_init
                0x000000000001e124       0x20 CMakeFiles/51_dfu.dir/__/__/mesh/src/serial/serial.c.obj
                0x000000000001e124                serial_init
 .text.serial_packet_buffer_get
                0x000000000001e144       0x1c CMakeFiles/51_dfu.dir/__/__/mesh/src/serial/serial.c.obj
                0x000000000001e144                serial_packet_buffer_get
 .text.serial_tx
                0x000000000001e160       0x2c CMakeFiles/51_dfu.dir/__/__/mesh/src/serial/serial.c.obj
                0x000000000001e160                serial_tx
 .text.serial_start
                0x000000000001e18c      0x12c CMakeFiles/51_dfu.dir/__/__/mesh/src/serial/serial.c.obj
                0x000000000001e18c                serial_start
 .text.serial_process_cmd
                0x000000000001e2b8      0x144 CMakeFiles/51_dfu.dir/__/__/mesh/src/serial/serial.c.obj
 .text.serial_process
                0x000000000001e3fc       0x3c CMakeFiles/51_dfu.dir/__/__/mesh/src/serial/serial.c.obj
                0x000000000001e3fc                serial_process
 .text.serial_translate_error
                0x000000000001e438       0x88 CMakeFiles/51_dfu.dir/__/__/mesh/src/serial/serial.c.obj
                0x000000000001e438                serial_translate_error
 .text.serial_state_get
                0x000000000001e4c0        0xc CMakeFiles/51_dfu.dir/__/__/mesh/src/serial/serial.c.obj
                0x000000000001e4c0                serial_state_get
 .text.serial_cmd_rsp_send
                0x000000000001e4cc       0x74 CMakeFiles/51_dfu.dir/__/__/mesh/src/serial/serial.c.obj
                0x000000000001e4cc                serial_cmd_rsp_send
 .text.do_transmit
                0x000000000001e540       0x54 CMakeFiles/51_dfu.dir/__/__/mesh/src/serial/serial_bearer.c.obj
 .text.char_tx  0x000000000001e594       0xa0 CMakeFiles/51_dfu.dir/__/__/mesh/src/serial/serial_bearer.c.obj
 .text.serial_bearer_init
                0x000000000001e634       0x84 CMakeFiles/51_dfu.dir/__/__/mesh/src/serial/serial_bearer.c.obj
                0x000000000001e634                serial_bearer_init
 .text.serial_bearer_packet_buffer_get
                0x000000000001e6b8       0x28 CMakeFiles/51_dfu.dir/__/__/mesh/src/serial/serial_bearer.c.obj
                0x000000000001e6b8                serial_bearer_packet_buffer_get
 .text.serial_bearer_blocking_buffer_get
                0x000000000001e6e0       0x40 CMakeFiles/51_dfu.dir/__/__/mesh/src/serial/serial_bearer.c.obj
                0x000000000001e6e0                serial_bearer_blocking_buffer_get
 .text.serial_bearer_tx
                0x000000000001e720       0x70 CMakeFiles/51_dfu.dir/__/__/mesh/src/serial/serial_bearer.c.obj
                0x000000000001e720                serial_bearer_tx
 .text.send_cmd_response
                0x000000000001e790       0x2e CMakeFiles/51_dfu.dir/__/__/mesh/src/serial/serial_bearer.c.obj
 *fill*         0x000000000001e7be        0x2 
 .text.char_rx  0x000000000001e7c0       0xb8 CMakeFiles/51_dfu.dir/__/__/mesh/src/serial/serial_bearer.c.obj
 .text.serial_bearer_rx_get
                0x000000000001e878       0x3c CMakeFiles/51_dfu.dir/__/__/mesh/src/serial/serial_bearer.c.obj
                0x000000000001e878                serial_bearer_rx_get
 .text.serial_handler_common_cmd_rsp_nodata_on_error
                0x000000000001e8b4       0x34 CMakeFiles/51_dfu.dir/__/__/mesh/src/serial/serial_handler_common.c.obj
                0x000000000001e8b4                serial_handler_common_cmd_rsp_nodata_on_error
 .text.serial_handler_common_rx
                0x000000000001e8e8       0x5c CMakeFiles/51_dfu.dir/__/__/mesh/src/serial/serial_handler_common.c.obj
                0x000000000001e8e8                serial_handler_common_rx
 .text.access_flash_store
                0x000000000001e944       0x16 CMakeFiles/51_dfu.dir/__/__/mesh/src/serial/serial_handler_access.c.obj
 .text.elem_models_get
                0x000000000001e95a       0x4c CMakeFiles/51_dfu.dir/__/__/mesh/src/serial/serial_handler_access.c.obj
 .text.handle_get
                0x000000000001e9a6       0x3a CMakeFiles/51_dfu.dir/__/__/mesh/src/serial/serial_handler_access.c.obj
 .text.model_id_get
                0x000000000001e9e0       0x24 CMakeFiles/51_dfu.dir/__/__/mesh/src/serial/serial_handler_access.c.obj
 .text.elem_vendor_model_cnt_get
                0x000000000001ea04       0x24 CMakeFiles/51_dfu.dir/__/__/mesh/src/serial/serial_handler_access.c.obj
 .text.elem_sig_model_cnt_get
                0x000000000001ea28       0x24 CMakeFiles/51_dfu.dir/__/__/mesh/src/serial/serial_handler_access.c.obj
 .text.elem_loc_get
                0x000000000001ea4c       0x24 CMakeFiles/51_dfu.dir/__/__/mesh/src/serial/serial_handler_access.c.obj
 .text.elem_loc_set
                0x000000000001ea70       0x2c CMakeFiles/51_dfu.dir/__/__/mesh/src/serial/serial_handler_access.c.obj
 .text.model_pub_ttl_get
                0x000000000001ea9c       0x24 CMakeFiles/51_dfu.dir/__/__/mesh/src/serial/serial_handler_access.c.obj
 .text.model_pub_ttl_set
                0x000000000001eac0       0x26 CMakeFiles/51_dfu.dir/__/__/mesh/src/serial/serial_handler_access.c.obj
 .text.model_pub_app_get
                0x000000000001eae6       0x24 CMakeFiles/51_dfu.dir/__/__/mesh/src/serial/serial_handler_access.c.obj
 .text.model_pub_app_set
                0x000000000001eb0a       0x2c CMakeFiles/51_dfu.dir/__/__/mesh/src/serial/serial_handler_access.c.obj
 .text.model_app_get
                0x000000000001eb36       0x4c CMakeFiles/51_dfu.dir/__/__/mesh/src/serial/serial_handler_access.c.obj
 .text.model_app_unbind
                0x000000000001eb82       0x2c CMakeFiles/51_dfu.dir/__/__/mesh/src/serial/serial_handler_access.c.obj
 .text.model_app_bind
                0x000000000001ebae       0x2c CMakeFiles/51_dfu.dir/__/__/mesh/src/serial/serial_handler_access.c.obj
 .text.model_subs_get
                0x000000000001ebda       0x4c CMakeFiles/51_dfu.dir/__/__/mesh/src/serial/serial_handler_access.c.obj
 .text.model_subs_remove
                0x000000000001ec26       0x2c CMakeFiles/51_dfu.dir/__/__/mesh/src/serial/serial_handler_access.c.obj
 .text.model_subs_add
                0x000000000001ec52       0x2c CMakeFiles/51_dfu.dir/__/__/mesh/src/serial/serial_handler_access.c.obj
 .text.model_pub_period_get
                0x000000000001ec7e       0x28 CMakeFiles/51_dfu.dir/__/__/mesh/src/serial/serial_handler_access.c.obj
 .text.model_pub_period_set
                0x000000000001eca6       0x28 CMakeFiles/51_dfu.dir/__/__/mesh/src/serial/serial_handler_access.c.obj
 .text.model_pub_addr_get
                0x000000000001ecce       0x24 CMakeFiles/51_dfu.dir/__/__/mesh/src/serial/serial_handler_access.c.obj
 .text.model_pub_addr_set
                0x000000000001ecf2       0x2c CMakeFiles/51_dfu.dir/__/__/mesh/src/serial/serial_handler_access.c.obj
 *fill*         0x000000000001ed1e        0x2 
 .text.serial_handler_access_rx
                0x000000000001ed20       0x30 CMakeFiles/51_dfu.dir/__/__/mesh/src/serial/serial_handler_access.c.obj
                0x000000000001ed20                serial_handler_access_rx
 .text.serial_handler_app_cb_set
                0x000000000001ed50        0xc CMakeFiles/51_dfu.dir/__/__/mesh/src/serial/serial_handler_app.c.obj
                0x000000000001ed50                serial_handler_app_cb_set
 .text.serial_handler_app_rx
                0x000000000001ed5c       0x34 CMakeFiles/51_dfu.dir/__/__/mesh/src/serial/serial_handler_app.c.obj
                0x000000000001ed5c                serial_handler_app_rx
 .text.serial_handler_config_rx
                0x000000000001ed90       0xec CMakeFiles/51_dfu.dir/__/__/mesh/src/serial/serial_handler_config.c.obj
                0x000000000001ed90                serial_handler_config_rx
 .text.handle_cmd_device_fw_info_get
                0x000000000001ee7c       0x10 CMakeFiles/51_dfu.dir/__/__/mesh/src/serial/serial_handler_device.c.obj
 .text.handle_cmd_device_serial_version_get
                0x000000000001ee8c       0x18 CMakeFiles/51_dfu.dir/__/__/mesh/src/serial/serial_handler_device.c.obj
 .text.handle_cmd_device_beacon_params_get
                0x000000000001eea4       0x58 CMakeFiles/51_dfu.dir/__/__/mesh/src/serial/serial_handler_device.c.obj
 .text.handle_cmd_device_beacon_params_set
                0x000000000001eefc       0x64 CMakeFiles/51_dfu.dir/__/__/mesh/src/serial/serial_handler_device.c.obj
 .text.handle_cmd_device_beacon_stop
                0x000000000001ef60       0x48 CMakeFiles/51_dfu.dir/__/__/mesh/src/serial/serial_handler_device.c.obj
 .text.handle_cmd_device_beacon_start
                0x000000000001efa8       0x7c CMakeFiles/51_dfu.dir/__/__/mesh/src/serial/serial_handler_device.c.obj
 .text.handle_cmd_device_radio_reset
                0x000000000001f024       0x18 CMakeFiles/51_dfu.dir/__/__/mesh/src/serial/serial_handler_device.c.obj
 .text.handle_cmd_device_internal_events_report
                0x000000000001f03c       0x1c CMakeFiles/51_dfu.dir/__/__/mesh/src/serial/serial_handler_device.c.obj
 .text.event_report_cb
                0x000000000001f058       0x60 CMakeFiles/51_dfu.dir/__/__/mesh/src/serial/serial_handler_device.c.obj
 .text.handle_cmd_device_echo
                0x000000000001f0b8       0x44 CMakeFiles/51_dfu.dir/__/__/mesh/src/serial/serial_handler_device.c.obj
 .text.serial_handler_device_init
                0x000000000001f0fc       0x24 CMakeFiles/51_dfu.dir/__/__/mesh/src/serial/serial_handler_device.c.obj
                0x000000000001f0fc                serial_handler_device_init
 .text.serial_handler_device_rx
                0x000000000001f120       0x30 CMakeFiles/51_dfu.dir/__/__/mesh/src/serial/serial_handler_device.c.obj
                0x000000000001f120                serial_handler_device_rx
 .text.serial_handler_mesh_evt_handle
                0x000000000001f150      0x214 CMakeFiles/51_dfu.dir/__/__/mesh/src/serial/serial_handler_dfu.c.obj
 .text.serial_handler_dfu_init
                0x000000000001f364       0x18 CMakeFiles/51_dfu.dir/__/__/mesh/src/serial/serial_handler_dfu.c.obj
                0x000000000001f364                serial_handler_dfu_init
 .text.serial_handler_dfu_rx
                0x000000000001f37c      0x1e4 CMakeFiles/51_dfu.dir/__/__/mesh/src/serial/serial_handler_dfu.c.obj
                0x000000000001f37c                serial_handler_dfu_rx
 .text.serial_handler_mesh_evt_handle
                0x000000000001f560      0x190 CMakeFiles/51_dfu.dir/__/__/mesh/src/serial/serial_handler_mesh.c.obj
 .text.handle_cmd_clear
                0x000000000001f6f0       0x1e CMakeFiles/51_dfu.dir/__/__/mesh/src/serial/serial_handler_mesh.c.obj
 .text.handle_cmd_packet_send
                0x000000000001f70e       0x9a CMakeFiles/51_dfu.dir/__/__/mesh/src/serial/serial_handler_mesh.c.obj
 .text.handle_cmd_addr_virtual_count_max_get
                0x000000000001f7a8       0x18 CMakeFiles/51_dfu.dir/__/__/mesh/src/serial/serial_handler_mesh.c.obj
 .text.handle_cmd_addr_nonvirtual_count_max_get
                0x000000000001f7c0       0x18 CMakeFiles/51_dfu.dir/__/__/mesh/src/serial/serial_handler_mesh.c.obj
 .text.handle_cmd_addr_local_unicast_get
                0x000000000001f7d8       0x26 CMakeFiles/51_dfu.dir/__/__/mesh/src/serial/serial_handler_mesh.c.obj
 .text.handle_cmd_devkey_count_max_get
                0x000000000001f7fe       0x18 CMakeFiles/51_dfu.dir/__/__/mesh/src/serial/serial_handler_mesh.c.obj
 .text.handle_cmd_appkey_count_max_get
                0x000000000001f816       0x18 CMakeFiles/51_dfu.dir/__/__/mesh/src/serial/serial_handler_mesh.c.obj
 .text.handle_cmd_subnet_count_max_get
                0x000000000001f82e       0x18 CMakeFiles/51_dfu.dir/__/__/mesh/src/serial/serial_handler_mesh.c.obj
 .text.handle_cmd_addr_get_all
                0x000000000001f846       0x26 CMakeFiles/51_dfu.dir/__/__/mesh/src/serial/serial_handler_mesh.c.obj
 .text.handle_cmd_addr_get
                0x000000000001f86c       0x70 CMakeFiles/51_dfu.dir/__/__/mesh/src/serial/serial_handler_mesh.c.obj
 .text.handle_cmd_addr_publication_remove
                0x000000000001f8dc       0x2c CMakeFiles/51_dfu.dir/__/__/mesh/src/serial/serial_handler_mesh.c.obj
 .text.handle_cmd_addr_publication_add_virtual
                0x000000000001f908       0x26 CMakeFiles/51_dfu.dir/__/__/mesh/src/serial/serial_handler_mesh.c.obj
 .text.handle_cmd_addr_publication_add
                0x000000000001f92e       0x2c CMakeFiles/51_dfu.dir/__/__/mesh/src/serial/serial_handler_mesh.c.obj
 .text.handle_cmd_addr_subscription_remove
                0x000000000001f95a       0x2c CMakeFiles/51_dfu.dir/__/__/mesh/src/serial/serial_handler_mesh.c.obj
 .text.handle_cmd_addr_subscription_add_virtual
                0x000000000001f986       0x26 CMakeFiles/51_dfu.dir/__/__/mesh/src/serial/serial_handler_mesh.c.obj
 .text.handle_cmd_addr_subscription_add
                0x000000000001f9ac       0x2c CMakeFiles/51_dfu.dir/__/__/mesh/src/serial/serial_handler_mesh.c.obj
 .text.handle_cmd_addr_local_unicast_set
                0x000000000001f9d8       0x30 CMakeFiles/51_dfu.dir/__/__/mesh/src/serial/serial_handler_mesh.c.obj
 .text.handle_cmd_devkey_delete
                0x000000000001fa08       0x2c CMakeFiles/51_dfu.dir/__/__/mesh/src/serial/serial_handler_mesh.c.obj
 .text.handle_cmd_devkey_add
                0x000000000001fa34       0x2e CMakeFiles/51_dfu.dir/__/__/mesh/src/serial/serial_handler_mesh.c.obj
 .text.handle_cmd_appkey_get_all
                0x000000000001fa62       0x44 CMakeFiles/51_dfu.dir/__/__/mesh/src/serial/serial_handler_mesh.c.obj
 .text.handle_cmd_appkey_delete
                0x000000000001faa6       0x2c CMakeFiles/51_dfu.dir/__/__/mesh/src/serial/serial_handler_mesh.c.obj
 .text.handle_cmd_appkey_update
                0x000000000001fad2       0x2e CMakeFiles/51_dfu.dir/__/__/mesh/src/serial/serial_handler_mesh.c.obj
 .text.handle_cmd_appkey_add
                0x000000000001fb00       0x36 CMakeFiles/51_dfu.dir/__/__/mesh/src/serial/serial_handler_mesh.c.obj
 .text.handle_cmd_subnet_get_all
                0x000000000001fb36       0x34 CMakeFiles/51_dfu.dir/__/__/mesh/src/serial/serial_handler_mesh.c.obj
 .text.handle_cmd_subnet_delete
                0x000000000001fb6a       0x2c CMakeFiles/51_dfu.dir/__/__/mesh/src/serial/serial_handler_mesh.c.obj
 .text.handle_cmd_subnet_update
                0x000000000001fb96       0x2e CMakeFiles/51_dfu.dir/__/__/mesh/src/serial/serial_handler_mesh.c.obj
 .text.handle_cmd_subnet_add
                0x000000000001fbc4       0x2e CMakeFiles/51_dfu.dir/__/__/mesh/src/serial/serial_handler_mesh.c.obj
 .text.handle_cmd_disable
                0x000000000001fbf2       0x16 CMakeFiles/51_dfu.dir/__/__/mesh/src/serial/serial_handler_mesh.c.obj
 .text.handle_cmd_enable
                0x000000000001fc08       0x16 CMakeFiles/51_dfu.dir/__/__/mesh/src/serial/serial_handler_mesh.c.obj
 *fill*         0x000000000001fc1e        0x2 
 .text.serial_handler_mesh_init
                0x000000000001fc20       0x18 CMakeFiles/51_dfu.dir/__/__/mesh/src/serial/serial_handler_mesh.c.obj
                0x000000000001fc20                serial_handler_mesh_init
 .text.serial_handler_mesh_rx
                0x000000000001fc38       0x90 CMakeFiles/51_dfu.dir/__/__/mesh/src/serial/serial_handler_mesh.c.obj
                0x000000000001fc38                serial_handler_mesh_rx
 .text.registered_model_get
                0x000000000001fcc8       0x28 CMakeFiles/51_dfu.dir/__/__/mesh/src/serial/serial_handler_models.c.obj
 .text.model_command
                0x000000000001fcf0       0x68 CMakeFiles/51_dfu.dir/__/__/mesh/src/serial/serial_handler_models.c.obj
 .text.model_init
                0x000000000001fd58       0x3e CMakeFiles/51_dfu.dir/__/__/mesh/src/serial/serial_handler_models.c.obj
 *fill*         0x000000000001fd96        0x2 
 .text.models_get
                0x000000000001fd98       0x5c CMakeFiles/51_dfu.dir/__/__/mesh/src/serial/serial_handler_models.c.obj
 .text.serial_handler_models_rx
                0x000000000001fdf4       0x30 CMakeFiles/51_dfu.dir/__/__/mesh/src/serial/serial_handler_models.c.obj
                0x000000000001fdf4                serial_handler_models_rx
 .text.serial_handler_openmesh_rx
                0x000000000001fe24       0x34 CMakeFiles/51_dfu.dir/__/__/mesh/src/serial/serial_handler_openmesh.c.obj
                0x000000000001fe24                serial_handler_openmesh_rx
 .text.find_context_id
                0x000000000001fe58       0x28 CMakeFiles/51_dfu.dir/__/__/mesh/src/serial/serial_handler_prov.c.obj
 .text.serial_handler_prov_evt_in
                0x000000000001fe80      0x310 CMakeFiles/51_dfu.dir/__/__/mesh/src/serial/serial_handler_prov.c.obj
 .text.serial_handler_prov_init
                0x0000000000020190       0xa0 CMakeFiles/51_dfu.dir/__/__/mesh/src/serial/serial_handler_prov.c.obj
                0x0000000000020190                serial_handler_prov_init
 .text.serial_handler_prov_pkt_in
                0x0000000000020230      0x250 CMakeFiles/51_dfu.dir/__/__/mesh/src/serial/serial_handler_prov.c.obj
                0x0000000000020230                serial_handler_prov_pkt_in
 .text.serial_uart_init
                0x0000000000020480       0xd4 CMakeFiles/51_dfu.dir/__/__/mesh/src/serial/serial_uart.c.obj
                0x0000000000020480                serial_uart_init
 .text.serial_uart_process
                0x0000000000020554       0x64 CMakeFiles/51_dfu.dir/__/__/mesh/src/serial/serial_uart.c.obj
                0x0000000000020554                serial_uart_process
 .text.UART0_IRQHandler
                0x00000000000205b8        0x8 CMakeFiles/51_dfu.dir/__/__/mesh/src/serial/serial_uart.c.obj
                0x00000000000205b8                UART0_IRQHandler
 .text.serial_uart_receive_set
                0x00000000000205c0        0xc CMakeFiles/51_dfu.dir/__/__/mesh/src/serial/serial_uart.c.obj
                0x00000000000205c0                serial_uart_receive_set
 .text.next_tx_timeout
                0x00000000000205cc       0x5c CMakeFiles/51_dfu.dir/__/__/mesh/src/dfu/nrf_mesh_dfu.c.obj
 .text.reset_transfer_state
                0x0000000000020628       0x24 CMakeFiles/51_dfu.dir/__/__/mesh/src/dfu/nrf_mesh_dfu.c.obj
 .text.end_transfer
                0x000000000002064c       0x38 CMakeFiles/51_dfu.dir/__/__/mesh/src/dfu/nrf_mesh_dfu.c.obj
 .text.dfu_evt_handler
                0x0000000000020684      0x90c CMakeFiles/51_dfu.dir/__/__/mesh/src/dfu/nrf_mesh_dfu.c.obj
 .text.tx_timeout
                0x0000000000020f90      0x174 CMakeFiles/51_dfu.dir/__/__/mesh/src/dfu/nrf_mesh_dfu.c.obj
 .text.nrf_mesh_dfu_jump_to_bootloader
                0x0000000000021104       0x4c CMakeFiles/51_dfu.dir/__/__/mesh/src/dfu/nrf_mesh_dfu.c.obj
                0x0000000000021104                nrf_mesh_dfu_jump_to_bootloader
 .text.nrf_mesh_dfu_state_get
                0x0000000000021150       0x44 CMakeFiles/51_dfu.dir/__/__/mesh/src/dfu/nrf_mesh_dfu.c.obj
                0x0000000000021150                nrf_mesh_dfu_state_get
 .text.nrf_mesh_dfu_cmd_send
                0x0000000000021194       0xac CMakeFiles/51_dfu.dir/__/__/mesh/src/dfu/nrf_mesh_dfu.c.obj
                0x0000000000021194                nrf_mesh_dfu_cmd_send
 .text.nrf_mesh_dfu_init
                0x0000000000021240      0x110 CMakeFiles/51_dfu.dir/__/__/mesh/src/dfu/nrf_mesh_dfu.c.obj
                0x0000000000021240                nrf_mesh_dfu_init
 .text.flash_op_complete
                0x0000000000021350      0x198 CMakeFiles/51_dfu.dir/__/__/mesh/src/dfu/nrf_mesh_dfu.c.obj
 .text.abort_timeout
                0x00000000000214e8       0x94 CMakeFiles/51_dfu.dir/__/__/mesh/src/dfu/nrf_mesh_dfu.c.obj
 .text.timer_timeout
                0x000000000002157c       0x8c CMakeFiles/51_dfu.dir/__/__/mesh/src/dfu/nrf_mesh_dfu.c.obj
 .text.nrf_mesh_dfu_rx
                0x0000000000021608      0x130 CMakeFiles/51_dfu.dir/__/__/mesh/src/dfu/nrf_mesh_dfu.c.obj
                0x0000000000021608                nrf_mesh_dfu_rx
 .text.nrf_mesh_dfu_request
                0x0000000000021738       0x8c CMakeFiles/51_dfu.dir/__/__/mesh/src/dfu/nrf_mesh_dfu.c.obj
                0x0000000000021738                nrf_mesh_dfu_request
 .text.nrf_mesh_dfu_relay
                0x00000000000217c4       0x60 CMakeFiles/51_dfu.dir/__/__/mesh/src/dfu/nrf_mesh_dfu.c.obj
                0x00000000000217c4                nrf_mesh_dfu_relay
 .text.nrf_mesh_dfu_abort
                0x0000000000021824       0x30 CMakeFiles/51_dfu.dir/__/__/mesh/src/dfu/nrf_mesh_dfu.c.obj
                0x0000000000021824                nrf_mesh_dfu_abort
 .text.nrf_mesh_dfu_bank_info_get
                0x0000000000021854       0x30 CMakeFiles/51_dfu.dir/__/__/mesh/src/dfu/nrf_mesh_dfu.c.obj
                0x0000000000021854                nrf_mesh_dfu_bank_info_get
 .text.nrf_mesh_dfu_bank_flash
                0x0000000000021884       0x28 CMakeFiles/51_dfu.dir/__/__/mesh/src/dfu/nrf_mesh_dfu.c.obj
                0x0000000000021884                nrf_mesh_dfu_bank_flash
 .text          0x00000000000218ac       0x4c CMakeFiles/51_dfu.dir/__/__/toolchain/gcc/gcc_startup_nrf51.S.obj
                0x00000000000218ac                Reset_Handler
                0x00000000000218ec                NMI_Handler
                0x00000000000218f0                SVC_Handler
                0x00000000000218f2                PendSV_Handler
                0x00000000000218f4                SysTick_Handler
                0x00000000000218f6                TIMER2_IRQHandler
                0x00000000000218f6                SPI0_TWI0_IRQHandler
                0x00000000000218f6                RTC0_IRQHandler
                0x00000000000218f6                GPIOTE_IRQHandler
                0x00000000000218f6                POWER_CLOCK_IRQHandler
                0x00000000000218f6                RADIO_IRQHandler
                0x00000000000218f6                LPCOMP_IRQHandler
                0x00000000000218f6                SWI4_IRQHandler
                0x00000000000218f6                TEMP_IRQHandler
                0x00000000000218f6                SWI5_IRQHandler
                0x00000000000218f6                TIMER0_IRQHandler
                0x00000000000218f6                SWI0_IRQHandler
                0x00000000000218f6                TIMER1_IRQHandler
                0x00000000000218f6                ECB_IRQHandler
                0x00000000000218f6                Default_Handler
                0x00000000000218f6                ADC_IRQHandler
                0x00000000000218f6                SWI3_IRQHandler
                0x00000000000218f6                CCM_AAR_IRQHandler
                0x00000000000218f6                WDT_IRQHandler
                0x00000000000218f6                RNG_IRQHandler
                0x00000000000218f6                SPI1_TWI1_IRQHandler
                0x00000000000218f6                RTC1_IRQHandler
                0x00000000000218f6                SWI1_IRQHandler
 .text.SystemInit
                0x00000000000218f8      0x104 CMakeFiles/51_dfu.dir/__/__/toolchain/system_nrf51.c.obj
                0x00000000000218f8                SystemInit
 .text.nrf_mesh_prov_init
                0x00000000000219fc       0x38 ../../mesh/lib_51_MBTLE_PB_ADV_EE.a(nrf_mesh_prov.c.obj)
                0x00000000000219fc                nrf_mesh_prov_init
 .text.nrf_mesh_prov_generate_keys
                0x0000000000021a34        0x8 ../../mesh/lib_51_MBTLE_PB_ADV_EE.a(nrf_mesh_prov.c.obj)
                0x0000000000021a34                nrf_mesh_prov_generate_keys
 .text.nrf_mesh_prov_listen
                0x0000000000021a3c       0x28 ../../mesh/lib_51_MBTLE_PB_ADV_EE.a(nrf_mesh_prov.c.obj)
                0x0000000000021a3c                nrf_mesh_prov_listen
 .text.nrf_mesh_prov_provision
                0x0000000000021a64       0x6c ../../mesh/lib_51_MBTLE_PB_ADV_EE.a(nrf_mesh_prov.c.obj)
                0x0000000000021a64                nrf_mesh_prov_provision
 .text.nrf_mesh_prov_oob_use
                0x0000000000021ad0       0x1c ../../mesh/lib_51_MBTLE_PB_ADV_EE.a(nrf_mesh_prov.c.obj)
                0x0000000000021ad0                nrf_mesh_prov_oob_use
 .text.nrf_mesh_prov_auth_data_provide
                0x0000000000021aec       0x1c ../../mesh/lib_51_MBTLE_PB_ADV_EE.a(nrf_mesh_prov.c.obj)
                0x0000000000021aec                nrf_mesh_prov_auth_data_provide
 .text.nrf_mesh_prov_shared_secret_provide
                0x0000000000021b08       0x1c ../../mesh/lib_51_MBTLE_PB_ADV_EE.a(nrf_mesh_prov.c.obj)
                0x0000000000021b08                nrf_mesh_prov_shared_secret_provide
 .text.remove_active_bearer
                0x0000000000021b24       0x88 ../../mesh/lib_51_MBTLE_PB_ADV_EE.a(prov_bearer_adv.c.obj)
 .text.send_packet
                0x0000000000021bac       0x64 ../../mesh/lib_51_MBTLE_PB_ADV_EE.a(prov_bearer_adv.c.obj)
 .text.send_link_close
                0x0000000000021c10       0x3e ../../mesh/lib_51_MBTLE_PB_ADV_EE.a(prov_bearer_adv.c.obj)
 *fill*         0x0000000000021c4e        0x2 
 .text.prov_buffer_tx
                0x0000000000021c50      0x1f0 ../../mesh/lib_51_MBTLE_PB_ADV_EE.a(prov_bearer_adv.c.obj)
 .text.send_transaction_ack
                0x0000000000021e40       0x48 ../../mesh/lib_51_MBTLE_PB_ADV_EE.a(prov_bearer_adv.c.obj)
 .text.send_link_ack
                0x0000000000021e88       0x3c ../../mesh/lib_51_MBTLE_PB_ADV_EE.a(prov_bearer_adv.c.obj)
 .text.prov_bearer_adv_listen_stop
                0x0000000000021ec4       0x40 ../../mesh/lib_51_MBTLE_PB_ADV_EE.a(prov_bearer_adv.c.obj)
 .text.close_link
                0x0000000000021f04       0x68 ../../mesh/lib_51_MBTLE_PB_ADV_EE.a(prov_bearer_adv.c.obj)
 .text.prov_bearer_adv_link_close
                0x0000000000021f6c       0x78 ../../mesh/lib_51_MBTLE_PB_ADV_EE.a(prov_bearer_adv.c.obj)
 .text.adv_queue_empty_cb
                0x0000000000021fe4       0x3c ../../mesh/lib_51_MBTLE_PB_ADV_EE.a(prov_bearer_adv.c.obj)
 .text.link_timeout_cb
                0x0000000000022020        0xc ../../mesh/lib_51_MBTLE_PB_ADV_EE.a(prov_bearer_adv.c.obj)
 .text.tx_retry_cb
                0x000000000002202c       0xe8 ../../mesh/lib_51_MBTLE_PB_ADV_EE.a(prov_bearer_adv.c.obj)
 .text.add_active_bearer
                0x0000000000022114       0x98 ../../mesh/lib_51_MBTLE_PB_ADV_EE.a(prov_bearer_adv.c.obj)
 .text.prov_bearer_adv_link_open
                0x00000000000221ac      0x11c ../../mesh/lib_51_MBTLE_PB_ADV_EE.a(prov_bearer_adv.c.obj)
 .text.prov_bearer_adv_listen
                0x00000000000222c8       0xe8 ../../mesh/lib_51_MBTLE_PB_ADV_EE.a(prov_bearer_adv.c.obj)
 .text.calculate_3GPP_CRC
                0x00000000000223b0       0x28 ../../mesh/lib_51_MBTLE_PB_ADV_EE.a(prov_bearer_adv.c.obj)
                0x00000000000223b0                calculate_3GPP_CRC
 .text.prov_bearer_adv_tx
                0x00000000000223d8       0xc8 ../../mesh/lib_51_MBTLE_PB_ADV_EE.a(prov_bearer_adv.c.obj)
 .text.prov_buffer_rx
                0x00000000000224a0       0x90 ../../mesh/lib_51_MBTLE_PB_ADV_EE.a(prov_bearer_adv.c.obj)
 .text.prov_bearer_adv_interface_get
                0x0000000000022530        0x8 ../../mesh/lib_51_MBTLE_PB_ADV_EE.a(prov_bearer_adv.c.obj)
                0x0000000000022530                prov_bearer_adv_interface_get
 .text.prov_bearer_adv_pkt_in
                0x0000000000022538      0xa24 ../../mesh/lib_51_MBTLE_PB_ADV_EE.a(prov_bearer_adv.c.obj)
                0x0000000000022538                prov_bearer_adv_pkt_in
 .text.oob_gen_alphanumeric
                0x0000000000022f5c       0x38 ../../mesh/lib_51_MBTLE_PB_ADV_EE.a(prov_utils.c.obj)
 .text.oob_gen_numeric
                0x0000000000022f94       0x4c ../../mesh/lib_51_MBTLE_PB_ADV_EE.a(prov_utils.c.obj)
 .text.prov_utils_use_ecdh_offloading
                0x0000000000022fe0        0xc ../../mesh/lib_51_MBTLE_PB_ADV_EE.a(prov_utils.c.obj)
                0x0000000000022fe0                prov_utils_use_ecdh_offloading
 .text.prov_utils_authentication_values_derive
                0x0000000000022fec       0xd4 ../../mesh/lib_51_MBTLE_PB_ADV_EE.a(prov_utils.c.obj)
                0x0000000000022fec                prov_utils_authentication_values_derive
 .text.prov_utils_keys_generate
                0x00000000000230c0       0x20 ../../mesh/lib_51_MBTLE_PB_ADV_EE.a(prov_utils.c.obj)
                0x00000000000230c0                prov_utils_keys_generate
 .text.prov_utils_derive_keys
                0x00000000000230e0       0xc0 ../../mesh/lib_51_MBTLE_PB_ADV_EE.a(prov_utils.c.obj)
                0x00000000000230e0                prov_utils_derive_keys
 .text.prov_utils_calculate_shared_secret
                0x00000000000231a0       0x44 ../../mesh/lib_51_MBTLE_PB_ADV_EE.a(prov_utils.c.obj)
                0x00000000000231a0                prov_utils_calculate_shared_secret
 .text.prov_utils_generate_oob_data
                0x00000000000231e4       0xe0 ../../mesh/lib_51_MBTLE_PB_ADV_EE.a(prov_utils.c.obj)
                0x00000000000231e4                prov_utils_generate_oob_data
 .text.prov_utils_confirmation_check
                0x00000000000232c4       0x6c ../../mesh/lib_51_MBTLE_PB_ADV_EE.a(prov_utils.c.obj)
                0x00000000000232c4                prov_utils_confirmation_check
 .text.prov_beacon_unprov_build
                0x0000000000023330       0x52 ../../mesh/lib_51_MBTLE_PB_ADV_EE.a(prov_beacon.c.obj)
                0x0000000000023330                prov_beacon_unprov_build
 *fill*         0x0000000000023382        0x2 
 .text.prov_beacon_unprov_pkt_in
                0x0000000000023384       0xd4 ../../mesh/lib_51_MBTLE_PB_ADV_EE.a(prov_beacon.c.obj)
                0x0000000000023384                prov_beacon_unprov_pkt_in
 .text.complete_provisioning
                0x0000000000023458       0x74 ../../mesh/lib_51_MBTLE_PB_ADV_EE.a(prov_provisionee.c.obj)
 .text.prov_provisionee_cb_link_closed
                0x00000000000234cc       0x38 ../../mesh/lib_51_MBTLE_PB_ADV_EE.a(prov_provisionee.c.obj)
 .text.prov_provisionee_cb_link_established
                0x0000000000023504       0x20 ../../mesh/lib_51_MBTLE_PB_ADV_EE.a(prov_provisionee.c.obj)
 .text.request_authentication
                0x0000000000023524       0xb4 ../../mesh/lib_51_MBTLE_PB_ADV_EE.a(prov_provisionee.c.obj)
 .text.send_failed
                0x00000000000235d8       0x4c ../../mesh/lib_51_MBTLE_PB_ADV_EE.a(prov_provisionee.c.obj)
 .text.start_authentication
                0x0000000000023624       0x6c ../../mesh/lib_51_MBTLE_PB_ADV_EE.a(prov_provisionee.c.obj)
 .text.prov_provisionee_cb_ack_received
                0x0000000000023690       0xcc ../../mesh/lib_51_MBTLE_PB_ADV_EE.a(prov_provisionee.c.obj)
 .text.prov_provisionee_pkt_in
                0x000000000002375c      0x3b0 ../../mesh/lib_51_MBTLE_PB_ADV_EE.a(prov_provisionee.c.obj)
 .text.prov_provisionee_init
                0x0000000000023b0c       0x4c ../../mesh/lib_51_MBTLE_PB_ADV_EE.a(prov_provisionee.c.obj)
                0x0000000000023b0c                prov_provisionee_init
 .text.prov_provisionee_auth_data
                0x0000000000023b58       0x90 ../../mesh/lib_51_MBTLE_PB_ADV_EE.a(prov_provisionee.c.obj)
                0x0000000000023b58                prov_provisionee_auth_data
 .text.prov_provisionee_shared_secret
                0x0000000000023be8       0x30 ../../mesh/lib_51_MBTLE_PB_ADV_EE.a(prov_provisionee.c.obj)
                0x0000000000023be8                prov_provisionee_shared_secret
 .text.send_data
                0x0000000000023c18       0x4c ../../mesh/lib_51_MBTLE_PB_ADV_EE.a(provisioning.c.obj)
 .text.prov_packet_length_valid
                0x0000000000023c64       0x24 ../../mesh/lib_51_MBTLE_PB_ADV_EE.a(provisioning.c.obj)
                0x0000000000023c64                prov_packet_length_valid
 .text.prov_init
                0x0000000000023c88       0x40 ../../mesh/lib_51_MBTLE_PB_ADV_EE.a(provisioning.c.obj)
                0x0000000000023c88                prov_init
 .text.prov_listen_start
                0x0000000000023cc8       0x14 ../../mesh/lib_51_MBTLE_PB_ADV_EE.a(provisioning.c.obj)
                0x0000000000023cc8                prov_listen_start
 .text.prov_link_open
                0x0000000000023cdc       0x12 ../../mesh/lib_51_MBTLE_PB_ADV_EE.a(provisioning.c.obj)
                0x0000000000023cdc                prov_link_open
 .text.prov_link_close
                0x0000000000023cee        0xe ../../mesh/lib_51_MBTLE_PB_ADV_EE.a(provisioning.c.obj)
                0x0000000000023cee                prov_link_close
 .text.prov_tx_invite
                0x0000000000023cfc       0x28 ../../mesh/lib_51_MBTLE_PB_ADV_EE.a(provisioning.c.obj)
                0x0000000000023cfc                prov_tx_invite
 .text.prov_tx_capabilities
                0x0000000000023d24       0x1c ../../mesh/lib_51_MBTLE_PB_ADV_EE.a(provisioning.c.obj)
                0x0000000000023d24                prov_tx_capabilities
 .text.prov_tx_start
                0x0000000000023d40       0x1e ../../mesh/lib_51_MBTLE_PB_ADV_EE.a(provisioning.c.obj)
                0x0000000000023d40                prov_tx_start
 .text.prov_tx_public_key
                0x0000000000023d5e       0x24 ../../mesh/lib_51_MBTLE_PB_ADV_EE.a(provisioning.c.obj)
                0x0000000000023d5e                prov_tx_public_key
 .text.prov_tx_input_complete
                0x0000000000023d82       0x14 ../../mesh/lib_51_MBTLE_PB_ADV_EE.a(provisioning.c.obj)
                0x0000000000023d82                prov_tx_input_complete
 .text.prov_tx_confirmation
                0x0000000000023d96       0x24 ../../mesh/lib_51_MBTLE_PB_ADV_EE.a(provisioning.c.obj)
                0x0000000000023d96                prov_tx_confirmation
 .text.prov_tx_random
                0x0000000000023dba       0x24 ../../mesh/lib_51_MBTLE_PB_ADV_EE.a(provisioning.c.obj)
                0x0000000000023dba                prov_tx_random
 .text.prov_tx_complete
                0x0000000000023dde       0x14 ../../mesh/lib_51_MBTLE_PB_ADV_EE.a(provisioning.c.obj)
                0x0000000000023dde                prov_tx_complete
 .text.prov_tx_failed
                0x0000000000023df2       0x18 ../../mesh/lib_51_MBTLE_PB_ADV_EE.a(provisioning.c.obj)
                0x0000000000023df2                prov_tx_failed
 .text.prov_tx_data
                0x0000000000023e0a        0xa ../../mesh/lib_51_MBTLE_PB_ADV_EE.a(provisioning.c.obj)
                0x0000000000023e0a                prov_tx_data
 .text.prov_cb_link_opened
                0x0000000000023e14        0xe ../../mesh/lib_51_MBTLE_PB_ADV_EE.a(provisioning.c.obj)
                0x0000000000023e14                prov_cb_link_opened
 .text.prov_cb_link_closed
                0x0000000000023e22        0xe ../../mesh/lib_51_MBTLE_PB_ADV_EE.a(provisioning.c.obj)
                0x0000000000023e22                prov_cb_link_closed
 .text.prov_cb_pkt_in
                0x0000000000023e30       0x90 ../../mesh/lib_51_MBTLE_PB_ADV_EE.a(provisioning.c.obj)
                0x0000000000023e30                prov_cb_pkt_in
 .text.prov_cb_ack_in
                0x0000000000023ec0        0xe ../../mesh/lib_51_MBTLE_PB_ADV_EE.a(provisioning.c.obj)
                0x0000000000023ec0                prov_cb_ack_in
 *fill*         0x0000000000023ece        0x2 
 .text.prov_provisioner_cb_link_closed
                0x0000000000023ed0       0x2c ../../mesh/lib_51_MBTLE_PB_ADV_ER.a(prov_provisioner.c.obj)
 .text.prov_provisioner_cb_link_established
                0x0000000000023efc       0x4c ../../mesh/lib_51_MBTLE_PB_ADV_ER.a(prov_provisioner.c.obj)
 .text.prov_provisioner_cb_ack_received
                0x0000000000023f48       0x58 ../../mesh/lib_51_MBTLE_PB_ADV_ER.a(prov_provisioner.c.obj)
 .text.send_confirmation
                0x0000000000023fa0       0x38 ../../mesh/lib_51_MBTLE_PB_ADV_ER.a(prov_provisioner.c.obj)
 .text.request_authentication
                0x0000000000023fd8       0xb4 ../../mesh/lib_51_MBTLE_PB_ADV_ER.a(prov_provisioner.c.obj)
 .text.prov_provisioner_pkt_in
                0x000000000002408c      0x360 ../../mesh/lib_51_MBTLE_PB_ADV_ER.a(prov_provisioner.c.obj)
 .text.prov_provisioner_provision
                0x00000000000243ec       0x58 ../../mesh/lib_51_MBTLE_PB_ADV_ER.a(prov_provisioner.c.obj)
                0x00000000000243ec                prov_provisioner_provision
 .text.prov_provisioner_oob_use
                0x0000000000024444       0xe0 ../../mesh/lib_51_MBTLE_PB_ADV_ER.a(prov_provisioner.c.obj)
                0x0000000000024444                prov_provisioner_oob_use
 .text.prov_provisioner_auth_data
                0x0000000000024524       0x50 ../../mesh/lib_51_MBTLE_PB_ADV_ER.a(prov_provisioner.c.obj)
                0x0000000000024524                prov_provisioner_auth_data
 .text.prov_provisioner_shared_secret
                0x0000000000024574       0x30 ../../mesh/lib_51_MBTLE_PB_ADV_ER.a(prov_provisioner.c.obj)
                0x0000000000024574                prov_provisioner_shared_secret
 .text.is_valid_gap_addr
                0x00000000000245a4       0x7c ../../mesh/lib_51_MBTLE_CORE.a(bearer_adv.c.obj)
 .text.packet_tx
                0x0000000000024620       0xaa ../../mesh/lib_51_MBTLE_CORE.a(bearer_adv.c.obj)
 *fill*         0x00000000000246ca        0x2 
 .text.scan_order
                0x00000000000246cc       0xb0 ../../mesh/lib_51_MBTLE_CORE.a(bearer_adv.c.obj)
 .text.radio_idle_cb
                0x000000000002477c       0x18 ../../mesh/lib_51_MBTLE_CORE.a(bearer_adv.c.obj)
 .text.scan_begin_timer_cb
                0x0000000000024794       0x44 ../../mesh/lib_51_MBTLE_CORE.a(bearer_adv.c.obj)
 .text.radio_tx_cb
                0x00000000000247d8       0x34 ../../mesh/lib_51_MBTLE_CORE.a(bearer_adv.c.obj)
 .text.tx_event_send
                0x000000000002480c       0x22 ../../mesh/lib_51_MBTLE_CORE.a(bearer_adv.c.obj)
 *fill*         0x000000000002482e        0x2 
 .text.radio_rx_cb
                0x0000000000024830       0x44 ../../mesh/lib_51_MBTLE_CORE.a(bearer_adv.c.obj)
 .text.adv_evt_timeout
                0x0000000000024874      0x168 ../../mesh/lib_51_MBTLE_CORE.a(bearer_adv.c.obj)
 .text.next_adv_schedule
                0x00000000000249dc       0x80 ../../mesh/lib_51_MBTLE_CORE.a(bearer_adv.c.obj)
 .text.scan_end_timer_cb
                0x0000000000024a5c       0x14 ../../mesh/lib_51_MBTLE_CORE.a(bearer_adv.c.obj)
 .text.bearer_adv_advertiser_init
                0x0000000000024a70      0x13c ../../mesh/lib_51_MBTLE_CORE.a(bearer_adv.c.obj)
                0x0000000000024a70                bearer_adv_advertiser_init
 .text.bearer_adv_reconfig
                0x0000000000024bac       0x50 ../../mesh/lib_51_MBTLE_CORE.a(bearer_adv.c.obj)
                0x0000000000024bac                bearer_adv_reconfig
 .text.bearer_adv_tx
                0x0000000000024bfc       0x58 ../../mesh/lib_51_MBTLE_CORE.a(bearer_adv.c.obj)
                0x0000000000024bfc                bearer_adv_tx
 .text.bearer_adv_tx_raw
                0x0000000000024c54       0x30 ../../mesh/lib_51_MBTLE_CORE.a(bearer_adv.c.obj)
                0x0000000000024c54                bearer_adv_tx_raw
 .text.bearer_adv_adv_stop
                0x0000000000024c84       0x1a ../../mesh/lib_51_MBTLE_CORE.a(bearer_adv.c.obj)
                0x0000000000024c84                bearer_adv_adv_stop
 .text.bearer_adv_adv_start
                0x0000000000024c9e       0x26 ../../mesh/lib_51_MBTLE_CORE.a(bearer_adv.c.obj)
                0x0000000000024c9e                bearer_adv_adv_start
 .text.bearer_adv_flush_tx
                0x0000000000024cc4       0x56 ../../mesh/lib_51_MBTLE_CORE.a(bearer_adv.c.obj)
                0x0000000000024cc4                bearer_adv_flush_tx
 .text.bearer_adv_interval_reset
                0x0000000000024d1a       0x30 ../../mesh/lib_51_MBTLE_CORE.a(bearer_adv.c.obj)
                0x0000000000024d1a                bearer_adv_interval_reset
 *fill*         0x0000000000024d4a        0x2 
 .text.bearer_adv_scan_start
                0x0000000000024d4c       0x60 ../../mesh/lib_51_MBTLE_CORE.a(bearer_adv.c.obj)
                0x0000000000024d4c                bearer_adv_scan_start
 .text.bearer_adv_scan_stop
                0x0000000000024dac       0x28 ../../mesh/lib_51_MBTLE_CORE.a(bearer_adv.c.obj)
                0x0000000000024dac                bearer_adv_scan_stop
 .text.bearer_adv_gap_type_set
                0x0000000000024dd4       0x60 ../../mesh/lib_51_MBTLE_CORE.a(bearer_adv.c.obj)
                0x0000000000024dd4                bearer_adv_gap_type_set
 .text.bearer_adv_addr_get
                0x0000000000024e34       0x28 ../../mesh/lib_51_MBTLE_CORE.a(bearer_adv.c.obj)
                0x0000000000024e34                bearer_adv_addr_get
 .text.bearer_adv_addr_default_set
                0x0000000000024e5c       0x30 ../../mesh/lib_51_MBTLE_CORE.a(bearer_adv.c.obj)
                0x0000000000024e5c                bearer_adv_addr_default_set
 .text.bearer_adv_init
                0x0000000000024e8c       0xf4 ../../mesh/lib_51_MBTLE_CORE.a(bearer_adv.c.obj)
                0x0000000000024e8c                bearer_adv_init
 .text.fifo_init
                0x0000000000024f80       0x60 ../../mesh/lib_51_MBTLE_CORE.a(fifo.c.obj)
                0x0000000000024f80                fifo_init
 .text.fifo_push
                0x0000000000024fe0       0x64 ../../mesh/lib_51_MBTLE_CORE.a(fifo.c.obj)
                0x0000000000024fe0                fifo_push
 .text.fifo_pop
                0x0000000000025044       0x62 ../../mesh/lib_51_MBTLE_CORE.a(fifo.c.obj)
                0x0000000000025044                fifo_pop
 .text.fifo_peek_at
                0x00000000000250a6       0x62 ../../mesh/lib_51_MBTLE_CORE.a(fifo.c.obj)
                0x00000000000250a6                fifo_peek_at
 .text.fifo_peek
                0x0000000000025108        0xa ../../mesh/lib_51_MBTLE_CORE.a(fifo.c.obj)
                0x0000000000025108                fifo_peek
 .text.fifo_get_len
                0x0000000000025112        0x8 ../../mesh/lib_51_MBTLE_CORE.a(fifo.c.obj)
                0x0000000000025112                fifo_get_len
 .text.fifo_is_empty
                0x000000000002511a        0xe ../../mesh/lib_51_MBTLE_CORE.a(fifo.c.obj)
                0x000000000002511a                fifo_is_empty
 .text.packet_mgr_init
                0x0000000000025128       0x5c ../../mesh/lib_51_MBTLE_CORE.a(packet_mgr.c.obj)
                0x0000000000025128                packet_mgr_init
 .text.packet_mgr_alloc
                0x0000000000025184      0x1f4 ../../mesh/lib_51_MBTLE_CORE.a(packet_mgr.c.obj)
                0x0000000000025184                packet_mgr_alloc
 .text.packet_mgr_free
                0x0000000000025378       0x74 ../../mesh/lib_51_MBTLE_CORE.a(packet_mgr.c.obj)
                0x0000000000025378                packet_mgr_free
 .text.radio_init
                0x00000000000253ec       0x60 ../../mesh/lib_51_MBTLE_CORE.a(radio.c.obj)
                0x00000000000253ec                radio_init
 .text.radio_tx_power_get
                0x000000000002544c        0xc ../../mesh/lib_51_MBTLE_CORE.a(radio.c.obj)
                0x000000000002544c                radio_tx_power_get
 .text.radio_order
                0x0000000000025458      0x13c ../../mesh/lib_51_MBTLE_CORE.a(radio.c.obj)
                0x0000000000025458                radio_order
 .text.radio_invoke
                0x0000000000025594       0x28 ../../mesh/lib_51_MBTLE_CORE.a(radio.c.obj)
                0x0000000000025594                radio_invoke
 .text.radio_stop
                0x00000000000255bc       0x28 ../../mesh/lib_51_MBTLE_CORE.a(radio.c.obj)
                0x00000000000255bc                radio_stop
 .text.purge_preemptable
                0x00000000000255e4       0x7c ../../mesh/lib_51_MBTLE_CORE.a(radio.c.obj)
 .text.radio_preemptable_cancel
                0x0000000000025660       0x2c ../../mesh/lib_51_MBTLE_CORE.a(radio.c.obj)
                0x0000000000025660                radio_preemptable_cancel
 .text.radio_event_handler
                0x000000000002568c      0x134 ../../mesh/lib_51_MBTLE_CORE.a(radio.c.obj)
                0x000000000002568c                radio_event_handler
 .text.radio_on_ts_begin
                0x00000000000257c0       0x50 ../../mesh/lib_51_MBTLE_CORE.a(radio.c.obj)
                0x00000000000257c0                radio_on_ts_begin
 .text.radio_on_ts_end
                0x0000000000025810        0x8 ../../mesh/lib_51_MBTLE_CORE.a(radio.c.obj)
                0x0000000000025810                radio_on_ts_end
 .text.timer_order_cb
                0x0000000000025818       0x9c ../../mesh/lib_51_MBTLE_CORE.a(timer.c.obj)
                0x0000000000025818                timer_order_cb
 .text.timer_abort
                0x00000000000258b4       0x8c ../../mesh/lib_51_MBTLE_CORE.a(timer.c.obj)
                0x00000000000258b4                timer_abort
 .text.timer_now
                0x0000000000025940       0x58 ../../mesh/lib_51_MBTLE_CORE.a(timer.c.obj)
                0x0000000000025940                timer_now
 .text.timer_event_handler
                0x0000000000025998       0xa0 ../../mesh/lib_51_MBTLE_CORE.a(timer.c.obj)
                0x0000000000025998                timer_event_handler
 .text.timer_on_ts_begin
                0x0000000000025a38      0x138 ../../mesh/lib_51_MBTLE_CORE.a(timer.c.obj)
                0x0000000000025a38                timer_on_ts_begin
 .text.timer_on_ts_end
                0x0000000000025b70       0x48 ../../mesh/lib_51_MBTLE_CORE.a(timer.c.obj)
                0x0000000000025b70                timer_on_ts_end
 .text.add_evt  0x0000000000025bb8       0x90 ../../mesh/lib_51_MBTLE_CORE.a(timer_scheduler.c.obj)
 .text.process_add_list
                0x0000000000025c48       0x50 ../../mesh/lib_51_MBTLE_CORE.a(timer_scheduler.c.obj)
 .text.process_dirty_events
                0x0000000000025c98       0xb8 ../../mesh/lib_51_MBTLE_CORE.a(timer_scheduler.c.obj)
 .text.flag_event_cb
                0x0000000000025d50      0x138 ../../mesh/lib_51_MBTLE_CORE.a(timer_scheduler.c.obj)
 .text.timer_cb
                0x0000000000025e88       0x10 ../../mesh/lib_51_MBTLE_CORE.a(timer_scheduler.c.obj)
 .text.timer_sch_init
                0x0000000000025e98       0x24 ../../mesh/lib_51_MBTLE_CORE.a(timer_scheduler.c.obj)
                0x0000000000025e98                timer_sch_init
 .text.timer_sch_schedule
                0x0000000000025ebc       0x94 ../../mesh/lib_51_MBTLE_CORE.a(timer_scheduler.c.obj)
                0x0000000000025ebc                timer_sch_schedule
 .text.timer_sch_abort
                0x0000000000025f50       0x6c ../../mesh/lib_51_MBTLE_CORE.a(timer_scheduler.c.obj)
                0x0000000000025f50                timer_sch_abort
 .text.timer_sch_reschedule
                0x0000000000025fbc       0xb4 ../../mesh/lib_51_MBTLE_CORE.a(timer_scheduler.c.obj)
                0x0000000000025fbc                timer_sch_reschedule
 .text.beacon_init
                0x0000000000026070       0x44 ../../mesh/lib_51_MBTLE_CORE.a(beacon.c.obj)
                0x0000000000026070                beacon_init
 .text.beacon_create
                0x00000000000260b4       0x5e ../../mesh/lib_51_MBTLE_CORE.a(beacon.c.obj)
                0x00000000000260b4                beacon_create
 *fill*         0x0000000000026112        0x2 
 .text.beacon_tx
                0x0000000000026114       0x48 ../../mesh/lib_51_MBTLE_CORE.a(beacon.c.obj)
                0x0000000000026114                beacon_tx
 .text.beacon_pkt_in
                0x000000000002615c      0x19c ../../mesh/lib_51_MBTLE_CORE.a(beacon.c.obj)
                0x000000000002615c                beacon_pkt_in
 .text.bearer_rx_cb
                0x00000000000262f8      0x3a0 ../../mesh/lib_51_MBTLE_CORE.a(bearer.c.obj)
 .text.bearer_init
                0x0000000000026698       0x68 ../../mesh/lib_51_MBTLE_CORE.a(bearer.c.obj)
                0x0000000000026698                bearer_init
 .text.bearer_enable
                0x0000000000026700        0xa ../../mesh/lib_51_MBTLE_CORE.a(bearer.c.obj)
                0x0000000000026700                bearer_enable
 *fill*         0x000000000002670a        0x2 
 .text.bearer_disable
                0x000000000002670c       0x14 ../../mesh/lib_51_MBTLE_CORE.a(bearer.c.obj)
                0x000000000002670c                bearer_disable
 .text.bearer_tx
                0x0000000000026720       0x50 ../../mesh/lib_51_MBTLE_CORE.a(bearer.c.obj)
                0x0000000000026720                bearer_tx
 .text.bearer_rx
                0x0000000000026770       0x3c ../../mesh/lib_51_MBTLE_CORE.a(bearer.c.obj)
                0x0000000000026770                bearer_rx
 .text.evt_push
                0x00000000000267ac       0x28 ../../mesh/lib_51_MBTLE_CORE.a(bearer_event.c.obj)
 .text.QDEC_IRQHandler
                0x00000000000267d4       0xb4 ../../mesh/lib_51_MBTLE_CORE.a(bearer_event.c.obj)
                0x00000000000267d4                QDEC_IRQHandler
 .text.bearer_event_init
                0x0000000000026888       0x40 ../../mesh/lib_51_MBTLE_CORE.a(bearer_event.c.obj)
                0x0000000000026888                bearer_event_init
 .text.bearer_event_generic_post
                0x00000000000268c8       0x38 ../../mesh/lib_51_MBTLE_CORE.a(bearer_event.c.obj)
                0x00000000000268c8                bearer_event_generic_post
 .text.bearer_event_timer_post
                0x0000000000026900       0x38 ../../mesh/lib_51_MBTLE_CORE.a(bearer_event.c.obj)
                0x0000000000026900                bearer_event_timer_post
 .text.bearer_event_critical_section_begin
                0x0000000000026938       0x48 ../../mesh/lib_51_MBTLE_CORE.a(bearer_event.c.obj)
                0x0000000000026938                bearer_event_critical_section_begin
 .text.bearer_event_critical_section_end
                0x0000000000026980       0x50 ../../mesh/lib_51_MBTLE_CORE.a(bearer_event.c.obj)
                0x0000000000026980                bearer_event_critical_section_end
 .text.bearer_event_flag_add
                0x00000000000269d0       0x58 ../../mesh/lib_51_MBTLE_CORE.a(bearer_event.c.obj)
                0x00000000000269d0                bearer_event_flag_add
 .text.bearer_event_flag_set
                0x0000000000026a28       0x5c ../../mesh/lib_51_MBTLE_CORE.a(bearer_event.c.obj)
                0x0000000000026a28                bearer_event_flag_set
 .text.nrf_mesh_configure_device_uuid_set
                0x0000000000026a84       0x14 ../../mesh/lib_51_MBTLE_CORE.a(nrf_mesh_configure.c.obj)
                0x0000000000026a84                nrf_mesh_configure_device_uuid_set
 .text.nrf_mesh_configure_device_uuid_reset
                0x0000000000026a98       0x28 ../../mesh/lib_51_MBTLE_CORE.a(nrf_mesh_configure.c.obj)
                0x0000000000026a98                nrf_mesh_configure_device_uuid_reset
 .text.nrf_mesh_configure_device_uuid_get
                0x0000000000026ac0        0x8 ../../mesh/lib_51_MBTLE_CORE.a(nrf_mesh_configure.c.obj)
                0x0000000000026ac0                nrf_mesh_configure_device_uuid_get
 .text.enc_aes_encrypt
                0x0000000000026ac8        0x8 ../../mesh/lib_51_MBTLE_CORE.a(enc.c.obj)
                0x0000000000026ac8                enc_aes_encrypt
 .text.enc_aes_cmac
                0x0000000000026ad0        0x8 ../../mesh/lib_51_MBTLE_CORE.a(enc.c.obj)
                0x0000000000026ad0                enc_aes_cmac
 .text.enc_aes_ccm_encrypt
                0x0000000000026ad8        0x8 ../../mesh/lib_51_MBTLE_CORE.a(enc.c.obj)
                0x0000000000026ad8                enc_aes_ccm_encrypt
 .text.enc_aes_ccm_decrypt
                0x0000000000026ae0        0x8 ../../mesh/lib_51_MBTLE_CORE.a(enc.c.obj)
                0x0000000000026ae0                enc_aes_ccm_decrypt
 .text.enc_nonce_generate
                0x0000000000026ae8       0xcc ../../mesh/lib_51_MBTLE_CORE.a(enc.c.obj)
                0x0000000000026ae8                enc_nonce_generate
 .text.enc_s1   0x0000000000026bb4       0x44 ../../mesh/lib_51_MBTLE_CORE.a(enc.c.obj)
                0x0000000000026bb4                enc_s1
 .text.enc_k1   0x0000000000026bf8       0x58 ../../mesh/lib_51_MBTLE_CORE.a(enc.c.obj)
                0x0000000000026bf8                enc_k1
 .text.enc_k2   0x0000000000026c50       0xfc ../../mesh/lib_51_MBTLE_CORE.a(enc.c.obj)
                0x0000000000026c50                enc_k2
 .text.enc_k3   0x0000000000026d4c       0x68 ../../mesh/lib_51_MBTLE_CORE.a(enc.c.obj)
                0x0000000000026d4c                enc_k3
 .text.enc_k4   0x0000000000026db4       0x64 ../../mesh/lib_51_MBTLE_CORE.a(enc.c.obj)
                0x0000000000026db4                enc_k4
 .text.event_handle
                0x0000000000026e18       0x38 ../../mesh/lib_51_MBTLE_CORE.a(event.c.obj)
                0x0000000000026e18                event_handle
 .text.event_handler_add
                0x0000000000026e50       0x98 ../../mesh/lib_51_MBTLE_CORE.a(event.c.obj)
                0x0000000000026e50                event_handler_add
 .text.sd_power_reset_reason_clr
                0x0000000000026ee8        0x4 ../../mesh/lib_51_MBTLE_CORE.a(hal.c.obj)
 .text.sd_power_gpregret_set
                0x0000000000026eec        0x4 ../../mesh/lib_51_MBTLE_CORE.a(hal.c.obj)
 .text.hal_device_reset
                0x0000000000026ef0       0x2c ../../mesh/lib_51_MBTLE_CORE.a(hal.c.obj)
                0x0000000000026ef0                hal_device_reset
 .text.log_callback_rtt
                0x0000000000026f1c       0x2c ../../mesh/lib_51_MBTLE_CORE.a(log.c.obj)
                0x0000000000026f1c                log_callback_rtt
 .text.log_init
                0x0000000000026f48       0x1c ../../mesh/lib_51_MBTLE_CORE.a(log.c.obj)
                0x0000000000026f48                log_init
 .text.log_vprintf
                0x0000000000026f64       0x20 ../../mesh/lib_51_MBTLE_CORE.a(log.c.obj)
                0x0000000000026f64                log_vprintf
 .text.log_printf
                0x0000000000026f84       0x16 ../../mesh/lib_51_MBTLE_CORE.a(log.c.obj)
                0x0000000000026f84                log_printf
 *fill*         0x0000000000026f9a        0x2 
 .text.network_beacon_tx_cb
                0x0000000000026f9c      0x124 ../../mesh/lib_51_MBTLE_CORE.a(net_beacon.c.obj)
 .text.net_beacon_init
                0x00000000000270c0       0x60 ../../mesh/lib_51_MBTLE_CORE.a(net_beacon.c.obj)
                0x00000000000270c0                net_beacon_init
 .text.net_beacon_pkt_in
                0x0000000000027120       0xe8 ../../mesh/lib_51_MBTLE_CORE.a(net_beacon.c.obj)
                0x0000000000027120                net_beacon_pkt_in
 .text.flash_mem_available
                0x0000000000027208       0x20 ../../mesh/lib_51_MBTLE_CORE.a(net_state.c.obj)
 .text.flash_store_iv_index
                0x0000000000027228       0x34 ../../mesh/lib_51_MBTLE_CORE.a(net_state.c.obj)
 .text.seqnum_block_allocate
                0x000000000002725c       0x54 ../../mesh/lib_51_MBTLE_CORE.a(net_state.c.obj)
 .text.net_state_reset
                0x00000000000272b0       0x3c ../../mesh/lib_51_MBTLE_CORE.a(net_state.c.obj)
                0x00000000000272b0                net_state_reset
 .text.flash_write_complete
                0x00000000000272ec       0x84 ../../mesh/lib_51_MBTLE_CORE.a(net_state.c.obj)
 .text.net_state_recover_from_flash
                0x0000000000027370       0x98 ../../mesh/lib_51_MBTLE_CORE.a(net_state.c.obj)
                0x0000000000027370                net_state_recover_from_flash
 .text.net_state_flash_area_get
                0x0000000000027408       0x14 ../../mesh/lib_51_MBTLE_CORE.a(net_state.c.obj)
                0x0000000000027408                net_state_flash_area_get
 .text.init_flash_storage
                0x000000000002741c       0x44 ../../mesh/lib_51_MBTLE_CORE.a(net_state.c.obj)
 .text.net_state_init
                0x0000000000027460       0x48 ../../mesh/lib_51_MBTLE_CORE.a(net_state.c.obj)
                0x0000000000027460                net_state_init
 .text.net_state_iv_update_start
                0x00000000000274a8       0x70 ../../mesh/lib_51_MBTLE_CORE.a(net_state.c.obj)
                0x00000000000274a8                net_state_iv_update_start
 .text.iv_update_trigger_if_pending
                0x0000000000027518       0x98 ../../mesh/lib_51_MBTLE_CORE.a(net_state.c.obj)
 .text.iv_update_timer_handler
                0x00000000000275b0       0x8c ../../mesh/lib_51_MBTLE_CORE.a(net_state.c.obj)
 .text.net_state_seqnum_alloc
                0x000000000002763c       0x74 ../../mesh/lib_51_MBTLE_CORE.a(net_state.c.obj)
                0x000000000002763c                net_state_seqnum_alloc
 .text.net_state_iv_index_lock
                0x00000000000276b0       0x5c ../../mesh/lib_51_MBTLE_CORE.a(net_state.c.obj)
                0x00000000000276b0                net_state_iv_index_lock
 .text.net_state_beacon_received
                0x000000000002770c       0xc0 ../../mesh/lib_51_MBTLE_CORE.a(net_state.c.obj)
                0x000000000002770c                net_state_beacon_received
 .text.net_state_beacon_iv_index_get
                0x00000000000277cc        0xc ../../mesh/lib_51_MBTLE_CORE.a(net_state.c.obj)
                0x00000000000277cc                net_state_beacon_iv_index_get
 .text.net_state_tx_iv_index_get
                0x00000000000277d8       0x1c ../../mesh/lib_51_MBTLE_CORE.a(net_state.c.obj)
                0x00000000000277d8                net_state_tx_iv_index_get
 .text.net_state_rx_iv_index_get
                0x00000000000277f4       0x18 ../../mesh/lib_51_MBTLE_CORE.a(net_state.c.obj)
                0x00000000000277f4                net_state_rx_iv_index_get
 .text.net_state_iv_update_get
                0x000000000002780c        0xc ../../mesh/lib_51_MBTLE_CORE.a(net_state.c.obj)
                0x000000000002780c                net_state_iv_update_get
 .text.sd_softdevice_is_enabled
                0x0000000000027818        0x4 ../../mesh/lib_51_MBTLE_CORE.a(nrf_mesh.c.obj)
 .text.nrf_mesh_init
                0x000000000002781c       0xb0 ../../mesh/lib_51_MBTLE_CORE.a(nrf_mesh.c.obj)
                0x000000000002781c                nrf_mesh_init
 .text.nrf_mesh_enable
                0x00000000000278cc       0x4c ../../mesh/lib_51_MBTLE_CORE.a(nrf_mesh.c.obj)
                0x00000000000278cc                nrf_mesh_enable
 .text.nrf_mesh_disable
                0x0000000000027918       0x28 ../../mesh/lib_51_MBTLE_CORE.a(nrf_mesh.c.obj)
                0x0000000000027918                nrf_mesh_disable
 .text.nrf_mesh_packet_send
                0x0000000000027940       0x54 ../../mesh/lib_51_MBTLE_CORE.a(nrf_mesh.c.obj)
                0x0000000000027940                nrf_mesh_packet_send
 .text.nrf_mesh_process
                0x0000000000027994      0x23c ../../mesh/lib_51_MBTLE_CORE.a(nrf_mesh.c.obj)
                0x0000000000027994                nrf_mesh_process
 .text.nrf_mesh_on_ble_evt
                0x0000000000027bd0        0x4 ../../mesh/lib_51_MBTLE_CORE.a(nrf_mesh.c.obj)
                0x0000000000027bd0                nrf_mesh_on_ble_evt
 .text.nrf_mesh_on_sd_evt
                0x0000000000027bd4        0xa ../../mesh/lib_51_MBTLE_CORE.a(nrf_mesh.c.obj)
                0x0000000000027bd4                nrf_mesh_on_sd_evt
 .text.nrf_mesh_evt_handler_add
                0x0000000000027bde        0x8 ../../mesh/lib_51_MBTLE_CORE.a(nrf_mesh.c.obj)
                0x0000000000027bde                nrf_mesh_evt_handler_add
 .text.nrf_mesh_keygen_aid
                0x0000000000027be6       0x1a ../../mesh/lib_51_MBTLE_CORE.a(nrf_mesh_keygen.c.obj)
                0x0000000000027be6                nrf_mesh_keygen_aid
 .text.nrf_mesh_keygen_network_secmat
                0x0000000000027c00       0x2a ../../mesh/lib_51_MBTLE_CORE.a(nrf_mesh_keygen.c.obj)
                0x0000000000027c00                nrf_mesh_keygen_network_secmat
 *fill*         0x0000000000027c2a        0x2 
 .text.nrf_mesh_keygen_beacon_secmat
                0x0000000000027c2c       0x58 ../../mesh/lib_51_MBTLE_CORE.a(nrf_mesh_keygen.c.obj)
                0x0000000000027c2c                nrf_mesh_keygen_beacon_secmat
 .text.nrf_mesh_keygen_virtual_address
                0x0000000000027c84       0x54 ../../mesh/lib_51_MBTLE_CORE.a(nrf_mesh_keygen.c.obj)
                0x0000000000027c84                nrf_mesh_keygen_virtual_address
 .text.nrf_mesh_address_type_get
                0x0000000000027cd8       0x14 ../../mesh/lib_51_MBTLE_CORE.a(nrf_mesh_utils.c.obj)
                0x0000000000027cd8                nrf_mesh_address_type_get
 .text.nrf_mesh_gap_address_type_get
                0x0000000000027cec       0x48 ../../mesh/lib_51_MBTLE_CORE.a(nrf_mesh_utils.c.obj)
                0x0000000000027cec                nrf_mesh_gap_address_type_get
 .text.radio_config_reset
                0x0000000000027d34       0x48 ../../mesh/lib_51_MBTLE_CORE.a(radio_config.c.obj)
                0x0000000000027d34                radio_config_reset
 .text.radio_config_channel_set
                0x0000000000027d7c       0x40 ../../mesh/lib_51_MBTLE_CORE.a(radio_config.c.obj)
                0x0000000000027d7c                radio_config_channel_set
 .text.radio_config_config
                0x0000000000027dbc       0xd8 ../../mesh/lib_51_MBTLE_CORE.a(radio_config.c.obj)
                0x0000000000027dbc                radio_config_config
 .text.m_index_increment
                0x0000000000027e94       0x2c ../../mesh/lib_51_MBTLE_CORE.a(packet_buffer.c.obj)
 .text.m_free_popped_packet
                0x0000000000027ec0       0x58 ../../mesh/lib_51_MBTLE_CORE.a(packet_buffer.c.obj)
 .text.m_adjust_desired_packet_length
                0x0000000000027f18       0x34 ../../mesh/lib_51_MBTLE_CORE.a(packet_buffer.c.obj)
 .text.packet_buffer_max_packet_len_get
                0x0000000000027f4c       0x3c ../../mesh/lib_51_MBTLE_CORE.a(packet_buffer.c.obj)
                0x0000000000027f4c                packet_buffer_max_packet_len_get
 .text.packet_buffer_init
                0x0000000000027f88       0xe0 ../../mesh/lib_51_MBTLE_CORE.a(packet_buffer.c.obj)
                0x0000000000027f88                packet_buffer_init
 .text.packet_buffer_reserve
                0x0000000000028068      0x110 ../../mesh/lib_51_MBTLE_CORE.a(packet_buffer.c.obj)
                0x0000000000028068                packet_buffer_reserve
 .text.packet_buffer_commit
                0x0000000000028178      0x128 ../../mesh/lib_51_MBTLE_CORE.a(packet_buffer.c.obj)
                0x0000000000028178                packet_buffer_commit
 .text.packet_buffer_pop
                0x00000000000282a0       0x84 ../../mesh/lib_51_MBTLE_CORE.a(packet_buffer.c.obj)
                0x00000000000282a0                packet_buffer_pop
 .text.packet_buffer_can_pop
                0x0000000000028324       0x48 ../../mesh/lib_51_MBTLE_CORE.a(packet_buffer.c.obj)
                0x0000000000028324                packet_buffer_can_pop
 .text.packet_buffer_free
                0x000000000002836c       0x9c ../../mesh/lib_51_MBTLE_CORE.a(packet_buffer.c.obj)
                0x000000000002836c                packet_buffer_free
 .text.sd_rand_application_bytes_available_get
                0x0000000000028408        0x4 ../../mesh/lib_51_MBTLE_CORE.a(rand.c.obj)
 .text.sd_rand_application_vector_get
                0x000000000002840c        0x4 ../../mesh/lib_51_MBTLE_CORE.a(rand.c.obj)
 .text.rand_prng_get
                0x0000000000028410       0x2e ../../mesh/lib_51_MBTLE_CORE.a(rand.c.obj)
                0x0000000000028410                rand_prng_get
 *fill*         0x000000000002843e        0x2 
 .text.rand_hw_rng_get
                0x0000000000028440       0x64 ../../mesh/lib_51_MBTLE_CORE.a(rand.c.obj)
                0x0000000000028440                rand_hw_rng_get
 .text.rand_prng_seed
                0x00000000000284a4       0x34 ../../mesh/lib_51_MBTLE_CORE.a(rand.c.obj)
                0x00000000000284a4                rand_prng_seed
 .text.timer_cb
                0x00000000000284d8       0x10 ../../mesh/lib_51_MBTLE_CORE.a(ticker.c.obj)
 .text.ticker_init
                0x00000000000284e8       0x38 ../../mesh/lib_51_MBTLE_CORE.a(ticker.c.obj)
                0x00000000000284e8                ticker_init
 .text.packet_mesh_trs_seq_auth_get
                0x0000000000028520       0x40 ../../mesh/lib_51_MBTLE_CORE.a(transport.c.obj)
 .text.trs_sar_ack_timeout_cb
                0x0000000000028560       0x18 ../../mesh/lib_51_MBTLE_CORE.a(transport.c.obj)
 .text.trs_sar_tx_timeout_cb
                0x0000000000028578        0xc ../../mesh/lib_51_MBTLE_CORE.a(transport.c.obj)
 .text.trs_sar_session_next_timeout_get
                0x0000000000028584       0x6c ../../mesh/lib_51_MBTLE_CORE.a(transport.c.obj)
 .text.m_send_sar_cancel_event
                0x00000000000285f0       0x26 ../../mesh/lib_51_MBTLE_CORE.a(transport.c.obj)
 .text.m_send_replay_cache_full_event
                0x0000000000028616       0x2e ../../mesh/lib_51_MBTLE_CORE.a(transport.c.obj)
 .text.test_transport_decrypt
                0x0000000000028644       0xa8 ../../mesh/lib_51_MBTLE_CORE.a(transport.c.obj)
 .text.trs_sar_drop_session
                0x00000000000286ec      0x12c ../../mesh/lib_51_MBTLE_CORE.a(transport.c.obj)
 .text.trs_sar_session_cb
                0x0000000000028818       0xa8 ../../mesh/lib_51_MBTLE_CORE.a(transport.c.obj)
 .text.trs_sar_pkt_ack
                0x00000000000288c0      0x154 ../../mesh/lib_51_MBTLE_CORE.a(transport.c.obj)
 .text.sar_segment_send
                0x0000000000028a14      0x19c ../../mesh/lib_51_MBTLE_CORE.a(transport.c.obj)
 .text.trs_sar_session_timer_order
                0x0000000000028bb0       0x34 ../../mesh/lib_51_MBTLE_CORE.a(transport.c.obj)
 .text.trs_sar_pkt_decrypt
                0x0000000000028be4      0x4c4 ../../mesh/lib_51_MBTLE_CORE.a(transport.c.obj)
                0x0000000000028be4                trs_sar_pkt_decrypt
 .text.transport_sar_mem_funcs_reset
                0x00000000000290a8       0x2c ../../mesh/lib_51_MBTLE_CORE.a(transport.c.obj)
                0x00000000000290a8                transport_sar_mem_funcs_reset
 .text.transport_init
                0x00000000000290d4       0xb8 ../../mesh/lib_51_MBTLE_CORE.a(transport.c.obj)
                0x00000000000290d4                transport_init
 .text.transport_sar_mem_funcs_set
                0x000000000002918c       0x44 ../../mesh/lib_51_MBTLE_CORE.a(transport.c.obj)
                0x000000000002918c                transport_sar_mem_funcs_set
 .text.transport_pkt_in
                0x00000000000291d0     0x1168 ../../mesh/lib_51_MBTLE_CORE.a(transport.c.obj)
                0x00000000000291d0                transport_pkt_in
 .text.transport_sar_process
                0x000000000002a338      0x510 ../../mesh/lib_51_MBTLE_CORE.a(transport.c.obj)
                0x000000000002a338                transport_sar_process
 .text.transport_tx
                0x000000000002a848      0x234 ../../mesh/lib_51_MBTLE_CORE.a(transport.c.obj)
                0x000000000002a848                transport_tx
 .text.transport_seg_maxlen_get
                0x000000000002aa7c       0x14 ../../mesh/lib_51_MBTLE_CORE.a(transport.c.obj)
                0x000000000002aa7c                transport_seg_maxlen_get
 .text.transport_tx_sar
                0x000000000002aa90      0x558 ../../mesh/lib_51_MBTLE_CORE.a(transport.c.obj)
                0x000000000002aa90                transport_tx_sar
 .text.transport_unseg_maxlen_get
                0x000000000002afe8        0x4 ../../mesh/lib_51_MBTLE_CORE.a(transport.c.obj)
                0x000000000002afe8                transport_unseg_maxlen_get
 .text.internal_event_init
                0x000000000002afec       0x44 ../../mesh/lib_51_MBTLE_CORE.a(internal_event.c.obj)
                0x000000000002afec                internal_event_init
 .text.internal_event_push
                0x000000000002b030       0x34 ../../mesh/lib_51_MBTLE_CORE.a(internal_event.c.obj)
                0x000000000002b030                internal_event_push
 .text.send_end_events
                0x000000000002b064       0x88 ../../mesh/lib_51_MBTLE_CORE.a(mesh_flash.c.obj)
 .text.mesh_flash_init
                0x000000000002b0ec       0x90 ../../mesh/lib_51_MBTLE_CORE.a(mesh_flash.c.obj)
                0x000000000002b0ec                mesh_flash_init
 .text.mesh_flash_user_callback_set
                0x000000000002b17c       0x30 ../../mesh/lib_51_MBTLE_CORE.a(mesh_flash.c.obj)
                0x000000000002b17c                mesh_flash_user_callback_set
 .text.mesh_flash_op_push
                0x000000000002b1ac      0x168 ../../mesh/lib_51_MBTLE_CORE.a(mesh_flash.c.obj)
                0x000000000002b1ac                mesh_flash_op_push
 .text.mesh_flash_in_progress
                0x000000000002b314       0x3c ../../mesh/lib_51_MBTLE_CORE.a(mesh_flash.c.obj)
                0x000000000002b314                mesh_flash_in_progress
 .text.mesh_flash_op_execute
                0x000000000002b350      0x1d0 ../../mesh/lib_51_MBTLE_CORE.a(mesh_flash.c.obj)
                0x000000000002b350                mesh_flash_op_execute
 .text.mesh_flash_set_suspended
                0x000000000002b520       0x58 ../../mesh/lib_51_MBTLE_CORE.a(mesh_flash.c.obj)
                0x000000000002b520                mesh_flash_set_suspended
 .text.nrf_flash_erase
                0x000000000002b578       0x78 ../../mesh/lib_51_MBTLE_CORE.a(nrf_flash.c.obj)
                0x000000000002b578                nrf_flash_erase
 .text.nrf_flash_write
                0x000000000002b5f0       0x78 ../../mesh/lib_51_MBTLE_CORE.a(nrf_flash.c.obj)
                0x000000000002b5f0                nrf_flash_write
 .text.flash_area_is_blank
                0x000000000002b668       0x60 ../../mesh/lib_51_MBTLE_CORE.a(flash_manager.c.obj)
 .text.free_packet_buffer
                0x000000000002b6c8       0x58 ../../mesh/lib_51_MBTLE_CORE.a(flash_manager.c.obj)
 .text.reserve_action_buffer
                0x000000000002b720       0x28 ../../mesh/lib_51_MBTLE_CORE.a(flash_manager.c.obj)
 .text.get_last_entry
                0x000000000002b748       0x7c ../../mesh/lib_51_MBTLE_CORE.a(flash_manager.c.obj)
 .text.process_action_queue
                0x000000000002b7c4      0x740 ../../mesh/lib_51_MBTLE_CORE.a(flash_manager.c.obj)
 .text.flash_op_ended_callback
                0x000000000002bf04       0x28 ../../mesh/lib_51_MBTLE_CORE.a(flash_manager.c.obj)
 .text.flash_manager_init
                0x000000000002bf2c       0x6c ../../mesh/lib_51_MBTLE_CORE.a(flash_manager.c.obj)
                0x000000000002bf2c                flash_manager_init
 .text.flash_manager_remove
                0x000000000002bf98       0x60 ../../mesh/lib_51_MBTLE_CORE.a(flash_manager.c.obj)
                0x000000000002bf98                flash_manager_remove
 .text.flash_manager_entry_next_get
                0x000000000002bff8      0x140 ../../mesh/lib_51_MBTLE_CORE.a(flash_manager.c.obj)
                0x000000000002bff8                flash_manager_entry_next_get
 .text.flash_manager_entry_alloc
                0x000000000002c138       0x8c ../../mesh/lib_51_MBTLE_CORE.a(flash_manager.c.obj)
                0x000000000002c138                flash_manager_entry_alloc
 .text.flash_manager_entry_commit
                0x000000000002c1c4       0x6c ../../mesh/lib_51_MBTLE_CORE.a(flash_manager.c.obj)
                0x000000000002c1c4                flash_manager_entry_commit
 .text.flash_manager_entry_invalidate
                0x000000000002c230       0xa4 ../../mesh/lib_51_MBTLE_CORE.a(flash_manager.c.obj)
                0x000000000002c230                flash_manager_entry_invalidate
 .text.flash_manager_add
                0x000000000002c2d4      0x3b8 ../../mesh/lib_51_MBTLE_CORE.a(flash_manager.c.obj)
                0x000000000002c2d4                flash_manager_add
 .text.flash_manager_mem_listener_register
                0x000000000002c68c       0x4c ../../mesh/lib_51_MBTLE_CORE.a(flash_manager.c.obj)
                0x000000000002c68c                flash_manager_mem_listener_register
 .text.flash_manager_is_stable
                0x000000000002c6d8       0x24 ../../mesh/lib_51_MBTLE_CORE.a(flash_manager.c.obj)
                0x000000000002c6d8                flash_manager_is_stable
 .text.flash_manager_on_defrag_end
                0x000000000002c6fc       0x68 ../../mesh/lib_51_MBTLE_CORE.a(flash_manager.c.obj)
                0x000000000002c6fc                flash_manager_on_defrag_end
 .text.flash_manager_recovery_page_get
                0x000000000002c764        0x8 ../../mesh/lib_51_MBTLE_CORE.a(flash_manager.c.obj)
                0x000000000002c764                flash_manager_recovery_page_get
 .text.defrag_on_end
                0x000000000002c76c       0x1c ../../mesh/lib_51_MBTLE_CORE.a(flash_manager_defrag.c.obj)
 .text.execute_procedure_step
                0x000000000002c788       0xc0 ../../mesh/lib_51_MBTLE_CORE.a(flash_manager_defrag.c.obj)
 .text.on_flash_op_end
                0x000000000002c848       0x40 ../../mesh/lib_51_MBTLE_CORE.a(flash_manager_defrag.c.obj)
 .text.erase_source
                0x000000000002c888       0x30 ../../mesh/lib_51_MBTLE_CORE.a(flash_manager_defrag.c.obj)
 .text.erase_recovery_area
                0x000000000002c8b8       0x30 ../../mesh/lib_51_MBTLE_CORE.a(flash_manager_defrag.c.obj)
 .text.post_process
                0x000000000002c8e8       0x6c ../../mesh/lib_51_MBTLE_CORE.a(flash_manager_defrag.c.obj)
 .text.write_back
                0x000000000002c954       0x48 ../../mesh/lib_51_MBTLE_CORE.a(flash_manager_defrag.c.obj)
 .text.write_defrag_start_pointer
                0x000000000002c99c       0x38 ../../mesh/lib_51_MBTLE_CORE.a(flash_manager_defrag.c.obj)
 .text.copy_metadata
                0x000000000002c9d4       0x5c ../../mesh/lib_51_MBTLE_CORE.a(flash_manager_defrag.c.obj)
 .text.seal_storage_page
                0x000000000002ca30       0x7c ../../mesh/lib_51_MBTLE_CORE.a(flash_manager_defrag.c.obj)
 .text.check_for_invalid_entries
                0x000000000002caac       0x50 ../../mesh/lib_51_MBTLE_CORE.a(flash_manager_defrag.c.obj)
 .text.invalidate_duplicate_entries
                0x000000000002cafc      0x174 ../../mesh/lib_51_MBTLE_CORE.a(flash_manager_defrag.c.obj)
 .text.backup_entries
                0x000000000002cc70      0x214 ../../mesh/lib_51_MBTLE_CORE.a(flash_manager_defrag.c.obj)
 .text.flash_manager_defrag_init
                0x000000000002ce84       0xa8 ../../mesh/lib_51_MBTLE_CORE.a(flash_manager_defrag.c.obj)
                0x000000000002ce84                flash_manager_defrag_init
 .text.flash_manager_defrag_is_running
                0x000000000002cf2c       0x10 ../../mesh/lib_51_MBTLE_CORE.a(flash_manager_defrag.c.obj)
                0x000000000002cf2c                flash_manager_defrag_is_running
 .text.flash_manager_defrag
                0x000000000002cf3c       0xec ../../mesh/lib_51_MBTLE_CORE.a(flash_manager_defrag.c.obj)
                0x000000000002cf3c                flash_manager_defrag
 .text.flash_manager_defrag_recovery_page_get
                0x000000000002d028        0xc ../../mesh/lib_51_MBTLE_CORE.a(flash_manager_defrag.c.obj)
                0x000000000002d028                flash_manager_defrag_recovery_page_get
 .text.entry_get
                0x000000000002d034       0x9c ../../mesh/lib_51_MBTLE_CORE.a(flash_manager_internal.c.obj)
                0x000000000002d034                entry_get
 .text.sd_ecb_block_encrypt
                0x000000000002d0d0        0x4 ../../mesh/lib_51_MBTLE_CORE.a(aes.c.obj)
 .text.aes_encrypt
                0x000000000002d0d4       0x78 ../../mesh/lib_51_MBTLE_CORE.a(aes.c.obj)
                0x000000000002d0d4                aes_encrypt
 .text.queue_init
                0x000000000002d14c       0x24 ../../mesh/lib_51_MBTLE_CORE.a(queue.c.obj)
                0x000000000002d14c                queue_init
 .text.queue_push
                0x000000000002d170       0x58 ../../mesh/lib_51_MBTLE_CORE.a(queue.c.obj)
                0x000000000002d170                queue_push
 .text.queue_pop
                0x000000000002d1c8       0x40 ../../mesh/lib_51_MBTLE_CORE.a(queue.c.obj)
                0x000000000002d1c8                queue_pop
 .text.msq_get  0x000000000002d208       0x7c ../../mesh/lib_51_MBTLE_CORE.a(msqueue.c.obj)
                0x000000000002d208                msq_get
 .text.msq_move
                0x000000000002d284       0x70 ../../mesh/lib_51_MBTLE_CORE.a(msqueue.c.obj)
                0x000000000002d284                msq_move
 .text.msq_reset
                0x000000000002d2f4       0x34 ../../mesh/lib_51_MBTLE_CORE.a(msqueue.c.obj)
                0x000000000002d2f4                msq_reset
 .text.msq_init
                0x000000000002d328       0x8c ../../mesh/lib_51_MBTLE_CORE.a(msqueue.c.obj)
                0x000000000002d328                msq_init
 .text.msq_available
                0x000000000002d3b4       0x60 ../../mesh/lib_51_MBTLE_CORE.a(msqueue.c.obj)
                0x000000000002d3b4                msq_available
 .text.sd_radio_session_open
                0x000000000002d414        0x4 ../../mesh/lib_51_MBTLE_CORE.a(timeslot.c.obj)
 .text.sd_radio_session_close
                0x000000000002d418        0x4 ../../mesh/lib_51_MBTLE_CORE.a(timeslot.c.obj)
 .text.sd_radio_request
                0x000000000002d41c        0x4 ../../mesh/lib_51_MBTLE_CORE.a(timeslot.c.obj)
 .text.ts_order_earliest
                0x000000000002d420       0x38 ../../mesh/lib_51_MBTLE_CORE.a(timeslot.c.obj)
 .text.ts_extend
                0x000000000002d458       0x30 ../../mesh/lib_51_MBTLE_CORE.a(timeslot.c.obj)
 .text.end_timer_handler
                0x000000000002d488        0xc ../../mesh/lib_51_MBTLE_CORE.a(timeslot.c.obj)
 .text.start_time_update
                0x000000000002d494       0x84 ../../mesh/lib_51_MBTLE_CORE.a(timeslot.c.obj)
                0x000000000002d494                start_time_update
 .text.timeslot_sd_event_handler
                0x000000000002d518       0x58 ../../mesh/lib_51_MBTLE_CORE.a(timeslot.c.obj)
                0x000000000002d518                timeslot_sd_event_handler
 .text.timeslot_init
                0x000000000002d570       0x94 ../../mesh/lib_51_MBTLE_CORE.a(timeslot.c.obj)
                0x000000000002d570                timeslot_init
 .text.timeslot_stop
                0x000000000002d604       0x50 ../../mesh/lib_51_MBTLE_CORE.a(timeslot.c.obj)
                0x000000000002d604                timeslot_stop
 .text.timeslot_resume
                0x000000000002d654       0x4c ../../mesh/lib_51_MBTLE_CORE.a(timeslot.c.obj)
                0x000000000002d654                timeslot_resume
 .text.timeslot_end_time_get
                0x000000000002d6a0       0x24 ../../mesh/lib_51_MBTLE_CORE.a(timeslot.c.obj)
                0x000000000002d6a0                timeslot_end_time_get
 .text.timeslot_end
                0x000000000002d6c4       0x80 ../../mesh/lib_51_MBTLE_CORE.a(timeslot.c.obj)
 .text.timeslot_remaining_time_get
                0x000000000002d744       0x34 ../../mesh/lib_51_MBTLE_CORE.a(timeslot.c.obj)
                0x000000000002d744                timeslot_remaining_time_get
 .text.radio_signal_callback
                0x000000000002d778      0x1f0 ../../mesh/lib_51_MBTLE_CORE.a(timeslot.c.obj)
 .text.aes_cmac_subkey_generate
                0x000000000002d968       0xac ../../mesh/lib_51_MBTLE_CORE.a(aes_cmac.c.obj)
                0x000000000002d968                aes_cmac_subkey_generate
 .text.aes_cmac
                0x000000000002da14       0xf4 ../../mesh/lib_51_MBTLE_CORE.a(aes_cmac.c.obj)
                0x000000000002da14                aes_cmac
 .text.ccm_soft_crypt
                0x000000000002db08       0xa2 ../../mesh/lib_51_MBTLE_CORE.a(ccm_soft.c.obj)
 .text.ccm_soft_authenticate_blocks
                0x000000000002dbaa       0x86 ../../mesh/lib_51_MBTLE_CORE.a(ccm_soft.c.obj)
 .text.ccm_soft_authenticate
                0x000000000002dc30       0x8c ../../mesh/lib_51_MBTLE_CORE.a(ccm_soft.c.obj)
 .text.ccm_soft_encrypt
                0x000000000002dcbc       0x8a ../../mesh/lib_51_MBTLE_CORE.a(ccm_soft.c.obj)
                0x000000000002dcbc                ccm_soft_encrypt
 .text.ccm_soft_decrypt
                0x000000000002dd46      0x166 ../../mesh/lib_51_MBTLE_CORE.a(ccm_soft.c.obj)
                0x000000000002dd46                ccm_soft_decrypt
 .text.msg_cache_init
                0x000000000002deac       0x38 ../../mesh/lib_51_MBTLE_CORE.a(msg_cache.c.obj)
                0x000000000002deac                msg_cache_init
 .text.msg_cache_entry_exists
                0x000000000002dee4       0xa8 ../../mesh/lib_51_MBTLE_CORE.a(msg_cache.c.obj)
                0x000000000002dee4                msg_cache_entry_exists
 .text.msg_cache_entry_add
                0x000000000002df8c       0x40 ../../mesh/lib_51_MBTLE_CORE.a(msg_cache.c.obj)
                0x000000000002df8c                msg_cache_entry_add
 .text.header_transfuscate
                0x000000000002dfcc       0x58 ../../mesh/lib_51_MBTLE_CORE.a(network.c.obj)
 .text.network_pkt_encrypt
                0x000000000002e024       0x7a ../../mesh/lib_51_MBTLE_CORE.a(network.c.obj)
 *fill*         0x000000000002e09e        0x2 
 .text.network_pkt_relay
                0x000000000002e0a0      0x1e0 ../../mesh/lib_51_MBTLE_CORE.a(network.c.obj)
                0x000000000002e0a0                network_pkt_relay
 .text.network_init
                0x000000000002e280       0x3c ../../mesh/lib_51_MBTLE_CORE.a(network.c.obj)
                0x000000000002e280                network_init
 .text.network_pkt_out
                0x000000000002e2bc      0x170 ../../mesh/lib_51_MBTLE_CORE.a(network.c.obj)
                0x000000000002e2bc                network_pkt_out
 .text.network_pkt_in
                0x000000000002e42c      0x3d4 ../../mesh/lib_51_MBTLE_CORE.a(network.c.obj)
                0x000000000002e42c                network_pkt_in
 .text.packet_type_packet_get
                0x000000000002e800       0x60 ../../mesh/lib_51_MBTLE_CORE.a(packet.c.obj)
                0x000000000002e800                packet_type_packet_get
 .text.replay_cache_add
                0x000000000002e860       0x98 ../../mesh/lib_51_MBTLE_CORE.a(replay_cache.c.obj)
                0x000000000002e860                replay_cache_add
 .text.replay_cache_has_room
                0x000000000002e8f8       0x44 ../../mesh/lib_51_MBTLE_CORE.a(replay_cache.c.obj)
                0x000000000002e8f8                replay_cache_has_room
 .text.replay_cache_has_elem
                0x000000000002e93c       0x48 ../../mesh/lib_51_MBTLE_CORE.a(replay_cache.c.obj)
                0x000000000002e93c                replay_cache_has_elem
 .text.replay_cache_clear
                0x000000000002e984       0x28 ../../mesh/lib_51_MBTLE_CORE.a(replay_cache.c.obj)
                0x000000000002e984                replay_cache_clear
 .text.replay_cache_init
                0x000000000002e9ac        0x8 ../../mesh/lib_51_MBTLE_CORE.a(replay_cache.c.obj)
                0x000000000002e9ac                replay_cache_init
 .text._GetAvailWriteSpace
                0x000000000002e9b4       0x18 ../../lib/rtt/lib_51_RTT_LIB.a(SEGGER_RTT.c.obj)
 .text._WriteNoCheck
                0x000000000002e9cc       0x3a ../../lib/rtt/lib_51_RTT_LIB.a(SEGGER_RTT.c.obj)
 .text._WriteBlocking
                0x000000000002ea06       0x6c ../../lib/rtt/lib_51_RTT_LIB.a(SEGGER_RTT.c.obj)
 *fill*         0x000000000002ea72        0x2 
 .text._DoInit  0x000000000002ea74       0x60 ../../lib/rtt/lib_51_RTT_LIB.a(SEGGER_RTT.c.obj)
 .text.SEGGER_RTT_WriteNoLock
                0x000000000002ead4       0x70 ../../lib/rtt/lib_51_RTT_LIB.a(SEGGER_RTT.c.obj)
                0x000000000002ead4                SEGGER_RTT_WriteNoLock
 .text.SEGGER_RTT_Write
                0x000000000002eb44       0x34 ../../lib/rtt/lib_51_RTT_LIB.a(SEGGER_RTT.c.obj)
                0x000000000002eb44                SEGGER_RTT_Write
 .text._StoreChar
                0x000000000002eb78       0x40 ../../lib/rtt/lib_51_RTT_LIB.a(SEGGER_RTT_printf.c.obj)
 .text._PrintUnsigned
                0x000000000002ebb8      0x114 ../../lib/rtt/lib_51_RTT_LIB.a(SEGGER_RTT_printf.c.obj)
 .text.SEGGER_RTT_vprintf
                0x000000000002eccc      0x2ee ../../lib/rtt/lib_51_RTT_LIB.a(SEGGER_RTT_printf.c.obj)
                0x000000000002eccc                SEGGER_RTT_vprintf
 .text.SEGGER_RTT_printf
                0x000000000002efba       0x1a ../../lib/rtt/lib_51_RTT_LIB.a(SEGGER_RTT_printf.c.obj)
                0x000000000002efba                SEGGER_RTT_printf
 .text.uECC_vli_add
                0x000000000002efd4       0x4a ../../lib/micro-ecc/lib_51_UECC_LIB.a(uECC.c.obj)
 .text.uECC_vli_sub
                0x000000000002f01e       0x4c ../../lib/micro-ecc/lib_51_UECC_LIB.a(uECC.c.obj)
 .text.uECC_vli_mult
                0x000000000002f06a       0x90 ../../lib/micro-ecc/lib_51_UECC_LIB.a(uECC.c.obj)
 .text.uECC_vli_clear
                0x000000000002f0fa       0x1a ../../lib/micro-ecc/lib_51_UECC_LIB.a(uECC.c.obj)
 .text.uECC_vli_isZero
                0x000000000002f114       0x24 ../../lib/micro-ecc/lib_51_UECC_LIB.a(uECC.c.obj)
 .text.uECC_vli_testBit
                0x000000000002f138       0x12 ../../lib/micro-ecc/lib_51_UECC_LIB.a(uECC.c.obj)
 *fill*         0x000000000002f14a        0x2 
 .text.uECC_vli_numBits
                0x000000000002f14c       0x54 ../../lib/micro-ecc/lib_51_UECC_LIB.a(uECC.c.obj)
 .text.uECC_vli_set
                0x000000000002f1a0       0x1c ../../lib/micro-ecc/lib_51_UECC_LIB.a(uECC.c.obj)
 .text.uECC_vli_cmp_unsafe
                0x000000000002f1bc       0x46 ../../lib/micro-ecc/lib_51_UECC_LIB.a(uECC.c.obj)
 .text.uECC_vli_cmp
                0x000000000002f202       0x2c ../../lib/micro-ecc/lib_51_UECC_LIB.a(uECC.c.obj)
 .text.uECC_vli_rshift1
                0x000000000002f22e       0x2c ../../lib/micro-ecc/lib_51_UECC_LIB.a(uECC.c.obj)
 .text.uECC_vli_modAdd
                0x000000000002f25a       0x32 ../../lib/micro-ecc/lib_51_UECC_LIB.a(uECC.c.obj)
 .text.uECC_vli_modSub
                0x000000000002f28c       0x26 ../../lib/micro-ecc/lib_51_UECC_LIB.a(uECC.c.obj)
 .text.uECC_vli_modMult_fast
                0x000000000002f2b2       0x20 ../../lib/micro-ecc/lib_51_UECC_LIB.a(uECC.c.obj)
 .text.uECC_vli_modSquare_fast
                0x000000000002f2d2        0xc ../../lib/micro-ecc/lib_51_UECC_LIB.a(uECC.c.obj)
 *fill*         0x000000000002f2de        0x2 
 .text.vli_modInv_update
                0x000000000002f2e0       0x48 ../../lib/micro-ecc/lib_51_UECC_LIB.a(uECC.c.obj)
 .text.uECC_vli_modInv
                0x000000000002f328      0x134 ../../lib/micro-ecc/lib_51_UECC_LIB.a(uECC.c.obj)
 .text.double_jacobian_default
                0x000000000002f45c      0x168 ../../lib/micro-ecc/lib_51_UECC_LIB.a(uECC.c.obj)
 .text.x_side_default
                0x000000000002f5c4       0x58 ../../lib/micro-ecc/lib_51_UECC_LIB.a(uECC.c.obj)
 .text.vli_mmod_fast_secp256r1
                0x000000000002f61c      0x1bc ../../lib/micro-ecc/lib_51_UECC_LIB.a(uECC.c.obj)
 .text.apply_z  0x000000000002f7d8       0x3e ../../lib/micro-ecc/lib_51_UECC_LIB.a(uECC.c.obj)
 .text.XYcZ_add
                0x000000000002f816       0xcc ../../lib/micro-ecc/lib_51_UECC_LIB.a(uECC.c.obj)
 .text.XYcZ_addC
                0x000000000002f8e2      0x11c ../../lib/micro-ecc/lib_51_UECC_LIB.a(uECC.c.obj)
 .text.EccPoint_mult
                0x000000000002f9fe      0x1cc ../../lib/micro-ecc/lib_51_UECC_LIB.a(uECC.c.obj)
 .text.regularize_k
                0x000000000002fbca       0x60 ../../lib/micro-ecc/lib_51_UECC_LIB.a(uECC.c.obj)
 .text.EccPoint_compute_public_key
                0x000000000002fc2a       0x4c ../../lib/micro-ecc/lib_51_UECC_LIB.a(uECC.c.obj)
 .text.uECC_vli_nativeToBytes
                0x000000000002fc76       0x2a ../../lib/micro-ecc/lib_51_UECC_LIB.a(uECC.c.obj)
 .text.uECC_vli_bytesToNative
                0x000000000002fca0       0x56 ../../lib/micro-ecc/lib_51_UECC_LIB.a(uECC.c.obj)
 *fill*         0x000000000002fcf6        0x2 
 .text.uECC_generate_random_int
                0x000000000002fcf8       0x84 ../../lib/micro-ecc/lib_51_UECC_LIB.a(uECC.c.obj)
 .text.default_RNG
                0x000000000002fd7c        0xc ../../lib/micro-ecc/lib_51_UECC_LIB.a(uECC.c.obj)
 .text.uECC_secp256r1
                0x000000000002fd88        0x8 ../../lib/micro-ecc/lib_51_UECC_LIB.a(uECC.c.obj)
                0x000000000002fd88                uECC_secp256r1
 .text.uECC_make_key
                0x000000000002fd90       0x88 ../../lib/micro-ecc/lib_51_UECC_LIB.a(uECC.c.obj)
                0x000000000002fd90                uECC_make_key
 .text.uECC_shared_secret
                0x000000000002fe18       0xc8 ../../lib/micro-ecc/lib_51_UECC_LIB.a(uECC.c.obj)
                0x000000000002fe18                uECC_shared_secret
 .text.uECC_valid_point
                0x000000000002fee0       0x92 ../../lib/micro-ecc/lib_51_UECC_LIB.a(uECC.c.obj)
                0x000000000002fee0                uECC_valid_point
 .text.uECC_valid_public_key
                0x000000000002ff72       0x32 ../../lib/micro-ecc/lib_51_UECC_LIB.a(uECC.c.obj)
                0x000000000002ff72                uECC_valid_public_key
 .text          0x000000000002ffa4      0x114 /usr/bin/../lib/gcc/arm-none-eabi/6.3.1/thumb/v6-m/libgcc.a(_udivsi3.o)
                0x000000000002ffa4                __udivsi3
                0x000000000002ffa4                __aeabi_uidiv
                0x00000000000300b0                __aeabi_uidivmod
 .text          0x00000000000300b8      0x1d4 /usr/bin/../lib/gcc/arm-none-eabi/6.3.1/thumb/v6-m/libgcc.a(_divsi3.o)
                0x00000000000300b8                __aeabi_idiv
                0x00000000000300b8                __divsi3
                0x0000000000030284                __aeabi_idivmod
 .text          0x000000000003028c        0x4 /usr/bin/../lib/gcc/arm-none-eabi/6.3.1/thumb/v6-m/libgcc.a(_dvmd_tls.o)
                0x000000000003028c                __aeabi_ldiv0
                0x000000000003028c                __aeabi_idiv0
 .text          0x0000000000030290       0x54 /usr/bin/../lib/gcc/arm-none-eabi/6.3.1/thumb/v6-m/libgcc.a(_muldi3.o)
                0x0000000000030290                __aeabi_lmul
                0x0000000000030290                __muldi3
 .text.exit     0x00000000000302e4       0x2c /usr/bin/../lib/gcc/arm-none-eabi/6.3.1/../../../../arm-none-eabi/lib/thumb/v6-m/libg_nano.a(lib_a-exit.o)
                0x00000000000302e4                exit
 .text.__libc_init_array
                0x0000000000030310       0x48 /usr/bin/../lib/gcc/arm-none-eabi/6.3.1/../../../../arm-none-eabi/lib/thumb/v6-m/libg_nano.a(lib_a-init.o)
                0x0000000000030310                __libc_init_array
 .text.malloc   0x0000000000030358       0x14 /usr/bin/../lib/gcc/arm-none-eabi/6.3.1/../../../../arm-none-eabi/lib/thumb/v6-m/libg_nano.a(lib_a-malloc.o)
                0x0000000000030358                malloc
 .text.free     0x000000000003036c       0x14 /usr/bin/../lib/gcc/arm-none-eabi/6.3.1/../../../../arm-none-eabi/lib/thumb/v6-m/libg_nano.a(lib_a-malloc.o)
                0x000000000003036c                free
 .text.memcmp   0x0000000000030380       0x1e /usr/bin/../lib/gcc/arm-none-eabi/6.3.1/../../../../arm-none-eabi/lib/thumb/v6-m/libg_nano.a(lib_a-memcmp.o)
                0x0000000000030380                memcmp
 .text.memcpy   0x000000000003039e       0x12 /usr/bin/../lib/gcc/arm-none-eabi/6.3.1/../../../../arm-none-eabi/lib/thumb/v6-m/libg_nano.a(lib_a-memcpy-stub.o)
                0x000000000003039e                memcpy
 .text.memset   0x00000000000303b0       0x10 /usr/bin/../lib/gcc/arm-none-eabi/6.3.1/../../../../arm-none-eabi/lib/thumb/v6-m/libg_nano.a(lib_a-memset.o)
                0x00000000000303b0                memset
 .text._free_r  0x00000000000303c0       0x94 /usr/bin/../lib/gcc/arm-none-eabi/6.3.1/../../../../arm-none-eabi/lib/thumb/v6-m/libg_nano.a(lib_a-nano-freer.o)
                0x00000000000303c0                _free_r
 .text._malloc_r
                0x0000000000030454       0xbc /usr/bin/../lib/gcc/arm-none-eabi/6.3.1/../../../../arm-none-eabi/lib/thumb/v6-m/libg_nano.a(lib_a-nano-mallocr.o)
                0x0000000000030454                _malloc_r
 .text._sbrk_r  0x0000000000030510       0x24 /usr/bin/../lib/gcc/arm-none-eabi/6.3.1/../../../../arm-none-eabi/lib/thumb/v6-m/libg_nano.a(lib_a-sbrkr.o)
                0x0000000000030510                _sbrk_r
 .text.strcpy   0x0000000000030534       0x10 /usr/bin/../lib/gcc/arm-none-eabi/6.3.1/../../../../arm-none-eabi/lib/thumb/v6-m/libg_nano.a(lib_a-strcpy.o)
                0x0000000000030534                strcpy
 .text          0x0000000000030544        0xe /usr/bin/../lib/gcc/arm-none-eabi/6.3.1/../../../../arm-none-eabi/lib/thumb/v6-m/libg_nano.a(lib_a-strlen.o)
                0x0000000000030544                strlen
 .text.strrchr  0x0000000000030552       0x24 /usr/bin/../lib/gcc/arm-none-eabi/6.3.1/../../../../arm-none-eabi/lib/thumb/v6-m/libg_nano.a(lib_a-strrchr.o)
                0x0000000000030552                strrchr
 .text.__malloc_lock
                0x0000000000030576        0x2 /usr/bin/../lib/gcc/arm-none-eabi/6.3.1/../../../../arm-none-eabi/lib/thumb/v6-m/libg_nano.a(lib_a-mlock.o)
                0x0000000000030576                __malloc_lock
 .text.__malloc_unlock
                0x0000000000030578        0x2 /usr/bin/../lib/gcc/arm-none-eabi/6.3.1/../../../../arm-none-eabi/lib/thumb/v6-m/libg_nano.a(lib_a-mlock.o)
                0x0000000000030578                __malloc_unlock
 .text.strchr   0x000000000003057a       0x1c /usr/bin/../lib/gcc/arm-none-eabi/6.3.1/../../../../arm-none-eabi/lib/thumb/v6-m/libg_nano.a(lib_a-strchr.o)
                0x000000000003057a                strchr
 *fill*         0x0000000000030596        0x2 
 .text._sbrk    0x0000000000030598       0x1c /usr/bin/../lib/gcc/arm-none-eabi/6.3.1/../../../../arm-none-eabi/lib/thumb/v6-m/libnosys.a(sbrk.o)
                0x0000000000030598                _sbrk
 .text._exit    0x00000000000305b4        0x4 /usr/bin/../lib/gcc/arm-none-eabi/6.3.1/../../../../arm-none-eabi/lib/thumb/v6-m/libnosys.a(_exit.o)
                0x00000000000305b4                _exit
 *(.init)
 .init          0x00000000000305b8        0x4 /usr/bin/../lib/gcc/arm-none-eabi/6.3.1/thumb/v6-m/crti.o
                0x00000000000305b8                _init
 .init          0x00000000000305bc        0x8 /usr/bin/../lib/gcc/arm-none-eabi/6.3.1/thumb/v6-m/crtn.o
 *(.fini)
 .fini          0x00000000000305c4        0x4 /usr/bin/../lib/gcc/arm-none-eabi/6.3.1/thumb/v6-m/crti.o
                0x00000000000305c4                _fini
 .fini          0x00000000000305c8        0x8 /usr/bin/../lib/gcc/arm-none-eabi/6.3.1/thumb/v6-m/crtn.o
 *crtbegin.o(.ctors)
 *crtbegin?.o(.ctors)
 *(EXCLUDE_FILE(*crtend.o *crtend?.o) .ctors)
 *(SORT(.ctors.*))
 *(.ctors)
 *crtbegin.o(.dtors)
 *crtbegin?.o(.dtors)
 *(EXCLUDE_FILE(*crtend.o *crtend?.o) .dtors)
 *(SORT(.dtors.*))
 *(.dtors)
 *(.rodata*)
 .rodata.mesh_evt_handler
                0x00000000000305d0       0x14 CMakeFiles/51_dfu.dir/src/main.c.obj
 .rodata.main.str1.4
                0x00000000000305e4      0x13a CMakeFiles/51_dfu.dir/src/main.c.obj
 *fill*         0x000000000003071e        0x2 
 .rodata.HardFault_Handler.str1.4
                0x0000000000030720        0xe CMakeFiles/51_dfu.dir/__/nrf_mesh_sdk.c.obj
 *fill*         0x000000000003072e        0x2 
 .rodata.app_error_handler.str1.4
                0x0000000000030730       0x1d CMakeFiles/51_dfu.dir/__/nrf_mesh_sdk.c.obj
 *fill*         0x000000000003074d        0x3 
 .rodata.mesh_assert_handler.str1.4
                0x0000000000030750       0x19 CMakeFiles/51_dfu.dir/__/nrf_mesh_sdk.c.obj
 *fill*         0x0000000000030769        0x3 
 .rodata.mesh_softdevice_enable.str1.4
                0x000000000003076c       0x65 CMakeFiles/51_dfu.dir/__/nrf_mesh_sdk.c.obj
 *fill*         0x00000000000307d1        0x3 
 .rodata.softdevice_assert_handler.str1.4
                0x00000000000307d4       0x65 CMakeFiles/51_dfu.dir/__/nrf_mesh_sdk.c.obj
 *fill*         0x0000000000030839        0x3 
 .rodata.m_flash_groups
                0x000000000003083c       0xc0 CMakeFiles/51_dfu.dir/__/__/mesh/src/access/device_state_manager.c.obj
 .rodata.m_cmd_handlers
                0x00000000000308fc       0x48 CMakeFiles/51_dfu.dir/__/__/mesh/src/serial/serial.c.obj
 .rodata.serial_process_cmd.str1.4
                0x0000000000030944       0x17 CMakeFiles/51_dfu.dir/__/__/mesh/src/serial/serial.c.obj
 *fill*         0x000000000003095b        0x1 
 .rodata.serial_start.str1.4
                0x000000000003095c       0x92 CMakeFiles/51_dfu.dir/__/__/mesh/src/serial/serial.c.obj
 *fill*         0x00000000000309ee        0x2 
 .rodata.m_cmd_handlers
                0x00000000000309f0       0xb0 CMakeFiles/51_dfu.dir/__/__/mesh/src/serial/serial_handler_access.c.obj
 .rodata.serial_handler_config_rx
                0x0000000000030aa0       0x54 CMakeFiles/51_dfu.dir/__/__/mesh/src/serial/serial_handler_config.c.obj
 .rodata.m_cmd_handlers
                0x0000000000030af4       0x48 CMakeFiles/51_dfu.dir/__/__/mesh/src/serial/serial_handler_device.c.obj
 .rodata.serial_handler_mesh_evt_handle
                0x0000000000030b3c       0x1c CMakeFiles/51_dfu.dir/__/__/mesh/src/serial/serial_handler_dfu.c.obj
 .rodata.serial_handler_dfu_rx
                0x0000000000030b58       0x1c CMakeFiles/51_dfu.dir/__/__/mesh/src/serial/serial_handler_dfu.c.obj
 .rodata.lengths.8474
                0x0000000000030b74        0x7 CMakeFiles/51_dfu.dir/__/__/mesh/src/serial/serial_handler_dfu.c.obj
 *fill*         0x0000000000030b7b        0x1 
 .rodata.m_handlers
                0x0000000000030b7c       0xe8 CMakeFiles/51_dfu.dir/__/__/mesh/src/serial/serial_handler_mesh.c.obj
 .rodata.m_cmd_handlers
                0x0000000000030c64       0x18 CMakeFiles/51_dfu.dir/__/__/mesh/src/serial/serial_handler_models.c.obj
 .rodata.serial_handler_prov_evt_in
                0x0000000000030c7c       0x2c CMakeFiles/51_dfu.dir/__/__/mesh/src/serial/serial_handler_prov.c.obj
 .rodata.serial_handler_prov_pkt_in
                0x0000000000030ca8       0x28 CMakeFiles/51_dfu.dir/__/__/mesh/src/serial/serial_handler_prov.c.obj
 .rodata.serial_handler_prov_init.str1.4
                0x0000000000030cd0       0x7a CMakeFiles/51_dfu.dir/__/__/mesh/src/serial/serial_handler_prov.c.obj
 *fill*         0x0000000000030d4a        0x2 
 .rodata.dfu_evt_handler
                0x0000000000030d4c      0x1c8 CMakeFiles/51_dfu.dir/__/__/mesh/src/dfu/nrf_mesh_dfu.c.obj
 .rodata.abort_timeout.str1.4
                0x0000000000030f14       0x19 CMakeFiles/51_dfu.dir/__/__/mesh/src/dfu/nrf_mesh_dfu.c.obj
 *fill*         0x0000000000030f2d        0x3 
 .rodata.dfu_evt_handler.str1.4
                0x0000000000030f30      0x1c0 CMakeFiles/51_dfu.dir/__/__/mesh/src/dfu/nrf_mesh_dfu.c.obj
 .rodata.flash_op_complete.str1.4
                0x00000000000310f0       0x3d CMakeFiles/51_dfu.dir/__/__/mesh/src/dfu/nrf_mesh_dfu.c.obj
 *fill*         0x000000000003112d        0x3 
 .rodata.nrf_mesh_dfu_cmd_send.str1.4
                0x0000000000031130       0x18 CMakeFiles/51_dfu.dir/__/__/mesh/src/dfu/nrf_mesh_dfu.c.obj
 .rodata.timer_timeout.str1.4
                0x0000000000031148       0x13 CMakeFiles/51_dfu.dir/__/__/mesh/src/dfu/nrf_mesh_dfu.c.obj
 *fill*         0x000000000003115b        0x1 
 .rodata.add_active_bearer.str1.4
                0x000000000003115c       0x2c ../../mesh/lib_51_MBTLE_PB_ADV_EE.a(prov_bearer_adv.c.obj)
 .rodata.crctable.8268
                0x0000000000031188      0x100 ../../mesh/lib_51_MBTLE_PB_ADV_EE.a(prov_bearer_adv.c.obj)
 .rodata.interface.8482
                0x0000000000031288       0x14 ../../mesh/lib_51_MBTLE_PB_ADV_EE.a(prov_bearer_adv.c.obj)
 .rodata.prov_bearer_adv_pkt_in.str1.4
                0x000000000003129c      0x283 ../../mesh/lib_51_MBTLE_PB_ADV_EE.a(prov_bearer_adv.c.obj)
 *fill*         0x000000000003151f        0x1 
 .rodata.tx_retry_cb.str1.4
                0x0000000000031520       0x64 ../../mesh/lib_51_MBTLE_PB_ADV_EE.a(prov_bearer_adv.c.obj)
 .rodata.alphanumeric.8393
                0x0000000000031584       0x25 ../../mesh/lib_51_MBTLE_PB_ADV_EE.a(prov_utils.c.obj)
 *fill*         0x00000000000315a9        0x3 
 .rodata.numeric_max.8387
                0x00000000000315ac       0x24 ../../mesh/lib_51_MBTLE_PB_ADV_EE.a(prov_utils.c.obj)
 .rodata.prov_utils_authentication_values_derive.str1.4
                0x00000000000315d0        0x5 ../../mesh/lib_51_MBTLE_PB_ADV_EE.a(prov_utils.c.obj)
 *fill*         0x00000000000315d5        0x3 
 .rodata.prov_utils_derive_keys.str1.4
                0x00000000000315d8       0x15 ../../mesh/lib_51_MBTLE_PB_ADV_EE.a(prov_utils.c.obj)
 *fill*         0x00000000000315ed        0x3 
 .rodata.prov_provisionee_cb_ack_received
                0x00000000000315f0       0x50 ../../mesh/lib_51_MBTLE_PB_ADV_EE.a(prov_provisionee.c.obj)
 .rodata.prov_provisionee_pkt_in
                0x0000000000031640       0x28 ../../mesh/lib_51_MBTLE_PB_ADV_EE.a(prov_provisionee.c.obj)
 .rodata.m_prov_callbacks
                0x0000000000031668       0x10 ../../mesh/lib_51_MBTLE_PB_ADV_EE.a(prov_provisionee.c.obj)
 .rodata.prov_provisionee_cb_ack_received.str1.4
                0x0000000000031678       0x7f ../../mesh/lib_51_MBTLE_PB_ADV_EE.a(prov_provisionee.c.obj)
 *fill*         0x00000000000316f7        0x1 
 .rodata.pdu_sizes.8302
                0x00000000000316f8        0xa ../../mesh/lib_51_MBTLE_PB_ADV_EE.a(provisioning.c.obj)
 *fill*         0x0000000000031702        0x2 
 .rodata.prov_cb_pkt_in.str1.4
                0x0000000000031704       0x60 ../../mesh/lib_51_MBTLE_PB_ADV_EE.a(provisioning.c.obj)
 .rodata.prov_provisioner_pkt_in
                0x0000000000031764       0x28 ../../mesh/lib_51_MBTLE_PB_ADV_ER.a(prov_provisioner.c.obj)
 .rodata.m_prov_callbacks
                0x000000000003178c       0x10 ../../mesh/lib_51_MBTLE_PB_ADV_ER.a(prov_provisioner.c.obj)
 .rodata        0x000000000003179c       0x14 ../../mesh/lib_51_MBTLE_CORE.a(bearer_adv.c.obj)
 .rodata.bearer_adv_advertiser_init.str1.4
                0x00000000000317b0       0x39 ../../mesh/lib_51_MBTLE_CORE.a(bearer_adv.c.obj)
 *fill*         0x00000000000317e9        0x3 
 .rodata.bearer_adv_init.str1.4
                0x00000000000317ec       0x1d ../../mesh/lib_51_MBTLE_CORE.a(bearer_adv.c.obj)
 *fill*         0x0000000000031809        0x3 
 .rodata.scan_order.str1.4
                0x000000000003180c       0x86 ../../mesh/lib_51_MBTLE_CORE.a(bearer_adv.c.obj)
 *fill*         0x0000000000031892        0x2 
 .rodata.beacon_pkt_in.str1.4
                0x0000000000031894       0x8c ../../mesh/lib_51_MBTLE_CORE.a(beacon.c.obj)
 .rodata        0x0000000000031920       0x1c ../../mesh/lib_51_MBTLE_CORE.a(bearer.c.obj)
 .rodata.bearer_rx_cb.str1.4
                0x000000000003193c       0x76 ../../mesh/lib_51_MBTLE_CORE.a(bearer.c.obj)
 *fill*         0x00000000000319b2        0x2 
 .rodata        0x00000000000319b4       0x18 ../../mesh/lib_51_MBTLE_CORE.a(enc.c.obj)
 .rodata.log_callback_rtt.str1.4
                0x00000000000319cc       0x15 ../../mesh/lib_51_MBTLE_CORE.a(log.c.obj)
 *fill*         0x00000000000319e1        0x3 
 .rodata.str1.4
                0x00000000000319e4       0x11 ../../mesh/lib_51_MBTLE_CORE.a(log.c.obj)
 *fill*         0x00000000000319f5        0x3 
 .rodata.net_beacon_init.str1.4
                0x00000000000319f8        0x5 ../../mesh/lib_51_MBTLE_CORE.a(net_beacon.c.obj)
 *fill*         0x00000000000319fd        0x3 
 .rodata.nrf_mesh_adv_send.str1.4
                0x0000000000031a00       0x78 ../../mesh/lib_51_MBTLE_CORE.a(nrf_mesh.c.obj)
 .rodata.nrf_mesh_process.str1.4
                0x0000000000031a78       0x76 ../../mesh/lib_51_MBTLE_CORE.a(nrf_mesh.c.obj)
 *fill*         0x0000000000031aee        0x2 
 .rodata        0x0000000000031af0        0x7 ../../mesh/lib_51_MBTLE_CORE.a(nrf_mesh_keygen.c.obj)
 *fill*         0x0000000000031af7        0x1 
 .rodata.types_lookup.6530
                0x0000000000031af8        0x4 ../../mesh/lib_51_MBTLE_CORE.a(nrf_mesh_utils.c.obj)
 .rodata.channel_rf_offsets.6165
                0x0000000000031afc       0x28 ../../mesh/lib_51_MBTLE_CORE.a(radio_config.c.obj)
 .rodata.sar_segment_send.str1.4
                0x0000000000031b24       0x39 ../../mesh/lib_51_MBTLE_CORE.a(transport.c.obj)
 *fill*         0x0000000000031b5d        0x3 
 .rodata.test_transport_decrypt.str1.4
                0x0000000000031b60       0x5f ../../mesh/lib_51_MBTLE_CORE.a(transport.c.obj)
 *fill*         0x0000000000031bbf        0x1 
 .rodata.transport_pkt_in.str1.4
                0x0000000000031bc0      0x1b0 ../../mesh/lib_51_MBTLE_CORE.a(transport.c.obj)
 .rodata.transport_sar_process.str1.4
                0x0000000000031d70       0xbb ../../mesh/lib_51_MBTLE_CORE.a(transport.c.obj)
 *fill*         0x0000000000031e2b        0x1 
 .rodata.transport_tx.str1.4
                0x0000000000031e2c       0x30 ../../mesh/lib_51_MBTLE_CORE.a(transport.c.obj)
 .rodata.transport_tx_sar.str1.4
                0x0000000000031e5c       0x99 ../../mesh/lib_51_MBTLE_CORE.a(transport.c.obj)
 *fill*         0x0000000000031ef5        0x3 
 .rodata.trs_sar_drop_session.str1.4
                0x0000000000031ef8       0x18 ../../mesh/lib_51_MBTLE_CORE.a(transport.c.obj)
                                         0x48 (size before relaxing)
 .rodata.trs_sar_pkt_decrypt.str1.4
                0x0000000000031f10       0x61 ../../mesh/lib_51_MBTLE_CORE.a(transport.c.obj)
                                         0x69 (size before relaxing)
 *fill*         0x0000000000031f71        0x3 
 .rodata.trs_sar_session_cb.str1.4
                0x0000000000031f74       0x1b ../../mesh/lib_51_MBTLE_CORE.a(transport.c.obj)
 *fill*         0x0000000000031f8f        0x1 
 .rodata.m_all_operations
                0x0000000000031f90       0x10 ../../mesh/lib_51_MBTLE_CORE.a(mesh_flash.c.obj)
 .rodata.process_action_queue
                0x0000000000031fa0       0x14 ../../mesh/lib_51_MBTLE_CORE.a(flash_manager.c.obj)
 .rodata.INVALID_HEADER
                0x0000000000031fb4        0x4 ../../mesh/lib_51_MBTLE_CORE.a(flash_manager.c.obj)
                0x0000000000031fb4                INVALID_HEADER
 .rodata.PADDING_HEADER
                0x0000000000031fb8        0x4 ../../mesh/lib_51_MBTLE_CORE.a(flash_manager.c.obj)
                0x0000000000031fb8                PADDING_HEADER
 .rodata.SEAL_HEADER
                0x0000000000031fbc        0x4 ../../mesh/lib_51_MBTLE_CORE.a(flash_manager.c.obj)
                0x0000000000031fbc                SEAL_HEADER
 .rodata.process_action_queue.str1.4
                0x0000000000031fc0       0x4d ../../mesh/lib_51_MBTLE_CORE.a(flash_manager.c.obj)
                                         0x7e (size before relaxing)
 *fill*         0x000000000003200d        0x3 
 .rodata.flash_manager_defrag.str1.4
                0x0000000000032010       0x54 ../../mesh/lib_51_MBTLE_CORE.a(flash_manager_defrag.c.obj)
                                         0x82 (size before relaxing)
 .rodata.m_procedure_steps
                0x0000000000032064       0x28 ../../mesh/lib_51_MBTLE_CORE.a(flash_manager_defrag.c.obj)
 .rodata.timeslot_init
                0x000000000003208c       0x20 ../../mesh/lib_51_MBTLE_CORE.a(timeslot.c.obj)
 .rodata.radio_signal_callback
                0x00000000000320ac       0x14 ../../mesh/lib_51_MBTLE_CORE.a(timeslot.c.obj)
 .rodata.Rb.5041
                0x00000000000320c0       0x10 ../../mesh/lib_51_MBTLE_CORE.a(aes_cmac.c.obj)
 .rodata.network_pkt_in.str1.4
                0x00000000000320d0       0x13 ../../mesh/lib_51_MBTLE_CORE.a(network.c.obj)
                                         0x1c (size before relaxing)
 *fill*         0x00000000000320e3        0x1 
 .rodata.network_pkt_out.str1.4
                0x00000000000320e4       0x25 ../../mesh/lib_51_MBTLE_CORE.a(network.c.obj)
 *fill*         0x0000000000032109        0x3 
 .rodata.network_pkt_relay.str1.4
                0x000000000003210c       0x75 ../../mesh/lib_51_MBTLE_CORE.a(network.c.obj)
                                         0xa6 (size before relaxing)
 *fill*         0x0000000000032181        0x3 
 .rodata._DoInit.str1.4
                0x0000000000032184       0x18 ../../lib/rtt/lib_51_RTT_LIB.a(SEGGER_RTT.c.obj)
                                         0x17 (size before relaxing)
 .rodata._aV2C.4378
                0x000000000003219c       0x10 ../../lib/rtt/lib_51_RTT_LIB.a(SEGGER_RTT_printf.c.obj)
 .rodata.curve_secp256r1
                0x00000000000321ac       0xb0 ../../lib/micro-ecc/lib_51_UECC_LIB.a(uECC.c.obj)
 .rodata._global_impure_ptr
                0x000000000003225c        0x4 /usr/bin/../lib/gcc/arm-none-eabi/6.3.1/../../../../arm-none-eabi/lib/thumb/v6-m/libg_nano.a(lib_a-impure.o)
                0x000000000003225c                _global_impure_ptr
 *(.eh_frame*)
 .eh_frame      0x0000000000032260        0x0 /usr/bin/../lib/gcc/arm-none-eabi/6.3.1/thumb/v6-m/crtbegin.o
 .eh_frame      0x0000000000032260        0x4 /usr/bin/../lib/gcc/arm-none-eabi/6.3.1/thumb/v6-m/crtend.o

.glue_7         0x0000000000032264        0x0
 .glue_7        0x0000000000032264        0x0 linker stubs

.glue_7t        0x0000000000032264        0x0
 .glue_7t       0x0000000000032264        0x0 linker stubs

.vfp11_veneer   0x0000000000032264        0x0
 .vfp11_veneer  0x0000000000032264        0x0 linker stubs

.v4_bx          0x0000000000032264        0x0
 .v4_bx         0x0000000000032264        0x0 linker stubs

.iplt           0x0000000000032264        0x0
 .iplt          0x0000000000032264        0x0 /usr/bin/../lib/gcc/arm-none-eabi/6.3.1/thumb/v6-m/crtbegin.o

.ARM.extab
 *(.ARM.extab* .gnu.linkonce.armextab.*)
                0x0000000000032264                __exidx_start = .

.ARM.exidx      0x0000000000032264        0x8
 *(.ARM.exidx* .gnu.linkonce.armexidx.*)
 .ARM.exidx     0x0000000000032264        0x8 /usr/bin/../lib/gcc/arm-none-eabi/6.3.1/../../../../arm-none-eabi/lib/thumb/v6-m/crt0.o
                0x000000000003226c                __exidx_end = .
                0x000000000003226c                __etext = .

.rel.dyn        0x000000000003226c        0x0
 .rel.iplt      0x000000000003226c        0x0 /usr/bin/../lib/gcc/arm-none-eabi/6.3.1/thumb/v6-m/crtbegin.o

.data           0x00000000200022d8      0x118 load address 0x000000000003226c
                0x00000000200022d8                __data_start__ = .
 *(vtable)
 *(.data*)
 .data.rom_base
                0x00000000200022d8        0x4 CMakeFiles/51_dfu.dir/src/main.c.obj
                0x00000000200022d8                rom_base
 .data.rom_end  0x00000000200022dc        0x4 CMakeFiles/51_dfu.dir/src/main.c.obj
                0x00000000200022dc                rom_end
 .data.flash_clear_mem_available_struct.8012
                0x00000000200022e0       0x10 CMakeFiles/51_dfu.dir/__/__/mesh/src/access/access.c.obj
 .data.flash_store_mem_available_struct.8036
                0x00000000200022f0       0x10 CMakeFiles/51_dfu.dir/__/__/mesh/src/access/access.c.obj
 .data.mem_listener.8178
                0x0000000020002300       0x10 CMakeFiles/51_dfu.dir/__/__/mesh/src/access/device_state_manager.c.obj
 .data.m_unprov_report
                0x0000000020002310        0x1 ../../mesh/lib_51_MBTLE_PB_ADV_EE.a(prov_beacon.c.obj)
 .data.m_radio_state
                0x0000000020002311        0x1 ../../mesh/lib_51_MBTLE_CORE.a(radio.c.obj)
 *fill*         0x0000000020002312        0x2 
 .data.g_log_debug_level
                0x0000000020002314        0x4 ../../mesh/lib_51_MBTLE_CORE.a(log.c.obj)
                0x0000000020002314                g_log_debug_level
 .data.g_log_debug_msk
                0x0000000020002318        0x4 ../../mesh/lib_51_MBTLE_CORE.a(log.c.obj)
                0x0000000020002318                g_log_debug_msk
 .data.g_log_hex_digits
                0x000000002000231c        0x4 ../../mesh/lib_51_MBTLE_CORE.a(log.c.obj)
                0x000000002000231c                g_log_hex_digits
 .data.m_log_callback
                0x0000000020002320        0x4 ../../mesh/lib_51_MBTLE_CORE.a(log.c.obj)
                0x0000000020002320                m_log_callback
 .data.mem_listener.7415
                0x0000000020002324       0x10 ../../mesh/lib_51_MBTLE_CORE.a(net_state.c.obj)
 .data.mem_listener.7420
                0x0000000020002334       0x10 ../../mesh/lib_51_MBTLE_CORE.a(net_state.c.obj)
 .data.mem_listener.7434
                0x0000000020002344       0x10 ../../mesh/lib_51_MBTLE_CORE.a(net_state.c.obj)
 .data.mem_listener.7451
                0x0000000020002354       0x10 ../../mesh/lib_51_MBTLE_CORE.a(net_state.c.obj)
 .data.m_lfclk_ppm
                0x0000000020002364        0x4 ../../mesh/lib_51_MBTLE_CORE.a(timeslot.c.obj)
 .data.m_negotiate_timeslot_length
                0x0000000020002368        0x4 ../../mesh/lib_51_MBTLE_CORE.a(timeslot.c.obj)
 .data.m_radio_request_earliest
                0x000000002000236c       0x10 ../../mesh/lib_51_MBTLE_CORE.a(timeslot.c.obj)
 .data.g_rng_function
                0x000000002000237c        0x4 ../../lib/micro-ecc/lib_51_UECC_LIB.a(uECC.c.obj)
 .data._impure_ptr
                0x0000000020002380        0x4 /usr/bin/../lib/gcc/arm-none-eabi/6.3.1/../../../../arm-none-eabi/lib/thumb/v6-m/libg_nano.a(lib_a-impure.o)
                0x0000000020002380                _impure_ptr
 .data.impure_data
                0x0000000020002384       0x60 /usr/bin/../lib/gcc/arm-none-eabi/6.3.1/../../../../arm-none-eabi/lib/thumb/v6-m/libg_nano.a(lib_a-impure.o)
                0x00000000200023e4                . = ALIGN (0x4)
                0x00000000200023e4                PROVIDE (__preinit_array_start, .)
 *(.preinit_array)
                0x00000000200023e4                PROVIDE (__preinit_array_end, .)
                0x00000000200023e4                . = ALIGN (0x4)
                0x00000000200023e4                PROVIDE (__init_array_start, .)
 *(SORT(.init_array.*))
 *(.init_array)
 .init_array    0x00000000200023e4        0x4 /usr/bin/../lib/gcc/arm-none-eabi/6.3.1/thumb/v6-m/crtbegin.o
                0x00000000200023e8                PROVIDE (__init_array_end, .)
                0x00000000200023e8                . = ALIGN (0x4)
                [!provide]                        PROVIDE (__fini_array_start, .)
 *(SORT(.fini_array.*))
 *(.fini_array)
 .fini_array    0x00000000200023e8        0x4 /usr/bin/../lib/gcc/arm-none-eabi/6.3.1/thumb/v6-m/crtbegin.o
                [!provide]                        PROVIDE (__fini_array_end, .)
 *(.jcr*)
 .jcr           0x00000000200023ec        0x0 /usr/bin/../lib/gcc/arm-none-eabi/6.3.1/thumb/v6-m/crtbegin.o
 .jcr           0x00000000200023ec        0x4 /usr/bin/../lib/gcc/arm-none-eabi/6.3.1/thumb/v6-m/crtend.o
                0x00000000200023f0                . = ALIGN (0x4)
                0x00000000200023f0                __data_end__ = .

.igot.plt       0x00000000200023f0        0x0 load address 0x0000000000032384
 .igot.plt      0x00000000200023f0        0x0 /usr/bin/../lib/gcc/arm-none-eabi/6.3.1/thumb/v6-m/crtbegin.o

.bss            0x00000000200023f0     0x31fc load address 0x0000000000032388
                0x00000000200023f0                . = ALIGN (0x4)
                0x00000000200023f0                __bss_start__ = .
 *(.bss*)
 .bss           0x00000000200023f0       0x1c /usr/bin/../lib/gcc/arm-none-eabi/6.3.1/thumb/v6-m/crtbegin.o
 .bss.m_evt_handler
                0x000000002000240c        0x8 CMakeFiles/51_dfu.dir/src/main.c.obj
 .bss.m_ble_evt_buffer
                0x0000000020002414       0x47 CMakeFiles/51_dfu.dir/__/nrf_mesh_sdk.c.obj
 *fill*         0x000000002000245b        0x1 
 .bss.m_element_pool
                0x000000002000245c        0x6 CMakeFiles/51_dfu.dir/__/__/mesh/src/access/access.c.obj
 *fill*         0x0000000020002462        0x2 
 .bss.m_flash_manager
                0x0000000020002464       0x24 CMakeFiles/51_dfu.dir/__/__/mesh/src/access/access.c.obj
 .bss.m_flash_not_ready
                0x0000000020002488        0x1 CMakeFiles/51_dfu.dir/__/__/mesh/src/access/access.c.obj
 .bss.m_metadata_stored
                0x0000000020002489        0x1 CMakeFiles/51_dfu.dir/__/__/mesh/src/access/access.c.obj
 *fill*         0x000000002000248a        0x2 
 .bss.m_model_pool
                0x000000002000248c       0x34 CMakeFiles/51_dfu.dir/__/__/mesh/src/access/access.c.obj
 .bss.m_subscription_list_pool
                0x00000000200024c0        0x8 CMakeFiles/51_dfu.dir/__/__/mesh/src/access/access.c.obj
 .bss.m_publish_timer
                0x00000000200024c8       0x18 CMakeFiles/51_dfu.dir/__/__/mesh/src/access/access_publish.c.obj
 .bss.m_publish_timer_counter
                0x00000000200024e0        0x4 CMakeFiles/51_dfu.dir/__/__/mesh/src/access/access_publish.c.obj
 .bss.m_publish_timer_running
                0x00000000200024e4        0x1 CMakeFiles/51_dfu.dir/__/__/mesh/src/access/access_publish.c.obj
 .bss.m_timer_resolution
                0x00000000200024e5        0x1 CMakeFiles/51_dfu.dir/__/__/mesh/src/access/access_publish.c.obj
 *fill*         0x00000000200024e6        0x2 
 .bss.mp_publication_list
                0x00000000200024e8        0x4 CMakeFiles/51_dfu.dir/__/__/mesh/src/access/access_publish.c.obj
 .bss.m_reliable
                0x00000000200024ec       0x44 CMakeFiles/51_dfu.dir/__/__/mesh/src/access/access_reliable.c.obj
 .bss.m_addr_nonvirtual_allocated
                0x0000000020002530        0x4 CMakeFiles/51_dfu.dir/__/__/mesh/src/access/device_state_manager.c.obj
 .bss.m_addr_nonvirtual_needs_flashing
                0x0000000020002534        0x4 CMakeFiles/51_dfu.dir/__/__/mesh/src/access/device_state_manager.c.obj
 .bss.m_addr_unicast_allocated
                0x0000000020002538        0x4 CMakeFiles/51_dfu.dir/__/__/mesh/src/access/device_state_manager.c.obj
 .bss.m_addr_unicast_needs_flashing
                0x000000002000253c        0x4 CMakeFiles/51_dfu.dir/__/__/mesh/src/access/device_state_manager.c.obj
 .bss.m_addr_virtual_allocated
                0x0000000020002540        0x4 CMakeFiles/51_dfu.dir/__/__/mesh/src/access/device_state_manager.c.obj
 .bss.m_addr_virtual_needs_flashing
                0x0000000020002544        0x4 CMakeFiles/51_dfu.dir/__/__/mesh/src/access/device_state_manager.c.obj
 .bss.m_addresses
                0x0000000020002548       0x40 CMakeFiles/51_dfu.dir/__/__/mesh/src/access/device_state_manager.c.obj
 .bss.m_appkey_allocated
                0x0000000020002588        0x4 CMakeFiles/51_dfu.dir/__/__/mesh/src/access/device_state_manager.c.obj
 .bss.m_appkey_needs_flashing
                0x000000002000258c        0x4 CMakeFiles/51_dfu.dir/__/__/mesh/src/access/device_state_manager.c.obj
 .bss.m_appkeys
                0x0000000020002590       0xb0 CMakeFiles/51_dfu.dir/__/__/mesh/src/access/device_state_manager.c.obj
 .bss.m_devkey_allocated
                0x0000000020002640        0x4 CMakeFiles/51_dfu.dir/__/__/mesh/src/access/device_state_manager.c.obj
 .bss.m_devkey_needs_flashing
                0x0000000020002644        0x4 CMakeFiles/51_dfu.dir/__/__/mesh/src/access/device_state_manager.c.obj
 .bss.m_devkeys
                0x0000000020002648       0x16 CMakeFiles/51_dfu.dir/__/__/mesh/src/access/device_state_manager.c.obj
 .bss.m_flash_is_available
                0x000000002000265e        0x1 CMakeFiles/51_dfu.dir/__/__/mesh/src/access/device_state_manager.c.obj
 *fill*         0x000000002000265f        0x1 
 .bss.m_flash_manager
                0x0000000020002660       0x24 CMakeFiles/51_dfu.dir/__/__/mesh/src/access/device_state_manager.c.obj
 .bss.m_flash_mem_listener_update_all
                0x0000000020002684       0x10 CMakeFiles/51_dfu.dir/__/__/mesh/src/access/device_state_manager.c.obj
 .bss.m_has_primary_subnet
                0x0000000020002694        0x1 CMakeFiles/51_dfu.dir/__/__/mesh/src/access/device_state_manager.c.obj
 *fill*         0x0000000020002695        0x3 
 .bss.m_local_unicast_addr
                0x0000000020002698        0x4 CMakeFiles/51_dfu.dir/__/__/mesh/src/access/device_state_manager.c.obj
 .bss.m_subnet_allocated
                0x000000002000269c        0x4 CMakeFiles/51_dfu.dir/__/__/mesh/src/access/device_state_manager.c.obj
 .bss.m_subnet_needs_flashing
                0x00000000200026a0        0x4 CMakeFiles/51_dfu.dir/__/__/mesh/src/access/device_state_manager.c.obj
 .bss.m_subnets
                0x00000000200026a4      0x170 CMakeFiles/51_dfu.dir/__/__/mesh/src/access/device_state_manager.c.obj
 .bss.m_virtual_addresses
                0x0000000020002814       0xa0 CMakeFiles/51_dfu.dir/__/__/mesh/src/access/device_state_manager.c.obj
 .bss.m_cmd_handler_scheduled
                0x00000000200028b4        0x1 CMakeFiles/51_dfu.dir/__/__/mesh/src/serial/serial.c.obj
 .bss.m_state   0x00000000200028b5        0x1 CMakeFiles/51_dfu.dir/__/__/mesh/src/serial/serial.c.obj
 .bss.m_cur_tx_packet_index
                0x00000000200028b6        0x2 CMakeFiles/51_dfu.dir/__/__/mesh/src/serial/serial_bearer.c.obj
 .bss.m_event_flag
                0x00000000200028b8        0x4 CMakeFiles/51_dfu.dir/__/__/mesh/src/serial/serial_bearer.c.obj
 .bss.m_rx_buffer
                0x00000000200028bc       0x68 CMakeFiles/51_dfu.dir/__/__/mesh/src/serial/serial_bearer.c.obj
 .bss.m_rx_packet_buf
                0x0000000020002924        0xc CMakeFiles/51_dfu.dir/__/__/mesh/src/serial/serial_bearer.c.obj
 .bss.m_serial_state
                0x0000000020002930        0x1 CMakeFiles/51_dfu.dir/__/__/mesh/src/serial/serial_bearer.c.obj
 *fill*         0x0000000020002931        0x1 
 .bss.m_stored_pac_len
                0x0000000020002932        0x2 CMakeFiles/51_dfu.dir/__/__/mesh/src/serial/serial_bearer.c.obj
 .bss.m_tx_buffer
                0x0000000020002934       0x68 CMakeFiles/51_dfu.dir/__/__/mesh/src/serial/serial_bearer.c.obj
 .bss.m_tx_packet_buf
                0x000000002000299c        0xc CMakeFiles/51_dfu.dir/__/__/mesh/src/serial/serial_bearer.c.obj
 .bss.mp_current_rx_packet
                0x00000000200029a8        0x4 CMakeFiles/51_dfu.dir/__/__/mesh/src/serial/serial_bearer.c.obj
 .bss.mp_current_tx_packet
                0x00000000200029ac        0x4 CMakeFiles/51_dfu.dir/__/__/mesh/src/serial/serial_bearer.c.obj
 .bss.rx_index.7965
                0x00000000200029b0        0x2 CMakeFiles/51_dfu.dir/__/__/mesh/src/serial/serial_bearer.c.obj
 *fill*         0x00000000200029b2        0x2 
 .bss.m_app_rx_cb
                0x00000000200029b4        0x4 CMakeFiles/51_dfu.dir/__/__/mesh/src/serial/serial_handler_app.c.obj
 .bss.m_beacons
                0x00000000200029b8       0xe4 CMakeFiles/51_dfu.dir/__/__/mesh/src/serial/serial_handler_device.c.obj
 .bss.m_evt_handler
                0x0000000020002a9c        0x8 CMakeFiles/51_dfu.dir/__/__/mesh/src/serial/serial_handler_dfu.c.obj
 .bss.m_evt_handler
                0x0000000020002aa4        0x8 CMakeFiles/51_dfu.dir/__/__/mesh/src/serial/serial_handler_mesh.c.obj
 .bss.p_serial_evt.8172
                0x0000000020002aac        0x4 CMakeFiles/51_dfu.dir/__/__/mesh/src/serial/serial_handler_mesh.c.obj
 .bss.m_models_list
                0x0000000020002ab0        0xc CMakeFiles/51_dfu.dir/__/__/mesh/src/serial/serial_handler_models.c.obj
 .bss.m_mesh_evt_handler
                0x0000000020002abc        0x8 CMakeFiles/51_dfu.dir/__/__/mesh/src/serial/serial_handler_prov.c.obj
 .bss.m_private_key
                0x0000000020002ac4       0x20 CMakeFiles/51_dfu.dir/__/__/mesh/src/serial/serial_handler_prov.c.obj
 .bss.m_prov_contexts
                0x0000000020002ae4      0x580 CMakeFiles/51_dfu.dir/__/__/mesh/src/serial/serial_handler_prov.c.obj
 .bss.m_provisioning_caps
                0x0000000020003064        0xb CMakeFiles/51_dfu.dir/__/__/mesh/src/serial/serial_handler_prov.c.obj
 *fill*         0x000000002000306f        0x1 
 .bss.m_public_key
                0x0000000020003070       0x40 CMakeFiles/51_dfu.dir/__/__/mesh/src/serial/serial_handler_prov.c.obj
 .bss.m_scanning_running
                0x00000000200030b0        0x1 CMakeFiles/51_dfu.dir/__/__/mesh/src/serial/serial_handler_prov.c.obj
 .bss.m_can_receive
                0x00000000200030b1        0x1 CMakeFiles/51_dfu.dir/__/__/mesh/src/serial/serial_uart.c.obj
 *fill*         0x00000000200030b2        0x2 
 .bss.m_char_rx_cb
                0x00000000200030b4        0x4 CMakeFiles/51_dfu.dir/__/__/mesh/src/serial/serial_uart.c.obj
 .bss.m_char_tx_cb
                0x00000000200030b8        0x4 CMakeFiles/51_dfu.dir/__/__/mesh/src/serial/serial_uart.c.obj
 .bss.m_prng    0x00000000200030bc       0x10 CMakeFiles/51_dfu.dir/__/__/mesh/src/dfu/nrf_mesh_dfu.c.obj
 .bss.m_timer_evt
                0x00000000200030cc       0x18 CMakeFiles/51_dfu.dir/__/__/mesh/src/dfu/nrf_mesh_dfu.c.obj
 .bss.m_transfer_state
                0x00000000200030e4       0x12 CMakeFiles/51_dfu.dir/__/__/mesh/src/dfu/nrf_mesh_dfu.c.obj
 *fill*         0x00000000200030f6        0x2 
 .bss.m_tx_slots
                0x00000000200030f8      0x120 CMakeFiles/51_dfu.dir/__/__/mesh/src/dfu/nrf_mesh_dfu.c.obj
 .bss.m_tx_timer_evt
                0x0000000020003218       0x18 CMakeFiles/51_dfu.dir/__/__/mesh/src/dfu/nrf_mesh_dfu.c.obj
 .bss.mp_curr_fwid
                0x0000000020003230        0x4 CMakeFiles/51_dfu.dir/__/__/mesh/src/dfu/nrf_mesh_dfu.c.obj
 .bss.mp_bearer_head
                0x0000000020003234        0x4 ../../mesh/lib_51_MBTLE_PB_ADV_EE.a(prov_bearer_adv.c.obj)
 .bss.m_offload_ecdh
                0x0000000020003238        0x1 ../../mesh/lib_51_MBTLE_PB_ADV_EE.a(prov_utils.c.obj)
 *fill*         0x0000000020003239        0x3 
 .bss.m_default_gap_addr
                0x000000002000323c        0x7 ../../mesh/lib_51_MBTLE_CORE.a(bearer_adv.c.obj)
 .bss.m_is_scanning
                0x0000000020003243        0x1 ../../mesh/lib_51_MBTLE_CORE.a(bearer_adv.c.obj)
 .bss.m_scan_ch
                0x0000000020003244        0x1 ../../mesh/lib_51_MBTLE_CORE.a(bearer_adv.c.obj)
 *fill*         0x0000000020003245        0x3 
 .bss.m_scan_config
                0x0000000020003248        0xc ../../mesh/lib_51_MBTLE_CORE.a(bearer_adv.c.obj)
 .bss.m_scan_evt
                0x0000000020003254       0x18 ../../mesh/lib_51_MBTLE_CORE.a(bearer_adv.c.obj)
 .bss.m_scan_window_end_evt
                0x000000002000326c       0x18 ../../mesh/lib_51_MBTLE_CORE.a(bearer_adv.c.obj)
 .bss.m_pool    0x0000000020003284     0x1000 ../../mesh/lib_51_MBTLE_CORE.a(packet_mgr.c.obj)
 .bss.mp_free_head
                0x0000000020004284        0x4 ../../mesh/lib_51_MBTLE_CORE.a(packet_mgr.c.obj)
 .bss.m_idle_cb
                0x0000000020004288        0x4 ../../mesh/lib_51_MBTLE_CORE.a(radio.c.obj)
 .bss.m_radio_config
                0x000000002000428c        0x8 ../../mesh/lib_51_MBTLE_CORE.a(radio.c.obj)
 .bss.m_radio_fifo
                0x0000000020004294       0x14 ../../mesh/lib_51_MBTLE_CORE.a(radio.c.obj)
 .bss.m_radio_fifo_queue
                0x00000000200042a8       0x60 ../../mesh/lib_51_MBTLE_CORE.a(radio.c.obj)
 .bss.m_rx_cb   0x0000000020004308        0x4 ../../mesh/lib_51_MBTLE_CORE.a(radio.c.obj)
 .bss.m_tx_cb   0x000000002000430c        0x4 ../../mesh/lib_51_MBTLE_CORE.a(radio.c.obj)
 .bss.s_fifo_reserved.6682
                0x0000000020004310        0x4 ../../mesh/lib_51_MBTLE_CORE.a(radio.c.obj)
 .bss.m_attributes
                0x0000000020004314        0x3 ../../mesh/lib_51_MBTLE_CORE.a(timer.c.obj)
 *fill*         0x0000000020004317        0x1 
 .bss.m_callbacks
                0x0000000020004318        0xc ../../mesh/lib_51_MBTLE_CORE.a(timer.c.obj)
 .bss.m_is_in_ts
                0x0000000020004324        0x1 ../../mesh/lib_51_MBTLE_CORE.a(timer.c.obj)
 *fill*         0x0000000020004325        0x3 
 .bss.m_reference_time
                0x0000000020004328        0x4 ../../mesh/lib_51_MBTLE_CORE.a(timer.c.obj)
 .bss.m_timeouts
                0x000000002000432c        0xc ../../mesh/lib_51_MBTLE_CORE.a(timer.c.obj)
 .bss.m_timer_mut
                0x0000000020004338        0x4 ../../mesh/lib_51_MBTLE_CORE.a(timer.c.obj)
 .bss.m_ts_end_time
                0x000000002000433c        0x4 ../../mesh/lib_51_MBTLE_CORE.a(timer.c.obj)
 .bss.mp_ppi_tasks
                0x0000000020004340        0xc ../../mesh/lib_51_MBTLE_CORE.a(timer.c.obj)
 .bss.m_event_flag
                0x000000002000434c        0x4 ../../mesh/lib_51_MBTLE_CORE.a(timer_scheduler.c.obj)
 .bss.m_scheduler
                0x0000000020004350       0x10 ../../mesh/lib_51_MBTLE_CORE.a(timer_scheduler.c.obj)
 .bss.m_advertiser
                0x0000000020004360       0xe0 ../../mesh/lib_51_MBTLE_CORE.a(beacon.c.obj)
 .bss.m_addr_filter
                0x0000000020004440        0x8 ../../mesh/lib_51_MBTLE_CORE.a(bearer.c.obj)
 .bss.m_adtype_filter
                0x0000000020004448       0x20 ../../mesh/lib_51_MBTLE_CORE.a(bearer.c.obj)
 .bss.m_adtype_filtering
                0x0000000020004468        0x1 ../../mesh/lib_51_MBTLE_CORE.a(bearer.c.obj)
 *fill*         0x0000000020004469        0x3 
 .bss.m_regular_advertiser
                0x000000002000446c       0xe0 ../../mesh/lib_51_MBTLE_CORE.a(bearer.c.obj)
 .bss.m_rx_fifo
                0x000000002000454c       0x14 ../../mesh/lib_51_MBTLE_CORE.a(bearer.c.obj)
 .bss.m_rx_fifo_buffer
                0x0000000020004560       0xa0 ../../mesh/lib_51_MBTLE_CORE.a(bearer.c.obj)
 .bss.packets_accepted
                0x0000000020004600        0x4 ../../mesh/lib_51_MBTLE_CORE.a(bearer.c.obj)
 .bss.packets_dropped_invalid_addr
                0x0000000020004604        0x4 ../../mesh/lib_51_MBTLE_CORE.a(bearer.c.obj)
 .bss.packets_dropped_invalid_adtype
                0x0000000020004608        0x4 ../../mesh/lib_51_MBTLE_CORE.a(bearer.c.obj)
 .bss.packets_dropped_invalid_length
                0x000000002000460c        0x4 ../../mesh/lib_51_MBTLE_CORE.a(bearer.c.obj)
 .bss.m_bearer_event_fifo
                0x0000000020004610       0x14 ../../mesh/lib_51_MBTLE_CORE.a(bearer_event.c.obj)
 .bss.m_bearer_event_fifo_buffer
                0x0000000020004624      0x100 ../../mesh/lib_51_MBTLE_CORE.a(bearer_event.c.obj)
 .bss.m_critical
                0x0000000020004724        0x4 ../../mesh/lib_51_MBTLE_CORE.a(bearer_event.c.obj)
 .bss.m_flag_count
                0x0000000020004728        0x4 ../../mesh/lib_51_MBTLE_CORE.a(bearer_event.c.obj)
 .bss.m_flag_event_callbacks
                0x000000002000472c       0x10 ../../mesh/lib_51_MBTLE_CORE.a(bearer_event.c.obj)
 .bss.m_flags   0x000000002000473c        0x4 ../../mesh/lib_51_MBTLE_CORE.a(bearer_event.c.obj)
 .bss.m_uuid    0x0000000020004740       0x10 ../../mesh/lib_51_MBTLE_CORE.a(nrf_mesh_configure.c.obj)
 .bss.mp_evt_handlers_head
                0x0000000020004750        0x4 ../../mesh/lib_51_MBTLE_CORE.a(event.c.obj)
 .bss.m_beacon_salt
                0x0000000020004754       0x10 ../../mesh/lib_51_MBTLE_CORE.a(net_beacon.c.obj)
 .bss.m_enabled
                0x0000000020004764        0x1 ../../mesh/lib_51_MBTLE_CORE.a(net_beacon.c.obj)
 *fill*         0x0000000020004765        0x3 
 .bss.m_tx_event
                0x0000000020004768       0x18 ../../mesh/lib_51_MBTLE_CORE.a(net_beacon.c.obj)
 .bss.lock_count.7474
                0x0000000020004780        0x4 ../../mesh/lib_51_MBTLE_CORE.a(net_state.c.obj)
 .bss.m_flash_manager
                0x0000000020004784       0x24 ../../mesh/lib_51_MBTLE_CORE.a(net_state.c.obj)
 .bss.m_iv_update_timer
                0x00000000200047a8       0x18 ../../mesh/lib_51_MBTLE_CORE.a(net_state.c.obj)
 .bss.m_net_state
                0x00000000200047c0       0x14 ../../mesh/lib_51_MBTLE_CORE.a(net_state.c.obj)
 .bss.m_seqnum_allocation_in_progress
                0x00000000200047d4        0x1 ../../mesh/lib_51_MBTLE_CORE.a(net_state.c.obj)
 .bss.m_test_mode
                0x00000000200047d5        0x1 ../../mesh/lib_51_MBTLE_CORE.a(net_state.c.obj)
 .bss.m_is_enabled
                0x00000000200047d6        0x1 ../../mesh/lib_51_MBTLE_CORE.a(nrf_mesh.c.obj)
 .bss.m_is_initialized
                0x00000000200047d7        0x1 ../../mesh/lib_51_MBTLE_CORE.a(nrf_mesh.c.obj)
 .bss.m_rx_cb   0x00000000200047d8        0x4 ../../mesh/lib_51_MBTLE_CORE.a(nrf_mesh.c.obj)
 .bss.m_current_time
                0x00000000200047dc        0x4 ../../mesh/lib_51_MBTLE_CORE.a(ticker.c.obj)
 .bss.m_timer   0x00000000200047e0       0x18 ../../mesh/lib_51_MBTLE_CORE.a(ticker.c.obj)
 .bss.m_sar_alloc
                0x00000000200047f8        0x4 ../../mesh/lib_51_MBTLE_CORE.a(transport.c.obj)
 .bss.m_sar_release
                0x00000000200047fc        0x4 ../../mesh/lib_51_MBTLE_CORE.a(transport.c.obj)
 .bss.m_transport_pkt_buf
                0x0000000020004800       0x13 ../../mesh/lib_51_MBTLE_CORE.a(transport.c.obj)
 *fill*         0x0000000020004813        0x1 
 .bss.m_trs_config
                0x0000000020004814       0x14 ../../mesh/lib_51_MBTLE_CORE.a(transport.c.obj)
 .bss.m_trs_sar_ack_timeout
                0x0000000020004828        0x1 ../../mesh/lib_51_MBTLE_CORE.a(transport.c.obj)
 .bss.m_trs_sar_ack_timer_active
                0x0000000020004829        0x1 ../../mesh/lib_51_MBTLE_CORE.a(transport.c.obj)
 *fill*         0x000000002000482a        0x2 
 .bss.m_trs_sar_rx_ack_timer
                0x000000002000482c       0x18 ../../mesh/lib_51_MBTLE_CORE.a(transport.c.obj)
 .bss.m_trs_sar_rx_sessions
                0x0000000020004844       0x50 ../../mesh/lib_51_MBTLE_CORE.a(transport.c.obj)
 .bss.m_trs_sar_session_timer
                0x0000000020004894       0x18 ../../mesh/lib_51_MBTLE_CORE.a(transport.c.obj)
 .bss.m_trs_sar_tx_sessions
                0x00000000200048ac       0x50 ../../mesh/lib_51_MBTLE_CORE.a(transport.c.obj)
 .bss.m_trs_sar_tx_timeout
                0x00000000200048fc        0x1 ../../mesh/lib_51_MBTLE_CORE.a(transport.c.obj)
 *fill*         0x00000000200048fd        0x3 
 .bss.m_trs_sar_tx_timer
                0x0000000020004900       0x18 ../../mesh/lib_51_MBTLE_CORE.a(transport.c.obj)
 .bss.m_internal_event_fifo
                0x0000000020004918       0x14 ../../mesh/lib_51_MBTLE_CORE.a(internal_event.c.obj)
 .bss.m_internal_event_fifo_buffer
                0x000000002000492c      0x100 ../../mesh/lib_51_MBTLE_CORE.a(internal_event.c.obj)
 .bss.m_internal_event_initialized
                0x0000000020004a2c        0x1 ../../mesh/lib_51_MBTLE_CORE.a(internal_event.c.obj)
 *fill*         0x0000000020004a2d        0x3 
 .bss.m_report_cb
                0x0000000020004a30        0x4 ../../mesh/lib_51_MBTLE_CORE.a(internal_event.c.obj)
 .bss.m_event_flag
                0x0000000020004a34        0x4 ../../mesh/lib_51_MBTLE_CORE.a(mesh_flash.c.obj)
 .bss.m_suspended
                0x0000000020004a38        0x1 ../../mesh/lib_51_MBTLE_CORE.a(mesh_flash.c.obj)
 *fill*         0x0000000020004a39        0x3 
 .bss.m_users   0x0000000020004a3c      0x1d4 ../../mesh/lib_51_MBTLE_CORE.a(mesh_flash.c.obj)
 .bss.suspend_count.7574
                0x0000000020004c10        0x4 ../../mesh/lib_51_MBTLE_CORE.a(mesh_flash.c.obj)
 .bss.m_action_queue
                0x0000000020004c14        0xc ../../mesh/lib_51_MBTLE_CORE.a(flash_manager.c.obj)
 .bss.m_action_queue_buffer
                0x0000000020004c20      0x104 ../../mesh/lib_51_MBTLE_CORE.a(flash_manager.c.obj)
 .bss.m_action_state
                0x0000000020004d24        0x1 ../../mesh/lib_51_MBTLE_CORE.a(flash_manager.c.obj)
 *fill*         0x0000000020004d25        0x3 
 .bss.m_memory_listener_queue
                0x0000000020004d28        0x8 ../../mesh/lib_51_MBTLE_CORE.a(flash_manager.c.obj)
 .bss.m_processing_flag
                0x0000000020004d30        0x4 ../../mesh/lib_51_MBTLE_CORE.a(flash_manager.c.obj)
 .bss.m_state   0x0000000020004d34        0x1 ../../mesh/lib_51_MBTLE_CORE.a(flash_manager.c.obj)
 *fill*         0x0000000020004d35        0x1 
 .bss.m_token   0x0000000020004d36        0x2 ../../mesh/lib_51_MBTLE_CORE.a(flash_manager.c.obj)
 .bss.p_current.8667
                0x0000000020004d38        0x4 ../../mesh/lib_51_MBTLE_CORE.a(flash_manager.c.obj)
 .bss.result.8668
                0x0000000020004d3c        0x1 ../../mesh/lib_51_MBTLE_CORE.a(flash_manager.c.obj)
 *fill*         0x0000000020004d3d        0x3 
 .bss.m_defrag  0x0000000020004d40       0x1c ../../mesh/lib_51_MBTLE_CORE.a(flash_manager_defrag.c.obj)
 .bss.m_token   0x0000000020004d5c        0x2 ../../mesh/lib_51_MBTLE_CORE.a(flash_manager_defrag.c.obj)
 *fill*         0x0000000020004d5e        0x2 
 .bss.mp_recovery_area
                0x0000000020004d60        0x4 ../../mesh/lib_51_MBTLE_CORE.a(flash_manager_defrag.c.obj)
 .bss.p_null_ptr.7732
                0x0000000020004d64        0x4 ../../mesh/lib_51_MBTLE_CORE.a(flash_manager_defrag.c.obj)
 .bss.m_end_timer_triggered
                0x0000000020004d68        0x1 ../../mesh/lib_51_MBTLE_CORE.a(timeslot.c.obj)
 .bss.m_framework_initialized
                0x0000000020004d69        0x1 ../../mesh/lib_51_MBTLE_CORE.a(timeslot.c.obj)
 .bss.m_is_in_callback
                0x0000000020004d6a        0x1 ../../mesh/lib_51_MBTLE_CORE.a(timeslot.c.obj)
 .bss.m_is_in_timeslot
                0x0000000020004d6b        0x1 ../../mesh/lib_51_MBTLE_CORE.a(timeslot.c.obj)
 .bss.m_ret_param
                0x0000000020004d6c        0x8 ../../mesh/lib_51_MBTLE_CORE.a(timeslot.c.obj)
 .bss.m_start_time
                0x0000000020004d74        0x4 ../../mesh/lib_51_MBTLE_CORE.a(timeslot.c.obj)
 .bss.m_timeslot_count
                0x0000000020004d78        0x4 ../../mesh/lib_51_MBTLE_CORE.a(timeslot.c.obj)
 .bss.m_timeslot_forced_command
                0x0000000020004d7c        0x1 ../../mesh/lib_51_MBTLE_CORE.a(timeslot.c.obj)
 *fill*         0x0000000020004d7d        0x3 
 .bss.m_timeslot_length
                0x0000000020004d80        0x4 ../../mesh/lib_51_MBTLE_CORE.a(timeslot.c.obj)
 .bss.requested_extend_time.8330
                0x0000000020004d84        0x4 ../../mesh/lib_51_MBTLE_CORE.a(timeslot.c.obj)
 .bss.s_last_rtc_value.8302
                0x0000000020004d88        0x8 ../../mesh/lib_51_MBTLE_CORE.a(timeslot.c.obj)
 .bss.m_128buf  0x0000000020004d90       0x10 ../../mesh/lib_51_MBTLE_CORE.a(aes_cmac.c.obj)
 .bss.m_subkey1
                0x0000000020004da0       0x10 ../../mesh/lib_51_MBTLE_CORE.a(aes_cmac.c.obj)
 .bss.m_subkey2
                0x0000000020004db0       0x10 ../../mesh/lib_51_MBTLE_CORE.a(aes_cmac.c.obj)
 .bss.m_msg_cache
                0x0000000020004dc0      0x100 ../../mesh/lib_51_MBTLE_CORE.a(msg_cache.c.obj)
 .bss.m_msg_cache_head
                0x0000000020004ec0        0x4 ../../mesh/lib_51_MBTLE_CORE.a(msg_cache.c.obj)
 .bss.m_relay_check_cb
                0x0000000020004ec4        0x4 ../../mesh/lib_51_MBTLE_CORE.a(network.c.obj)
 .bss.m_relay_enable
                0x0000000020004ec8        0x1 ../../mesh/lib_51_MBTLE_CORE.a(network.c.obj)
 .bss.m_relay_retransmit_count
                0x0000000020004ec9        0x1 ../../mesh/lib_51_MBTLE_CORE.a(network.c.obj)
 .bss.m_cache_full
                0x0000000020004eca        0x1 ../../mesh/lib_51_MBTLE_CORE.a(replay_cache.c.obj)
 .bss.m_cache_index
                0x0000000020004ecb        0x1 ../../mesh/lib_51_MBTLE_CORE.a(replay_cache.c.obj)
 .bss.m_replay_cache
                0x0000000020004ecc      0x200 ../../mesh/lib_51_MBTLE_CORE.a(replay_cache.c.obj)
 .bss._acDownBuffer
                0x00000000200050cc       0x80 ../../lib/rtt/lib_51_RTT_LIB.a(SEGGER_RTT.c.obj)
 .bss._acUpBuffer
                0x000000002000514c      0x400 ../../lib/rtt/lib_51_RTT_LIB.a(SEGGER_RTT.c.obj)
 .bss.__malloc_free_list
                0x000000002000554c        0x4 /usr/bin/../lib/gcc/arm-none-eabi/6.3.1/../../../../arm-none-eabi/lib/thumb/v6-m/libg_nano.a(lib_a-nano-mallocr.o)
                0x000000002000554c                __malloc_free_list
 .bss.__malloc_sbrk_start
                0x0000000020005550        0x4 /usr/bin/../lib/gcc/arm-none-eabi/6.3.1/../../../../arm-none-eabi/lib/thumb/v6-m/libg_nano.a(lib_a-nano-mallocr.o)
                0x0000000020005550                __malloc_sbrk_start
 .bss.heap_end.4116
                0x0000000020005554        0x4 /usr/bin/../lib/gcc/arm-none-eabi/6.3.1/../../../../arm-none-eabi/lib/thumb/v6-m/libnosys.a(sbrk.o)
 *(COMMON)
 COMMON         0x0000000020005558        0x8 CMakeFiles/51_dfu.dir/src/main.c.obj
                0x0000000020005558                bank_addr
                0x000000002000555c                rom_length
 COMMON         0x0000000020005560        0x8 CMakeFiles/51_dfu.dir/__/nrf_mesh_sdk.c.obj
                0x0000000020005560                nrf_nvic_state
 COMMON         0x0000000020005568        0x4 CMakeFiles/51_dfu.dir/__/__/mesh/src/dfu/nrf_mesh_dfu.c.obj
                0x0000000020005568                m_cmd_handler
 COMMON         0x000000002000556c        0x4 ../../mesh/lib_51_MBTLE_CORE.a(nrf_mesh.c.obj)
                0x000000002000556c                m_assertion_handler
 COMMON         0x0000000020005570       0x78 ../../lib/rtt/lib_51_RTT_LIB.a(SEGGER_RTT.c.obj)
                0x0000000020005570                _SEGGER_RTT
 COMMON         0x00000000200055e8        0x4 /usr/bin/../lib/gcc/arm-none-eabi/6.3.1/../../../../arm-none-eabi/lib/thumb/v6-m/libg_nano.a(lib_a-reent.o)
                0x00000000200055e8                errno
                0x00000000200055ec                . = ALIGN (0x4)
                0x00000000200055ec                __bss_end__ = .

.heap           0x00000000200055f0       0x80
                0x00000000200055f0                __HeapBase = .
                0x00000000200055f0                __end__ = .
                0x00000000200055f0                PROVIDE (end, .)
 *(.heap*)
 .heap          0x00000000200055f0       0x80 CMakeFiles/51_dfu.dir/__/__/toolchain/gcc/gcc_startup_nrf51.S.obj
                0x0000000020005670                __HeapLimit = .

.stack_dummy    0x00000000200055f0      0x800
 *(.stack*)
 .stack         0x00000000200055f0      0x800 CMakeFiles/51_dfu.dir/__/__/toolchain/gcc/gcc_startup_nrf51.S.obj
                0x0000000020007d00                __StackTop = (ORIGIN (RAM) + LENGTH (RAM))
                0x0000000020007500                __StackLimit = (__StackTop - SIZEOF (.stack_dummy))
                0x0000000020007d00                PROVIDE (__stack, __StackTop)
                0x0000000000000001                ASSERT ((__StackLimit >= __HeapLimit), region RAM overflowed with stack)
OUTPUT(51_dfu.elf elf32-littlearm)

.ARM.attributes
                0x0000000000000000       0x28
 .ARM.attributes
                0x0000000000000000       0x1e /usr/bin/../lib/gcc/arm-none-eabi/6.3.1/thumb/v6-m/crti.o
 .ARM.attributes
                0x000000000000001e       0x2c /usr/bin/../lib/gcc/arm-none-eabi/6.3.1/thumb/v6-m/crtbegin.o
 .ARM.attributes
                0x000000000000004a       0x1b /usr/bin/../lib/gcc/arm-none-eabi/6.3.1/../../../../arm-none-eabi/lib/thumb/v6-m/crt0.o
 .ARM.attributes
                0x0000000000000065       0x31 CMakeFiles/51_dfu.dir/src/main.c.obj
 .ARM.attributes
                0x0000000000000096       0x31 CMakeFiles/51_dfu.dir/__/nrf_mesh_sdk.c.obj
 .ARM.attributes
                0x00000000000000c7       0x31 CMakeFiles/51_dfu.dir/__/__/mesh/src/access/access.c.obj
 .ARM.attributes
                0x00000000000000f8       0x31 CMakeFiles/51_dfu.dir/__/__/mesh/src/access/access_publish.c.obj
 .ARM.attributes
                0x0000000000000129       0x31 CMakeFiles/51_dfu.dir/__/__/mesh/src/access/access_reliable.c.obj
 .ARM.attributes
                0x000000000000015a       0x31 CMakeFiles/51_dfu.dir/__/__/mesh/src/access/device_state_manager.c.obj
 .ARM.attributes
                0x000000000000018b       0x31 CMakeFiles/51_dfu.dir/__/__/mesh/src/serial/nrf_mesh_serial.c.obj
 .ARM.attributes
                0x00000000000001bc       0x31 CMakeFiles/51_dfu.dir/__/__/mesh/src/serial/serial.c.obj
 .ARM.attributes
                0x00000000000001ed       0x31 CMakeFiles/51_dfu.dir/__/__/mesh/src/serial/serial_bearer.c.obj
 .ARM.attributes
                0x000000000000021e       0x31 CMakeFiles/51_dfu.dir/__/__/mesh/src/serial/serial_handler_common.c.obj
 .ARM.attributes
                0x000000000000024f       0x31 CMakeFiles/51_dfu.dir/__/__/mesh/src/serial/serial_handler_access.c.obj
 .ARM.attributes
                0x0000000000000280       0x31 CMakeFiles/51_dfu.dir/__/__/mesh/src/serial/serial_handler_app.c.obj
 .ARM.attributes
                0x00000000000002b1       0x31 CMakeFiles/51_dfu.dir/__/__/mesh/src/serial/serial_handler_config.c.obj
 .ARM.attributes
                0x00000000000002e2       0x31 CMakeFiles/51_dfu.dir/__/__/mesh/src/serial/serial_handler_device.c.obj
 .ARM.attributes
                0x0000000000000313       0x31 CMakeFiles/51_dfu.dir/__/__/mesh/src/serial/serial_handler_dfu.c.obj
 .ARM.attributes
                0x0000000000000344       0x31 CMakeFiles/51_dfu.dir/__/__/mesh/src/serial/serial_handler_mesh.c.obj
 .ARM.attributes
                0x0000000000000375       0x31 CMakeFiles/51_dfu.dir/__/__/mesh/src/serial/serial_handler_models.c.obj
 .ARM.attributes
                0x00000000000003a6       0x31 CMakeFiles/51_dfu.dir/__/__/mesh/src/serial/serial_handler_openmesh.c.obj
 .ARM.attributes
                0x00000000000003d7       0x31 CMakeFiles/51_dfu.dir/__/__/mesh/src/serial/serial_handler_prov.c.obj
 .ARM.attributes
                0x0000000000000408       0x31 CMakeFiles/51_dfu.dir/__/__/mesh/src/serial/serial_uart.c.obj
 .ARM.attributes
                0x0000000000000439       0x31 CMakeFiles/51_dfu.dir/__/__/mesh/src/dfu/nrf_mesh_dfu.c.obj
 .ARM.attributes
                0x000000000000046a       0x1b CMakeFiles/51_dfu.dir/__/__/toolchain/gcc/gcc_startup_nrf51.S.obj
 .ARM.attributes
                0x0000000000000485       0x31 CMakeFiles/51_dfu.dir/__/__/toolchain/system_nrf51.c.obj
 .ARM.attributes
                0x00000000000004b6       0x31 ../../mesh/lib_51_MBTLE_PB_ADV_EE.a(nrf_mesh_prov.c.obj)
 .ARM.attributes
                0x00000000000004e7       0x31 ../../mesh/lib_51_MBTLE_PB_ADV_EE.a(prov_bearer_adv.c.obj)
 .ARM.attributes
                0x0000000000000518       0x31 ../../mesh/lib_51_MBTLE_PB_ADV_EE.a(prov_utils.c.obj)
 .ARM.attributes
                0x0000000000000549       0x31 ../../mesh/lib_51_MBTLE_PB_ADV_EE.a(prov_beacon.c.obj)
 .ARM.attributes
                0x000000000000057a       0x31 ../../mesh/lib_51_MBTLE_PB_ADV_EE.a(prov_provisionee.c.obj)
 .ARM.attributes
                0x00000000000005ab       0x31 ../../mesh/lib_51_MBTLE_PB_ADV_EE.a(provisioning.c.obj)
 .ARM.attributes
                0x00000000000005dc       0x31 ../../mesh/lib_51_MBTLE_PB_ADV_ER.a(prov_provisioner.c.obj)
 .ARM.attributes
                0x000000000000060d       0x31 ../../mesh/lib_51_MBTLE_CORE.a(bearer_adv.c.obj)
 .ARM.attributes
                0x000000000000063e       0x31 ../../mesh/lib_51_MBTLE_CORE.a(fifo.c.obj)
 .ARM.attributes
                0x000000000000066f       0x31 ../../mesh/lib_51_MBTLE_CORE.a(packet_mgr.c.obj)
 .ARM.attributes
                0x00000000000006a0       0x31 ../../mesh/lib_51_MBTLE_CORE.a(radio.c.obj)
 .ARM.attributes
                0x00000000000006d1       0x31 ../../mesh/lib_51_MBTLE_CORE.a(timer.c.obj)
 .ARM.attributes
                0x0000000000000702       0x31 ../../mesh/lib_51_MBTLE_CORE.a(timer_scheduler.c.obj)
 .ARM.attributes
                0x0000000000000733       0x31 ../../mesh/lib_51_MBTLE_CORE.a(beacon.c.obj)
 .ARM.attributes
                0x0000000000000764       0x31 ../../mesh/lib_51_MBTLE_CORE.a(bearer.c.obj)
 .ARM.attributes
                0x0000000000000795       0x31 ../../mesh/lib_51_MBTLE_CORE.a(bearer_event.c.obj)
 .ARM.attributes
                0x00000000000007c6       0x31 ../../mesh/lib_51_MBTLE_CORE.a(nrf_mesh_configure.c.obj)
 .ARM.attributes
                0x00000000000007f7       0x31 ../../mesh/lib_51_MBTLE_CORE.a(enc.c.obj)
 .ARM.attributes
                0x0000000000000828       0x31 ../../mesh/lib_51_MBTLE_CORE.a(event.c.obj)
 .ARM.attributes
                0x0000000000000859       0x31 ../../mesh/lib_51_MBTLE_CORE.a(hal.c.obj)
 .ARM.attributes
                0x000000000000088a       0x31 ../../mesh/lib_51_MBTLE_CORE.a(log.c.obj)
 .ARM.attributes
                0x00000000000008bb       0x31 ../../mesh/lib_51_MBTLE_CORE.a(net_beacon.c.obj)
 .ARM.attributes
                0x00000000000008ec       0x31 ../../mesh/lib_51_MBTLE_CORE.a(net_state.c.obj)
 .ARM.attributes
                0x000000000000091d       0x31 ../../mesh/lib_51_MBTLE_CORE.a(nrf_mesh.c.obj)
 .ARM.attributes
                0x000000000000094e       0x31 ../../mesh/lib_51_MBTLE_CORE.a(nrf_mesh_keygen.c.obj)
 .ARM.attributes
                0x000000000000097f       0x31 ../../mesh/lib_51_MBTLE_CORE.a(nrf_mesh_utils.c.obj)
 .ARM.attributes
                0x00000000000009b0       0x31 ../../mesh/lib_51_MBTLE_CORE.a(radio_config.c.obj)
 .ARM.attributes
                0x00000000000009e1       0x31 ../../mesh/lib_51_MBTLE_CORE.a(packet_buffer.c.obj)
 .ARM.attributes
                0x0000000000000a12       0x31 ../../mesh/lib_51_MBTLE_CORE.a(rand.c.obj)
 .ARM.attributes
                0x0000000000000a43       0x31 ../../mesh/lib_51_MBTLE_CORE.a(ticker.c.obj)
 .ARM.attributes
                0x0000000000000a74       0x31 ../../mesh/lib_51_MBTLE_CORE.a(transport.c.obj)
 .ARM.attributes
                0x0000000000000aa5       0x31 ../../mesh/lib_51_MBTLE_CORE.a(internal_event.c.obj)
 .ARM.attributes
                0x0000000000000ad6       0x31 ../../mesh/lib_51_MBTLE_CORE.a(mesh_flash.c.obj)
 .ARM.attributes
                0x0000000000000b07       0x31 ../../mesh/lib_51_MBTLE_CORE.a(nrf_flash.c.obj)
 .ARM.attributes
                0x0000000000000b38       0x31 ../../mesh/lib_51_MBTLE_CORE.a(flash_manager.c.obj)
 .ARM.attributes
                0x0000000000000b69       0x31 ../../mesh/lib_51_MBTLE_CORE.a(flash_manager_defrag.c.obj)
 .ARM.attributes
                0x0000000000000b9a       0x31 ../../mesh/lib_51_MBTLE_CORE.a(flash_manager_internal.c.obj)
 .ARM.attributes
                0x0000000000000bcb       0x31 ../../mesh/lib_51_MBTLE_CORE.a(aes.c.obj)
 .ARM.attributes
                0x0000000000000bfc       0x31 ../../mesh/lib_51_MBTLE_CORE.a(queue.c.obj)
 .ARM.attributes
                0x0000000000000c2d       0x31 ../../mesh/lib_51_MBTLE_CORE.a(msqueue.c.obj)
 .ARM.attributes
                0x0000000000000c5e       0x31 ../../mesh/lib_51_MBTLE_CORE.a(timeslot.c.obj)
 .ARM.attributes
                0x0000000000000c8f       0x31 ../../mesh/lib_51_MBTLE_CORE.a(aes_cmac.c.obj)
 .ARM.attributes
                0x0000000000000cc0       0x31 ../../mesh/lib_51_MBTLE_CORE.a(ccm_soft.c.obj)
 .ARM.attributes
                0x0000000000000cf1       0x31 ../../mesh/lib_51_MBTLE_CORE.a(msg_cache.c.obj)
 .ARM.attributes
                0x0000000000000d22       0x31 ../../mesh/lib_51_MBTLE_CORE.a(network.c.obj)
 .ARM.attributes
                0x0000000000000d53       0x31 ../../mesh/lib_51_MBTLE_CORE.a(packet.c.obj)
 .ARM.attributes
                0x0000000000000d84       0x31 ../../mesh/lib_51_MBTLE_CORE.a(replay_cache.c.obj)
 .ARM.attributes
                0x0000000000000db5       0x31 ../../lib/rtt/lib_51_RTT_LIB.a(SEGGER_RTT.c.obj)
 .ARM.attributes
                0x0000000000000de6       0x31 ../../lib/rtt/lib_51_RTT_LIB.a(SEGGER_RTT_printf.c.obj)
 .ARM.attributes
                0x0000000000000e17       0x31 ../../lib/micro-ecc/lib_51_UECC_LIB.a(uECC.c.obj)
 .ARM.attributes
                0x0000000000000e48       0x1e /usr/bin/../lib/gcc/arm-none-eabi/6.3.1/thumb/v6-m/libgcc.a(_udivsi3.o)
 .ARM.attributes
                0x0000000000000e66       0x1e /usr/bin/../lib/gcc/arm-none-eabi/6.3.1/thumb/v6-m/libgcc.a(_divsi3.o)
 .ARM.attributes
                0x0000000000000e84       0x1e /usr/bin/../lib/gcc/arm-none-eabi/6.3.1/thumb/v6-m/libgcc.a(_dvmd_tls.o)
 .ARM.attributes
                0x0000000000000ea2       0x2c /usr/bin/../lib/gcc/arm-none-eabi/6.3.1/thumb/v6-m/libgcc.a(_muldi3.o)
 .ARM.attributes
                0x0000000000000ece       0x2c /usr/bin/../lib/gcc/arm-none-eabi/6.3.1/../../../../arm-none-eabi/lib/thumb/v6-m/libg_nano.a(lib_a-exit.o)
 .ARM.attributes
                0x0000000000000efa       0x2c /usr/bin/../lib/gcc/arm-none-eabi/6.3.1/../../../../arm-none-eabi/lib/thumb/v6-m/libg_nano.a(lib_a-impure.o)
 .ARM.attributes
                0x0000000000000f26       0x2c /usr/bin/../lib/gcc/arm-none-eabi/6.3.1/../../../../arm-none-eabi/lib/thumb/v6-m/libg_nano.a(lib_a-init.o)
 .ARM.attributes
                0x0000000000000f52       0x2c /usr/bin/../lib/gcc/arm-none-eabi/6.3.1/../../../../arm-none-eabi/lib/thumb/v6-m/libg_nano.a(lib_a-malloc.o)
 .ARM.attributes
                0x0000000000000f7e       0x2c /usr/bin/../lib/gcc/arm-none-eabi/6.3.1/../../../../arm-none-eabi/lib/thumb/v6-m/libg_nano.a(lib_a-memcmp.o)
 .ARM.attributes
                0x0000000000000faa       0x2c /usr/bin/../lib/gcc/arm-none-eabi/6.3.1/../../../../arm-none-eabi/lib/thumb/v6-m/libg_nano.a(lib_a-memcpy-stub.o)
 .ARM.attributes
                0x0000000000000fd6       0x2c /usr/bin/../lib/gcc/arm-none-eabi/6.3.1/../../../../arm-none-eabi/lib/thumb/v6-m/libg_nano.a(lib_a-memset.o)
 .ARM.attributes
                0x0000000000001002       0x2c /usr/bin/../lib/gcc/arm-none-eabi/6.3.1/../../../../arm-none-eabi/lib/thumb/v6-m/libg_nano.a(lib_a-nano-freer.o)
 .ARM.attributes
                0x000000000000102e       0x2c /usr/bin/../lib/gcc/arm-none-eabi/6.3.1/../../../../arm-none-eabi/lib/thumb/v6-m/libg_nano.a(lib_a-nano-mallocr.o)
 .ARM.attributes
                0x000000000000105a       0x2c /usr/bin/../lib/gcc/arm-none-eabi/6.3.1/../../../../arm-none-eabi/lib/thumb/v6-m/libg_nano.a(lib_a-sbrkr.o)
 .ARM.attributes
                0x0000000000001086       0x2c /usr/bin/../lib/gcc/arm-none-eabi/6.3.1/../../../../arm-none-eabi/lib/thumb/v6-m/libg_nano.a(lib_a-strcpy.o)
 .ARM.attributes
                0x00000000000010b2       0x1c /usr/bin/../lib/gcc/arm-none-eabi/6.3.1/../../../../arm-none-eabi/lib/thumb/v6-m/libg_nano.a(lib_a-strlen.o)
 .ARM.attributes
                0x00000000000010ce       0x2c /usr/bin/../lib/gcc/arm-none-eabi/6.3.1/../../../../arm-none-eabi/lib/thumb/v6-m/libg_nano.a(lib_a-strrchr.o)
 .ARM.attributes
                0x00000000000010fa       0x2c /usr/bin/../lib/gcc/arm-none-eabi/6.3.1/../../../../arm-none-eabi/lib/thumb/v6-m/libg_nano.a(lib_a-mlock.o)
 .ARM.attributes
                0x0000000000001126       0x2c /usr/bin/../lib/gcc/arm-none-eabi/6.3.1/../../../../arm-none-eabi/lib/thumb/v6-m/libg_nano.a(lib_a-reent.o)
 .ARM.attributes
                0x0000000000001152       0x2c /usr/bin/../lib/gcc/arm-none-eabi/6.3.1/../../../../arm-none-eabi/lib/thumb/v6-m/libg_nano.a(lib_a-strchr.o)
 .ARM.attributes
                0x000000000000117e       0x2c /usr/bin/../lib/gcc/arm-none-eabi/6.3.1/thumb/v6-m/crtend.o
 .ARM.attributes
                0x00000000000011aa       0x1e /usr/bin/../lib/gcc/arm-none-eabi/6.3.1/thumb/v6-m/crtn.o
 .ARM.attributes
                0x00000000000011c8       0x2c /usr/bin/../lib/gcc/arm-none-eabi/6.3.1/../../../../arm-none-eabi/lib/thumb/v6-m/libnosys.a(sbrk.o)
 .ARM.attributes
                0x00000000000011f4       0x2c /usr/bin/../lib/gcc/arm-none-eabi/6.3.1/../../../../arm-none-eabi/lib/thumb/v6-m/libnosys.a(_exit.o)

.comment        0x0000000000000000       0x7f
 .comment       0x0000000000000000       0x7f CMakeFiles/51_dfu.dir/src/main.c.obj
                                         0x80 (size before relaxing)
 .comment       0x000000000000007f       0x80 CMakeFiles/51_dfu.dir/__/nrf_mesh_sdk.c.obj
 .comment       0x000000000000007f       0x80 CMakeFiles/51_dfu.dir/__/__/mesh/src/access/access.c.obj
 .comment       0x000000000000007f       0x80 CMakeFiles/51_dfu.dir/__/__/mesh/src/access/access_publish.c.obj
 .comment       0x000000000000007f       0x80 CMakeFiles/51_dfu.dir/__/__/mesh/src/access/access_reliable.c.obj
 .comment       0x000000000000007f       0x80 CMakeFiles/51_dfu.dir/__/__/mesh/src/access/device_state_manager.c.obj
 .comment       0x000000000000007f       0x80 CMakeFiles/51_dfu.dir/__/__/mesh/src/serial/nrf_mesh_serial.c.obj
 .comment       0x000000000000007f       0x80 CMakeFiles/51_dfu.dir/__/__/mesh/src/serial/serial.c.obj
 .comment       0x000000000000007f       0x80 CMakeFiles/51_dfu.dir/__/__/mesh/src/serial/serial_bearer.c.obj
 .comment       0x000000000000007f       0x80 CMakeFiles/51_dfu.dir/__/__/mesh/src/serial/serial_handler_common.c.obj
 .comment       0x000000000000007f       0x80 CMakeFiles/51_dfu.dir/__/__/mesh/src/serial/serial_handler_access.c.obj
 .comment       0x000000000000007f       0x80 CMakeFiles/51_dfu.dir/__/__/mesh/src/serial/serial_handler_app.c.obj
 .comment       0x000000000000007f       0x80 CMakeFiles/51_dfu.dir/__/__/mesh/src/serial/serial_handler_config.c.obj
 .comment       0x000000000000007f       0x80 CMakeFiles/51_dfu.dir/__/__/mesh/src/serial/serial_handler_device.c.obj
 .comment       0x000000000000007f       0x80 CMakeFiles/51_dfu.dir/__/__/mesh/src/serial/serial_handler_dfu.c.obj
 .comment       0x000000000000007f       0x80 CMakeFiles/51_dfu.dir/__/__/mesh/src/serial/serial_handler_mesh.c.obj
 .comment       0x000000000000007f       0x80 CMakeFiles/51_dfu.dir/__/__/mesh/src/serial/serial_handler_models.c.obj
 .comment       0x000000000000007f       0x80 CMakeFiles/51_dfu.dir/__/__/mesh/src/serial/serial_handler_openmesh.c.obj
 .comment       0x000000000000007f       0x80 CMakeFiles/51_dfu.dir/__/__/mesh/src/serial/serial_handler_prov.c.obj
 .comment       0x000000000000007f       0x80 CMakeFiles/51_dfu.dir/__/__/mesh/src/serial/serial_uart.c.obj
 .comment       0x000000000000007f       0x80 CMakeFiles/51_dfu.dir/__/__/mesh/src/dfu/nrf_mesh_dfu.c.obj
 .comment       0x000000000000007f       0x80 CMakeFiles/51_dfu.dir/__/__/toolchain/system_nrf51.c.obj
 .comment       0x000000000000007f       0x80 ../../mesh/lib_51_MBTLE_PB_ADV_EE.a(nrf_mesh_prov.c.obj)
 .comment       0x000000000000007f       0x80 ../../mesh/lib_51_MBTLE_PB_ADV_EE.a(prov_bearer_adv.c.obj)
 .comment       0x000000000000007f       0x80 ../../mesh/lib_51_MBTLE_PB_ADV_EE.a(prov_utils.c.obj)
 .comment       0x000000000000007f       0x80 ../../mesh/lib_51_MBTLE_PB_ADV_EE.a(prov_beacon.c.obj)
 .comment       0x000000000000007f       0x80 ../../mesh/lib_51_MBTLE_PB_ADV_EE.a(prov_provisionee.c.obj)
 .comment       0x000000000000007f       0x80 ../../mesh/lib_51_MBTLE_PB_ADV_EE.a(provisioning.c.obj)
 .comment       0x000000000000007f       0x80 ../../mesh/lib_51_MBTLE_PB_ADV_ER.a(prov_provisioner.c.obj)
 .comment       0x000000000000007f       0x80 ../../mesh/lib_51_MBTLE_CORE.a(bearer_adv.c.obj)
 .comment       0x000000000000007f       0x80 ../../mesh/lib_51_MBTLE_CORE.a(fifo.c.obj)
 .comment       0x000000000000007f       0x80 ../../mesh/lib_51_MBTLE_CORE.a(packet_mgr.c.obj)
 .comment       0x000000000000007f       0x80 ../../mesh/lib_51_MBTLE_CORE.a(radio.c.obj)
 .comment       0x000000000000007f       0x80 ../../mesh/lib_51_MBTLE_CORE.a(timer.c.obj)
 .comment       0x000000000000007f       0x80 ../../mesh/lib_51_MBTLE_CORE.a(timer_scheduler.c.obj)
 .comment       0x000000000000007f       0x80 ../../mesh/lib_51_MBTLE_CORE.a(beacon.c.obj)
 .comment       0x000000000000007f       0x80 ../../mesh/lib_51_MBTLE_CORE.a(bearer.c.obj)
 .comment       0x000000000000007f       0x80 ../../mesh/lib_51_MBTLE_CORE.a(bearer_event.c.obj)
 .comment       0x000000000000007f       0x80 ../../mesh/lib_51_MBTLE_CORE.a(nrf_mesh_configure.c.obj)
 .comment       0x000000000000007f       0x80 ../../mesh/lib_51_MBTLE_CORE.a(enc.c.obj)
 .comment       0x000000000000007f       0x80 ../../mesh/lib_51_MBTLE_CORE.a(event.c.obj)
 .comment       0x000000000000007f       0x80 ../../mesh/lib_51_MBTLE_CORE.a(hal.c.obj)
 .comment       0x000000000000007f       0x80 ../../mesh/lib_51_MBTLE_CORE.a(log.c.obj)
 .comment       0x000000000000007f       0x80 ../../mesh/lib_51_MBTLE_CORE.a(net_beacon.c.obj)
 .comment       0x000000000000007f       0x80 ../../mesh/lib_51_MBTLE_CORE.a(net_state.c.obj)
 .comment       0x000000000000007f       0x80 ../../mesh/lib_51_MBTLE_CORE.a(nrf_mesh.c.obj)
 .comment       0x000000000000007f       0x80 ../../mesh/lib_51_MBTLE_CORE.a(nrf_mesh_keygen.c.obj)
 .comment       0x000000000000007f       0x80 ../../mesh/lib_51_MBTLE_CORE.a(nrf_mesh_utils.c.obj)
 .comment       0x000000000000007f       0x80 ../../mesh/lib_51_MBTLE_CORE.a(radio_config.c.obj)
 .comment       0x000000000000007f       0x80 ../../mesh/lib_51_MBTLE_CORE.a(packet_buffer.c.obj)
 .comment       0x000000000000007f       0x80 ../../mesh/lib_51_MBTLE_CORE.a(rand.c.obj)
 .comment       0x000000000000007f       0x80 ../../mesh/lib_51_MBTLE_CORE.a(ticker.c.obj)
 .comment       0x000000000000007f       0x80 ../../mesh/lib_51_MBTLE_CORE.a(transport.c.obj)
 .comment       0x000000000000007f       0x80 ../../mesh/lib_51_MBTLE_CORE.a(internal_event.c.obj)
 .comment       0x000000000000007f       0x80 ../../mesh/lib_51_MBTLE_CORE.a(mesh_flash.c.obj)
 .comment       0x000000000000007f       0x80 ../../mesh/lib_51_MBTLE_CORE.a(nrf_flash.c.obj)
 .comment       0x000000000000007f       0x80 ../../mesh/lib_51_MBTLE_CORE.a(flash_manager.c.obj)
 .comment       0x000000000000007f       0x80 ../../mesh/lib_51_MBTLE_CORE.a(flash_manager_defrag.c.obj)
 .comment       0x000000000000007f       0x80 ../../mesh/lib_51_MBTLE_CORE.a(flash_manager_internal.c.obj)
 .comment       0x000000000000007f       0x80 ../../mesh/lib_51_MBTLE_CORE.a(aes.c.obj)
 .comment       0x000000000000007f       0x80 ../../mesh/lib_51_MBTLE_CORE.a(queue.c.obj)
 .comment       0x000000000000007f       0x80 ../../mesh/lib_51_MBTLE_CORE.a(msqueue.c.obj)
 .comment       0x000000000000007f       0x80 ../../mesh/lib_51_MBTLE_CORE.a(timeslot.c.obj)
 .comment       0x000000000000007f       0x80 ../../mesh/lib_51_MBTLE_CORE.a(aes_cmac.c.obj)
 .comment       0x000000000000007f       0x80 ../../mesh/lib_51_MBTLE_CORE.a(ccm_soft.c.obj)
 .comment       0x000000000000007f       0x80 ../../mesh/lib_51_MBTLE_CORE.a(msg_cache.c.obj)
 .comment       0x000000000000007f       0x80 ../../mesh/lib_51_MBTLE_CORE.a(network.c.obj)
 .comment       0x000000000000007f       0x80 ../../mesh/lib_51_MBTLE_CORE.a(packet.c.obj)
 .comment       0x000000000000007f       0x80 ../../mesh/lib_51_MBTLE_CORE.a(replay_cache.c.obj)
 .comment       0x000000000000007f       0x80 ../../lib/rtt/lib_51_RTT_LIB.a(SEGGER_RTT.c.obj)
 .comment       0x000000000000007f       0x80 ../../lib/rtt/lib_51_RTT_LIB.a(SEGGER_RTT_printf.c.obj)
 .comment       0x000000000000007f       0x80 ../../lib/micro-ecc/lib_51_UECC_LIB.a(uECC.c.obj)

.debug_info     0x0000000000000000    0x91f8e
 .debug_info    0x0000000000000000     0x2811 CMakeFiles/51_dfu.dir/src/main.c.obj
 .debug_info    0x0000000000002811     0x2e53 CMakeFiles/51_dfu.dir/__/nrf_mesh_sdk.c.obj
 .debug_info    0x0000000000005664     0x4728 CMakeFiles/51_dfu.dir/__/__/mesh/src/access/access.c.obj
 .debug_info    0x0000000000009d8c     0x1131 CMakeFiles/51_dfu.dir/__/__/mesh/src/access/access_publish.c.obj
 .debug_info    0x000000000000aebd     0x14a6 CMakeFiles/51_dfu.dir/__/__/mesh/src/access/access_reliable.c.obj
 .debug_info    0x000000000000c363     0x5abb CMakeFiles/51_dfu.dir/__/__/mesh/src/access/device_state_manager.c.obj
 .debug_info    0x0000000000011e1e     0x2b95 CMakeFiles/51_dfu.dir/__/__/mesh/src/serial/nrf_mesh_serial.c.obj
 .debug_info    0x00000000000149b3     0x352d CMakeFiles/51_dfu.dir/__/__/mesh/src/serial/serial.c.obj
 .debug_info    0x0000000000017ee0     0x38c9 CMakeFiles/51_dfu.dir/__/__/mesh/src/serial/serial_bearer.c.obj
 .debug_info    0x000000000001b7a9     0x2b35 CMakeFiles/51_dfu.dir/__/__/mesh/src/serial/serial_handler_common.c.obj
 .debug_info    0x000000000001e2de     0x3593 CMakeFiles/51_dfu.dir/__/__/mesh/src/serial/serial_handler_access.c.obj
 .debug_info    0x0000000000021871     0x2a34 CMakeFiles/51_dfu.dir/__/__/mesh/src/serial/serial_handler_app.c.obj
 .debug_info    0x00000000000242a5     0x2ba6 CMakeFiles/51_dfu.dir/__/__/mesh/src/serial/serial_handler_config.c.obj
 .debug_info    0x0000000000026e4b     0x355a CMakeFiles/51_dfu.dir/__/__/mesh/src/serial/serial_handler_device.c.obj
 .debug_info    0x000000000002a3a5     0x3e9d CMakeFiles/51_dfu.dir/__/__/mesh/src/serial/serial_handler_dfu.c.obj
 .debug_info    0x000000000002e242     0x48f0 CMakeFiles/51_dfu.dir/__/__/mesh/src/serial/serial_handler_mesh.c.obj
 .debug_info    0x0000000000032b32     0x2ed4 CMakeFiles/51_dfu.dir/__/__/mesh/src/serial/serial_handler_models.c.obj
 .debug_info    0x0000000000035a06     0x2a11 CMakeFiles/51_dfu.dir/__/__/mesh/src/serial/serial_handler_openmesh.c.obj
 .debug_info    0x0000000000038417     0x44f6 CMakeFiles/51_dfu.dir/__/__/mesh/src/serial/serial_handler_prov.c.obj
 .debug_info    0x000000000003c90d     0x10ea CMakeFiles/51_dfu.dir/__/__/mesh/src/serial/serial_uart.c.obj
 .debug_info    0x000000000003d9f7     0x50f2 CMakeFiles/51_dfu.dir/__/__/mesh/src/dfu/nrf_mesh_dfu.c.obj
 .debug_info    0x0000000000042ae9       0xbb CMakeFiles/51_dfu.dir/__/__/toolchain/gcc/gcc_startup_nrf51.S.obj
 .debug_info    0x0000000000042ba4      0x1e1 CMakeFiles/51_dfu.dir/__/__/toolchain/system_nrf51.c.obj
 .debug_info    0x0000000000042d85     0x19e0 ../../mesh/lib_51_MBTLE_PB_ADV_EE.a(nrf_mesh_prov.c.obj)
 .debug_info    0x0000000000044765     0x388b ../../mesh/lib_51_MBTLE_PB_ADV_EE.a(prov_bearer_adv.c.obj)
 .debug_info    0x0000000000047ff0     0x20fc ../../mesh/lib_51_MBTLE_PB_ADV_EE.a(prov_utils.c.obj)
 .debug_info    0x000000000004a0ec     0x1a54 ../../mesh/lib_51_MBTLE_PB_ADV_EE.a(prov_beacon.c.obj)
 .debug_info    0x000000000004bb40     0x3399 ../../mesh/lib_51_MBTLE_PB_ADV_EE.a(prov_provisionee.c.obj)
 .debug_info    0x000000000004eed9     0x1fdb ../../mesh/lib_51_MBTLE_PB_ADV_EE.a(provisioning.c.obj)
 .debug_info    0x0000000000050eb4     0x2fdc ../../mesh/lib_51_MBTLE_PB_ADV_ER.a(prov_provisioner.c.obj)
 .debug_info    0x0000000000053e90     0x3587 ../../mesh/lib_51_MBTLE_CORE.a(bearer_adv.c.obj)
 .debug_info    0x0000000000057417      0xc92 ../../mesh/lib_51_MBTLE_CORE.a(fifo.c.obj)
 .debug_info    0x00000000000580a9     0x115b ../../mesh/lib_51_MBTLE_CORE.a(packet_mgr.c.obj)
 .debug_info    0x0000000000059204     0x18e9 ../../mesh/lib_51_MBTLE_CORE.a(radio.c.obj)
 .debug_info    0x000000000005aaed      0xbbe ../../mesh/lib_51_MBTLE_CORE.a(timer.c.obj)
 .debug_info    0x000000000005b6ab     0x10aa ../../mesh/lib_51_MBTLE_CORE.a(timer_scheduler.c.obj)
 .debug_info    0x000000000005c755     0x151c ../../mesh/lib_51_MBTLE_CORE.a(beacon.c.obj)
 .debug_info    0x000000000005dc71     0x1ee8 ../../mesh/lib_51_MBTLE_CORE.a(bearer.c.obj)
 .debug_info    0x000000000005fb59     0x14cf ../../mesh/lib_51_MBTLE_CORE.a(bearer_event.c.obj)
 .debug_info    0x0000000000061028      0xb9e ../../mesh/lib_51_MBTLE_CORE.a(nrf_mesh_configure.c.obj)
 .debug_info    0x0000000000061bc6     0x1607 ../../mesh/lib_51_MBTLE_CORE.a(enc.c.obj)
 .debug_info    0x00000000000631cd     0x1148 ../../mesh/lib_51_MBTLE_CORE.a(event.c.obj)
 .debug_info    0x0000000000064315      0x445 ../../mesh/lib_51_MBTLE_CORE.a(hal.c.obj)
 .debug_info    0x000000000006475a      0xe12 ../../mesh/lib_51_MBTLE_CORE.a(log.c.obj)
 .debug_info    0x000000000006556c     0x1268 ../../mesh/lib_51_MBTLE_CORE.a(net_beacon.c.obj)
 .debug_info    0x00000000000667d4     0x25f5 ../../mesh/lib_51_MBTLE_CORE.a(net_state.c.obj)
 .debug_info    0x0000000000068dc9     0x3b2c ../../mesh/lib_51_MBTLE_CORE.a(nrf_mesh.c.obj)
 .debug_info    0x000000000006c8f5      0xcfc ../../mesh/lib_51_MBTLE_CORE.a(nrf_mesh_keygen.c.obj)
 .debug_info    0x000000000006d5f1      0xa5f ../../mesh/lib_51_MBTLE_CORE.a(nrf_mesh_utils.c.obj)
 .debug_info    0x000000000006e050      0x854 ../../mesh/lib_51_MBTLE_CORE.a(radio_config.c.obj)
 .debug_info    0x000000000006e8a4     0x193b ../../mesh/lib_51_MBTLE_CORE.a(packet_buffer.c.obj)
 .debug_info    0x00000000000701df      0x41e ../../mesh/lib_51_MBTLE_CORE.a(rand.c.obj)
 .debug_info    0x00000000000705fd      0x204 ../../mesh/lib_51_MBTLE_CORE.a(ticker.c.obj)
 .debug_info    0x0000000000070801     0x6fb9 ../../mesh/lib_51_MBTLE_CORE.a(transport.c.obj)
 .debug_info    0x00000000000777ba      0xc28 ../../mesh/lib_51_MBTLE_CORE.a(internal_event.c.obj)
 .debug_info    0x00000000000783e2     0x14e5 ../../mesh/lib_51_MBTLE_CORE.a(mesh_flash.c.obj)
 .debug_info    0x00000000000798c7      0xad9 ../../mesh/lib_51_MBTLE_CORE.a(nrf_flash.c.obj)
 .debug_info    0x000000000007a3a0     0x3a47 ../../mesh/lib_51_MBTLE_CORE.a(flash_manager.c.obj)
 .debug_info    0x000000000007dde7     0x248f ../../mesh/lib_51_MBTLE_CORE.a(flash_manager_defrag.c.obj)
 .debug_info    0x0000000000080276      0xb72 ../../mesh/lib_51_MBTLE_CORE.a(flash_manager_internal.c.obj)
 .debug_info    0x0000000000080de8      0xd90 ../../mesh/lib_51_MBTLE_CORE.a(aes.c.obj)
 .debug_info    0x0000000000081b78      0xadb ../../mesh/lib_51_MBTLE_CORE.a(queue.c.obj)
 .debug_info    0x0000000000082653      0xcdb ../../mesh/lib_51_MBTLE_CORE.a(msqueue.c.obj)
 .debug_info    0x000000000008332e     0x1aef ../../mesh/lib_51_MBTLE_CORE.a(timeslot.c.obj)
 .debug_info    0x0000000000084e1d      0xe95 ../../mesh/lib_51_MBTLE_CORE.a(aes_cmac.c.obj)
 .debug_info    0x0000000000085cb2     0x114a ../../mesh/lib_51_MBTLE_CORE.a(ccm_soft.c.obj)
 .debug_info    0x0000000000086dfc      0xb4d ../../mesh/lib_51_MBTLE_CORE.a(msg_cache.c.obj)
 .debug_info    0x0000000000087949     0x23ad ../../mesh/lib_51_MBTLE_CORE.a(network.c.obj)
 .debug_info    0x0000000000089cf6      0xadf ../../mesh/lib_51_MBTLE_CORE.a(packet.c.obj)
 .debug_info    0x000000000008a7d5      0xae5 ../../mesh/lib_51_MBTLE_CORE.a(replay_cache.c.obj)
 .debug_info    0x000000000008b2ba     0x18aa ../../lib/rtt/lib_51_RTT_LIB.a(SEGGER_RTT.c.obj)
 .debug_info    0x000000000008cb64      0xfa2 ../../lib/rtt/lib_51_RTT_LIB.a(SEGGER_RTT_printf.c.obj)
 .debug_info    0x000000000008db06     0x4488 ../../lib/micro-ecc/lib_51_UECC_LIB.a(uECC.c.obj)

.debug_abbrev   0x0000000000000000     0xf5a3
 .debug_abbrev  0x0000000000000000      0x3dd CMakeFiles/51_dfu.dir/src/main.c.obj
 .debug_abbrev  0x00000000000003dd      0x482 CMakeFiles/51_dfu.dir/__/nrf_mesh_sdk.c.obj
 .debug_abbrev  0x000000000000085f      0x642 CMakeFiles/51_dfu.dir/__/__/mesh/src/access/access.c.obj
 .debug_abbrev  0x0000000000000ea1      0x3ef CMakeFiles/51_dfu.dir/__/__/mesh/src/access/access_publish.c.obj
 .debug_abbrev  0x0000000000001290      0x3dc CMakeFiles/51_dfu.dir/__/__/mesh/src/access/access_reliable.c.obj
 .debug_abbrev  0x000000000000166c      0x589 CMakeFiles/51_dfu.dir/__/__/mesh/src/access/device_state_manager.c.obj
 .debug_abbrev  0x0000000000001bf5      0x2a2 CMakeFiles/51_dfu.dir/__/__/mesh/src/serial/nrf_mesh_serial.c.obj
 .debug_abbrev  0x0000000000001e97      0x3b6 CMakeFiles/51_dfu.dir/__/__/mesh/src/serial/serial.c.obj
 .debug_abbrev  0x000000000000224d      0x484 CMakeFiles/51_dfu.dir/__/__/mesh/src/serial/serial_bearer.c.obj
 .debug_abbrev  0x00000000000026d1      0x25f CMakeFiles/51_dfu.dir/__/__/mesh/src/serial/serial_handler_common.c.obj
 .debug_abbrev  0x0000000000002930      0x2cb CMakeFiles/51_dfu.dir/__/__/mesh/src/serial/serial_handler_access.c.obj
 .debug_abbrev  0x0000000000002bfb      0x254 CMakeFiles/51_dfu.dir/__/__/mesh/src/serial/serial_handler_app.c.obj
 .debug_abbrev  0x0000000000002e4f      0x288 CMakeFiles/51_dfu.dir/__/__/mesh/src/serial/serial_handler_config.c.obj
 .debug_abbrev  0x00000000000030d7      0x384 CMakeFiles/51_dfu.dir/__/__/mesh/src/serial/serial_handler_device.c.obj
 .debug_abbrev  0x000000000000345b      0x342 CMakeFiles/51_dfu.dir/__/__/mesh/src/serial/serial_handler_dfu.c.obj
 .debug_abbrev  0x000000000000379d      0x3ba CMakeFiles/51_dfu.dir/__/__/mesh/src/serial/serial_handler_mesh.c.obj
 .debug_abbrev  0x0000000000003b57      0x31c CMakeFiles/51_dfu.dir/__/__/mesh/src/serial/serial_handler_models.c.obj
 .debug_abbrev  0x0000000000003e73      0x250 CMakeFiles/51_dfu.dir/__/__/mesh/src/serial/serial_handler_openmesh.c.obj
 .debug_abbrev  0x00000000000040c3      0x3e4 CMakeFiles/51_dfu.dir/__/__/mesh/src/serial/serial_handler_prov.c.obj
 .debug_abbrev  0x00000000000044a7      0x2c5 CMakeFiles/51_dfu.dir/__/__/mesh/src/serial/serial_uart.c.obj
 .debug_abbrev  0x000000000000476c      0x57b CMakeFiles/51_dfu.dir/__/__/mesh/src/dfu/nrf_mesh_dfu.c.obj
 .debug_abbrev  0x0000000000004ce7       0x14 CMakeFiles/51_dfu.dir/__/__/toolchain/gcc/gcc_startup_nrf51.S.obj
 .debug_abbrev  0x0000000000004cfb      0x106 CMakeFiles/51_dfu.dir/__/__/toolchain/system_nrf51.c.obj
 .debug_abbrev  0x0000000000004e01      0x2a9 ../../mesh/lib_51_MBTLE_PB_ADV_EE.a(nrf_mesh_prov.c.obj)
 .debug_abbrev  0x00000000000050aa      0x4f3 ../../mesh/lib_51_MBTLE_PB_ADV_EE.a(prov_bearer_adv.c.obj)
 .debug_abbrev  0x000000000000559d      0x3c8 ../../mesh/lib_51_MBTLE_PB_ADV_EE.a(prov_utils.c.obj)
 .debug_abbrev  0x0000000000005965      0x322 ../../mesh/lib_51_MBTLE_PB_ADV_EE.a(prov_beacon.c.obj)
 .debug_abbrev  0x0000000000005c87      0x46f ../../mesh/lib_51_MBTLE_PB_ADV_EE.a(prov_provisionee.c.obj)
 .debug_abbrev  0x00000000000060f6      0x32e ../../mesh/lib_51_MBTLE_PB_ADV_EE.a(provisioning.c.obj)
 .debug_abbrev  0x0000000000006424      0x415 ../../mesh/lib_51_MBTLE_PB_ADV_ER.a(prov_provisioner.c.obj)
 .debug_abbrev  0x0000000000006839      0x4d2 ../../mesh/lib_51_MBTLE_CORE.a(bearer_adv.c.obj)
 .debug_abbrev  0x0000000000006d0b      0x2d8 ../../mesh/lib_51_MBTLE_CORE.a(fifo.c.obj)
 .debug_abbrev  0x0000000000006fe3      0x3e2 ../../mesh/lib_51_MBTLE_CORE.a(packet_mgr.c.obj)
 .debug_abbrev  0x00000000000073c5      0x40b ../../mesh/lib_51_MBTLE_CORE.a(radio.c.obj)
 .debug_abbrev  0x00000000000077d0      0x2d3 ../../mesh/lib_51_MBTLE_CORE.a(timer.c.obj)
 .debug_abbrev  0x0000000000007aa3      0x3d1 ../../mesh/lib_51_MBTLE_CORE.a(timer_scheduler.c.obj)
 .debug_abbrev  0x0000000000007e74      0x365 ../../mesh/lib_51_MBTLE_CORE.a(beacon.c.obj)
 .debug_abbrev  0x00000000000081d9      0x454 ../../mesh/lib_51_MBTLE_CORE.a(bearer.c.obj)
 .debug_abbrev  0x000000000000862d      0x49e ../../mesh/lib_51_MBTLE_CORE.a(bearer_event.c.obj)
 .debug_abbrev  0x0000000000008acb      0x240 ../../mesh/lib_51_MBTLE_CORE.a(nrf_mesh_configure.c.obj)
 .debug_abbrev  0x0000000000008d0b      0x324 ../../mesh/lib_51_MBTLE_CORE.a(enc.c.obj)
 .debug_abbrev  0x000000000000902f      0x2ab ../../mesh/lib_51_MBTLE_CORE.a(event.c.obj)
 .debug_abbrev  0x00000000000092da      0x1c6 ../../mesh/lib_51_MBTLE_CORE.a(hal.c.obj)
 .debug_abbrev  0x00000000000094a0      0x24e ../../mesh/lib_51_MBTLE_CORE.a(log.c.obj)
 .debug_abbrev  0x00000000000096ee      0x3b5 ../../mesh/lib_51_MBTLE_CORE.a(net_beacon.c.obj)
 .debug_abbrev  0x0000000000009aa3      0x4f5 ../../mesh/lib_51_MBTLE_CORE.a(net_state.c.obj)
 .debug_abbrev  0x0000000000009f98      0x49d ../../mesh/lib_51_MBTLE_CORE.a(nrf_mesh.c.obj)
 .debug_abbrev  0x000000000000a435      0x20d ../../mesh/lib_51_MBTLE_CORE.a(nrf_mesh_keygen.c.obj)
 .debug_abbrev  0x000000000000a642      0x24a ../../mesh/lib_51_MBTLE_CORE.a(nrf_mesh_utils.c.obj)
 .debug_abbrev  0x000000000000a88c      0x1a8 ../../mesh/lib_51_MBTLE_CORE.a(radio_config.c.obj)
 .debug_abbrev  0x000000000000aa34      0x417 ../../mesh/lib_51_MBTLE_CORE.a(packet_buffer.c.obj)
 .debug_abbrev  0x000000000000ae4b      0x1af ../../mesh/lib_51_MBTLE_CORE.a(rand.c.obj)
 .debug_abbrev  0x000000000000affa      0x14d ../../mesh/lib_51_MBTLE_CORE.a(ticker.c.obj)
 .debug_abbrev  0x000000000000b147      0x68c ../../mesh/lib_51_MBTLE_CORE.a(transport.c.obj)
 .debug_abbrev  0x000000000000b7d3      0x24a ../../mesh/lib_51_MBTLE_CORE.a(internal_event.c.obj)
 .debug_abbrev  0x000000000000ba1d      0x3f6 ../../mesh/lib_51_MBTLE_CORE.a(mesh_flash.c.obj)
 .debug_abbrev  0x000000000000be13      0x22b ../../mesh/lib_51_MBTLE_CORE.a(nrf_flash.c.obj)
 .debug_abbrev  0x000000000000c03e      0x53e ../../mesh/lib_51_MBTLE_CORE.a(flash_manager.c.obj)
 .debug_abbrev  0x000000000000c57c      0x504 ../../mesh/lib_51_MBTLE_CORE.a(flash_manager_defrag.c.obj)
 .debug_abbrev  0x000000000000ca80      0x283 ../../mesh/lib_51_MBTLE_CORE.a(flash_manager_internal.c.obj)
 .debug_abbrev  0x000000000000cd03      0x2f8 ../../mesh/lib_51_MBTLE_CORE.a(aes.c.obj)
 .debug_abbrev  0x000000000000cffb      0x222 ../../mesh/lib_51_MBTLE_CORE.a(queue.c.obj)
 .debug_abbrev  0x000000000000d21d      0x2a5 ../../mesh/lib_51_MBTLE_CORE.a(msqueue.c.obj)
 .debug_abbrev  0x000000000000d4c2      0x496 ../../mesh/lib_51_MBTLE_CORE.a(timeslot.c.obj)
 .debug_abbrev  0x000000000000d958      0x2a4 ../../mesh/lib_51_MBTLE_CORE.a(aes_cmac.c.obj)
 .debug_abbrev  0x000000000000dbfc      0x29c ../../mesh/lib_51_MBTLE_CORE.a(ccm_soft.c.obj)
 .debug_abbrev  0x000000000000de98      0x278 ../../mesh/lib_51_MBTLE_CORE.a(msg_cache.c.obj)
 .debug_abbrev  0x000000000000e110      0x50c ../../mesh/lib_51_MBTLE_CORE.a(network.c.obj)
 .debug_abbrev  0x000000000000e61c      0x242 ../../mesh/lib_51_MBTLE_CORE.a(packet.c.obj)
 .debug_abbrev  0x000000000000e85e      0x24c ../../mesh/lib_51_MBTLE_CORE.a(replay_cache.c.obj)
 .debug_abbrev  0x000000000000eaaa      0x34b ../../lib/rtt/lib_51_RTT_LIB.a(SEGGER_RTT.c.obj)
 .debug_abbrev  0x000000000000edf5      0x364 ../../lib/rtt/lib_51_RTT_LIB.a(SEGGER_RTT_printf.c.obj)
 .debug_abbrev  0x000000000000f159      0x44a ../../lib/micro-ecc/lib_51_UECC_LIB.a(uECC.c.obj)

.debug_loc      0x0000000000000000    0x233a6
 .debug_loc     0x0000000000000000      0x24c CMakeFiles/51_dfu.dir/src/main.c.obj
 .debug_loc     0x000000000000024c      0x35a CMakeFiles/51_dfu.dir/__/nrf_mesh_sdk.c.obj
 .debug_loc     0x00000000000005a6     0x250c CMakeFiles/51_dfu.dir/__/__/mesh/src/access/access.c.obj
 .debug_loc     0x0000000000002ab2      0x8f2 CMakeFiles/51_dfu.dir/__/__/mesh/src/access/access_publish.c.obj
 .debug_loc     0x00000000000033a4      0x78e CMakeFiles/51_dfu.dir/__/__/mesh/src/access/access_reliable.c.obj
 .debug_loc     0x0000000000003b32     0x3787 CMakeFiles/51_dfu.dir/__/__/mesh/src/access/device_state_manager.c.obj
 .debug_loc     0x00000000000072b9       0xf7 CMakeFiles/51_dfu.dir/__/__/mesh/src/serial/nrf_mesh_serial.c.obj
 .debug_loc     0x00000000000073b0      0x32c CMakeFiles/51_dfu.dir/__/__/mesh/src/serial/serial.c.obj
 .debug_loc     0x00000000000076dc      0x449 CMakeFiles/51_dfu.dir/__/__/mesh/src/serial/serial_bearer.c.obj
 .debug_loc     0x0000000000007b25      0x1bd CMakeFiles/51_dfu.dir/__/__/mesh/src/serial/serial_handler_common.c.obj
 .debug_loc     0x0000000000007ce2      0x80b CMakeFiles/51_dfu.dir/__/__/mesh/src/serial/serial_handler_access.c.obj
 .debug_loc     0x00000000000084ed       0x42 CMakeFiles/51_dfu.dir/__/__/mesh/src/serial/serial_handler_app.c.obj
 .debug_loc     0x000000000000852f       0x55 CMakeFiles/51_dfu.dir/__/__/mesh/src/serial/serial_handler_config.c.obj
 .debug_loc     0x0000000000008584      0x3e7 CMakeFiles/51_dfu.dir/__/__/mesh/src/serial/serial_handler_device.c.obj
 .debug_loc     0x000000000000896b      0x346 CMakeFiles/51_dfu.dir/__/__/mesh/src/serial/serial_handler_dfu.c.obj
 .debug_loc     0x0000000000008cb1      0x9da CMakeFiles/51_dfu.dir/__/__/mesh/src/serial/serial_handler_mesh.c.obj
 .debug_loc     0x000000000000968b      0x351 CMakeFiles/51_dfu.dir/__/__/mesh/src/serial/serial_handler_models.c.obj
 .debug_loc     0x00000000000099dc       0x58 CMakeFiles/51_dfu.dir/__/__/mesh/src/serial/serial_handler_openmesh.c.obj
 .debug_loc     0x0000000000009a34      0x5f3 CMakeFiles/51_dfu.dir/__/__/mesh/src/serial/serial_handler_prov.c.obj
 .debug_loc     0x000000000000a027       0xca CMakeFiles/51_dfu.dir/__/__/mesh/src/serial/serial_uart.c.obj
 .debug_loc     0x000000000000a0f1      0xccd CMakeFiles/51_dfu.dir/__/__/mesh/src/dfu/nrf_mesh_dfu.c.obj
 .debug_loc     0x000000000000adbe      0x889 ../../mesh/lib_51_MBTLE_PB_ADV_EE.a(nrf_mesh_prov.c.obj)
 .debug_loc     0x000000000000b647     0x14aa ../../mesh/lib_51_MBTLE_PB_ADV_EE.a(prov_bearer_adv.c.obj)
 .debug_loc     0x000000000000caf1      0x5a0 ../../mesh/lib_51_MBTLE_PB_ADV_EE.a(prov_utils.c.obj)
 .debug_loc     0x000000000000d091      0x1c9 ../../mesh/lib_51_MBTLE_PB_ADV_EE.a(prov_beacon.c.obj)
 .debug_loc     0x000000000000d25a      0x72b ../../mesh/lib_51_MBTLE_PB_ADV_EE.a(prov_provisionee.c.obj)
 .debug_loc     0x000000000000d985      0x826 ../../mesh/lib_51_MBTLE_PB_ADV_EE.a(provisioning.c.obj)
 .debug_loc     0x000000000000e1ab      0x759 ../../mesh/lib_51_MBTLE_PB_ADV_ER.a(prov_provisioner.c.obj)
 .debug_loc     0x000000000000e904     0x1082 ../../mesh/lib_51_MBTLE_CORE.a(bearer_adv.c.obj)
 .debug_loc     0x000000000000f986      0x584 ../../mesh/lib_51_MBTLE_CORE.a(fifo.c.obj)
 .debug_loc     0x000000000000ff0a      0x730 ../../mesh/lib_51_MBTLE_CORE.a(packet_mgr.c.obj)
 .debug_loc     0x000000000001063a      0x39a ../../mesh/lib_51_MBTLE_CORE.a(radio.c.obj)
 .debug_loc     0x00000000000109d4      0x7b7 ../../mesh/lib_51_MBTLE_CORE.a(timer.c.obj)
 .debug_loc     0x000000000001118b      0x5ed ../../mesh/lib_51_MBTLE_CORE.a(timer_scheduler.c.obj)
 .debug_loc     0x0000000000011778      0x5d9 ../../mesh/lib_51_MBTLE_CORE.a(beacon.c.obj)
 .debug_loc     0x0000000000011d51      0x8c7 ../../mesh/lib_51_MBTLE_CORE.a(bearer.c.obj)
 .debug_loc     0x0000000000012618      0x545 ../../mesh/lib_51_MBTLE_CORE.a(bearer_event.c.obj)
 .debug_loc     0x0000000000012b5d       0x2c ../../mesh/lib_51_MBTLE_CORE.a(nrf_mesh_configure.c.obj)
 .debug_loc     0x0000000000012b89      0xc1f ../../mesh/lib_51_MBTLE_CORE.a(enc.c.obj)
 .debug_loc     0x00000000000137a8      0x312 ../../mesh/lib_51_MBTLE_CORE.a(event.c.obj)
 .debug_loc     0x0000000000013aba       0x63 ../../mesh/lib_51_MBTLE_CORE.a(hal.c.obj)
 .debug_loc     0x0000000000013b1d      0x2f0 ../../mesh/lib_51_MBTLE_CORE.a(log.c.obj)
 .debug_loc     0x0000000000013e0d      0x3e5 ../../mesh/lib_51_MBTLE_CORE.a(net_beacon.c.obj)
 .debug_loc     0x00000000000141f2      0x729 ../../mesh/lib_51_MBTLE_CORE.a(net_state.c.obj)
 .debug_loc     0x000000000001491b      0x3dc ../../mesh/lib_51_MBTLE_CORE.a(nrf_mesh.c.obj)
 .debug_loc     0x0000000000014cf7      0x226 ../../mesh/lib_51_MBTLE_CORE.a(nrf_mesh_keygen.c.obj)
 .debug_loc     0x0000000000014f1d      0x12a ../../mesh/lib_51_MBTLE_CORE.a(nrf_mesh_utils.c.obj)
 .debug_loc     0x0000000000015047      0x2e2 ../../mesh/lib_51_MBTLE_CORE.a(radio_config.c.obj)
 .debug_loc     0x0000000000015329      0xe4d ../../mesh/lib_51_MBTLE_CORE.a(packet_buffer.c.obj)
 .debug_loc     0x0000000000016176      0x1b2 ../../mesh/lib_51_MBTLE_CORE.a(rand.c.obj)
 .debug_loc     0x0000000000016328     0x248a ../../mesh/lib_51_MBTLE_CORE.a(transport.c.obj)
 .debug_loc     0x00000000000187b2      0x135 ../../mesh/lib_51_MBTLE_CORE.a(internal_event.c.obj)
 .debug_loc     0x00000000000188e7      0xa6a ../../mesh/lib_51_MBTLE_CORE.a(mesh_flash.c.obj)
 .debug_loc     0x0000000000019351       0xf4 ../../mesh/lib_51_MBTLE_CORE.a(nrf_flash.c.obj)
 .debug_loc     0x0000000000019445     0x2190 ../../mesh/lib_51_MBTLE_CORE.a(flash_manager.c.obj)
 .debug_loc     0x000000000001b5d5      0xc03 ../../mesh/lib_51_MBTLE_CORE.a(flash_manager_defrag.c.obj)
 .debug_loc     0x000000000001c1d8      0x149 ../../mesh/lib_51_MBTLE_CORE.a(flash_manager_internal.c.obj)
 .debug_loc     0x000000000001c321       0xcb ../../mesh/lib_51_MBTLE_CORE.a(aes.c.obj)
 .debug_loc     0x000000000001c3ec      0x251 ../../mesh/lib_51_MBTLE_CORE.a(queue.c.obj)
 .debug_loc     0x000000000001c63d      0x4d7 ../../mesh/lib_51_MBTLE_CORE.a(msqueue.c.obj)
 .debug_loc     0x000000000001cb14      0x31f ../../mesh/lib_51_MBTLE_CORE.a(timeslot.c.obj)
 .debug_loc     0x000000000001ce33      0x4c9 ../../mesh/lib_51_MBTLE_CORE.a(aes_cmac.c.obj)
 .debug_loc     0x000000000001d2fc      0x88b ../../mesh/lib_51_MBTLE_CORE.a(ccm_soft.c.obj)
 .debug_loc     0x000000000001db87      0x139 ../../mesh/lib_51_MBTLE_CORE.a(msg_cache.c.obj)
 .debug_loc     0x000000000001dcc0      0xafd ../../mesh/lib_51_MBTLE_CORE.a(network.c.obj)
 .debug_loc     0x000000000001e7bd      0x144 ../../mesh/lib_51_MBTLE_CORE.a(packet.c.obj)
 .debug_loc     0x000000000001e901      0x248 ../../mesh/lib_51_MBTLE_CORE.a(replay_cache.c.obj)
 .debug_loc     0x000000000001eb49     0x18a4 ../../lib/rtt/lib_51_RTT_LIB.a(SEGGER_RTT.c.obj)
 .debug_loc     0x00000000000203ed      0x7bc ../../lib/rtt/lib_51_RTT_LIB.a(SEGGER_RTT_printf.c.obj)
 .debug_loc     0x0000000000020ba9     0x27fd ../../lib/micro-ecc/lib_51_UECC_LIB.a(uECC.c.obj)

.debug_aranges  0x0000000000000000     0x1f78
 .debug_aranges
                0x0000000000000000       0x28 CMakeFiles/51_dfu.dir/src/main.c.obj
 .debug_aranges
                0x0000000000000028       0x78 CMakeFiles/51_dfu.dir/__/nrf_mesh_sdk.c.obj
 .debug_aranges
                0x00000000000000a0      0x190 CMakeFiles/51_dfu.dir/__/__/mesh/src/access/access.c.obj
 .debug_aranges
                0x0000000000000230       0x48 CMakeFiles/51_dfu.dir/__/__/mesh/src/access/access_publish.c.obj
 .debug_aranges
                0x0000000000000278       0x50 CMakeFiles/51_dfu.dir/__/__/mesh/src/access/access_reliable.c.obj
 .debug_aranges
                0x00000000000002c8      0x298 CMakeFiles/51_dfu.dir/__/__/mesh/src/access/device_state_manager.c.obj
 .debug_aranges
                0x0000000000000560       0x38 CMakeFiles/51_dfu.dir/__/__/mesh/src/serial/nrf_mesh_serial.c.obj
 .debug_aranges
                0x0000000000000598       0x60 CMakeFiles/51_dfu.dir/__/__/mesh/src/serial/serial.c.obj
 .debug_aranges
                0x00000000000005f8       0x68 CMakeFiles/51_dfu.dir/__/__/mesh/src/serial/serial_bearer.c.obj
 .debug_aranges
                0x0000000000000660       0x28 CMakeFiles/51_dfu.dir/__/__/mesh/src/serial/serial_handler_common.c.obj
 .debug_aranges
                0x0000000000000688       0xd0 CMakeFiles/51_dfu.dir/__/__/mesh/src/serial/serial_handler_access.c.obj
 .debug_aranges
                0x0000000000000758       0x28 CMakeFiles/51_dfu.dir/__/__/mesh/src/serial/serial_handler_app.c.obj
 .debug_aranges
                0x0000000000000780       0x20 CMakeFiles/51_dfu.dir/__/__/mesh/src/serial/serial_handler_config.c.obj
 .debug_aranges
                0x00000000000007a0       0x78 CMakeFiles/51_dfu.dir/__/__/mesh/src/serial/serial_handler_device.c.obj
 .debug_aranges
                0x0000000000000818       0x30 CMakeFiles/51_dfu.dir/__/__/mesh/src/serial/serial_handler_dfu.c.obj
 .debug_aranges
                0x0000000000000848      0x118 CMakeFiles/51_dfu.dir/__/__/mesh/src/serial/serial_handler_mesh.c.obj
 .debug_aranges
                0x0000000000000960       0x48 CMakeFiles/51_dfu.dir/__/__/mesh/src/serial/serial_handler_models.c.obj
 .debug_aranges
                0x00000000000009a8       0x20 CMakeFiles/51_dfu.dir/__/__/mesh/src/serial/serial_handler_openmesh.c.obj
 .debug_aranges
                0x00000000000009c8       0x50 CMakeFiles/51_dfu.dir/__/__/mesh/src/serial/serial_handler_prov.c.obj
 .debug_aranges
                0x0000000000000a18       0x38 CMakeFiles/51_dfu.dir/__/__/mesh/src/serial/serial_uart.c.obj
 .debug_aranges
                0x0000000000000a50       0xa8 CMakeFiles/51_dfu.dir/__/__/mesh/src/dfu/nrf_mesh_dfu.c.obj
 .debug_aranges
                0x0000000000000af8       0x20 CMakeFiles/51_dfu.dir/__/__/toolchain/gcc/gcc_startup_nrf51.S.obj
 .debug_aranges
                0x0000000000000b18       0x28 CMakeFiles/51_dfu.dir/__/__/toolchain/system_nrf51.c.obj
 .debug_aranges
                0x0000000000000b40       0x58 ../../mesh/lib_51_MBTLE_PB_ADV_EE.a(nrf_mesh_prov.c.obj)
 .debug_aranges
                0x0000000000000b98       0xb8 ../../mesh/lib_51_MBTLE_PB_ADV_EE.a(prov_bearer_adv.c.obj)
 .debug_aranges
                0x0000000000000c50       0x70 ../../mesh/lib_51_MBTLE_PB_ADV_EE.a(prov_utils.c.obj)
 .debug_aranges
                0x0000000000000cc0       0x30 ../../mesh/lib_51_MBTLE_PB_ADV_EE.a(prov_beacon.c.obj)
 .debug_aranges
                0x0000000000000cf0       0x70 ../../mesh/lib_51_MBTLE_PB_ADV_EE.a(prov_provisionee.c.obj)
 .debug_aranges
                0x0000000000000d60       0xc8 ../../mesh/lib_51_MBTLE_PB_ADV_EE.a(provisioning.c.obj)
 .debug_aranges
                0x0000000000000e28       0x70 ../../mesh/lib_51_MBTLE_PB_ADV_ER.a(prov_provisioner.c.obj)
 .debug_aranges
                0x0000000000000e98      0x100 ../../mesh/lib_51_MBTLE_CORE.a(bearer_adv.c.obj)
 .debug_aranges
                0x0000000000000f98       0x60 ../../mesh/lib_51_MBTLE_CORE.a(fifo.c.obj)
 .debug_aranges
                0x0000000000000ff8       0x48 ../../mesh/lib_51_MBTLE_CORE.a(packet_mgr.c.obj)
 .debug_aranges
                0x0000000000001040       0x98 ../../mesh/lib_51_MBTLE_CORE.a(radio.c.obj)
 .debug_aranges
                0x00000000000010d8       0x58 ../../mesh/lib_51_MBTLE_CORE.a(timer.c.obj)
 .debug_aranges
                0x0000000000001130       0x60 ../../mesh/lib_51_MBTLE_CORE.a(timer_scheduler.c.obj)
 .debug_aranges
                0x0000000000001190       0x38 ../../mesh/lib_51_MBTLE_CORE.a(beacon.c.obj)
 .debug_aranges
                0x00000000000011c8       0x90 ../../mesh/lib_51_MBTLE_CORE.a(bearer.c.obj)
 .debug_aranges
                0x0000000000001258       0x70 ../../mesh/lib_51_MBTLE_CORE.a(bearer_event.c.obj)
 .debug_aranges
                0x00000000000012c8       0x30 ../../mesh/lib_51_MBTLE_CORE.a(nrf_mesh_configure.c.obj)
 .debug_aranges
                0x00000000000012f8       0x70 ../../mesh/lib_51_MBTLE_CORE.a(enc.c.obj)
 .debug_aranges
                0x0000000000001368       0x30 ../../mesh/lib_51_MBTLE_CORE.a(event.c.obj)
 .debug_aranges
                0x0000000000001398       0x30 ../../mesh/lib_51_MBTLE_CORE.a(hal.c.obj)
 .debug_aranges
                0x00000000000013c8       0x48 ../../mesh/lib_51_MBTLE_CORE.a(log.c.obj)
 .debug_aranges
                0x0000000000001410       0x40 ../../mesh/lib_51_MBTLE_CORE.a(net_beacon.c.obj)
 .debug_aranges
                0x0000000000001450       0xb8 ../../mesh/lib_51_MBTLE_CORE.a(net_state.c.obj)
 .debug_aranges
                0x0000000000001508       0x80 ../../mesh/lib_51_MBTLE_CORE.a(nrf_mesh.c.obj)
 .debug_aranges
                0x0000000000001588       0x40 ../../mesh/lib_51_MBTLE_CORE.a(nrf_mesh_keygen.c.obj)
 .debug_aranges
                0x00000000000015c8       0x30 ../../mesh/lib_51_MBTLE_CORE.a(nrf_mesh_utils.c.obj)
 .debug_aranges
                0x00000000000015f8       0x40 ../../mesh/lib_51_MBTLE_CORE.a(radio_config.c.obj)
 .debug_aranges
                0x0000000000001638       0x68 ../../mesh/lib_51_MBTLE_CORE.a(packet_buffer.c.obj)
 .debug_aranges
                0x00000000000016a0       0x40 ../../mesh/lib_51_MBTLE_CORE.a(rand.c.obj)
 .debug_aranges
                0x00000000000016e0       0x30 ../../mesh/lib_51_MBTLE_CORE.a(ticker.c.obj)
 .debug_aranges
                0x0000000000001710       0xd8 ../../mesh/lib_51_MBTLE_CORE.a(transport.c.obj)
 .debug_aranges
                0x00000000000017e8       0x30 ../../mesh/lib_51_MBTLE_CORE.a(internal_event.c.obj)
 .debug_aranges
                0x0000000000001818       0x58 ../../mesh/lib_51_MBTLE_CORE.a(mesh_flash.c.obj)
 .debug_aranges
                0x0000000000001870       0x28 ../../mesh/lib_51_MBTLE_CORE.a(nrf_flash.c.obj)
 .debug_aranges
                0x0000000000001898       0xb8 ../../mesh/lib_51_MBTLE_CORE.a(flash_manager.c.obj)
 .debug_aranges
                0x0000000000001950       0xa8 ../../mesh/lib_51_MBTLE_CORE.a(flash_manager_defrag.c.obj)
 .debug_aranges
                0x00000000000019f8       0x20 ../../mesh/lib_51_MBTLE_CORE.a(flash_manager_internal.c.obj)
 .debug_aranges
                0x0000000000001a18       0x28 ../../mesh/lib_51_MBTLE_CORE.a(aes.c.obj)
 .debug_aranges
                0x0000000000001a40       0x38 ../../mesh/lib_51_MBTLE_CORE.a(queue.c.obj)
 .debug_aranges
                0x0000000000001a78       0x40 ../../mesh/lib_51_MBTLE_CORE.a(msqueue.c.obj)
 .debug_aranges
                0x0000000000001ab8       0xa8 ../../mesh/lib_51_MBTLE_CORE.a(timeslot.c.obj)
 .debug_aranges
                0x0000000000001b60       0x28 ../../mesh/lib_51_MBTLE_CORE.a(aes_cmac.c.obj)
 .debug_aranges
                0x0000000000001b88       0x40 ../../mesh/lib_51_MBTLE_CORE.a(ccm_soft.c.obj)
 .debug_aranges
                0x0000000000001bc8       0x38 ../../mesh/lib_51_MBTLE_CORE.a(msg_cache.c.obj)
 .debug_aranges
                0x0000000000001c00       0x58 ../../mesh/lib_51_MBTLE_CORE.a(network.c.obj)
 .debug_aranges
                0x0000000000001c58       0x20 ../../mesh/lib_51_MBTLE_CORE.a(packet.c.obj)
 .debug_aranges
                0x0000000000001c78       0x48 ../../mesh/lib_51_MBTLE_CORE.a(replay_cache.c.obj)
 .debug_aranges
                0x0000000000001cc0       0xd8 ../../lib/rtt/lib_51_RTT_LIB.a(SEGGER_RTT.c.obj)
 .debug_aranges
                0x0000000000001d98       0x38 ../../lib/rtt/lib_51_RTT_LIB.a(SEGGER_RTT_printf.c.obj)
 .debug_aranges
                0x0000000000001dd0      0x1a8 ../../lib/micro-ecc/lib_51_UECC_LIB.a(uECC.c.obj)

.debug_ranges   0x0000000000000000     0x56d8
 .debug_ranges  0x0000000000000000       0x90 CMakeFiles/51_dfu.dir/src/main.c.obj
 .debug_ranges  0x0000000000000090       0xc8 CMakeFiles/51_dfu.dir/__/nrf_mesh_sdk.c.obj
 .debug_ranges  0x0000000000000158      0x620 CMakeFiles/51_dfu.dir/__/__/mesh/src/access/access.c.obj
 .debug_ranges  0x0000000000000778      0x268 CMakeFiles/51_dfu.dir/__/__/mesh/src/access/access_publish.c.obj
 .debug_ranges  0x00000000000009e0      0x218 CMakeFiles/51_dfu.dir/__/__/mesh/src/access/access_reliable.c.obj
 .debug_ranges  0x0000000000000bf8      0x9e0 CMakeFiles/51_dfu.dir/__/__/mesh/src/access/device_state_manager.c.obj
 .debug_ranges  0x00000000000015d8       0x40 CMakeFiles/51_dfu.dir/__/__/mesh/src/serial/nrf_mesh_serial.c.obj
 .debug_ranges  0x0000000000001618       0xc0 CMakeFiles/51_dfu.dir/__/__/mesh/src/serial/serial.c.obj
 .debug_ranges  0x00000000000016d8      0x118 CMakeFiles/51_dfu.dir/__/__/mesh/src/serial/serial_bearer.c.obj
 .debug_ranges  0x00000000000017f0       0x18 CMakeFiles/51_dfu.dir/__/__/mesh/src/serial/serial_handler_common.c.obj
 .debug_ranges  0x0000000000001808       0xd8 CMakeFiles/51_dfu.dir/__/__/mesh/src/serial/serial_handler_access.c.obj
 .debug_ranges  0x00000000000018e0       0x18 CMakeFiles/51_dfu.dir/__/__/mesh/src/serial/serial_handler_app.c.obj
 .debug_ranges  0x00000000000018f8       0x28 CMakeFiles/51_dfu.dir/__/__/mesh/src/serial/serial_handler_config.c.obj
 .debug_ranges  0x0000000000001920       0xb0 CMakeFiles/51_dfu.dir/__/__/mesh/src/serial/serial_handler_device.c.obj
 .debug_ranges  0x00000000000019d0       0xe0 CMakeFiles/51_dfu.dir/__/__/mesh/src/serial/serial_handler_dfu.c.obj
 .debug_ranges  0x0000000000001ab0      0x1e0 CMakeFiles/51_dfu.dir/__/__/mesh/src/serial/serial_handler_mesh.c.obj
 .debug_ranges  0x0000000000001c90       0xb0 CMakeFiles/51_dfu.dir/__/__/mesh/src/serial/serial_handler_models.c.obj
 .debug_ranges  0x0000000000001d40       0x10 CMakeFiles/51_dfu.dir/__/__/mesh/src/serial/serial_handler_openmesh.c.obj
 .debug_ranges  0x0000000000001d50      0x180 CMakeFiles/51_dfu.dir/__/__/mesh/src/serial/serial_handler_prov.c.obj
 .debug_ranges  0x0000000000001ed0       0x28 CMakeFiles/51_dfu.dir/__/__/mesh/src/serial/serial_uart.c.obj
 .debug_ranges  0x0000000000001ef8      0x250 CMakeFiles/51_dfu.dir/__/__/mesh/src/dfu/nrf_mesh_dfu.c.obj
 .debug_ranges  0x0000000000002148       0x70 CMakeFiles/51_dfu.dir/__/__/toolchain/system_nrf51.c.obj
 .debug_ranges  0x00000000000021b8       0x60 ../../mesh/lib_51_MBTLE_PB_ADV_EE.a(nrf_mesh_prov.c.obj)
 .debug_ranges  0x0000000000002218      0x258 ../../mesh/lib_51_MBTLE_PB_ADV_EE.a(prov_bearer_adv.c.obj)
 .debug_ranges  0x0000000000002470       0x90 ../../mesh/lib_51_MBTLE_PB_ADV_EE.a(prov_utils.c.obj)
 .debug_ranges  0x0000000000002500       0x50 ../../mesh/lib_51_MBTLE_PB_ADV_EE.a(prov_beacon.c.obj)
 .debug_ranges  0x0000000000002550       0xc0 ../../mesh/lib_51_MBTLE_PB_ADV_EE.a(prov_provisionee.c.obj)
 .debug_ranges  0x0000000000002610       0xb8 ../../mesh/lib_51_MBTLE_PB_ADV_EE.a(provisioning.c.obj)
 .debug_ranges  0x00000000000026c8       0x78 ../../mesh/lib_51_MBTLE_PB_ADV_ER.a(prov_provisioner.c.obj)
 .debug_ranges  0x0000000000002740      0x198 ../../mesh/lib_51_MBTLE_CORE.a(bearer_adv.c.obj)
 .debug_ranges  0x00000000000028d8       0x80 ../../mesh/lib_51_MBTLE_CORE.a(fifo.c.obj)
 .debug_ranges  0x0000000000002958      0x148 ../../mesh/lib_51_MBTLE_CORE.a(packet_mgr.c.obj)
 .debug_ranges  0x0000000000002aa0      0x110 ../../mesh/lib_51_MBTLE_CORE.a(radio.c.obj)
 .debug_ranges  0x0000000000002bb0       0xa8 ../../mesh/lib_51_MBTLE_CORE.a(timer.c.obj)
 .debug_ranges  0x0000000000002c58      0x250 ../../mesh/lib_51_MBTLE_CORE.a(timer_scheduler.c.obj)
 .debug_ranges  0x0000000000002ea8       0x58 ../../mesh/lib_51_MBTLE_CORE.a(beacon.c.obj)
 .debug_ranges  0x0000000000002f00      0x1c0 ../../mesh/lib_51_MBTLE_CORE.a(bearer.c.obj)
 .debug_ranges  0x00000000000030c0       0xf8 ../../mesh/lib_51_MBTLE_CORE.a(bearer_event.c.obj)
 .debug_ranges  0x00000000000031b8       0x20 ../../mesh/lib_51_MBTLE_CORE.a(nrf_mesh_configure.c.obj)
 .debug_ranges  0x00000000000031d8       0x60 ../../mesh/lib_51_MBTLE_CORE.a(enc.c.obj)
 .debug_ranges  0x0000000000003238       0xa8 ../../mesh/lib_51_MBTLE_CORE.a(event.c.obj)
 .debug_ranges  0x00000000000032e0       0x20 ../../mesh/lib_51_MBTLE_CORE.a(hal.c.obj)
 .debug_ranges  0x0000000000003300       0x38 ../../mesh/lib_51_MBTLE_CORE.a(log.c.obj)
 .debug_ranges  0x0000000000003338       0xa8 ../../mesh/lib_51_MBTLE_CORE.a(net_beacon.c.obj)
 .debug_ranges  0x00000000000033e0      0x170 ../../mesh/lib_51_MBTLE_CORE.a(net_state.c.obj)
 .debug_ranges  0x0000000000003550       0xa8 ../../mesh/lib_51_MBTLE_CORE.a(nrf_mesh.c.obj)
 .debug_ranges  0x00000000000035f8       0x30 ../../mesh/lib_51_MBTLE_CORE.a(nrf_mesh_keygen.c.obj)
 .debug_ranges  0x0000000000003628       0x20 ../../mesh/lib_51_MBTLE_CORE.a(nrf_mesh_utils.c.obj)
 .debug_ranges  0x0000000000003648       0xf8 ../../mesh/lib_51_MBTLE_CORE.a(radio_config.c.obj)
 .debug_ranges  0x0000000000003740      0x220 ../../mesh/lib_51_MBTLE_CORE.a(packet_buffer.c.obj)
 .debug_ranges  0x0000000000003960       0x30 ../../mesh/lib_51_MBTLE_CORE.a(rand.c.obj)
 .debug_ranges  0x0000000000003990       0x20 ../../mesh/lib_51_MBTLE_CORE.a(ticker.c.obj)
 .debug_ranges  0x00000000000039b0      0x518 ../../mesh/lib_51_MBTLE_CORE.a(transport.c.obj)
 .debug_ranges  0x0000000000003ec8       0x20 ../../mesh/lib_51_MBTLE_CORE.a(internal_event.c.obj)
 .debug_ranges  0x0000000000003ee8      0x268 ../../mesh/lib_51_MBTLE_CORE.a(mesh_flash.c.obj)
 .debug_ranges  0x0000000000004150       0x48 ../../mesh/lib_51_MBTLE_CORE.a(nrf_flash.c.obj)
 .debug_ranges  0x0000000000004198      0x998 ../../mesh/lib_51_MBTLE_CORE.a(flash_manager.c.obj)
 .debug_ranges  0x0000000000004b30      0x340 ../../mesh/lib_51_MBTLE_CORE.a(flash_manager_defrag.c.obj)
 .debug_ranges  0x0000000000004e70       0x68 ../../mesh/lib_51_MBTLE_CORE.a(flash_manager_internal.c.obj)
 .debug_ranges  0x0000000000004ed8       0x18 ../../mesh/lib_51_MBTLE_CORE.a(aes.c.obj)
 .debug_ranges  0x0000000000004ef0       0x28 ../../mesh/lib_51_MBTLE_CORE.a(queue.c.obj)
 .debug_ranges  0x0000000000004f18       0xf0 ../../mesh/lib_51_MBTLE_CORE.a(msqueue.c.obj)
 .debug_ranges  0x0000000000005008       0xc8 ../../mesh/lib_51_MBTLE_CORE.a(timeslot.c.obj)
 .debug_ranges  0x00000000000050d0       0x18 ../../mesh/lib_51_MBTLE_CORE.a(aes_cmac.c.obj)
 .debug_ranges  0x00000000000050e8       0x30 ../../mesh/lib_51_MBTLE_CORE.a(ccm_soft.c.obj)
 .debug_ranges  0x0000000000005118       0x40 ../../mesh/lib_51_MBTLE_CORE.a(msg_cache.c.obj)
 .debug_ranges  0x0000000000005158      0x110 ../../mesh/lib_51_MBTLE_CORE.a(network.c.obj)
 .debug_ranges  0x0000000000005268       0x28 ../../mesh/lib_51_MBTLE_CORE.a(packet.c.obj)
 .debug_ranges  0x0000000000005290       0x88 ../../mesh/lib_51_MBTLE_CORE.a(replay_cache.c.obj)
 .debug_ranges  0x0000000000005318      0x148 ../../lib/rtt/lib_51_RTT_LIB.a(SEGGER_RTT.c.obj)
 .debug_ranges  0x0000000000005460       0x28 ../../lib/rtt/lib_51_RTT_LIB.a(SEGGER_RTT_printf.c.obj)
 .debug_ranges  0x0000000000005488      0x250 ../../lib/micro-ecc/lib_51_UECC_LIB.a(uECC.c.obj)

.debug_line     0x0000000000000000    0x186d1
 .debug_line    0x0000000000000000      0x6bf CMakeFiles/51_dfu.dir/src/main.c.obj
 .debug_line    0x00000000000006bf      0x63e CMakeFiles/51_dfu.dir/__/nrf_mesh_sdk.c.obj
 .debug_line    0x0000000000000cfd      0xe46 CMakeFiles/51_dfu.dir/__/__/mesh/src/access/access.c.obj
 .debug_line    0x0000000000001b43      0x474 CMakeFiles/51_dfu.dir/__/__/mesh/src/access/access_publish.c.obj
 .debug_line    0x0000000000001fb7      0x4c8 CMakeFiles/51_dfu.dir/__/__/mesh/src/access/access_reliable.c.obj
 .debug_line    0x000000000000247f     0x1575 CMakeFiles/51_dfu.dir/__/__/mesh/src/access/device_state_manager.c.obj
 .debug_line    0x00000000000039f4      0x42c CMakeFiles/51_dfu.dir/__/__/mesh/src/serial/nrf_mesh_serial.c.obj
 .debug_line    0x0000000000003e20      0x5be CMakeFiles/51_dfu.dir/__/__/mesh/src/serial/serial.c.obj
 .debug_line    0x00000000000043de      0x5de CMakeFiles/51_dfu.dir/__/__/mesh/src/serial/serial_bearer.c.obj
 .debug_line    0x00000000000049bc      0x356 CMakeFiles/51_dfu.dir/__/__/mesh/src/serial/serial_handler_common.c.obj
 .debug_line    0x0000000000004d12      0x530 CMakeFiles/51_dfu.dir/__/__/mesh/src/serial/serial_handler_access.c.obj
 .debug_line    0x0000000000005242      0x339 CMakeFiles/51_dfu.dir/__/__/mesh/src/serial/serial_handler_app.c.obj
 .debug_line    0x000000000000557b      0x3df CMakeFiles/51_dfu.dir/__/__/mesh/src/serial/serial_handler_config.c.obj
 .debug_line    0x000000000000595a      0x589 CMakeFiles/51_dfu.dir/__/__/mesh/src/serial/serial_handler_device.c.obj
 .debug_line    0x0000000000005ee3      0x4f8 CMakeFiles/51_dfu.dir/__/__/mesh/src/serial/serial_handler_dfu.c.obj
 .debug_line    0x00000000000063db      0x740 CMakeFiles/51_dfu.dir/__/__/mesh/src/serial/serial_handler_mesh.c.obj
 .debug_line    0x0000000000006b1b      0x440 CMakeFiles/51_dfu.dir/__/__/mesh/src/serial/serial_handler_models.c.obj
 .debug_line    0x0000000000006f5b      0x32f CMakeFiles/51_dfu.dir/__/__/mesh/src/serial/serial_handler_openmesh.c.obj
 .debug_line    0x000000000000728a      0x65f CMakeFiles/51_dfu.dir/__/__/mesh/src/serial/serial_handler_prov.c.obj
 .debug_line    0x00000000000078e9      0x38d CMakeFiles/51_dfu.dir/__/__/mesh/src/serial/serial_uart.c.obj
 .debug_line    0x0000000000007c76      0xcbe CMakeFiles/51_dfu.dir/__/__/mesh/src/dfu/nrf_mesh_dfu.c.obj
 .debug_line    0x0000000000008934       0xac CMakeFiles/51_dfu.dir/__/__/toolchain/gcc/gcc_startup_nrf51.S.obj
 .debug_line    0x00000000000089e0      0x17c CMakeFiles/51_dfu.dir/__/__/toolchain/system_nrf51.c.obj
 .debug_line    0x0000000000008b5c      0x4b9 ../../mesh/lib_51_MBTLE_PB_ADV_EE.a(nrf_mesh_prov.c.obj)
 .debug_line    0x0000000000009015      0xae8 ../../mesh/lib_51_MBTLE_PB_ADV_EE.a(prov_bearer_adv.c.obj)
 .debug_line    0x0000000000009afd      0x53b ../../mesh/lib_51_MBTLE_PB_ADV_EE.a(prov_utils.c.obj)
 .debug_line    0x000000000000a038      0x39f ../../mesh/lib_51_MBTLE_PB_ADV_EE.a(prov_beacon.c.obj)
 .debug_line    0x000000000000a3d7      0x68f ../../mesh/lib_51_MBTLE_PB_ADV_EE.a(prov_provisionee.c.obj)
 .debug_line    0x000000000000aa66      0x5f5 ../../mesh/lib_51_MBTLE_PB_ADV_EE.a(provisioning.c.obj)
 .debug_line    0x000000000000b05b      0x602 ../../mesh/lib_51_MBTLE_PB_ADV_ER.a(prov_provisioner.c.obj)
 .debug_line    0x000000000000b65d      0x974 ../../mesh/lib_51_MBTLE_CORE.a(bearer_adv.c.obj)
 .debug_line    0x000000000000bfd1      0x405 ../../mesh/lib_51_MBTLE_CORE.a(fifo.c.obj)
 .debug_line    0x000000000000c3d6      0x4af ../../mesh/lib_51_MBTLE_CORE.a(packet_mgr.c.obj)
 .debug_line    0x000000000000c885      0x564 ../../mesh/lib_51_MBTLE_CORE.a(radio.c.obj)
 .debug_line    0x000000000000cde9      0x4a5 ../../mesh/lib_51_MBTLE_CORE.a(timer.c.obj)
 .debug_line    0x000000000000d28e      0x501 ../../mesh/lib_51_MBTLE_CORE.a(timer_scheduler.c.obj)
 .debug_line    0x000000000000d78f      0x506 ../../mesh/lib_51_MBTLE_CORE.a(beacon.c.obj)
 .debug_line    0x000000000000dc95      0x63a ../../mesh/lib_51_MBTLE_CORE.a(bearer.c.obj)
 .debug_line    0x000000000000e2cf      0x53b ../../mesh/lib_51_MBTLE_CORE.a(bearer_event.c.obj)
 .debug_line    0x000000000000e80a      0x21c ../../mesh/lib_51_MBTLE_CORE.a(nrf_mesh_configure.c.obj)
 .debug_line    0x000000000000ea26      0x44e ../../mesh/lib_51_MBTLE_CORE.a(enc.c.obj)
 .debug_line    0x000000000000ee74      0x31a ../../mesh/lib_51_MBTLE_CORE.a(event.c.obj)
 .debug_line    0x000000000000f18e      0x2c1 ../../mesh/lib_51_MBTLE_CORE.a(hal.c.obj)
 .debug_line    0x000000000000f44f      0x28c ../../mesh/lib_51_MBTLE_CORE.a(log.c.obj)
 .debug_line    0x000000000000f6db      0x399 ../../mesh/lib_51_MBTLE_CORE.a(net_beacon.c.obj)
 .debug_line    0x000000000000fa74      0x6df ../../mesh/lib_51_MBTLE_CORE.a(net_state.c.obj)
 .debug_line    0x0000000000010153      0x77c ../../mesh/lib_51_MBTLE_CORE.a(nrf_mesh.c.obj)
 .debug_line    0x00000000000108cf      0x2cd ../../mesh/lib_51_MBTLE_CORE.a(nrf_mesh_keygen.c.obj)
 .debug_line    0x0000000000010b9c      0x27b ../../mesh/lib_51_MBTLE_CORE.a(nrf_mesh_utils.c.obj)
 .debug_line    0x0000000000010e17      0x355 ../../mesh/lib_51_MBTLE_CORE.a(radio_config.c.obj)
 .debug_line    0x000000000001116c      0x6a4 ../../mesh/lib_51_MBTLE_CORE.a(packet_buffer.c.obj)
 .debug_line    0x0000000000011810      0x2ab ../../mesh/lib_51_MBTLE_CORE.a(rand.c.obj)
 .debug_line    0x0000000000011abb      0x163 ../../mesh/lib_51_MBTLE_CORE.a(ticker.c.obj)
 .debug_line    0x0000000000011c1e     0x1513 ../../mesh/lib_51_MBTLE_CORE.a(transport.c.obj)
 .debug_line    0x0000000000013131      0x2a8 ../../mesh/lib_51_MBTLE_CORE.a(internal_event.c.obj)
 .debug_line    0x00000000000133d9      0x546 ../../mesh/lib_51_MBTLE_CORE.a(mesh_flash.c.obj)
 .debug_line    0x000000000001391f      0x2e7 ../../mesh/lib_51_MBTLE_CORE.a(nrf_flash.c.obj)
 .debug_line    0x0000000000013c06      0xbb2 ../../mesh/lib_51_MBTLE_CORE.a(flash_manager.c.obj)
 .debug_line    0x00000000000147b8      0x828 ../../mesh/lib_51_MBTLE_CORE.a(flash_manager_defrag.c.obj)
 .debug_line    0x0000000000014fe0      0x2a8 ../../mesh/lib_51_MBTLE_CORE.a(flash_manager_internal.c.obj)
 .debug_line    0x0000000000015288      0x313 ../../mesh/lib_51_MBTLE_CORE.a(aes.c.obj)
 .debug_line    0x000000000001559b      0x329 ../../mesh/lib_51_MBTLE_CORE.a(queue.c.obj)
 .debug_line    0x00000000000158c4      0x397 ../../mesh/lib_51_MBTLE_CORE.a(msqueue.c.obj)
 .debug_line    0x0000000000015c5b      0x5f4 ../../mesh/lib_51_MBTLE_CORE.a(timeslot.c.obj)
 .debug_line    0x000000000001624f      0x2b1 ../../mesh/lib_51_MBTLE_CORE.a(aes_cmac.c.obj)
 .debug_line    0x0000000000016500      0x323 ../../mesh/lib_51_MBTLE_CORE.a(ccm_soft.c.obj)
 .debug_line    0x0000000000016823      0x2b4 ../../mesh/lib_51_MBTLE_CORE.a(msg_cache.c.obj)
 .debug_line    0x0000000000016ad7      0x6f9 ../../mesh/lib_51_MBTLE_CORE.a(network.c.obj)
 .debug_line    0x00000000000171d0      0x27a ../../mesh/lib_51_MBTLE_CORE.a(packet.c.obj)
 .debug_line    0x000000000001744a      0x20f ../../mesh/lib_51_MBTLE_CORE.a(replay_cache.c.obj)
 .debug_line    0x0000000000017659      0x4b5 ../../lib/rtt/lib_51_RTT_LIB.a(SEGGER_RTT.c.obj)
 .debug_line    0x0000000000017b0e      0x2bb ../../lib/rtt/lib_51_RTT_LIB.a(SEGGER_RTT_printf.c.obj)
 .debug_line    0x0000000000017dc9      0x908 ../../lib/micro-ecc/lib_51_UECC_LIB.a(uECC.c.obj)

.debug_str      0x0000000000000000    0x12561
 .debug_str     0x0000000000000000     0x1f41 CMakeFiles/51_dfu.dir/src/main.c.obj
                                       0x2179 (size before relaxing)
 .debug_str     0x0000000000001f41     0x15a8 CMakeFiles/51_dfu.dir/__/nrf_mesh_sdk.c.obj
                                       0x1f12 (size before relaxing)
 .debug_str     0x00000000000034e9     0x13ac CMakeFiles/51_dfu.dir/__/__/mesh/src/access/access.c.obj
                                       0x3138 (size before relaxing)
 .debug_str     0x0000000000004895      0x371 CMakeFiles/51_dfu.dir/__/__/mesh/src/access/access_publish.c.obj
                                        0xbc9 (size before relaxing)
 .debug_str     0x0000000000004c06      0x22d CMakeFiles/51_dfu.dir/__/__/mesh/src/access/access_reliable.c.obj
                                        0xc41 (size before relaxing)
 .debug_str     0x0000000000004e33     0x111b CMakeFiles/51_dfu.dir/__/__/mesh/src/access/device_state_manager.c.obj
                                       0x3361 (size before relaxing)
 .debug_str     0x0000000000005f4e     0x160b CMakeFiles/51_dfu.dir/__/__/mesh/src/serial/nrf_mesh_serial.c.obj
                                       0x22b5 (size before relaxing)
 .debug_str     0x0000000000007559      0x2dd CMakeFiles/51_dfu.dir/__/__/mesh/src/serial/serial.c.obj
                                       0x25bd (size before relaxing)
 .debug_str     0x0000000000007836      0x56a CMakeFiles/51_dfu.dir/__/__/mesh/src/serial/serial_bearer.c.obj
                                       0x2991 (size before relaxing)
 .debug_str     0x0000000000007da0      0x133 CMakeFiles/51_dfu.dir/__/__/mesh/src/serial/serial_handler_common.c.obj
                                       0x21f7 (size before relaxing)
 .debug_str     0x0000000000007ed3      0x1e1 CMakeFiles/51_dfu.dir/__/__/mesh/src/serial/serial_handler_access.c.obj
                                       0x26d4 (size before relaxing)
 .debug_str     0x00000000000080b4       0x76 CMakeFiles/51_dfu.dir/__/__/mesh/src/serial/serial_handler_app.c.obj
                                       0x2155 (size before relaxing)
 .debug_str     0x000000000000812a       0xca CMakeFiles/51_dfu.dir/__/__/mesh/src/serial/serial_handler_config.c.obj
                                       0x2183 (size before relaxing)
 .debug_str     0x00000000000081f4      0x7b0 CMakeFiles/51_dfu.dir/__/__/mesh/src/serial/serial_handler_device.c.obj
                                       0x2b38 (size before relaxing)
 .debug_str     0x00000000000089a4      0x27b CMakeFiles/51_dfu.dir/__/__/mesh/src/serial/serial_handler_dfu.c.obj
                                       0x36d3 (size before relaxing)
 .debug_str     0x0000000000008c1f      0x4b8 CMakeFiles/51_dfu.dir/__/__/mesh/src/serial/serial_handler_mesh.c.obj
                                       0x3bff (size before relaxing)
 .debug_str     0x00000000000090d7      0x1a9 CMakeFiles/51_dfu.dir/__/__/mesh/src/serial/serial_handler_models.c.obj
                                       0x2385 (size before relaxing)
 .debug_str     0x0000000000009280       0x84 CMakeFiles/51_dfu.dir/__/__/mesh/src/serial/serial_handler_openmesh.c.obj
                                       0x213e (size before relaxing)
 .debug_str     0x0000000000009304      0x3d8 CMakeFiles/51_dfu.dir/__/__/mesh/src/serial/serial_handler_prov.c.obj
                                       0x392e (size before relaxing)
 .debug_str     0x00000000000096dc       0xc9 CMakeFiles/51_dfu.dir/__/__/mesh/src/serial/serial_uart.c.obj
                                        0xa7f (size before relaxing)
 .debug_str     0x00000000000097a5     0x1292 CMakeFiles/51_dfu.dir/__/__/mesh/src/dfu/nrf_mesh_dfu.c.obj
                                       0x3721 (size before relaxing)
 .debug_str     0x000000000000aa37      0x116 CMakeFiles/51_dfu.dir/__/__/toolchain/system_nrf51.c.obj
                                        0x2c4 (size before relaxing)
 .debug_str     0x000000000000ab4d      0x985 ../../mesh/lib_51_MBTLE_PB_ADV_EE.a(nrf_mesh_prov.c.obj)
                                       0x1a10 (size before relaxing)
 .debug_str     0x000000000000b4d2      0x549 ../../mesh/lib_51_MBTLE_PB_ADV_EE.a(prov_bearer_adv.c.obj)
                                       0x16b9 (size before relaxing)
 .debug_str     0x000000000000ba1b      0x660 ../../mesh/lib_51_MBTLE_PB_ADV_EE.a(prov_utils.c.obj)
                                       0x1ee2 (size before relaxing)
 .debug_str     0x000000000000c07b      0x112 ../../mesh/lib_51_MBTLE_PB_ADV_EE.a(prov_beacon.c.obj)
                                       0x1c1c (size before relaxing)
 .debug_str     0x000000000000c18d      0x463 ../../mesh/lib_51_MBTLE_PB_ADV_EE.a(prov_provisionee.c.obj)
                                       0x2e6c (size before relaxing)
 .debug_str     0x000000000000c5f0      0x142 ../../mesh/lib_51_MBTLE_PB_ADV_EE.a(provisioning.c.obj)
                                       0x16bd (size before relaxing)
 .debug_str     0x000000000000c732       0xff ../../mesh/lib_51_MBTLE_PB_ADV_ER.a(prov_provisioner.c.obj)
                                       0x2d20 (size before relaxing)
 .debug_str     0x000000000000c831      0x637 ../../mesh/lib_51_MBTLE_CORE.a(bearer_adv.c.obj)
                                       0x2b92 (size before relaxing)
 .debug_str     0x000000000000ce68       0x7a ../../mesh/lib_51_MBTLE_CORE.a(fifo.c.obj)
                                        0x6d8 (size before relaxing)
 .debug_str     0x000000000000cee2      0x279 ../../mesh/lib_51_MBTLE_CORE.a(packet_mgr.c.obj)
                                        0x9e5 (size before relaxing)
 .debug_str     0x000000000000d15b      0x439 ../../mesh/lib_51_MBTLE_CORE.a(radio.c.obj)
                                       0x1066 (size before relaxing)
 .debug_str     0x000000000000d594      0x279 ../../mesh/lib_51_MBTLE_CORE.a(timer.c.obj)
                                        0x72b (size before relaxing)
 .debug_str     0x000000000000d80d      0x13c ../../mesh/lib_51_MBTLE_CORE.a(timer_scheduler.c.obj)
                                        0x931 (size before relaxing)
 .debug_str     0x000000000000d949       0xf2 ../../mesh/lib_51_MBTLE_CORE.a(beacon.c.obj)
                                        0xd16 (size before relaxing)
 .debug_str     0x000000000000da3b      0x347 ../../mesh/lib_51_MBTLE_CORE.a(bearer.c.obj)
                                       0x149f (size before relaxing)
 .debug_str     0x000000000000dd82      0x212 ../../mesh/lib_51_MBTLE_CORE.a(bearer_event.c.obj)
                                        0xbe4 (size before relaxing)
 .debug_str     0x000000000000df94       0x7e ../../mesh/lib_51_MBTLE_CORE.a(nrf_mesh_configure.c.obj)
                                        0x737 (size before relaxing)
 .debug_str     0x000000000000e012      0x1d1 ../../mesh/lib_51_MBTLE_CORE.a(enc.c.obj)
                                        0x917 (size before relaxing)
 .debug_str     0x000000000000e1e3       0xe5 ../../mesh/lib_51_MBTLE_CORE.a(event.c.obj)
                                       0x1742 (size before relaxing)
 .debug_str     0x000000000000e2c8       0xd5 ../../mesh/lib_51_MBTLE_CORE.a(hal.c.obj)
                                        0x73f (size before relaxing)
 .debug_str     0x000000000000e39d      0x117 ../../mesh/lib_51_MBTLE_CORE.a(log.c.obj)
                                        0x7f3 (size before relaxing)
 .debug_str     0x000000000000e4b4      0x232 ../../mesh/lib_51_MBTLE_CORE.a(net_beacon.c.obj)
                                        0xc04 (size before relaxing)
 .debug_str     0x000000000000e6e6      0x329 ../../mesh/lib_51_MBTLE_CORE.a(net_state.c.obj)
                                       0x246b (size before relaxing)
 .debug_str     0x000000000000ea0f      0x28d ../../mesh/lib_51_MBTLE_CORE.a(nrf_mesh.c.obj)
                                       0x2f64 (size before relaxing)
 .debug_str     0x000000000000ec9c       0x83 ../../mesh/lib_51_MBTLE_CORE.a(nrf_mesh_keygen.c.obj)
                                        0x7e8 (size before relaxing)
 .debug_str     0x000000000000ed1f       0xa7 ../../mesh/lib_51_MBTLE_CORE.a(nrf_mesh_utils.c.obj)
                                        0x74e (size before relaxing)
 .debug_str     0x000000000000edc6       0xc0 ../../mesh/lib_51_MBTLE_CORE.a(radio_config.c.obj)
                                        0x700 (size before relaxing)
 .debug_str     0x000000000000ee86      0x28d ../../mesh/lib_51_MBTLE_CORE.a(packet_buffer.c.obj)
                                        0xba6 (size before relaxing)
 .debug_str     0x000000000000f113       0xab ../../mesh/lib_51_MBTLE_CORE.a(rand.c.obj)
                                        0x70d (size before relaxing)
 .debug_str     0x000000000000f1be       0x68 ../../mesh/lib_51_MBTLE_CORE.a(ticker.c.obj)
                                        0x34e (size before relaxing)
 .debug_str     0x000000000000f226      0x9e1 ../../mesh/lib_51_MBTLE_CORE.a(transport.c.obj)
                                       0x3285 (size before relaxing)
 .debug_str     0x000000000000fc07       0xd8 ../../mesh/lib_51_MBTLE_CORE.a(internal_event.c.obj)
                                        0xa9b (size before relaxing)
 .debug_str     0x000000000000fcdf      0x333 ../../mesh/lib_51_MBTLE_CORE.a(mesh_flash.c.obj)
                                        0xbf7 (size before relaxing)
 .debug_str     0x0000000000010012       0xa8 ../../mesh/lib_51_MBTLE_CORE.a(nrf_flash.c.obj)
                                        0x6a6 (size before relaxing)
 .debug_str     0x00000000000100ba      0x637 ../../mesh/lib_51_MBTLE_CORE.a(flash_manager.c.obj)
                                       0x1994 (size before relaxing)
 .debug_str     0x00000000000106f1      0x38e ../../mesh/lib_51_MBTLE_CORE.a(flash_manager_defrag.c.obj)
                                       0x1507 (size before relaxing)
 .debug_str     0x0000000000010a7f       0x64 ../../mesh/lib_51_MBTLE_CORE.a(flash_manager_internal.c.obj)
                                        0x7e1 (size before relaxing)
 .debug_str     0x0000000000010ae3      0x16d ../../mesh/lib_51_MBTLE_CORE.a(aes.c.obj)
                                        0xb80 (size before relaxing)
 .debug_str     0x0000000000010c50       0x50 ../../mesh/lib_51_MBTLE_CORE.a(queue.c.obj)
                                        0x680 (size before relaxing)
 .debug_str     0x0000000000010ca0       0x7f ../../mesh/lib_51_MBTLE_CORE.a(msqueue.c.obj)
                                        0x6bc (size before relaxing)
 .debug_str     0x0000000000010d1f      0x782 ../../mesh/lib_51_MBTLE_CORE.a(timeslot.c.obj)
                                       0x1787 (size before relaxing)
 .debug_str     0x00000000000114a1       0xfc ../../mesh/lib_51_MBTLE_CORE.a(aes_cmac.c.obj)
                                        0x738 (size before relaxing)
 .debug_str     0x000000000001159d       0xb1 ../../mesh/lib_51_MBTLE_CORE.a(ccm_soft.c.obj)
                                        0x780 (size before relaxing)
 .debug_str     0x000000000001164e       0xbf ../../mesh/lib_51_MBTLE_CORE.a(msg_cache.c.obj)
                                        0x750 (size before relaxing)
 .debug_str     0x000000000001170d      0x282 ../../mesh/lib_51_MBTLE_CORE.a(network.c.obj)
                                       0x15cd (size before relaxing)
 .debug_str     0x000000000001198f       0x46 ../../mesh/lib_51_MBTLE_CORE.a(packet.c.obj)
                                        0x732 (size before relaxing)
 .debug_str     0x00000000000119d5       0xcb ../../mesh/lib_51_MBTLE_CORE.a(replay_cache.c.obj)
                                        0x6b2 (size before relaxing)
 .debug_str     0x0000000000011aa0      0x2f8 ../../lib/rtt/lib_51_RTT_LIB.a(SEGGER_RTT.c.obj)
                                        0x91f (size before relaxing)
 .debug_str     0x0000000000011d98      0x143 ../../lib/rtt/lib_51_RTT_LIB.a(SEGGER_RTT_printf.c.obj)
                                        0x7cc (size before relaxing)
 .debug_str     0x0000000000011edb      0x686 ../../lib/micro-ecc/lib_51_UECC_LIB.a(uECC.c.obj)
                                        0x87d (size before relaxing)

.debug_frame    0x0000000000000000     0x59b4
 .debug_frame   0x0000000000000000       0x44 CMakeFiles/51_dfu.dir/src/main.c.obj
 .debug_frame   0x0000000000000044      0x124 CMakeFiles/51_dfu.dir/__/nrf_mesh_sdk.c.obj
 .debug_frame   0x0000000000000168      0x438 CMakeFiles/51_dfu.dir/__/__/mesh/src/access/access.c.obj
 .debug_frame   0x00000000000005a0       0xc0 CMakeFiles/51_dfu.dir/__/__/mesh/src/access/access_publish.c.obj
 .debug_frame   0x0000000000000660       0xc8 CMakeFiles/51_dfu.dir/__/__/mesh/src/access/access_reliable.c.obj
 .debug_frame   0x0000000000000728      0x8dc CMakeFiles/51_dfu.dir/__/__/mesh/src/access/device_state_manager.c.obj
 .debug_frame   0x0000000000001004       0x78 CMakeFiles/51_dfu.dir/__/__/mesh/src/serial/nrf_mesh_serial.c.obj
 .debug_frame   0x000000000000107c       0xec CMakeFiles/51_dfu.dir/__/__/mesh/src/serial/serial.c.obj
 .debug_frame   0x0000000000001168      0x11c CMakeFiles/51_dfu.dir/__/__/mesh/src/serial/serial_bearer.c.obj
 .debug_frame   0x0000000000001284       0x48 CMakeFiles/51_dfu.dir/__/__/mesh/src/serial/serial_handler_common.c.obj
 .debug_frame   0x00000000000012cc      0x268 CMakeFiles/51_dfu.dir/__/__/mesh/src/serial/serial_handler_access.c.obj
 .debug_frame   0x0000000000001534       0x38 CMakeFiles/51_dfu.dir/__/__/mesh/src/serial/serial_handler_app.c.obj
 .debug_frame   0x000000000000156c       0x2c CMakeFiles/51_dfu.dir/__/__/mesh/src/serial/serial_handler_config.c.obj
 .debug_frame   0x0000000000001598      0x144 CMakeFiles/51_dfu.dir/__/__/mesh/src/serial/serial_handler_device.c.obj
 .debug_frame   0x00000000000016dc       0x60 CMakeFiles/51_dfu.dir/__/__/mesh/src/serial/serial_handler_dfu.c.obj
 .debug_frame   0x000000000000173c      0x374 CMakeFiles/51_dfu.dir/__/__/mesh/src/serial/serial_handler_mesh.c.obj
 .debug_frame   0x0000000000001ab0       0xb0 CMakeFiles/51_dfu.dir/__/__/mesh/src/serial/serial_handler_models.c.obj
 .debug_frame   0x0000000000001b60       0x28 CMakeFiles/51_dfu.dir/__/__/mesh/src/serial/serial_handler_openmesh.c.obj
 .debug_frame   0x0000000000001b88       0xa8 CMakeFiles/51_dfu.dir/__/__/mesh/src/serial/serial_handler_prov.c.obj
 .debug_frame   0x0000000000001c30       0x70 CMakeFiles/51_dfu.dir/__/__/mesh/src/serial/serial_uart.c.obj
 .debug_frame   0x0000000000001ca0      0x234 CMakeFiles/51_dfu.dir/__/__/mesh/src/dfu/nrf_mesh_dfu.c.obj
 .debug_frame   0x0000000000001ed4       0x30 CMakeFiles/51_dfu.dir/__/__/toolchain/system_nrf51.c.obj
 .debug_frame   0x0000000000001f04       0xe0 ../../mesh/lib_51_MBTLE_PB_ADV_EE.a(nrf_mesh_prov.c.obj)
 .debug_frame   0x0000000000001fe4      0x260 ../../mesh/lib_51_MBTLE_PB_ADV_EE.a(prov_bearer_adv.c.obj)
 .debug_frame   0x0000000000002244      0x134 ../../mesh/lib_51_MBTLE_PB_ADV_EE.a(prov_utils.c.obj)
 .debug_frame   0x0000000000002378       0x60 ../../mesh/lib_51_MBTLE_PB_ADV_EE.a(prov_beacon.c.obj)
 .debug_frame   0x00000000000023d8      0x144 ../../mesh/lib_51_MBTLE_PB_ADV_EE.a(prov_provisionee.c.obj)
 .debug_frame   0x000000000000251c      0x240 ../../mesh/lib_51_MBTLE_PB_ADV_EE.a(provisioning.c.obj)
 .debug_frame   0x000000000000275c      0x148 ../../mesh/lib_51_MBTLE_PB_ADV_ER.a(prov_provisioner.c.obj)
 .debug_frame   0x00000000000028a4      0x324 ../../mesh/lib_51_MBTLE_CORE.a(bearer_adv.c.obj)
 .debug_frame   0x0000000000002bc8       0xd4 ../../mesh/lib_51_MBTLE_CORE.a(fifo.c.obj)
 .debug_frame   0x0000000000002c9c       0xa4 ../../mesh/lib_51_MBTLE_CORE.a(packet_mgr.c.obj)
 .debug_frame   0x0000000000002d40      0x16c ../../mesh/lib_51_MBTLE_CORE.a(radio.c.obj)
 .debug_frame   0x0000000000002eac       0xf8 ../../mesh/lib_51_MBTLE_CORE.a(timer.c.obj)
 .debug_frame   0x0000000000002fa4      0x11c ../../mesh/lib_51_MBTLE_CORE.a(timer_scheduler.c.obj)
 .debug_frame   0x00000000000030c0       0x90 ../../mesh/lib_51_MBTLE_CORE.a(beacon.c.obj)
 .debug_frame   0x0000000000003150      0x188 ../../mesh/lib_51_MBTLE_CORE.a(bearer.c.obj)
 .debug_frame   0x00000000000032d8      0x128 ../../mesh/lib_51_MBTLE_CORE.a(bearer_event.c.obj)
 .debug_frame   0x0000000000003400       0x50 ../../mesh/lib_51_MBTLE_CORE.a(nrf_mesh_configure.c.obj)
 .debug_frame   0x0000000000003450      0x150 ../../mesh/lib_51_MBTLE_CORE.a(enc.c.obj)
 .debug_frame   0x00000000000035a0       0x64 ../../mesh/lib_51_MBTLE_CORE.a(event.c.obj)
 .debug_frame   0x0000000000003604       0x48 ../../mesh/lib_51_MBTLE_CORE.a(hal.c.obj)
 .debug_frame   0x000000000000364c       0xa0 ../../mesh/lib_51_MBTLE_CORE.a(log.c.obj)
 .debug_frame   0x00000000000036ec       0xa4 ../../mesh/lib_51_MBTLE_CORE.a(net_beacon.c.obj)
 .debug_frame   0x0000000000003790      0x1d8 ../../mesh/lib_51_MBTLE_CORE.a(net_state.c.obj)
 .debug_frame   0x0000000000003968      0x140 ../../mesh/lib_51_MBTLE_CORE.a(nrf_mesh.c.obj)
 .debug_frame   0x0000000000003aa8       0xa0 ../../mesh/lib_51_MBTLE_CORE.a(nrf_mesh_keygen.c.obj)
 .debug_frame   0x0000000000003b48       0x50 ../../mesh/lib_51_MBTLE_CORE.a(nrf_mesh_utils.c.obj)
 .debug_frame   0x0000000000003b98       0x84 ../../mesh/lib_51_MBTLE_CORE.a(radio_config.c.obj)
 .debug_frame   0x0000000000003c1c      0x124 ../../mesh/lib_51_MBTLE_CORE.a(packet_buffer.c.obj)
 .debug_frame   0x0000000000003d40       0x90 ../../mesh/lib_51_MBTLE_CORE.a(rand.c.obj)
 .debug_frame   0x0000000000003dd0       0x48 ../../mesh/lib_51_MBTLE_CORE.a(ticker.c.obj)
 .debug_frame   0x0000000000003e18      0x2c8 ../../mesh/lib_51_MBTLE_CORE.a(transport.c.obj)
 .debug_frame   0x00000000000040e0       0x58 ../../mesh/lib_51_MBTLE_CORE.a(internal_event.c.obj)
 .debug_frame   0x0000000000004138      0x10c ../../mesh/lib_51_MBTLE_CORE.a(mesh_flash.c.obj)
 .debug_frame   0x0000000000004244       0x48 ../../mesh/lib_51_MBTLE_CORE.a(nrf_flash.c.obj)
 .debug_frame   0x000000000000428c      0x264 ../../mesh/lib_51_MBTLE_CORE.a(flash_manager.c.obj)
 .debug_frame   0x00000000000044f0      0x1e8 ../../mesh/lib_51_MBTLE_CORE.a(flash_manager_defrag.c.obj)
 .debug_frame   0x00000000000046d8       0x38 ../../mesh/lib_51_MBTLE_CORE.a(flash_manager_internal.c.obj)
 .debug_frame   0x0000000000004710       0x3c ../../mesh/lib_51_MBTLE_CORE.a(aes.c.obj)
 .debug_frame   0x000000000000474c       0x74 ../../mesh/lib_51_MBTLE_CORE.a(queue.c.obj)
 .debug_frame   0x00000000000047c0       0x94 ../../mesh/lib_51_MBTLE_CORE.a(msqueue.c.obj)
 .debug_frame   0x0000000000004854      0x178 ../../mesh/lib_51_MBTLE_CORE.a(timeslot.c.obj)
 .debug_frame   0x00000000000049cc       0x50 ../../mesh/lib_51_MBTLE_CORE.a(aes_cmac.c.obj)
 .debug_frame   0x0000000000004a1c       0xe0 ../../mesh/lib_51_MBTLE_CORE.a(ccm_soft.c.obj)
 .debug_frame   0x0000000000004afc       0x84 ../../mesh/lib_51_MBTLE_CORE.a(msg_cache.c.obj)
 .debug_frame   0x0000000000004b80       0xfc ../../mesh/lib_51_MBTLE_CORE.a(network.c.obj)
 .debug_frame   0x0000000000004c7c       0x30 ../../mesh/lib_51_MBTLE_CORE.a(packet.c.obj)
 .debug_frame   0x0000000000004cac       0xa8 ../../mesh/lib_51_MBTLE_CORE.a(replay_cache.c.obj)
 .debug_frame   0x0000000000004d54      0x2dc ../../lib/rtt/lib_51_RTT_LIB.a(SEGGER_RTT.c.obj)
 .debug_frame   0x0000000000005030       0x9c ../../lib/rtt/lib_51_RTT_LIB.a(SEGGER_RTT_printf.c.obj)
 .debug_frame   0x00000000000050cc      0x5c4 ../../lib/micro-ecc/lib_51_UECC_LIB.a(uECC.c.obj)
 .debug_frame   0x0000000000005690       0x20 /usr/bin/../lib/gcc/arm-none-eabi/6.3.1/thumb/v6-m/libgcc.a(_udivsi3.o)
 .debug_frame   0x00000000000056b0       0x20 /usr/bin/../lib/gcc/arm-none-eabi/6.3.1/thumb/v6-m/libgcc.a(_divsi3.o)
 .debug_frame   0x00000000000056d0       0x34 /usr/bin/../lib/gcc/arm-none-eabi/6.3.1/thumb/v6-m/libgcc.a(_muldi3.o)
 .debug_frame   0x0000000000005704       0x28 /usr/bin/../lib/gcc/arm-none-eabi/6.3.1/../../../../arm-none-eabi/lib/thumb/v6-m/libg_nano.a(lib_a-exit.o)
 .debug_frame   0x000000000000572c       0x2c /usr/bin/../lib/gcc/arm-none-eabi/6.3.1/../../../../arm-none-eabi/lib/thumb/v6-m/libg_nano.a(lib_a-init.o)
 .debug_frame   0x0000000000005758       0x40 /usr/bin/../lib/gcc/arm-none-eabi/6.3.1/../../../../arm-none-eabi/lib/thumb/v6-m/libg_nano.a(lib_a-malloc.o)
 .debug_frame   0x0000000000005798       0x2c /usr/bin/../lib/gcc/arm-none-eabi/6.3.1/../../../../arm-none-eabi/lib/thumb/v6-m/libg_nano.a(lib_a-memcmp.o)
 .debug_frame   0x00000000000057c4       0x28 /usr/bin/../lib/gcc/arm-none-eabi/6.3.1/../../../../arm-none-eabi/lib/thumb/v6-m/libg_nano.a(lib_a-memcpy-stub.o)
 .debug_frame   0x00000000000057ec       0x20 /usr/bin/../lib/gcc/arm-none-eabi/6.3.1/../../../../arm-none-eabi/lib/thumb/v6-m/libg_nano.a(lib_a-memset.o)
 .debug_frame   0x000000000000580c       0x2c /usr/bin/../lib/gcc/arm-none-eabi/6.3.1/../../../../arm-none-eabi/lib/thumb/v6-m/libg_nano.a(lib_a-nano-freer.o)
 .debug_frame   0x0000000000005838       0x2c /usr/bin/../lib/gcc/arm-none-eabi/6.3.1/../../../../arm-none-eabi/lib/thumb/v6-m/libg_nano.a(lib_a-nano-mallocr.o)
 .debug_frame   0x0000000000005864       0x2c /usr/bin/../lib/gcc/arm-none-eabi/6.3.1/../../../../arm-none-eabi/lib/thumb/v6-m/libg_nano.a(lib_a-sbrkr.o)
 .debug_frame   0x0000000000005890       0x20 /usr/bin/../lib/gcc/arm-none-eabi/6.3.1/../../../../arm-none-eabi/lib/thumb/v6-m/libg_nano.a(lib_a-strcpy.o)
 .debug_frame   0x00000000000058b0       0x2c /usr/bin/../lib/gcc/arm-none-eabi/6.3.1/../../../../arm-none-eabi/lib/thumb/v6-m/libg_nano.a(lib_a-strrchr.o)
 .debug_frame   0x00000000000058dc       0x30 /usr/bin/../lib/gcc/arm-none-eabi/6.3.1/../../../../arm-none-eabi/lib/thumb/v6-m/libg_nano.a(lib_a-mlock.o)
 .debug_frame   0x000000000000590c       0x48 /usr/bin/../lib/gcc/arm-none-eabi/6.3.1/../../../../arm-none-eabi/lib/thumb/v6-m/libg_nano.a(lib_a-reent.o)
 .debug_frame   0x0000000000005954       0x20 /usr/bin/../lib/gcc/arm-none-eabi/6.3.1/../../../../arm-none-eabi/lib/thumb/v6-m/libg_nano.a(lib_a-strchr.o)
 .debug_frame   0x0000000000005974       0x20 /usr/bin/../lib/gcc/arm-none-eabi/6.3.1/../../../../arm-none-eabi/lib/thumb/v6-m/libnosys.a(sbrk.o)
 .debug_frame   0x0000000000005994       0x20 /usr/bin/../lib/gcc/arm-none-eabi/6.3.1/../../../../arm-none-eabi/lib/thumb/v6-m/libnosys.a(_exit.o)
