Archive member included to satisfy reference by file (symbol)

../../mesh/lib_51_MBTLE_PB_ADV_EE.a(provisioning.c.obj)
                              CMakeFiles/51_pb_remote_server.dir/__/__/mesh/models/pb_remote/src/pb_remote_server.c.obj (prov_init)
../../mesh/lib_51_MBTLE_PB_ADV_EE.a(nrf_mesh_prov.c.obj)
                              CMakeFiles/51_pb_remote_server.dir/src/main.c.obj (nrf_mesh_prov_init)
../../mesh/lib_51_MBTLE_PB_ADV_EE.a(prov_bearer_adv.c.obj)
                              CMakeFiles/51_pb_remote_server.dir/__/__/mesh/models/pb_remote/src/pb_remote_server.c.obj (prov_bearer_adv_interface_get)
../../mesh/lib_51_MBTLE_PB_ADV_EE.a(prov_utils.c.obj)
                              ../../mesh/lib_51_MBTLE_PB_ADV_EE.a(nrf_mesh_prov.c.obj) (prov_utils_keys_generate)
../../mesh/lib_51_MBTLE_PB_ADV_EE.a(prov_beacon.c.obj)
                              ../../mesh/lib_51_MBTLE_PB_ADV_EE.a(prov_bearer_adv.c.obj) (prov_beacon_unprov_build)
../../mesh/lib_51_MBTLE_PB_ADV_EE.a(prov_provisionee.c.obj)
                              ../../mesh/lib_51_MBTLE_PB_ADV_EE.a(nrf_mesh_prov.c.obj) (prov_provisionee_init)
../../mesh/lib_51_MBTLE_CORE.a(nrf_mesh_weak.c.obj)
                              ../../mesh/lib_51_MBTLE_PB_ADV_EE.a(nrf_mesh_prov.c.obj) (prov_provisioner_oob_pubkey)
../../mesh/lib_51_MBTLE_CORE.a(bearer_adv.c.obj)
                              ../../mesh/lib_51_MBTLE_PB_ADV_EE.a(prov_bearer_adv.c.obj) (bearer_adv_advertiser_init)
../../mesh/lib_51_MBTLE_CORE.a(fifo.c.obj)
                              CMakeFiles/51_pb_remote_server.dir/__/__/mesh/models/pb_remote/src/pb_remote_server.c.obj (fifo_init)
../../mesh/lib_51_MBTLE_CORE.a(packet_mgr.c.obj)
                              ../../mesh/lib_51_MBTLE_PB_ADV_EE.a(prov_bearer_adv.c.obj) (packet_mgr_alloc)
../../mesh/lib_51_MBTLE_CORE.a(radio.c.obj)
                              ../../mesh/lib_51_MBTLE_CORE.a(bearer_adv.c.obj) (radio_init)
../../mesh/lib_51_MBTLE_CORE.a(timer.c.obj)
                              CMakeFiles/51_pb_remote_server.dir/__/__/mesh/src/access/access_reliable.c.obj (timer_now)
../../mesh/lib_51_MBTLE_CORE.a(timer_scheduler.c.obj)
                              CMakeFiles/51_pb_remote_server.dir/__/__/mesh/src/access/access_publish.c.obj (timer_sch_schedule)
../../mesh/lib_51_MBTLE_CORE.a(beacon.c.obj)
                              ../../mesh/lib_51_MBTLE_PB_ADV_EE.a(prov_beacon.c.obj) (beacon_create)
../../mesh/lib_51_MBTLE_CORE.a(bearer.c.obj)
                              ../../mesh/lib_51_MBTLE_CORE.a(bearer_adv.c.obj) (bearer_adtype_filtering_set)
../../mesh/lib_51_MBTLE_CORE.a(bearer_event.c.obj)
                              ../../mesh/lib_51_MBTLE_CORE.a(bearer_adv.c.obj) (bearer_event_generic_post)
../../mesh/lib_51_MBTLE_CORE.a(nrf_mesh_configure.c.obj)
                              ../../mesh/lib_51_MBTLE_PB_ADV_EE.a(prov_bearer_adv.c.obj) (nrf_mesh_configure_device_uuid_get)
../../mesh/lib_51_MBTLE_CORE.a(enc.c.obj)
                              ../../mesh/lib_51_MBTLE_PB_ADV_EE.a(prov_utils.c.obj) (enc_aes_cmac)
../../mesh/lib_51_MBTLE_CORE.a(event.c.obj)
                              CMakeFiles/51_pb_remote_server.dir/__/__/mesh/src/access/access.c.obj (event_handle)
../../mesh/lib_51_MBTLE_CORE.a(log.c.obj)
                              CMakeFiles/51_pb_remote_server.dir/src/main.c.obj (log_callback_rtt)
../../mesh/lib_51_MBTLE_CORE.a(net_beacon.c.obj)
                              ../../mesh/lib_51_MBTLE_CORE.a(beacon.c.obj) (net_beacon_pkt_in)
../../mesh/lib_51_MBTLE_CORE.a(net_state.c.obj)
                              CMakeFiles/51_pb_remote_server.dir/__/__/mesh/src/access/device_state_manager.c.obj (net_state_flash_area_get)
../../mesh/lib_51_MBTLE_CORE.a(nrf_mesh.c.obj)
                              CMakeFiles/51_pb_remote_server.dir/src/main.c.obj (nrf_mesh_init)
../../mesh/lib_51_MBTLE_CORE.a(nrf_mesh_keygen.c.obj)
                              CMakeFiles/51_pb_remote_server.dir/__/__/mesh/src/access/device_state_manager.c.obj (nrf_mesh_keygen_aid)
../../mesh/lib_51_MBTLE_CORE.a(nrf_mesh_utils.c.obj)
                              CMakeFiles/51_pb_remote_server.dir/__/__/mesh/src/access/device_state_manager.c.obj (nrf_mesh_address_type_get)
../../mesh/lib_51_MBTLE_CORE.a(radio_config.c.obj)
                              ../../mesh/lib_51_MBTLE_CORE.a(radio.c.obj) (radio_config_reset)
../../mesh/lib_51_MBTLE_CORE.a(rand.c.obj)
                              ../../mesh/lib_51_MBTLE_CORE.a(bearer_adv.c.obj) (rand_prng_get)
../../mesh/lib_51_MBTLE_CORE.a(ticker.c.obj)
                              ../../mesh/lib_51_MBTLE_CORE.a(nrf_mesh.c.obj) (ticker_init)
../../mesh/lib_51_MBTLE_CORE.a(transport.c.obj)
                              ../../mesh/lib_51_MBTLE_CORE.a(nrf_mesh.c.obj) (transport_init)
../../mesh/lib_51_MBTLE_CORE.a(internal_event.c.obj)
                              ../../mesh/lib_51_MBTLE_CORE.a(bearer.c.obj) (internal_event_push)
../../mesh/lib_51_MBTLE_CORE.a(flash_manager.c.obj)
                              ../../mesh/lib_51_MBTLE_CORE.a(nrf_mesh.c.obj) (flash_manager_init)
../../mesh/lib_51_MBTLE_CORE.a(flash_manager_defrag.c.obj)
                              ../../mesh/lib_51_MBTLE_CORE.a(flash_manager.c.obj) (flash_manager_defrag_init)
../../mesh/lib_51_MBTLE_CORE.a(flash_manager_internal.c.obj)
                              ../../mesh/lib_51_MBTLE_CORE.a(flash_manager.c.obj) (entry_get)
../../mesh/lib_51_MBTLE_CORE.a(aes.c.obj)
                              ../../mesh/lib_51_MBTLE_CORE.a(enc.c.obj) (aes_encrypt)
../../mesh/lib_51_MBTLE_CORE.a(queue.c.obj)
                              ../../mesh/lib_51_MBTLE_CORE.a(flash_manager.c.obj) (queue_init)
../../mesh/lib_51_MBTLE_CORE.a(timeslot.c.obj)
                              ../../mesh/lib_51_MBTLE_CORE.a(nrf_mesh.c.obj) (timeslot_sd_event_handler)
../../mesh/lib_51_MBTLE_CORE.a(aes_cmac.c.obj)
                              ../../mesh/lib_51_MBTLE_CORE.a(enc.c.obj) (aes_cmac)
../../mesh/lib_51_MBTLE_CORE.a(ccm_soft.c.obj)
                              ../../mesh/lib_51_MBTLE_CORE.a(enc.c.obj) (ccm_soft_encrypt)
../../mesh/lib_51_MBTLE_CORE.a(msg_cache.c.obj)
                              ../../mesh/lib_51_MBTLE_CORE.a(nrf_mesh.c.obj) (msg_cache_init)
../../mesh/lib_51_MBTLE_CORE.a(network.c.obj)
                              ../../mesh/lib_51_MBTLE_CORE.a(transport.c.obj) (network_pkt_relay)
../../mesh/lib_51_MBTLE_CORE.a(packet.c.obj)
                              ../../mesh/lib_51_MBTLE_CORE.a(network.c.obj) (packet_type_packet_get)
../../mesh/lib_51_MBTLE_CORE.a(packet_buffer.c.obj)
                              ../../mesh/lib_51_MBTLE_CORE.a(flash_manager.c.obj) (packet_buffer_init)
../../mesh/lib_51_MBTLE_CORE.a(replay_cache.c.obj)
                              ../../mesh/lib_51_MBTLE_CORE.a(transport.c.obj) (replay_cache_add)
../../mesh/lib_51_MBTLE_CORE.a(mesh_flash.c.obj)
                              ../../mesh/lib_51_MBTLE_CORE.a(flash_manager.c.obj) (mesh_flash_user_callback_set)
../../mesh/lib_51_MBTLE_CORE.a(nrf_flash.c.obj)
                              ../../mesh/lib_51_MBTLE_CORE.a(mesh_flash.c.obj) (nrf_flash_erase)
../../mesh/lib_51_MBTLE_CORE.a(msqueue.c.obj)
                              ../../mesh/lib_51_MBTLE_CORE.a(mesh_flash.c.obj) (msq_get)
../../lib/micro-ecc/lib_51_UECC_LIB.a(uECC.c.obj)
                              ../../mesh/lib_51_MBTLE_PB_ADV_EE.a(prov_utils.c.obj) (uECC_secp256r1)
../../lib/rtt/lib_51_RTT_LIB.a(SEGGER_RTT.c.obj)
                              ../../mesh/lib_51_MBTLE_CORE.a(log.c.obj) (SEGGER_RTT_Write)
../../lib/rtt/lib_51_RTT_LIB.a(SEGGER_RTT_printf.c.obj)
                              ../../mesh/lib_51_MBTLE_CORE.a(log.c.obj) (SEGGER_RTT_vprintf)
/usr/bin/../lib/gcc/arm-none-eabi/6.3.1/thumb/v6-m/libgcc.a(_udivsi3.o)
                              CMakeFiles/51_pb_remote_server.dir/__/__/mesh/src/access/access_publish.c.obj (__aeabi_uidiv)
/usr/bin/../lib/gcc/arm-none-eabi/6.3.1/thumb/v6-m/libgcc.a(_divsi3.o)
                              CMakeFiles/51_pb_remote_server.dir/__/__/mesh/src/access/access_reliable.c.obj (__aeabi_idiv)
/usr/bin/../lib/gcc/arm-none-eabi/6.3.1/thumb/v6-m/libgcc.a(_dvmd_tls.o)
                              /usr/bin/../lib/gcc/arm-none-eabi/6.3.1/thumb/v6-m/libgcc.a(_udivsi3.o) (__aeabi_idiv0)
/usr/bin/../lib/gcc/arm-none-eabi/6.3.1/thumb/v6-m/libgcc.a(_muldi3.o)
                              ../../mesh/lib_51_MBTLE_CORE.a(timeslot.c.obj) (__aeabi_lmul)
/usr/bin/../lib/gcc/arm-none-eabi/6.3.1/../../../../arm-none-eabi/lib/thumb/v6-m/libg_nano.a(lib_a-exit.o)
                              /usr/bin/../lib/gcc/arm-none-eabi/6.3.1/../../../../arm-none-eabi/lib/thumb/v6-m/crt0.o (exit)
/usr/bin/../lib/gcc/arm-none-eabi/6.3.1/../../../../arm-none-eabi/lib/thumb/v6-m/libg_nano.a(lib_a-impure.o)
                              /usr/bin/../lib/gcc/arm-none-eabi/6.3.1/../../../../arm-none-eabi/lib/thumb/v6-m/libg_nano.a(lib_a-exit.o) (_global_impure_ptr)
/usr/bin/../lib/gcc/arm-none-eabi/6.3.1/../../../../arm-none-eabi/lib/thumb/v6-m/libg_nano.a(lib_a-init.o)
                              /usr/bin/../lib/gcc/arm-none-eabi/6.3.1/../../../../arm-none-eabi/lib/thumb/v6-m/crt0.o (__libc_init_array)
/usr/bin/../lib/gcc/arm-none-eabi/6.3.1/../../../../arm-none-eabi/lib/thumb/v6-m/libg_nano.a(lib_a-malloc.o)
                              ../../mesh/lib_51_MBTLE_CORE.a(transport.c.obj) (malloc)
/usr/bin/../lib/gcc/arm-none-eabi/6.3.1/../../../../arm-none-eabi/lib/thumb/v6-m/libg_nano.a(lib_a-memcmp.o)
                              CMakeFiles/51_pb_remote_server.dir/__/__/mesh/models/pb_remote/src/pb_remote_server.c.obj (memcmp)
/usr/bin/../lib/gcc/arm-none-eabi/6.3.1/../../../../arm-none-eabi/lib/thumb/v6-m/libg_nano.a(lib_a-memcpy-stub.o)
                              CMakeFiles/51_pb_remote_server.dir/__/__/mesh/models/pb_remote/src/pb_remote_server.c.obj (memcpy)
/usr/bin/../lib/gcc/arm-none-eabi/6.3.1/../../../../arm-none-eabi/lib/thumb/v6-m/libg_nano.a(lib_a-memset.o)
                              /usr/bin/../lib/gcc/arm-none-eabi/6.3.1/../../../../arm-none-eabi/lib/thumb/v6-m/crt0.o (memset)
/usr/bin/../lib/gcc/arm-none-eabi/6.3.1/../../../../arm-none-eabi/lib/thumb/v6-m/libg_nano.a(lib_a-nano-freer.o)
                              /usr/bin/../lib/gcc/arm-none-eabi/6.3.1/../../../../arm-none-eabi/lib/thumb/v6-m/libg_nano.a(lib_a-malloc.o) (_free_r)
/usr/bin/../lib/gcc/arm-none-eabi/6.3.1/../../../../arm-none-eabi/lib/thumb/v6-m/libg_nano.a(lib_a-nano-mallocr.o)
                              /usr/bin/../lib/gcc/arm-none-eabi/6.3.1/../../../../arm-none-eabi/lib/thumb/v6-m/libg_nano.a(lib_a-malloc.o) (_malloc_r)
/usr/bin/../lib/gcc/arm-none-eabi/6.3.1/../../../../arm-none-eabi/lib/thumb/v6-m/libg_nano.a(lib_a-sbrkr.o)
                              /usr/bin/../lib/gcc/arm-none-eabi/6.3.1/../../../../arm-none-eabi/lib/thumb/v6-m/libg_nano.a(lib_a-nano-mallocr.o) (_sbrk_r)
/usr/bin/../lib/gcc/arm-none-eabi/6.3.1/../../../../arm-none-eabi/lib/thumb/v6-m/libg_nano.a(lib_a-strcpy.o)
                              ../../lib/rtt/lib_51_RTT_LIB.a(SEGGER_RTT.c.obj) (strcpy)
/usr/bin/../lib/gcc/arm-none-eabi/6.3.1/../../../../arm-none-eabi/lib/thumb/v6-m/libg_nano.a(lib_a-strlen.o)
                              ../../mesh/lib_51_MBTLE_PB_ADV_EE.a(prov_beacon.c.obj) (strlen)
/usr/bin/../lib/gcc/arm-none-eabi/6.3.1/../../../../arm-none-eabi/lib/thumb/v6-m/libg_nano.a(lib_a-strrchr.o)
                              CMakeFiles/51_pb_remote_server.dir/src/main.c.obj (strrchr)
/usr/bin/../lib/gcc/arm-none-eabi/6.3.1/../../../../arm-none-eabi/lib/thumb/v6-m/libg_nano.a(lib_a-mlock.o)
                              /usr/bin/../lib/gcc/arm-none-eabi/6.3.1/../../../../arm-none-eabi/lib/thumb/v6-m/libg_nano.a(lib_a-nano-freer.o) (__malloc_lock)
/usr/bin/../lib/gcc/arm-none-eabi/6.3.1/../../../../arm-none-eabi/lib/thumb/v6-m/libg_nano.a(lib_a-reent.o)
                              /usr/bin/../lib/gcc/arm-none-eabi/6.3.1/../../../../arm-none-eabi/lib/thumb/v6-m/libg_nano.a(lib_a-sbrkr.o) (errno)
/usr/bin/../lib/gcc/arm-none-eabi/6.3.1/../../../../arm-none-eabi/lib/thumb/v6-m/libg_nano.a(lib_a-strchr.o)
                              /usr/bin/../lib/gcc/arm-none-eabi/6.3.1/../../../../arm-none-eabi/lib/thumb/v6-m/libg_nano.a(lib_a-strrchr.o) (strchr)
/usr/bin/../lib/gcc/arm-none-eabi/6.3.1/../../../../arm-none-eabi/lib/thumb/v6-m/libnosys.a(sbrk.o)
                              /usr/bin/../lib/gcc/arm-none-eabi/6.3.1/../../../../arm-none-eabi/lib/thumb/v6-m/libg_nano.a(lib_a-sbrkr.o) (_sbrk)
/usr/bin/../lib/gcc/arm-none-eabi/6.3.1/../../../../arm-none-eabi/lib/thumb/v6-m/libnosys.a(_exit.o)
                              /usr/bin/../lib/gcc/arm-none-eabi/6.3.1/../../../../arm-none-eabi/lib/thumb/v6-m/libg_nano.a(lib_a-exit.o) (_exit)

Allocating common symbols
Common symbol       size              file

nrf_nvic_state      0x8               CMakeFiles/51_pb_remote_server.dir/__/nrf_mesh_sdk.c.obj
errno               0x4               /usr/bin/../lib/gcc/arm-none-eabi/6.3.1/../../../../arm-none-eabi/lib/thumb/v6-m/libg_nano.a(lib_a-reent.o)
m_assertion_handler
                    0x4               ../../mesh/lib_51_MBTLE_CORE.a(nrf_mesh.c.obj)
_SEGGER_RTT         0x78              ../../lib/rtt/lib_51_RTT_LIB.a(SEGGER_RTT.c.obj)

Discarded input sections

 .text          0x0000000000000000        0x0 /usr/bin/../lib/gcc/arm-none-eabi/6.3.1/thumb/v6-m/crti.o
 .data          0x0000000000000000        0x0 /usr/bin/../lib/gcc/arm-none-eabi/6.3.1/thumb/v6-m/crti.o
 .bss           0x0000000000000000        0x0 /usr/bin/../lib/gcc/arm-none-eabi/6.3.1/thumb/v6-m/crti.o
 .data          0x0000000000000000        0x4 /usr/bin/../lib/gcc/arm-none-eabi/6.3.1/thumb/v6-m/crtbegin.o
 .data          0x0000000000000000        0x0 /usr/bin/../lib/gcc/arm-none-eabi/6.3.1/../../../../arm-none-eabi/lib/thumb/v6-m/crt0.o
 .bss           0x0000000000000000        0x0 /usr/bin/../lib/gcc/arm-none-eabi/6.3.1/../../../../arm-none-eabi/lib/thumb/v6-m/crt0.o
 .ARM.extab     0x0000000000000000        0x0 /usr/bin/../lib/gcc/arm-none-eabi/6.3.1/../../../../arm-none-eabi/lib/thumb/v6-m/crt0.o
 .text          0x0000000000000000        0x0 CMakeFiles/51_pb_remote_server.dir/src/main.c.obj
 .data          0x0000000000000000        0x0 CMakeFiles/51_pb_remote_server.dir/src/main.c.obj
 .bss           0x0000000000000000        0x0 CMakeFiles/51_pb_remote_server.dir/src/main.c.obj
 .text          0x0000000000000000        0x0 CMakeFiles/51_pb_remote_server.dir/__/__/mesh/models/pb_remote/src/pb_remote_server.c.obj
 .data          0x0000000000000000        0x0 CMakeFiles/51_pb_remote_server.dir/__/__/mesh/models/pb_remote/src/pb_remote_server.c.obj
 .bss           0x0000000000000000        0x0 CMakeFiles/51_pb_remote_server.dir/__/__/mesh/models/pb_remote/src/pb_remote_server.c.obj
 .text.pb_remote_server_disable
                0x0000000000000000        0xc CMakeFiles/51_pb_remote_server.dir/__/__/mesh/models/pb_remote/src/pb_remote_server.c.obj
 .text.pb_remote_server_return_to_scan_set
                0x0000000000000000       0x12 CMakeFiles/51_pb_remote_server.dir/__/__/mesh/models/pb_remote/src/pb_remote_server.c.obj
 .text          0x0000000000000000        0x0 CMakeFiles/51_pb_remote_server.dir/__/__/mesh/src/access/access.c.obj
 .data          0x0000000000000000        0x0 CMakeFiles/51_pb_remote_server.dir/__/__/mesh/src/access/access.c.obj
 .bss           0x0000000000000000        0x0 CMakeFiles/51_pb_remote_server.dir/__/__/mesh/src/access/access.c.obj
 .text.restore_acquired_subscription
                0x0000000000000000       0x24 CMakeFiles/51_pb_remote_server.dir/__/__/mesh/src/access/access.c.obj
 .text.restore_acquired_element
                0x0000000000000000       0x1c CMakeFiles/51_pb_remote_server.dir/__/__/mesh/src/access/access.c.obj
 .text.restore_flash_data
                0x0000000000000000       0x64 CMakeFiles/51_pb_remote_server.dir/__/__/mesh/src/access/access.c.obj
 .text.restore_acquired_model
                0x0000000000000000       0x88 CMakeFiles/51_pb_remote_server.dir/__/__/mesh/src/access/access.c.obj
 .text.access_flash_config_clear
                0x0000000000000000       0x28 CMakeFiles/51_pb_remote_server.dir/__/__/mesh/src/access/access.c.obj
 .text.access_flash_config_store
                0x0000000000000000      0x104 CMakeFiles/51_pb_remote_server.dir/__/__/mesh/src/access/access.c.obj
 .text.access_flash_config_load
                0x0000000000000000      0x17c CMakeFiles/51_pb_remote_server.dir/__/__/mesh/src/access/access.c.obj
 .text.access_clear
                0x0000000000000000       0x10 CMakeFiles/51_pb_remote_server.dir/__/__/mesh/src/access/access.c.obj
 .text.access_model_publish_period_set
                0x0000000000000000       0x74 CMakeFiles/51_pb_remote_server.dir/__/__/mesh/src/access/access.c.obj
 .text.access_model_publish_period_get
                0x0000000000000000       0x44 CMakeFiles/51_pb_remote_server.dir/__/__/mesh/src/access/access.c.obj
 .text.access_model_subscription_list_alloc
                0x0000000000000000       0x44 CMakeFiles/51_pb_remote_server.dir/__/__/mesh/src/access/access.c.obj
 .text.access_model_subscription_lists_share
                0x0000000000000000       0x30 CMakeFiles/51_pb_remote_server.dir/__/__/mesh/src/access/access.c.obj
 .text.access_model_subscription_add
                0x0000000000000000       0x64 CMakeFiles/51_pb_remote_server.dir/__/__/mesh/src/access/access.c.obj
 .text.access_model_subscription_remove
                0x0000000000000000       0x64 CMakeFiles/51_pb_remote_server.dir/__/__/mesh/src/access/access.c.obj
 .text.access_model_subscriptions_get
                0x0000000000000000       0x98 CMakeFiles/51_pb_remote_server.dir/__/__/mesh/src/access/access.c.obj
 .text.access_model_application_unbind
                0x0000000000000000       0x50 CMakeFiles/51_pb_remote_server.dir/__/__/mesh/src/access/access.c.obj
 .text.access_model_applications_get
                0x0000000000000000       0x50 CMakeFiles/51_pb_remote_server.dir/__/__/mesh/src/access/access.c.obj
 .text.access_model_publish_application_get
                0x0000000000000000       0x2c CMakeFiles/51_pb_remote_server.dir/__/__/mesh/src/access/access.c.obj
 .text.access_default_ttl_set
                0x0000000000000000       0x10 CMakeFiles/51_pb_remote_server.dir/__/__/mesh/src/access/access.c.obj
 .text.access_default_ttl_get
                0x0000000000000000        0xc CMakeFiles/51_pb_remote_server.dir/__/__/mesh/src/access/access.c.obj
 .text.access_element_location_set
                0x0000000000000000       0x2c CMakeFiles/51_pb_remote_server.dir/__/__/mesh/src/access/access.c.obj
 .text.access_element_location_get
                0x0000000000000000       0x20 CMakeFiles/51_pb_remote_server.dir/__/__/mesh/src/access/access.c.obj
 .text.access_element_sig_model_count_get
                0x0000000000000000       0x20 CMakeFiles/51_pb_remote_server.dir/__/__/mesh/src/access/access.c.obj
 .text.access_element_vendor_model_count_get
                0x0000000000000000       0x20 CMakeFiles/51_pb_remote_server.dir/__/__/mesh/src/access/access.c.obj
 .text.access_model_id_get
                0x0000000000000000       0x3c CMakeFiles/51_pb_remote_server.dir/__/__/mesh/src/access/access.c.obj
 .text.access_handle_get
                0x0000000000000000       0x4c CMakeFiles/51_pb_remote_server.dir/__/__/mesh/src/access/access.c.obj
 .text.access_element_models_get
                0x0000000000000000       0x48 CMakeFiles/51_pb_remote_server.dir/__/__/mesh/src/access/access.c.obj
 .bss.m_metadata_stored
                0x0000000000000000        0x1 CMakeFiles/51_pb_remote_server.dir/__/__/mesh/src/access/access.c.obj
 .data.flash_clear_mem_available_struct.8012
                0x0000000000000000       0x10 CMakeFiles/51_pb_remote_server.dir/__/__/mesh/src/access/access.c.obj
 .data.flash_store_mem_available_struct.8036
                0x0000000000000000       0x10 CMakeFiles/51_pb_remote_server.dir/__/__/mesh/src/access/access.c.obj
 .rodata.multiply_de_bruijn_bit_position.6706
                0x0000000000000000       0x20 CMakeFiles/51_pb_remote_server.dir/__/__/mesh/src/access/access.c.obj
 .text          0x0000000000000000        0x0 CMakeFiles/51_pb_remote_server.dir/__/__/mesh/src/access/access_reliable.c.obj
 .data          0x0000000000000000        0x0 CMakeFiles/51_pb_remote_server.dir/__/__/mesh/src/access/access_reliable.c.obj
 .bss           0x0000000000000000        0x0 CMakeFiles/51_pb_remote_server.dir/__/__/mesh/src/access/access_reliable.c.obj
 .text.access_reliable_cancel_all
                0x0000000000000000       0x34 CMakeFiles/51_pb_remote_server.dir/__/__/mesh/src/access/access_reliable.c.obj
 .text          0x0000000000000000        0x0 CMakeFiles/51_pb_remote_server.dir/__/__/mesh/src/access/access_publish.c.obj
 .data          0x0000000000000000        0x0 CMakeFiles/51_pb_remote_server.dir/__/__/mesh/src/access/access_publish.c.obj
 .bss           0x0000000000000000        0x0 CMakeFiles/51_pb_remote_server.dir/__/__/mesh/src/access/access_publish.c.obj
 .text.add_to_publication_list
                0x0000000000000000       0xb0 CMakeFiles/51_pb_remote_server.dir/__/__/mesh/src/access/access_publish.c.obj
 .text.schedule_publication_timer
                0x0000000000000000      0x308 CMakeFiles/51_pb_remote_server.dir/__/__/mesh/src/access/access_publish.c.obj
 .text.publish_timer_tick
                0x0000000000000000       0xe0 CMakeFiles/51_pb_remote_server.dir/__/__/mesh/src/access/access_publish.c.obj
 .text.access_publish_init
                0x0000000000000000       0x38 CMakeFiles/51_pb_remote_server.dir/__/__/mesh/src/access/access_publish.c.obj
 .text.access_publish_period_set
                0x0000000000000000       0xe4 CMakeFiles/51_pb_remote_server.dir/__/__/mesh/src/access/access_publish.c.obj
 .text.access_publish_period_get
                0x0000000000000000       0x34 CMakeFiles/51_pb_remote_server.dir/__/__/mesh/src/access/access_publish.c.obj
 .bss.m_publish_timer
                0x0000000000000000       0x18 CMakeFiles/51_pb_remote_server.dir/__/__/mesh/src/access/access_publish.c.obj
 .bss.m_publish_timer_counter
                0x0000000000000000        0x4 CMakeFiles/51_pb_remote_server.dir/__/__/mesh/src/access/access_publish.c.obj
 .bss.m_publish_timer_running
                0x0000000000000000        0x1 CMakeFiles/51_pb_remote_server.dir/__/__/mesh/src/access/access_publish.c.obj
 .bss.m_timer_resolution
                0x0000000000000000        0x1 CMakeFiles/51_pb_remote_server.dir/__/__/mesh/src/access/access_publish.c.obj
 .bss.mp_publication_list
                0x0000000000000000        0x4 CMakeFiles/51_pb_remote_server.dir/__/__/mesh/src/access/access_publish.c.obj
 .debug_info    0x0000000000000000     0x1131 CMakeFiles/51_pb_remote_server.dir/__/__/mesh/src/access/access_publish.c.obj
 .debug_abbrev  0x0000000000000000      0x3ef CMakeFiles/51_pb_remote_server.dir/__/__/mesh/src/access/access_publish.c.obj
 .debug_loc     0x0000000000000000      0x8f2 CMakeFiles/51_pb_remote_server.dir/__/__/mesh/src/access/access_publish.c.obj
 .debug_aranges
                0x0000000000000000       0x48 CMakeFiles/51_pb_remote_server.dir/__/__/mesh/src/access/access_publish.c.obj
 .debug_ranges  0x0000000000000000      0x268 CMakeFiles/51_pb_remote_server.dir/__/__/mesh/src/access/access_publish.c.obj
 .debug_line    0x0000000000000000      0x474 CMakeFiles/51_pb_remote_server.dir/__/__/mesh/src/access/access_publish.c.obj
 .debug_str     0x0000000000000000      0xbc9 CMakeFiles/51_pb_remote_server.dir/__/__/mesh/src/access/access_publish.c.obj
 .comment       0x0000000000000000       0x80 CMakeFiles/51_pb_remote_server.dir/__/__/mesh/src/access/access_publish.c.obj
 .debug_frame   0x0000000000000000       0xc0 CMakeFiles/51_pb_remote_server.dir/__/__/mesh/src/access/access_publish.c.obj
 .ARM.attributes
                0x0000000000000000       0x31 CMakeFiles/51_pb_remote_server.dir/__/__/mesh/src/access/access_publish.c.obj
 .text          0x0000000000000000        0x0 CMakeFiles/51_pb_remote_server.dir/__/__/mesh/src/access/device_state_manager.c.obj
 .data          0x0000000000000000        0x0 CMakeFiles/51_pb_remote_server.dir/__/__/mesh/src/access/device_state_manager.c.obj
 .bss           0x0000000000000000        0x0 CMakeFiles/51_pb_remote_server.dir/__/__/mesh/src/access/device_state_manager.c.obj
 .text.address_delete_if_unused
                0x0000000000000000       0x94 CMakeFiles/51_pb_remote_server.dir/__/__/mesh/src/access/device_state_manager.c.obj
 .text.reset_flash_area
                0x0000000000000000       0x28 CMakeFiles/51_pb_remote_server.dir/__/__/mesh/src/access/device_state_manager.c.obj
 .text.add_address_virtual
                0x0000000000000000       0x90 CMakeFiles/51_pb_remote_server.dir/__/__/mesh/src/access/device_state_manager.c.obj
 .text.dsm_flash_config_load
                0x0000000000000000      0x140 CMakeFiles/51_pb_remote_server.dir/__/__/mesh/src/access/device_state_manager.c.obj
 .text.dsm_has_unflashed_data
                0x0000000000000000       0x5c CMakeFiles/51_pb_remote_server.dir/__/__/mesh/src/access/device_state_manager.c.obj
 .text.dsm_clear
                0x0000000000000000       0x6c CMakeFiles/51_pb_remote_server.dir/__/__/mesh/src/access/device_state_manager.c.obj
 .text.dsm_address_publish_add_handle
                0x0000000000000000       0x64 CMakeFiles/51_pb_remote_server.dir/__/__/mesh/src/access/device_state_manager.c.obj
 .text.dsm_address_publish_virtual_add
                0x0000000000000000        0xa CMakeFiles/51_pb_remote_server.dir/__/__/mesh/src/access/device_state_manager.c.obj
 .text.dsm_address_publish_remove
                0x0000000000000000       0x64 CMakeFiles/51_pb_remote_server.dir/__/__/mesh/src/access/device_state_manager.c.obj
 .text.dsm_address_subscription_add
                0x0000000000000000        0xa CMakeFiles/51_pb_remote_server.dir/__/__/mesh/src/access/device_state_manager.c.obj
 .text.dsm_address_subscription_virtual_add
                0x0000000000000000        0xa CMakeFiles/51_pb_remote_server.dir/__/__/mesh/src/access/device_state_manager.c.obj
 .text.dsm_address_subscription_add_handle
                0x0000000000000000       0x64 CMakeFiles/51_pb_remote_server.dir/__/__/mesh/src/access/device_state_manager.c.obj
 .text.dsm_address_subscription_count_get
                0x0000000000000000       0x88 CMakeFiles/51_pb_remote_server.dir/__/__/mesh/src/access/device_state_manager.c.obj
 .text.dsm_address_subscription_remove
                0x0000000000000000       0xa8 CMakeFiles/51_pb_remote_server.dir/__/__/mesh/src/access/device_state_manager.c.obj
 .text.dsm_address_get_all
                0x0000000000000000       0x80 CMakeFiles/51_pb_remote_server.dir/__/__/mesh/src/access/device_state_manager.c.obj
 .text.dsm_net_key_index_to_subnet_handle
                0x0000000000000000       0x28 CMakeFiles/51_pb_remote_server.dir/__/__/mesh/src/access/device_state_manager.c.obj
 .text.dsm_subnet_handle_get
                0x0000000000000000       0x14 CMakeFiles/51_pb_remote_server.dir/__/__/mesh/src/access/device_state_manager.c.obj
 .text.dsm_subnet_handle_to_netkey_index
                0x0000000000000000       0x30 CMakeFiles/51_pb_remote_server.dir/__/__/mesh/src/access/device_state_manager.c.obj
 .text.dsm_app_key_index_to_appkey_handle
                0x0000000000000000       0x20 CMakeFiles/51_pb_remote_server.dir/__/__/mesh/src/access/device_state_manager.c.obj
 .text.dsm_appkey_handle_to_appkey_index
                0x0000000000000000       0x30 CMakeFiles/51_pb_remote_server.dir/__/__/mesh/src/access/device_state_manager.c.obj
 .text.dsm_subnet_update
                0x0000000000000000       0x3c CMakeFiles/51_pb_remote_server.dir/__/__/mesh/src/access/device_state_manager.c.obj
 .text.dsm_subnet_get_all
                0x0000000000000000       0x40 CMakeFiles/51_pb_remote_server.dir/__/__/mesh/src/access/device_state_manager.c.obj
 .text.dsm_devkey_delete
                0x0000000000000000       0x38 CMakeFiles/51_pb_remote_server.dir/__/__/mesh/src/access/device_state_manager.c.obj
 .text.dsm_devkey_handle_get
                0x0000000000000000       0x3a CMakeFiles/51_pb_remote_server.dir/__/__/mesh/src/access/device_state_manager.c.obj
 .text.dsm_appkey_update
                0x0000000000000000       0x44 CMakeFiles/51_pb_remote_server.dir/__/__/mesh/src/access/device_state_manager.c.obj
 .text.dsm_appkey_delete
                0x0000000000000000       0x30 CMakeFiles/51_pb_remote_server.dir/__/__/mesh/src/access/device_state_manager.c.obj
 .text.dsm_subnet_delete
                0x0000000000000000       0x98 CMakeFiles/51_pb_remote_server.dir/__/__/mesh/src/access/device_state_manager.c.obj
 .text.dsm_appkey_get_all
                0x0000000000000000       0x60 CMakeFiles/51_pb_remote_server.dir/__/__/mesh/src/access/device_state_manager.c.obj
 .text.dsm_beacon_secmat_get
                0x0000000000000000       0x30 CMakeFiles/51_pb_remote_server.dir/__/__/mesh/src/access/device_state_manager.c.obj
 .text.dsm_proxy_identity_get
                0x0000000000000000        0x4 CMakeFiles/51_pb_remote_server.dir/__/__/mesh/src/access/device_state_manager.c.obj
 .data.mem_listener.8178
                0x0000000000000000       0x10 CMakeFiles/51_pb_remote_server.dir/__/__/mesh/src/access/device_state_manager.c.obj
 .text          0x0000000000000000        0x0 CMakeFiles/51_pb_remote_server.dir/__/nrf_mesh_sdk.c.obj
 .data          0x0000000000000000        0x0 CMakeFiles/51_pb_remote_server.dir/__/nrf_mesh_sdk.c.obj
 .bss           0x0000000000000000        0x0 CMakeFiles/51_pb_remote_server.dir/__/nrf_mesh_sdk.c.obj
 .data          0x0000000000000000        0x0 CMakeFiles/51_pb_remote_server.dir/__/__/toolchain/gcc/gcc_startup_nrf51.S.obj
 .bss           0x0000000000000000        0x0 CMakeFiles/51_pb_remote_server.dir/__/__/toolchain/gcc/gcc_startup_nrf51.S.obj
 .text          0x0000000000000000        0x0 CMakeFiles/51_pb_remote_server.dir/__/__/toolchain/system_nrf51.c.obj
 .data          0x0000000000000000        0x0 CMakeFiles/51_pb_remote_server.dir/__/__/toolchain/system_nrf51.c.obj
 .bss           0x0000000000000000        0x0 CMakeFiles/51_pb_remote_server.dir/__/__/toolchain/system_nrf51.c.obj
 .text.SystemCoreClockUpdate
                0x0000000000000000       0x10 CMakeFiles/51_pb_remote_server.dir/__/__/toolchain/system_nrf51.c.obj
 .data.SystemCoreClock
                0x0000000000000000        0x4 CMakeFiles/51_pb_remote_server.dir/__/__/toolchain/system_nrf51.c.obj
 .text          0x0000000000000000        0x0 ../../mesh/lib_51_MBTLE_PB_ADV_EE.a(provisioning.c.obj)
 .data          0x0000000000000000        0x0 ../../mesh/lib_51_MBTLE_PB_ADV_EE.a(provisioning.c.obj)
 .bss           0x0000000000000000        0x0 ../../mesh/lib_51_MBTLE_PB_ADV_EE.a(provisioning.c.obj)
 .text.prov_listen_stop
                0x0000000000000000        0xe ../../mesh/lib_51_MBTLE_PB_ADV_EE.a(provisioning.c.obj)
 .text.prov_tx_invite
                0x0000000000000000       0x28 ../../mesh/lib_51_MBTLE_PB_ADV_EE.a(provisioning.c.obj)
 .text.prov_tx_start
                0x0000000000000000       0x1e ../../mesh/lib_51_MBTLE_PB_ADV_EE.a(provisioning.c.obj)
 .text.prov_tx_data
                0x0000000000000000        0xa ../../mesh/lib_51_MBTLE_PB_ADV_EE.a(provisioning.c.obj)
 .text          0x0000000000000000        0x0 ../../mesh/lib_51_MBTLE_PB_ADV_EE.a(nrf_mesh_prov.c.obj)
 .data          0x0000000000000000        0x0 ../../mesh/lib_51_MBTLE_PB_ADV_EE.a(nrf_mesh_prov.c.obj)
 .bss           0x0000000000000000        0x0 ../../mesh/lib_51_MBTLE_PB_ADV_EE.a(nrf_mesh_prov.c.obj)
 .text.nrf_mesh_prov_provision
                0x0000000000000000       0x6c ../../mesh/lib_51_MBTLE_PB_ADV_EE.a(nrf_mesh_prov.c.obj)
 .text.nrf_mesh_prov_oob_use
                0x0000000000000000       0x1c ../../mesh/lib_51_MBTLE_PB_ADV_EE.a(nrf_mesh_prov.c.obj)
 .text.nrf_mesh_prov_shared_secret_provide
                0x0000000000000000       0x1c ../../mesh/lib_51_MBTLE_PB_ADV_EE.a(nrf_mesh_prov.c.obj)
 .text.nrf_mesh_prov_pubkey_provide
                0x0000000000000000       0x1c ../../mesh/lib_51_MBTLE_PB_ADV_EE.a(nrf_mesh_prov.c.obj)
 .text          0x0000000000000000        0x0 ../../mesh/lib_51_MBTLE_PB_ADV_EE.a(prov_bearer_adv.c.obj)
 .data          0x0000000000000000        0x0 ../../mesh/lib_51_MBTLE_PB_ADV_EE.a(prov_bearer_adv.c.obj)
 .bss           0x0000000000000000        0x0 ../../mesh/lib_51_MBTLE_PB_ADV_EE.a(prov_bearer_adv.c.obj)
 .text          0x0000000000000000        0x0 ../../mesh/lib_51_MBTLE_PB_ADV_EE.a(prov_utils.c.obj)
 .data          0x0000000000000000        0x0 ../../mesh/lib_51_MBTLE_PB_ADV_EE.a(prov_utils.c.obj)
 .bss           0x0000000000000000        0x0 ../../mesh/lib_51_MBTLE_PB_ADV_EE.a(prov_utils.c.obj)
 .text.prov_utils_opt_set
                0x0000000000000000       0x28 ../../mesh/lib_51_MBTLE_PB_ADV_EE.a(prov_utils.c.obj)
 .text.prov_utils_opt_get
                0x0000000000000000       0x1c ../../mesh/lib_51_MBTLE_PB_ADV_EE.a(prov_utils.c.obj)
 .text          0x0000000000000000        0x0 ../../mesh/lib_51_MBTLE_PB_ADV_EE.a(prov_beacon.c.obj)
 .data          0x0000000000000000        0x0 ../../mesh/lib_51_MBTLE_PB_ADV_EE.a(prov_beacon.c.obj)
 .bss           0x0000000000000000        0x0 ../../mesh/lib_51_MBTLE_PB_ADV_EE.a(prov_beacon.c.obj)
 .text.prov_beacon_unprov_report
                0x0000000000000000        0xc ../../mesh/lib_51_MBTLE_PB_ADV_EE.a(prov_beacon.c.obj)
 .text          0x0000000000000000        0x0 ../../mesh/lib_51_MBTLE_PB_ADV_EE.a(prov_provisionee.c.obj)
 .data          0x0000000000000000        0x0 ../../mesh/lib_51_MBTLE_PB_ADV_EE.a(prov_provisionee.c.obj)
 .bss           0x0000000000000000        0x0 ../../mesh/lib_51_MBTLE_PB_ADV_EE.a(prov_provisionee.c.obj)
 .text.prov_provisionee_shared_secret
                0x0000000000000000       0x30 ../../mesh/lib_51_MBTLE_PB_ADV_EE.a(prov_provisionee.c.obj)
 .text          0x0000000000000000        0x0 ../../mesh/lib_51_MBTLE_CORE.a(nrf_mesh_weak.c.obj)
 .data          0x0000000000000000        0x0 ../../mesh/lib_51_MBTLE_CORE.a(nrf_mesh_weak.c.obj)
 .bss           0x0000000000000000        0x0 ../../mesh/lib_51_MBTLE_CORE.a(nrf_mesh_weak.c.obj)
 .text._weak_handler_ptr
                0x0000000000000000        0x4 ../../mesh/lib_51_MBTLE_CORE.a(nrf_mesh_weak.c.obj)
 .text          0x0000000000000000        0x0 ../../mesh/lib_51_MBTLE_CORE.a(bearer_adv.c.obj)
 .data          0x0000000000000000        0x0 ../../mesh/lib_51_MBTLE_CORE.a(bearer_adv.c.obj)
 .bss           0x0000000000000000        0x0 ../../mesh/lib_51_MBTLE_CORE.a(bearer_adv.c.obj)
 .text.bearer_adv_opt_get
                0x0000000000000000       0xd8 ../../mesh/lib_51_MBTLE_CORE.a(bearer_adv.c.obj)
 .rodata.bearer_adv_opt_get
                0x0000000000000000       0x1c ../../mesh/lib_51_MBTLE_CORE.a(bearer_adv.c.obj)
 .text.bearer_adv_available
                0x0000000000000000       0x10 ../../mesh/lib_51_MBTLE_CORE.a(bearer_adv.c.obj)
 .text.bearer_adv_tx_raw
                0x0000000000000000       0x30 ../../mesh/lib_51_MBTLE_CORE.a(bearer_adv.c.obj)
 .text.bearer_adv_opt_set
                0x0000000000000000      0x124 ../../mesh/lib_51_MBTLE_CORE.a(bearer_adv.c.obj)
 .rodata.bearer_adv_opt_set
                0x0000000000000000       0x28 ../../mesh/lib_51_MBTLE_CORE.a(bearer_adv.c.obj)
 .text.bearer_adv_scan_stop
                0x0000000000000000       0x28 ../../mesh/lib_51_MBTLE_CORE.a(bearer_adv.c.obj)
 .text.bearer_adv_addr_set
                0x0000000000000000       0x3c ../../mesh/lib_51_MBTLE_CORE.a(bearer_adv.c.obj)
 .rodata.bearer_adv_opt_get.str1.4
                0x0000000000000000       0x15 ../../mesh/lib_51_MBTLE_CORE.a(bearer_adv.c.obj)
 .text          0x0000000000000000        0x0 ../../mesh/lib_51_MBTLE_CORE.a(fifo.c.obj)
 .data          0x0000000000000000        0x0 ../../mesh/lib_51_MBTLE_CORE.a(fifo.c.obj)
 .bss           0x0000000000000000        0x0 ../../mesh/lib_51_MBTLE_CORE.a(fifo.c.obj)
 .text.fifo_is_full
                0x0000000000000000       0x14 ../../mesh/lib_51_MBTLE_CORE.a(fifo.c.obj)
 .text          0x0000000000000000        0x0 ../../mesh/lib_51_MBTLE_CORE.a(packet_mgr.c.obj)
 .data          0x0000000000000000        0x0 ../../mesh/lib_51_MBTLE_CORE.a(packet_mgr.c.obj)
 .bss           0x0000000000000000        0x0 ../../mesh/lib_51_MBTLE_CORE.a(packet_mgr.c.obj)
 .text.packet_mgr_get_free_space
                0x0000000000000000       0x1c ../../mesh/lib_51_MBTLE_CORE.a(packet_mgr.c.obj)
 .text.packet_mgr_refcount_get
                0x0000000000000000        0x6 ../../mesh/lib_51_MBTLE_CORE.a(packet_mgr.c.obj)
 .text.packet_mgr_size_get
                0x0000000000000000        0x6 ../../mesh/lib_51_MBTLE_CORE.a(packet_mgr.c.obj)
 .text          0x0000000000000000        0x0 ../../mesh/lib_51_MBTLE_CORE.a(radio.c.obj)
 .data          0x0000000000000000        0x0 ../../mesh/lib_51_MBTLE_CORE.a(radio.c.obj)
 .bss           0x0000000000000000        0x0 ../../mesh/lib_51_MBTLE_CORE.a(radio.c.obj)
 .text.radio_mode_set
                0x0000000000000000       0x14 ../../mesh/lib_51_MBTLE_CORE.a(radio.c.obj)
 .text.radio_access_addr_set
                0x0000000000000000        0xc ../../mesh/lib_51_MBTLE_CORE.a(radio.c.obj)
 .text.radio_tx_power_set
                0x0000000000000000        0xc ../../mesh/lib_51_MBTLE_CORE.a(radio.c.obj)
 .text.radio_mode_get
                0x0000000000000000        0xc ../../mesh/lib_51_MBTLE_CORE.a(radio.c.obj)
 .text.radio_access_addr_get
                0x0000000000000000        0xc ../../mesh/lib_51_MBTLE_CORE.a(radio.c.obj)
 .text.radio_tx_power_get
                0x0000000000000000        0xc ../../mesh/lib_51_MBTLE_CORE.a(radio.c.obj)
 .text.radio_resume
                0x0000000000000000       0x40 ../../mesh/lib_51_MBTLE_CORE.a(radio.c.obj)
 .text          0x0000000000000000        0x0 ../../mesh/lib_51_MBTLE_CORE.a(timer.c.obj)
 .data          0x0000000000000000        0x0 ../../mesh/lib_51_MBTLE_CORE.a(timer.c.obj)
 .bss           0x0000000000000000        0x0 ../../mesh/lib_51_MBTLE_CORE.a(timer.c.obj)
 .text.timer_order_cb_ppi
                0x0000000000000000       0xd0 ../../mesh/lib_51_MBTLE_CORE.a(timer.c.obj)
 .text.timer_order_ppi
                0x0000000000000000       0x90 ../../mesh/lib_51_MBTLE_CORE.a(timer.c.obj)
 .text          0x0000000000000000        0x0 ../../mesh/lib_51_MBTLE_CORE.a(timer_scheduler.c.obj)
 .data          0x0000000000000000        0x0 ../../mesh/lib_51_MBTLE_CORE.a(timer_scheduler.c.obj)
 .bss           0x0000000000000000        0x0 ../../mesh/lib_51_MBTLE_CORE.a(timer_scheduler.c.obj)
 .text          0x0000000000000000        0x0 ../../mesh/lib_51_MBTLE_CORE.a(beacon.c.obj)
 .data          0x0000000000000000        0x0 ../../mesh/lib_51_MBTLE_CORE.a(beacon.c.obj)
 .bss           0x0000000000000000        0x0 ../../mesh/lib_51_MBTLE_CORE.a(beacon.c.obj)
 .text          0x0000000000000000        0x0 ../../mesh/lib_51_MBTLE_CORE.a(bearer.c.obj)
 .data          0x0000000000000000        0x0 ../../mesh/lib_51_MBTLE_CORE.a(bearer.c.obj)
 .bss           0x0000000000000000        0x0 ../../mesh/lib_51_MBTLE_CORE.a(bearer.c.obj)
 .text.gap_addr_filter_set
                0x0000000000000000       0x40 ../../mesh/lib_51_MBTLE_CORE.a(bearer.c.obj)
 .text.bearer_adtype_filtering_set
                0x0000000000000000        0xc ../../mesh/lib_51_MBTLE_CORE.a(bearer.c.obj)
 .text.bearer_adtype_add
                0x0000000000000000       0x1c ../../mesh/lib_51_MBTLE_CORE.a(bearer.c.obj)
 .text.bearer_adtype_remove
                0x0000000000000000       0x1c ../../mesh/lib_51_MBTLE_CORE.a(bearer.c.obj)
 .text.bearer_filter_gap_addr_whitelist_set
                0x0000000000000000        0xa ../../mesh/lib_51_MBTLE_CORE.a(bearer.c.obj)
 .text.bearer_filter_gap_addr_blacklist_set
                0x0000000000000000        0xa ../../mesh/lib_51_MBTLE_CORE.a(bearer.c.obj)
 .text.bearer_filter_gap_addr_range_set
                0x0000000000000000       0x36 ../../mesh/lib_51_MBTLE_CORE.a(bearer.c.obj)
 .text.bearer_filter_gap_addr_clear
                0x0000000000000000       0x28 ../../mesh/lib_51_MBTLE_CORE.a(bearer.c.obj)
 .text.bearer_disable
                0x0000000000000000       0x14 ../../mesh/lib_51_MBTLE_CORE.a(bearer.c.obj)
 .text.bearer_stats_get
                0x0000000000000000       0x2c ../../mesh/lib_51_MBTLE_CORE.a(bearer.c.obj)
 .text          0x0000000000000000        0x0 ../../mesh/lib_51_MBTLE_CORE.a(bearer_event.c.obj)
 .data          0x0000000000000000        0x0 ../../mesh/lib_51_MBTLE_CORE.a(bearer_event.c.obj)
 .bss           0x0000000000000000        0x0 ../../mesh/lib_51_MBTLE_CORE.a(bearer_event.c.obj)
 .text.bearer_event_timer_sch_post
                0x0000000000000000       0x3c ../../mesh/lib_51_MBTLE_CORE.a(bearer_event.c.obj)
 .text.bearer_event_in_progress
                0x0000000000000000       0x18 ../../mesh/lib_51_MBTLE_CORE.a(bearer_event.c.obj)
 .text          0x0000000000000000        0x0 ../../mesh/lib_51_MBTLE_CORE.a(nrf_mesh_configure.c.obj)
 .data          0x0000000000000000        0x0 ../../mesh/lib_51_MBTLE_CORE.a(nrf_mesh_configure.c.obj)
 .bss           0x0000000000000000        0x0 ../../mesh/lib_51_MBTLE_CORE.a(nrf_mesh_configure.c.obj)
 .text.nrf_mesh_configure_device_uuid_set
                0x0000000000000000       0x14 ../../mesh/lib_51_MBTLE_CORE.a(nrf_mesh_configure.c.obj)
 .text          0x0000000000000000        0x0 ../../mesh/lib_51_MBTLE_CORE.a(enc.c.obj)
 .data          0x0000000000000000        0x0 ../../mesh/lib_51_MBTLE_CORE.a(enc.c.obj)
 .bss           0x0000000000000000        0x0 ../../mesh/lib_51_MBTLE_CORE.a(enc.c.obj)
 .text.enc_key_generate
                0x0000000000000000        0xa ../../mesh/lib_51_MBTLE_CORE.a(enc.c.obj)
 .text          0x0000000000000000        0x0 ../../mesh/lib_51_MBTLE_CORE.a(event.c.obj)
 .data          0x0000000000000000        0x0 ../../mesh/lib_51_MBTLE_CORE.a(event.c.obj)
 .bss           0x0000000000000000        0x0 ../../mesh/lib_51_MBTLE_CORE.a(event.c.obj)
 .text.event_handler_remove
                0x0000000000000000       0x7c ../../mesh/lib_51_MBTLE_CORE.a(event.c.obj)
 .text          0x0000000000000000        0x0 ../../mesh/lib_51_MBTLE_CORE.a(log.c.obj)
 .data          0x0000000000000000        0x0 ../../mesh/lib_51_MBTLE_CORE.a(log.c.obj)
 .bss           0x0000000000000000        0x0 ../../mesh/lib_51_MBTLE_CORE.a(log.c.obj)
 .text.log_callback_logview
                0x0000000000000000       0x38 ../../mesh/lib_51_MBTLE_CORE.a(log.c.obj)
 .text.log_set_callback
                0x0000000000000000        0xc ../../mesh/lib_51_MBTLE_CORE.a(log.c.obj)
 .rodata.log_callback_logview.str1.4
                0x0000000000000000       0x12 ../../mesh/lib_51_MBTLE_CORE.a(log.c.obj)
 .text          0x0000000000000000        0x0 ../../mesh/lib_51_MBTLE_CORE.a(net_beacon.c.obj)
 .data          0x0000000000000000        0x0 ../../mesh/lib_51_MBTLE_CORE.a(net_beacon.c.obj)
 .bss           0x0000000000000000        0x0 ../../mesh/lib_51_MBTLE_CORE.a(net_beacon.c.obj)
 .text.net_beacon_state_set
                0x0000000000000000       0x40 ../../mesh/lib_51_MBTLE_CORE.a(net_beacon.c.obj)
 .text.net_beacon_state_get
                0x0000000000000000        0xc ../../mesh/lib_51_MBTLE_CORE.a(net_beacon.c.obj)
 .text          0x0000000000000000        0x0 ../../mesh/lib_51_MBTLE_CORE.a(net_state.c.obj)
 .data          0x0000000000000000        0x0 ../../mesh/lib_51_MBTLE_CORE.a(net_state.c.obj)
 .bss           0x0000000000000000        0x0 ../../mesh/lib_51_MBTLE_CORE.a(net_state.c.obj)
 .text.net_state_reset
                0x0000000000000000       0x3c ../../mesh/lib_51_MBTLE_CORE.a(net_state.c.obj)
 .text.net_state_iv_update_test_mode_set
                0x0000000000000000        0xc ../../mesh/lib_51_MBTLE_CORE.a(net_state.c.obj)
 .data.mem_listener.7451
                0x0000000000000000       0x10 ../../mesh/lib_51_MBTLE_CORE.a(net_state.c.obj)
 .text          0x0000000000000000        0x0 ../../mesh/lib_51_MBTLE_CORE.a(nrf_mesh.c.obj)
 .data          0x0000000000000000        0x0 ../../mesh/lib_51_MBTLE_CORE.a(nrf_mesh.c.obj)
 .bss           0x0000000000000000        0x0 ../../mesh/lib_51_MBTLE_CORE.a(nrf_mesh.c.obj)
 .text.nrf_mesh_disable
                0x0000000000000000       0x28 ../../mesh/lib_51_MBTLE_CORE.a(nrf_mesh.c.obj)
 .text.nrf_mesh_adv_send
                0x0000000000000000       0xbc ../../mesh/lib_51_MBTLE_CORE.a(nrf_mesh.c.obj)
 .text.nrf_mesh_evt_handler_remove
                0x0000000000000000        0x8 ../../mesh/lib_51_MBTLE_CORE.a(nrf_mesh.c.obj)
 .text.nrf_mesh_rx_cb_set
                0x0000000000000000        0xc ../../mesh/lib_51_MBTLE_CORE.a(nrf_mesh.c.obj)
 .text.nrf_mesh_rx_cb_clear
                0x0000000000000000        0xc ../../mesh/lib_51_MBTLE_CORE.a(nrf_mesh.c.obj)
 .text          0x0000000000000000        0x0 ../../mesh/lib_51_MBTLE_CORE.a(nrf_mesh_keygen.c.obj)
 .data          0x0000000000000000        0x0 ../../mesh/lib_51_MBTLE_CORE.a(nrf_mesh_keygen.c.obj)
 .bss           0x0000000000000000        0x0 ../../mesh/lib_51_MBTLE_CORE.a(nrf_mesh_keygen.c.obj)
 .text.nrf_mesh_keygen_identitykey
                0x0000000000000000       0x50 ../../mesh/lib_51_MBTLE_CORE.a(nrf_mesh_keygen.c.obj)
 .text          0x0000000000000000        0x0 ../../mesh/lib_51_MBTLE_CORE.a(nrf_mesh_utils.c.obj)
 .data          0x0000000000000000        0x0 ../../mesh/lib_51_MBTLE_CORE.a(nrf_mesh_utils.c.obj)
 .bss           0x0000000000000000        0x0 ../../mesh/lib_51_MBTLE_CORE.a(nrf_mesh_utils.c.obj)
 .text.nrf_mesh_rand_get
                0x0000000000000000       0x14 ../../mesh/lib_51_MBTLE_CORE.a(nrf_mesh_utils.c.obj)
 .text          0x0000000000000000        0x0 ../../mesh/lib_51_MBTLE_CORE.a(radio_config.c.obj)
 .data          0x0000000000000000        0x0 ../../mesh/lib_51_MBTLE_CORE.a(radio_config.c.obj)
 .bss           0x0000000000000000        0x0 ../../mesh/lib_51_MBTLE_CORE.a(radio_config.c.obj)
 .text.radio_config_access_addr_set
                0x0000000000000000       0x78 ../../mesh/lib_51_MBTLE_CORE.a(radio_config.c.obj)
 .text.radio_config_access_addr_get
                0x0000000000000000       0x7c ../../mesh/lib_51_MBTLE_CORE.a(radio_config.c.obj)
 .text          0x0000000000000000        0x0 ../../mesh/lib_51_MBTLE_CORE.a(rand.c.obj)
 .data          0x0000000000000000        0x0 ../../mesh/lib_51_MBTLE_CORE.a(rand.c.obj)
 .bss           0x0000000000000000        0x0 ../../mesh/lib_51_MBTLE_CORE.a(rand.c.obj)
 .text          0x0000000000000000        0x0 ../../mesh/lib_51_MBTLE_CORE.a(ticker.c.obj)
 .data          0x0000000000000000        0x0 ../../mesh/lib_51_MBTLE_CORE.a(ticker.c.obj)
 .bss           0x0000000000000000        0x0 ../../mesh/lib_51_MBTLE_CORE.a(ticker.c.obj)
 .text.ticker_get
                0x0000000000000000        0xc ../../mesh/lib_51_MBTLE_CORE.a(ticker.c.obj)
 .text          0x0000000000000000        0x0 ../../mesh/lib_51_MBTLE_CORE.a(transport.c.obj)
 .data          0x0000000000000000        0x0 ../../mesh/lib_51_MBTLE_CORE.a(transport.c.obj)
 .bss           0x0000000000000000        0x0 ../../mesh/lib_51_MBTLE_CORE.a(transport.c.obj)
 .text.transport_opt_set
                0x0000000000000000       0xdc ../../mesh/lib_51_MBTLE_CORE.a(transport.c.obj)
 .rodata.transport_opt_set
                0x0000000000000000       0x1c ../../mesh/lib_51_MBTLE_CORE.a(transport.c.obj)
 .text.transport_opt_get
                0x0000000000000000       0x80 ../../mesh/lib_51_MBTLE_CORE.a(transport.c.obj)
 .rodata.transport_opt_get
                0x0000000000000000       0x1c ../../mesh/lib_51_MBTLE_CORE.a(transport.c.obj)
 .text          0x0000000000000000        0x0 ../../mesh/lib_51_MBTLE_CORE.a(internal_event.c.obj)
 .data          0x0000000000000000        0x0 ../../mesh/lib_51_MBTLE_CORE.a(internal_event.c.obj)
 .bss           0x0000000000000000        0x0 ../../mesh/lib_51_MBTLE_CORE.a(internal_event.c.obj)
 .text.internal_event_init
                0x0000000000000000       0x44 ../../mesh/lib_51_MBTLE_CORE.a(internal_event.c.obj)
 .text.internal_event_pop
                0x0000000000000000       0x20 ../../mesh/lib_51_MBTLE_CORE.a(internal_event.c.obj)
 .bss.m_internal_event_fifo_buffer
                0x0000000000000000      0x100 ../../mesh/lib_51_MBTLE_CORE.a(internal_event.c.obj)
 .text          0x0000000000000000        0x0 ../../mesh/lib_51_MBTLE_CORE.a(flash_manager.c.obj)
 .data          0x0000000000000000        0x0 ../../mesh/lib_51_MBTLE_CORE.a(flash_manager.c.obj)
 .bss           0x0000000000000000        0x0 ../../mesh/lib_51_MBTLE_CORE.a(flash_manager.c.obj)
 .text.flash_manager_remove
                0x0000000000000000       0x60 ../../mesh/lib_51_MBTLE_CORE.a(flash_manager.c.obj)
 .text.flash_manager_entry_get
                0x0000000000000000       0x54 ../../mesh/lib_51_MBTLE_CORE.a(flash_manager.c.obj)
 .text.flash_manager_entry_count_get
                0x0000000000000000       0xc4 ../../mesh/lib_51_MBTLE_CORE.a(flash_manager.c.obj)
 .text.flash_manager_entry_release
                0x0000000000000000       0x58 ../../mesh/lib_51_MBTLE_CORE.a(flash_manager.c.obj)
 .text          0x0000000000000000        0x0 ../../mesh/lib_51_MBTLE_CORE.a(flash_manager_defrag.c.obj)
 .data          0x0000000000000000        0x0 ../../mesh/lib_51_MBTLE_CORE.a(flash_manager_defrag.c.obj)
 .bss           0x0000000000000000        0x0 ../../mesh/lib_51_MBTLE_CORE.a(flash_manager_defrag.c.obj)
 .text.flash_manager_defragging
                0x0000000000000000       0x54 ../../mesh/lib_51_MBTLE_CORE.a(flash_manager_defrag.c.obj)
 .text          0x0000000000000000        0x0 ../../mesh/lib_51_MBTLE_CORE.a(flash_manager_internal.c.obj)
 .data          0x0000000000000000        0x0 ../../mesh/lib_51_MBTLE_CORE.a(flash_manager_internal.c.obj)
 .bss           0x0000000000000000        0x0 ../../mesh/lib_51_MBTLE_CORE.a(flash_manager_internal.c.obj)
 .text          0x0000000000000000        0x0 ../../mesh/lib_51_MBTLE_CORE.a(aes.c.obj)
 .data          0x0000000000000000        0x0 ../../mesh/lib_51_MBTLE_CORE.a(aes.c.obj)
 .bss           0x0000000000000000        0x0 ../../mesh/lib_51_MBTLE_CORE.a(aes.c.obj)
 .text          0x0000000000000000        0x0 ../../mesh/lib_51_MBTLE_CORE.a(queue.c.obj)
 .data          0x0000000000000000        0x0 ../../mesh/lib_51_MBTLE_CORE.a(queue.c.obj)
 .bss           0x0000000000000000        0x0 ../../mesh/lib_51_MBTLE_CORE.a(queue.c.obj)
 .text.queue_peek
                0x0000000000000000       0x20 ../../mesh/lib_51_MBTLE_CORE.a(queue.c.obj)
 .text          0x0000000000000000        0x0 ../../mesh/lib_51_MBTLE_CORE.a(timeslot.c.obj)
 .data          0x0000000000000000        0x0 ../../mesh/lib_51_MBTLE_CORE.a(timeslot.c.obj)
 .bss           0x0000000000000000        0x0 ../../mesh/lib_51_MBTLE_CORE.a(timeslot.c.obj)
 .text.sd_radio_session_close
                0x0000000000000000        0x4 ../../mesh/lib_51_MBTLE_CORE.a(timeslot.c.obj)
 .text.timeslot_stop
                0x0000000000000000       0x50 ../../mesh/lib_51_MBTLE_CORE.a(timeslot.c.obj)
 .text.timeslot_restart
                0x0000000000000000       0x34 ../../mesh/lib_51_MBTLE_CORE.a(timeslot.c.obj)
 .text.timeslot_start_time_get
                0x0000000000000000        0xc ../../mesh/lib_51_MBTLE_CORE.a(timeslot.c.obj)
 .text.timeslot_is_in_ts
                0x0000000000000000        0xc ../../mesh/lib_51_MBTLE_CORE.a(timeslot.c.obj)
 .text          0x0000000000000000        0x0 ../../mesh/lib_51_MBTLE_CORE.a(aes_cmac.c.obj)
 .data          0x0000000000000000        0x0 ../../mesh/lib_51_MBTLE_CORE.a(aes_cmac.c.obj)
 .bss           0x0000000000000000        0x0 ../../mesh/lib_51_MBTLE_CORE.a(aes_cmac.c.obj)
 .text          0x0000000000000000        0x0 ../../mesh/lib_51_MBTLE_CORE.a(ccm_soft.c.obj)
 .data          0x0000000000000000        0x0 ../../mesh/lib_51_MBTLE_CORE.a(ccm_soft.c.obj)
 .bss           0x0000000000000000        0x0 ../../mesh/lib_51_MBTLE_CORE.a(ccm_soft.c.obj)
 .text          0x0000000000000000        0x0 ../../mesh/lib_51_MBTLE_CORE.a(msg_cache.c.obj)
 .data          0x0000000000000000        0x0 ../../mesh/lib_51_MBTLE_CORE.a(msg_cache.c.obj)
 .bss           0x0000000000000000        0x0 ../../mesh/lib_51_MBTLE_CORE.a(msg_cache.c.obj)
 .text.msg_cache_clear
                0x0000000000000000       0x20 ../../mesh/lib_51_MBTLE_CORE.a(msg_cache.c.obj)
 .text          0x0000000000000000        0x0 ../../mesh/lib_51_MBTLE_CORE.a(network.c.obj)
 .data          0x0000000000000000        0x0 ../../mesh/lib_51_MBTLE_CORE.a(network.c.obj)
 .bss           0x0000000000000000        0x0 ../../mesh/lib_51_MBTLE_CORE.a(network.c.obj)
 .text.network_opt_set
                0x0000000000000000       0x4c ../../mesh/lib_51_MBTLE_CORE.a(network.c.obj)
 .text.network_opt_get
                0x0000000000000000       0x48 ../../mesh/lib_51_MBTLE_CORE.a(network.c.obj)
 .text          0x0000000000000000        0x0 ../../mesh/lib_51_MBTLE_CORE.a(packet.c.obj)
 .data          0x0000000000000000        0x0 ../../mesh/lib_51_MBTLE_CORE.a(packet.c.obj)
 .bss           0x0000000000000000        0x0 ../../mesh/lib_51_MBTLE_CORE.a(packet.c.obj)
 .text          0x0000000000000000        0x0 ../../mesh/lib_51_MBTLE_CORE.a(packet_buffer.c.obj)
 .data          0x0000000000000000        0x0 ../../mesh/lib_51_MBTLE_CORE.a(packet_buffer.c.obj)
 .bss           0x0000000000000000        0x0 ../../mesh/lib_51_MBTLE_CORE.a(packet_buffer.c.obj)
 .text.packet_buffer_max_packet_len_get
                0x0000000000000000       0x3c ../../mesh/lib_51_MBTLE_CORE.a(packet_buffer.c.obj)
 .text          0x0000000000000000        0x0 ../../mesh/lib_51_MBTLE_CORE.a(replay_cache.c.obj)
 .data          0x0000000000000000        0x0 ../../mesh/lib_51_MBTLE_CORE.a(replay_cache.c.obj)
 .bss           0x0000000000000000        0x0 ../../mesh/lib_51_MBTLE_CORE.a(replay_cache.c.obj)
 .text.replay_cache_on_iv_update
                0x0000000000000000       0x28 ../../mesh/lib_51_MBTLE_CORE.a(replay_cache.c.obj)
 .text          0x0000000000000000        0x0 ../../mesh/lib_51_MBTLE_CORE.a(mesh_flash.c.obj)
 .data          0x0000000000000000        0x0 ../../mesh/lib_51_MBTLE_CORE.a(mesh_flash.c.obj)
 .bss           0x0000000000000000        0x0 ../../mesh/lib_51_MBTLE_CORE.a(mesh_flash.c.obj)
 .text.mesh_flash_op_available_slots
                0x0000000000000000       0x30 ../../mesh/lib_51_MBTLE_CORE.a(mesh_flash.c.obj)
 .text.mesh_flash_in_progress
                0x0000000000000000       0x3c ../../mesh/lib_51_MBTLE_CORE.a(mesh_flash.c.obj)
 .text.mesh_flash_set_suspended
                0x0000000000000000       0x58 ../../mesh/lib_51_MBTLE_CORE.a(mesh_flash.c.obj)
 .bss.suspend_count.7574
                0x0000000000000000        0x4 ../../mesh/lib_51_MBTLE_CORE.a(mesh_flash.c.obj)
 .text          0x0000000000000000        0x0 ../../mesh/lib_51_MBTLE_CORE.a(nrf_flash.c.obj)
 .data          0x0000000000000000        0x0 ../../mesh/lib_51_MBTLE_CORE.a(nrf_flash.c.obj)
 .bss           0x0000000000000000        0x0 ../../mesh/lib_51_MBTLE_CORE.a(nrf_flash.c.obj)
 .text          0x0000000000000000        0x0 ../../mesh/lib_51_MBTLE_CORE.a(msqueue.c.obj)
 .data          0x0000000000000000        0x0 ../../mesh/lib_51_MBTLE_CORE.a(msqueue.c.obj)
 .bss           0x0000000000000000        0x0 ../../mesh/lib_51_MBTLE_CORE.a(msqueue.c.obj)
 .text          0x0000000000000000        0x0 ../../lib/micro-ecc/lib_51_UECC_LIB.a(uECC.c.obj)
 .data          0x0000000000000000        0x0 ../../lib/micro-ecc/lib_51_UECC_LIB.a(uECC.c.obj)
 .bss           0x0000000000000000        0x0 ../../lib/micro-ecc/lib_51_UECC_LIB.a(uECC.c.obj)
 .text.uECC_vli_modMult
                0x0000000000000000      0x180 ../../lib/micro-ecc/lib_51_UECC_LIB.a(uECC.c.obj)
 .text.bits2int
                0x0000000000000000       0xa8 ../../lib/micro-ecc/lib_51_UECC_LIB.a(uECC.c.obj)
 .text.uECC_sign_with_k
                0x0000000000000000      0x184 ../../lib/micro-ecc/lib_51_UECC_LIB.a(uECC.c.obj)
 .text.HMAC_init
                0x0000000000000000       0x48 ../../lib/micro-ecc/lib_51_UECC_LIB.a(uECC.c.obj)
 .text.HMAC_update
                0x0000000000000000        0x8 ../../lib/micro-ecc/lib_51_UECC_LIB.a(uECC.c.obj)
 .text.HMAC_finish
                0x0000000000000000       0x64 ../../lib/micro-ecc/lib_51_UECC_LIB.a(uECC.c.obj)
 .text.update_V
                0x0000000000000000       0x22 ../../lib/micro-ecc/lib_51_UECC_LIB.a(uECC.c.obj)
 .text.uECC_set_rng
                0x0000000000000000        0xc ../../lib/micro-ecc/lib_51_UECC_LIB.a(uECC.c.obj)
 .text.uECC_get_rng
                0x0000000000000000        0xc ../../lib/micro-ecc/lib_51_UECC_LIB.a(uECC.c.obj)
 .text.uECC_curve_private_key_size
                0x0000000000000000       0x12 ../../lib/micro-ecc/lib_51_UECC_LIB.a(uECC.c.obj)
 .text.uECC_curve_public_key_size
                0x0000000000000000        0x8 ../../lib/micro-ecc/lib_51_UECC_LIB.a(uECC.c.obj)
 .text.uECC_compute_public_key
                0x0000000000000000       0x8a ../../lib/micro-ecc/lib_51_UECC_LIB.a(uECC.c.obj)
 .text.uECC_sign
                0x0000000000000000       0x5a ../../lib/micro-ecc/lib_51_UECC_LIB.a(uECC.c.obj)
 .text.uECC_sign_deterministic
                0x0000000000000000      0x1d6 ../../lib/micro-ecc/lib_51_UECC_LIB.a(uECC.c.obj)
 .text.uECC_verify
                0x0000000000000000      0x310 ../../lib/micro-ecc/lib_51_UECC_LIB.a(uECC.c.obj)
 .text          0x0000000000000000        0x0 ../../lib/rtt/lib_51_RTT_LIB.a(SEGGER_RTT.c.obj)
 .data          0x0000000000000000        0x0 ../../lib/rtt/lib_51_RTT_LIB.a(SEGGER_RTT.c.obj)
 .bss           0x0000000000000000        0x0 ../../lib/rtt/lib_51_RTT_LIB.a(SEGGER_RTT.c.obj)
 .text._PostTerminalSwitch
                0x0000000000000000       0x20 ../../lib/rtt/lib_51_RTT_LIB.a(SEGGER_RTT.c.obj)
 .text.SEGGER_RTT_ReadNoLock
                0x0000000000000000       0xd8 ../../lib/rtt/lib_51_RTT_LIB.a(SEGGER_RTT.c.obj)
 .text.SEGGER_RTT_Read
                0x0000000000000000       0x1a ../../lib/rtt/lib_51_RTT_LIB.a(SEGGER_RTT.c.obj)
 .text.SEGGER_RTT_WriteSkipNoLock
                0x0000000000000000      0x124 ../../lib/rtt/lib_51_RTT_LIB.a(SEGGER_RTT.c.obj)
 .text.SEGGER_RTT_WriteString
                0x0000000000000000       0x18 ../../lib/rtt/lib_51_RTT_LIB.a(SEGGER_RTT.c.obj)
 .text.SEGGER_RTT_GetKey
                0x0000000000000000       0x22 ../../lib/rtt/lib_51_RTT_LIB.a(SEGGER_RTT.c.obj)
 .text.SEGGER_RTT_WaitKey
                0x0000000000000000        0xc ../../lib/rtt/lib_51_RTT_LIB.a(SEGGER_RTT.c.obj)
 .text.SEGGER_RTT_HasKey
                0x0000000000000000       0x24 ../../lib/rtt/lib_51_RTT_LIB.a(SEGGER_RTT.c.obj)
 .text.SEGGER_RTT_HasData
                0x0000000000000000       0x1c ../../lib/rtt/lib_51_RTT_LIB.a(SEGGER_RTT.c.obj)
 .text.SEGGER_RTT_AllocDownBuffer
                0x0000000000000000       0x78 ../../lib/rtt/lib_51_RTT_LIB.a(SEGGER_RTT.c.obj)
 .text.SEGGER_RTT_AllocUpBuffer
                0x0000000000000000       0x98 ../../lib/rtt/lib_51_RTT_LIB.a(SEGGER_RTT.c.obj)
 .text.SEGGER_RTT_ConfigUpBuffer
                0x0000000000000000       0x80 ../../lib/rtt/lib_51_RTT_LIB.a(SEGGER_RTT.c.obj)
 .text.SEGGER_RTT_ConfigDownBuffer
                0x0000000000000000       0x64 ../../lib/rtt/lib_51_RTT_LIB.a(SEGGER_RTT.c.obj)
 .text.SEGGER_RTT_SetNameUpBuffer
                0x0000000000000000       0x44 ../../lib/rtt/lib_51_RTT_LIB.a(SEGGER_RTT.c.obj)
 .text.SEGGER_RTT_SetNameDownBuffer
                0x0000000000000000       0x44 ../../lib/rtt/lib_51_RTT_LIB.a(SEGGER_RTT.c.obj)
 .text.SEGGER_RTT_Init
                0x0000000000000000       0x18 ../../lib/rtt/lib_51_RTT_LIB.a(SEGGER_RTT.c.obj)
 .text.SEGGER_RTT_SetTerminal
                0x0000000000000000       0x8c ../../lib/rtt/lib_51_RTT_LIB.a(SEGGER_RTT.c.obj)
 .text.SEGGER_RTT_TerminalOut
                0x0000000000000000       0xf0 ../../lib/rtt/lib_51_RTT_LIB.a(SEGGER_RTT.c.obj)
 .bss._ActiveTerminal
                0x0000000000000000        0x1 ../../lib/rtt/lib_51_RTT_LIB.a(SEGGER_RTT.c.obj)
 .rodata._aTerminalId
                0x0000000000000000       0x10 ../../lib/rtt/lib_51_RTT_LIB.a(SEGGER_RTT.c.obj)
 .text          0x0000000000000000        0x0 ../../lib/rtt/lib_51_RTT_LIB.a(SEGGER_RTT_printf.c.obj)
 .data          0x0000000000000000        0x0 ../../lib/rtt/lib_51_RTT_LIB.a(SEGGER_RTT_printf.c.obj)
 .bss           0x0000000000000000        0x0 ../../lib/rtt/lib_51_RTT_LIB.a(SEGGER_RTT_printf.c.obj)
 .data          0x0000000000000000        0x0 /usr/bin/../lib/gcc/arm-none-eabi/6.3.1/thumb/v6-m/libgcc.a(_udivsi3.o)
 .bss           0x0000000000000000        0x0 /usr/bin/../lib/gcc/arm-none-eabi/6.3.1/thumb/v6-m/libgcc.a(_udivsi3.o)
 .data          0x0000000000000000        0x0 /usr/bin/../lib/gcc/arm-none-eabi/6.3.1/thumb/v6-m/libgcc.a(_divsi3.o)
 .bss           0x0000000000000000        0x0 /usr/bin/../lib/gcc/arm-none-eabi/6.3.1/thumb/v6-m/libgcc.a(_divsi3.o)
 .data          0x0000000000000000        0x0 /usr/bin/../lib/gcc/arm-none-eabi/6.3.1/thumb/v6-m/libgcc.a(_dvmd_tls.o)
 .bss           0x0000000000000000        0x0 /usr/bin/../lib/gcc/arm-none-eabi/6.3.1/thumb/v6-m/libgcc.a(_dvmd_tls.o)
 .data          0x0000000000000000        0x0 /usr/bin/../lib/gcc/arm-none-eabi/6.3.1/thumb/v6-m/libgcc.a(_muldi3.o)
 .bss           0x0000000000000000        0x0 /usr/bin/../lib/gcc/arm-none-eabi/6.3.1/thumb/v6-m/libgcc.a(_muldi3.o)
 .text          0x0000000000000000        0x0 /usr/bin/../lib/gcc/arm-none-eabi/6.3.1/../../../../arm-none-eabi/lib/thumb/v6-m/libg_nano.a(lib_a-exit.o)
 .data          0x0000000000000000        0x0 /usr/bin/../lib/gcc/arm-none-eabi/6.3.1/../../../../arm-none-eabi/lib/thumb/v6-m/libg_nano.a(lib_a-exit.o)
 .bss           0x0000000000000000        0x0 /usr/bin/../lib/gcc/arm-none-eabi/6.3.1/../../../../arm-none-eabi/lib/thumb/v6-m/libg_nano.a(lib_a-exit.o)
 .text          0x0000000000000000        0x0 /usr/bin/../lib/gcc/arm-none-eabi/6.3.1/../../../../arm-none-eabi/lib/thumb/v6-m/libg_nano.a(lib_a-impure.o)
 .data          0x0000000000000000        0x0 /usr/bin/../lib/gcc/arm-none-eabi/6.3.1/../../../../arm-none-eabi/lib/thumb/v6-m/libg_nano.a(lib_a-impure.o)
 .bss           0x0000000000000000        0x0 /usr/bin/../lib/gcc/arm-none-eabi/6.3.1/../../../../arm-none-eabi/lib/thumb/v6-m/libg_nano.a(lib_a-impure.o)
 .text          0x0000000000000000        0x0 /usr/bin/../lib/gcc/arm-none-eabi/6.3.1/../../../../arm-none-eabi/lib/thumb/v6-m/libg_nano.a(lib_a-init.o)
 .data          0x0000000000000000        0x0 /usr/bin/../lib/gcc/arm-none-eabi/6.3.1/../../../../arm-none-eabi/lib/thumb/v6-m/libg_nano.a(lib_a-init.o)
 .bss           0x0000000000000000        0x0 /usr/bin/../lib/gcc/arm-none-eabi/6.3.1/../../../../arm-none-eabi/lib/thumb/v6-m/libg_nano.a(lib_a-init.o)
 .text          0x0000000000000000        0x0 /usr/bin/../lib/gcc/arm-none-eabi/6.3.1/../../../../arm-none-eabi/lib/thumb/v6-m/libg_nano.a(lib_a-malloc.o)
 .data          0x0000000000000000        0x0 /usr/bin/../lib/gcc/arm-none-eabi/6.3.1/../../../../arm-none-eabi/lib/thumb/v6-m/libg_nano.a(lib_a-malloc.o)
 .bss           0x0000000000000000        0x0 /usr/bin/../lib/gcc/arm-none-eabi/6.3.1/../../../../arm-none-eabi/lib/thumb/v6-m/libg_nano.a(lib_a-malloc.o)
 .text          0x0000000000000000        0x0 /usr/bin/../lib/gcc/arm-none-eabi/6.3.1/../../../../arm-none-eabi/lib/thumb/v6-m/libg_nano.a(lib_a-memcmp.o)
 .data          0x0000000000000000        0x0 /usr/bin/../lib/gcc/arm-none-eabi/6.3.1/../../../../arm-none-eabi/lib/thumb/v6-m/libg_nano.a(lib_a-memcmp.o)
 .bss           0x0000000000000000        0x0 /usr/bin/../lib/gcc/arm-none-eabi/6.3.1/../../../../arm-none-eabi/lib/thumb/v6-m/libg_nano.a(lib_a-memcmp.o)
 .text          0x0000000000000000        0x0 /usr/bin/../lib/gcc/arm-none-eabi/6.3.1/../../../../arm-none-eabi/lib/thumb/v6-m/libg_nano.a(lib_a-memcpy-stub.o)
 .data          0x0000000000000000        0x0 /usr/bin/../lib/gcc/arm-none-eabi/6.3.1/../../../../arm-none-eabi/lib/thumb/v6-m/libg_nano.a(lib_a-memcpy-stub.o)
 .bss           0x0000000000000000        0x0 /usr/bin/../lib/gcc/arm-none-eabi/6.3.1/../../../../arm-none-eabi/lib/thumb/v6-m/libg_nano.a(lib_a-memcpy-stub.o)
 .text          0x0000000000000000        0x0 /usr/bin/../lib/gcc/arm-none-eabi/6.3.1/../../../../arm-none-eabi/lib/thumb/v6-m/libg_nano.a(lib_a-memset.o)
 .data          0x0000000000000000        0x0 /usr/bin/../lib/gcc/arm-none-eabi/6.3.1/../../../../arm-none-eabi/lib/thumb/v6-m/libg_nano.a(lib_a-memset.o)
 .bss           0x0000000000000000        0x0 /usr/bin/../lib/gcc/arm-none-eabi/6.3.1/../../../../arm-none-eabi/lib/thumb/v6-m/libg_nano.a(lib_a-memset.o)
 .text          0x0000000000000000        0x0 /usr/bin/../lib/gcc/arm-none-eabi/6.3.1/../../../../arm-none-eabi/lib/thumb/v6-m/libg_nano.a(lib_a-nano-freer.o)
 .data          0x0000000000000000        0x0 /usr/bin/../lib/gcc/arm-none-eabi/6.3.1/../../../../arm-none-eabi/lib/thumb/v6-m/libg_nano.a(lib_a-nano-freer.o)
 .bss           0x0000000000000000        0x0 /usr/bin/../lib/gcc/arm-none-eabi/6.3.1/../../../../arm-none-eabi/lib/thumb/v6-m/libg_nano.a(lib_a-nano-freer.o)
 .text          0x0000000000000000        0x0 /usr/bin/../lib/gcc/arm-none-eabi/6.3.1/../../../../arm-none-eabi/lib/thumb/v6-m/libg_nano.a(lib_a-nano-mallocr.o)
 .data          0x0000000000000000        0x0 /usr/bin/../lib/gcc/arm-none-eabi/6.3.1/../../../../arm-none-eabi/lib/thumb/v6-m/libg_nano.a(lib_a-nano-mallocr.o)
 .bss           0x0000000000000000        0x0 /usr/bin/../lib/gcc/arm-none-eabi/6.3.1/../../../../arm-none-eabi/lib/thumb/v6-m/libg_nano.a(lib_a-nano-mallocr.o)
 .text          0x0000000000000000        0x0 /usr/bin/../lib/gcc/arm-none-eabi/6.3.1/../../../../arm-none-eabi/lib/thumb/v6-m/libg_nano.a(lib_a-sbrkr.o)
 .data          0x0000000000000000        0x0 /usr/bin/../lib/gcc/arm-none-eabi/6.3.1/../../../../arm-none-eabi/lib/thumb/v6-m/libg_nano.a(lib_a-sbrkr.o)
 .bss           0x0000000000000000        0x0 /usr/bin/../lib/gcc/arm-none-eabi/6.3.1/../../../../arm-none-eabi/lib/thumb/v6-m/libg_nano.a(lib_a-sbrkr.o)
 .text          0x0000000000000000        0x0 /usr/bin/../lib/gcc/arm-none-eabi/6.3.1/../../../../arm-none-eabi/lib/thumb/v6-m/libg_nano.a(lib_a-strcpy.o)
 .data          0x0000000000000000        0x0 /usr/bin/../lib/gcc/arm-none-eabi/6.3.1/../../../../arm-none-eabi/lib/thumb/v6-m/libg_nano.a(lib_a-strcpy.o)
 .bss           0x0000000000000000        0x0 /usr/bin/../lib/gcc/arm-none-eabi/6.3.1/../../../../arm-none-eabi/lib/thumb/v6-m/libg_nano.a(lib_a-strcpy.o)
 .data          0x0000000000000000        0x0 /usr/bin/../lib/gcc/arm-none-eabi/6.3.1/../../../../arm-none-eabi/lib/thumb/v6-m/libg_nano.a(lib_a-strlen.o)
 .bss           0x0000000000000000        0x0 /usr/bin/../lib/gcc/arm-none-eabi/6.3.1/../../../../arm-none-eabi/lib/thumb/v6-m/libg_nano.a(lib_a-strlen.o)
 .text          0x0000000000000000        0x0 /usr/bin/../lib/gcc/arm-none-eabi/6.3.1/../../../../arm-none-eabi/lib/thumb/v6-m/libg_nano.a(lib_a-strrchr.o)
 .data          0x0000000000000000        0x0 /usr/bin/../lib/gcc/arm-none-eabi/6.3.1/../../../../arm-none-eabi/lib/thumb/v6-m/libg_nano.a(lib_a-strrchr.o)
 .bss           0x0000000000000000        0x0 /usr/bin/../lib/gcc/arm-none-eabi/6.3.1/../../../../arm-none-eabi/lib/thumb/v6-m/libg_nano.a(lib_a-strrchr.o)
 .text          0x0000000000000000        0x0 /usr/bin/../lib/gcc/arm-none-eabi/6.3.1/../../../../arm-none-eabi/lib/thumb/v6-m/libg_nano.a(lib_a-mlock.o)
 .data          0x0000000000000000        0x0 /usr/bin/../lib/gcc/arm-none-eabi/6.3.1/../../../../arm-none-eabi/lib/thumb/v6-m/libg_nano.a(lib_a-mlock.o)
 .bss           0x0000000000000000        0x0 /usr/bin/../lib/gcc/arm-none-eabi/6.3.1/../../../../arm-none-eabi/lib/thumb/v6-m/libg_nano.a(lib_a-mlock.o)
 .text          0x0000000000000000        0x0 /usr/bin/../lib/gcc/arm-none-eabi/6.3.1/../../../../arm-none-eabi/lib/thumb/v6-m/libg_nano.a(lib_a-reent.o)
 .data          0x0000000000000000        0x0 /usr/bin/../lib/gcc/arm-none-eabi/6.3.1/../../../../arm-none-eabi/lib/thumb/v6-m/libg_nano.a(lib_a-reent.o)
 .bss           0x0000000000000000        0x0 /usr/bin/../lib/gcc/arm-none-eabi/6.3.1/../../../../arm-none-eabi/lib/thumb/v6-m/libg_nano.a(lib_a-reent.o)
 .text.cleanup_glue
                0x0000000000000000       0x1a /usr/bin/../lib/gcc/arm-none-eabi/6.3.1/../../../../arm-none-eabi/lib/thumb/v6-m/libg_nano.a(lib_a-reent.o)
 .text._reclaim_reent
                0x0000000000000000       0xcc /usr/bin/../lib/gcc/arm-none-eabi/6.3.1/../../../../arm-none-eabi/lib/thumb/v6-m/libg_nano.a(lib_a-reent.o)
 .text          0x0000000000000000        0x0 /usr/bin/../lib/gcc/arm-none-eabi/6.3.1/../../../../arm-none-eabi/lib/thumb/v6-m/libg_nano.a(lib_a-strchr.o)
 .data          0x0000000000000000        0x0 /usr/bin/../lib/gcc/arm-none-eabi/6.3.1/../../../../arm-none-eabi/lib/thumb/v6-m/libg_nano.a(lib_a-strchr.o)
 .bss           0x0000000000000000        0x0 /usr/bin/../lib/gcc/arm-none-eabi/6.3.1/../../../../arm-none-eabi/lib/thumb/v6-m/libg_nano.a(lib_a-strchr.o)
 .text          0x0000000000000000        0x0 /usr/bin/../lib/gcc/arm-none-eabi/6.3.1/thumb/v6-m/crtend.o
 .data          0x0000000000000000        0x0 /usr/bin/../lib/gcc/arm-none-eabi/6.3.1/thumb/v6-m/crtend.o
 .bss           0x0000000000000000        0x0 /usr/bin/../lib/gcc/arm-none-eabi/6.3.1/thumb/v6-m/crtend.o
 .text          0x0000000000000000        0x0 /usr/bin/../lib/gcc/arm-none-eabi/6.3.1/thumb/v6-m/crtn.o
 .data          0x0000000000000000        0x0 /usr/bin/../lib/gcc/arm-none-eabi/6.3.1/thumb/v6-m/crtn.o
 .bss           0x0000000000000000        0x0 /usr/bin/../lib/gcc/arm-none-eabi/6.3.1/thumb/v6-m/crtn.o
 .text          0x0000000000000000        0x0 /usr/bin/../lib/gcc/arm-none-eabi/6.3.1/../../../../arm-none-eabi/lib/thumb/v6-m/libnosys.a(sbrk.o)
 .data          0x0000000000000000        0x0 /usr/bin/../lib/gcc/arm-none-eabi/6.3.1/../../../../arm-none-eabi/lib/thumb/v6-m/libnosys.a(sbrk.o)
 .bss           0x0000000000000000        0x0 /usr/bin/../lib/gcc/arm-none-eabi/6.3.1/../../../../arm-none-eabi/lib/thumb/v6-m/libnosys.a(sbrk.o)
 .text          0x0000000000000000        0x0 /usr/bin/../lib/gcc/arm-none-eabi/6.3.1/../../../../arm-none-eabi/lib/thumb/v6-m/libnosys.a(_exit.o)
 .data          0x0000000000000000        0x0 /usr/bin/../lib/gcc/arm-none-eabi/6.3.1/../../../../arm-none-eabi/lib/thumb/v6-m/libnosys.a(_exit.o)
 .bss           0x0000000000000000        0x0 /usr/bin/../lib/gcc/arm-none-eabi/6.3.1/../../../../arm-none-eabi/lib/thumb/v6-m/libnosys.a(_exit.o)

Memory Configuration

Name             Origin             Length             Attributes
FLASH            0x000000000001b000 0x000000000001f000 xr
RAM              0x00000000200022d8 0x0000000000005a28 xrw
*default*        0x0000000000000000 0xffffffffffffffff

Linker script and memory map

LOAD /usr/bin/../lib/gcc/arm-none-eabi/6.3.1/thumb/v6-m/crti.o
LOAD /usr/bin/../lib/gcc/arm-none-eabi/6.3.1/thumb/v6-m/crtbegin.o
LOAD /usr/bin/../lib/gcc/arm-none-eabi/6.3.1/../../../../arm-none-eabi/lib/thumb/v6-m/crt0.o
LOAD CMakeFiles/51_pb_remote_server.dir/src/main.c.obj
LOAD CMakeFiles/51_pb_remote_server.dir/__/__/mesh/models/pb_remote/src/pb_remote_server.c.obj
LOAD CMakeFiles/51_pb_remote_server.dir/__/__/mesh/src/access/access.c.obj
LOAD CMakeFiles/51_pb_remote_server.dir/__/__/mesh/src/access/access_reliable.c.obj
LOAD CMakeFiles/51_pb_remote_server.dir/__/__/mesh/src/access/access_publish.c.obj
LOAD CMakeFiles/51_pb_remote_server.dir/__/__/mesh/src/access/device_state_manager.c.obj
LOAD CMakeFiles/51_pb_remote_server.dir/__/nrf_mesh_sdk.c.obj
LOAD CMakeFiles/51_pb_remote_server.dir/__/__/toolchain/gcc/gcc_startup_nrf51.S.obj
LOAD CMakeFiles/51_pb_remote_server.dir/__/__/toolchain/system_nrf51.c.obj
LOAD ../../mesh/lib_51_MBTLE_PB_ADV_EE.a
LOAD ../../mesh/lib_51_MBTLE_CORE.a
LOAD ../../lib/micro-ecc/lib_51_UECC_LIB.a
LOAD ../../lib/rtt/lib_51_RTT_LIB.a
START GROUP
LOAD /usr/bin/../lib/gcc/arm-none-eabi/6.3.1/thumb/v6-m/libgcc.a
LOAD /usr/bin/../lib/gcc/arm-none-eabi/6.3.1/../../../../arm-none-eabi/lib/thumb/v6-m/libg_nano.a
LOAD /usr/bin/../lib/gcc/arm-none-eabi/6.3.1/../../../../arm-none-eabi/lib/thumb/v6-m/libc_nano.a
END GROUP
START GROUP
LOAD /usr/bin/../lib/gcc/arm-none-eabi/6.3.1/thumb/v6-m/libgcc.a
LOAD /usr/bin/../lib/gcc/arm-none-eabi/6.3.1/../../../../arm-none-eabi/lib/thumb/v6-m/libc_nano.a
END GROUP
LOAD /usr/bin/../lib/gcc/arm-none-eabi/6.3.1/thumb/v6-m/crtend.o
LOAD /usr/bin/../lib/gcc/arm-none-eabi/6.3.1/thumb/v6-m/crtn.o
START GROUP
LOAD /usr/bin/../lib/gcc/arm-none-eabi/6.3.1/thumb/v6-m/libgcc.a
LOAD /usr/bin/../lib/gcc/arm-none-eabi/6.3.1/../../../../arm-none-eabi/lib/thumb/v6-m/libc.a
LOAD /usr/bin/../lib/gcc/arm-none-eabi/6.3.1/../../../../arm-none-eabi/lib/thumb/v6-m/libnosys.a
END GROUP

.text           0x000000000001b000    0x1479c
 *(.isr_vector)
 .isr_vector    0x000000000001b000       0xc0 CMakeFiles/51_pb_remote_server.dir/__/__/toolchain/gcc/gcc_startup_nrf51.S.obj
                0x000000000001b000                __isr_vector
 *(.text*)
 .text          0x000000000001b0c0       0x60 /usr/bin/../lib/gcc/arm-none-eabi/6.3.1/thumb/v6-m/crtbegin.o
 .text          0x000000000001b120       0x78 /usr/bin/../lib/gcc/arm-none-eabi/6.3.1/../../../../arm-none-eabi/lib/thumb/v6-m/crt0.o
                0x000000000001b120                _mainCRTStartup
                0x000000000001b120                _start
 .text.mesh_evt_handler
                0x000000000001b198      0x5e4 CMakeFiles/51_pb_remote_server.dir/src/main.c.obj
 .text.main     0x000000000001b77c      0x360 CMakeFiles/51_pb_remote_server.dir/src/main.c.obj
                0x000000000001b77c                main
 .text.pb_remote_server_event_scan_report_status_cb
                0x000000000001badc       0xa0 CMakeFiles/51_pb_remote_server.dir/__/__/mesh/models/pb_remote/src/pb_remote_server.c.obj
 .text.do_state_change
                0x000000000001bb7c       0x8c CMakeFiles/51_pb_remote_server.dir/__/__/mesh/models/pb_remote/src/pb_remote_server.c.obj
 .text.pb_remote_server_process
                0x000000000001bc08      0x240 CMakeFiles/51_pb_remote_server.dir/__/__/mesh/models/pb_remote/src/pb_remote_server.c.obj
 .text.server_reliable_status_cb
                0x000000000001be48      0x154 CMakeFiles/51_pb_remote_server.dir/__/__/mesh/models/pb_remote/src/pb_remote_server.c.obj
 .text.pb_adv_link_closed_cb
                0x000000000001bf9c       0x58 CMakeFiles/51_pb_remote_server.dir/__/__/mesh/models/pb_remote/src/pb_remote_server.c.obj
 .text.pb_adv_link_opened_cb
                0x000000000001bff4       0x54 CMakeFiles/51_pb_remote_server.dir/__/__/mesh/models/pb_remote/src/pb_remote_server.c.obj
 .text.pb_adv_ack_cb
                0x000000000001c048       0x54 CMakeFiles/51_pb_remote_server.dir/__/__/mesh/models/pb_remote/src/pb_remote_server.c.obj
 .text.pb_remote_server_event_transfer_status_cb
                0x000000000001c09c      0x124 CMakeFiles/51_pb_remote_server.dir/__/__/mesh/models/pb_remote/src/pb_remote_server.c.obj
 .text.pb_remote_server_event_link_status_cb
                0x000000000001c1c0      0x244 CMakeFiles/51_pb_remote_server.dir/__/__/mesh/models/pb_remote/src/pb_remote_server.c.obj
 .text.pb_remote_server_event_tx_failed_cb
                0x000000000001c404       0x38 CMakeFiles/51_pb_remote_server.dir/__/__/mesh/models/pb_remote/src/pb_remote_server.c.obj
 .text.pb_adv_rx_cb
                0x000000000001c43c       0x64 CMakeFiles/51_pb_remote_server.dir/__/__/mesh/models/pb_remote/src/pb_remote_server.c.obj
 .text.pb_remote_server_mesh_evt_cb
                0x000000000001c4a0       0x50 CMakeFiles/51_pb_remote_server.dir/__/__/mesh/models/pb_remote/src/pb_remote_server.c.obj
 .text.pb_remote_server_event_local_ack_cb
                0x000000000001c4f0       0xe8 CMakeFiles/51_pb_remote_server.dir/__/__/mesh/models/pb_remote/src/pb_remote_server.c.obj
 .text.pb_remote_server_event_link_established_cb
                0x000000000001c5d8       0xf0 CMakeFiles/51_pb_remote_server.dir/__/__/mesh/models/pb_remote/src/pb_remote_server.c.obj
 .text.pb_remote_server_event_local_packet_cb
                0x000000000001c6c8      0x1c0 CMakeFiles/51_pb_remote_server.dir/__/__/mesh/models/pb_remote/src/pb_remote_server.c.obj
 .text.pb_remote_server_event_link_closed_cb
                0x000000000001c888      0x1bc CMakeFiles/51_pb_remote_server.dir/__/__/mesh/models/pb_remote/src/pb_remote_server.c.obj
 .text.pb_remote_server_event_unprov_uuid_cb
                0x000000000001ca44      0x224 CMakeFiles/51_pb_remote_server.dir/__/__/mesh/models/pb_remote/src/pb_remote_server.c.obj
 .text.pb_remote_server_event_scan_cancel_cb
                0x000000000001cc68       0x90 CMakeFiles/51_pb_remote_server.dir/__/__/mesh/models/pb_remote/src/pb_remote_server.c.obj
 .text.pb_remote_server_event_scan_start_cb
                0x000000000001ccf8       0xa0 CMakeFiles/51_pb_remote_server.dir/__/__/mesh/models/pb_remote/src/pb_remote_server.c.obj
 .text.pb_remote_server_event_packet_transfer_cb
                0x000000000001cd98      0x1a4 CMakeFiles/51_pb_remote_server.dir/__/__/mesh/models/pb_remote/src/pb_remote_server.c.obj
 .text.remote_server_access_rx_cb
                0x000000000001cf3c      0x244 CMakeFiles/51_pb_remote_server.dir/__/__/mesh/models/pb_remote/src/pb_remote_server.c.obj
 .text.pb_remote_server_event_scan_start_filter_cb
                0x000000000001d180      0x178 CMakeFiles/51_pb_remote_server.dir/__/__/mesh/models/pb_remote/src/pb_remote_server.c.obj
 .text.pb_remote_server_event_link_close_cb
                0x000000000001d2f8      0x170 CMakeFiles/51_pb_remote_server.dir/__/__/mesh/models/pb_remote/src/pb_remote_server.c.obj
 .text.pb_remote_server_event_link_open_cb
                0x000000000001d468      0x2b0 CMakeFiles/51_pb_remote_server.dir/__/__/mesh/models/pb_remote/src/pb_remote_server.c.obj
 .text.pb_remote_server_init
                0x000000000001d718       0xd0 CMakeFiles/51_pb_remote_server.dir/__/__/mesh/models/pb_remote/src/pb_remote_server.c.obj
                0x000000000001d718                pb_remote_server_init
 .text.pb_remote_server_enable
                0x000000000001d7e8       0x40 CMakeFiles/51_pb_remote_server.dir/__/__/mesh/models/pb_remote/src/pb_remote_server.c.obj
                0x000000000001d7e8                pb_remote_server_enable
 .text.is_valid_opcode
                0x000000000001d828       0x58 CMakeFiles/51_pb_remote_server.dir/__/__/mesh/src/access/access.c.obj
 .text.flash_invalidate_complete
                0x000000000001d880       0x18 CMakeFiles/51_pb_remote_server.dir/__/__/mesh/src/access/access.c.obj
 .text.flash_manager_mem_available
                0x000000000001d898        0x6 CMakeFiles/51_pb_remote_server.dir/__/__/mesh/src/access/access.c.obj
 *fill*         0x000000000001d89e        0x2 
 .text.access_state_clear
                0x000000000001d8a0       0x40 CMakeFiles/51_pb_remote_server.dir/__/__/mesh/src/access/access.c.obj
 .text.add_flash_manager
                0x000000000001d8e0       0x64 CMakeFiles/51_pb_remote_server.dir/__/__/mesh/src/access/access.c.obj
 .text.flash_remove_complete
                0x000000000001d944       0x4c CMakeFiles/51_pb_remote_server.dir/__/__/mesh/src/access/access.c.obj
 .text.flash_write_complete
                0x000000000001d990       0x68 CMakeFiles/51_pb_remote_server.dir/__/__/mesh/src/access/access.c.obj
 .text.packet_tx
                0x000000000001d9f8      0x230 CMakeFiles/51_pb_remote_server.dir/__/__/mesh/src/access/access.c.obj
 .text.mesh_evt_cb
                0x000000000001dc28      0x2d0 CMakeFiles/51_pb_remote_server.dir/__/__/mesh/src/access/access.c.obj
 .text.access_init
                0x000000000001def8       0x24 CMakeFiles/51_pb_remote_server.dir/__/__/mesh/src/access/access.c.obj
                0x000000000001def8                access_init
 .text.access_model_add
                0x000000000001df1c      0x194 CMakeFiles/51_pb_remote_server.dir/__/__/mesh/src/access/access.c.obj
                0x000000000001df1c                access_model_add
 .text.access_model_publish
                0x000000000001e0b0       0x14 CMakeFiles/51_pb_remote_server.dir/__/__/mesh/src/access/access.c.obj
                0x000000000001e0b0                access_model_publish
 .text.access_model_reply
                0x000000000001e0c4       0x20 CMakeFiles/51_pb_remote_server.dir/__/__/mesh/src/access/access.c.obj
                0x000000000001e0c4                access_model_reply
 .text.access_model_publish_address_set
                0x000000000001e0e4       0x3c CMakeFiles/51_pb_remote_server.dir/__/__/mesh/src/access/access.c.obj
                0x000000000001e0e4                access_model_publish_address_set
 .text.access_model_publish_address_get
                0x000000000001e120       0x2c CMakeFiles/51_pb_remote_server.dir/__/__/mesh/src/access/access.c.obj
                0x000000000001e120                access_model_publish_address_get
 .text.access_model_application_bind
                0x000000000001e14c       0x50 CMakeFiles/51_pb_remote_server.dir/__/__/mesh/src/access/access.c.obj
                0x000000000001e14c                access_model_application_bind
 .text.access_model_publish_application_set
                0x000000000001e19c       0x40 CMakeFiles/51_pb_remote_server.dir/__/__/mesh/src/access/access.c.obj
                0x000000000001e19c                access_model_publish_application_set
 .text.access_model_publish_ttl_set
                0x000000000001e1dc       0x44 CMakeFiles/51_pb_remote_server.dir/__/__/mesh/src/access/access.c.obj
                0x000000000001e1dc                access_model_publish_ttl_set
 .text.access_model_publish_ttl_get
                0x000000000001e220       0x2c CMakeFiles/51_pb_remote_server.dir/__/__/mesh/src/access/access.c.obj
                0x000000000001e220                access_model_publish_ttl_get
 .text.access_model_p_args_get
                0x000000000001e24c       0x2c CMakeFiles/51_pb_remote_server.dir/__/__/mesh/src/access/access.c.obj
                0x000000000001e24c                access_model_p_args_get
 .text.remove_and_reschedule
                0x000000000001e278       0xe0 CMakeFiles/51_pb_remote_server.dir/__/__/mesh/src/access/access_reliable.c.obj
 .text.reliable_timer_cb
                0x000000000001e358      0x148 CMakeFiles/51_pb_remote_server.dir/__/__/mesh/src/access/access_reliable.c.obj
 .text.access_reliable_message_rx_cb
                0x000000000001e4a0       0x64 CMakeFiles/51_pb_remote_server.dir/__/__/mesh/src/access/access_reliable.c.obj
                0x000000000001e4a0                access_reliable_message_rx_cb
 .text.access_reliable_init
                0x000000000001e504       0x1c CMakeFiles/51_pb_remote_server.dir/__/__/mesh/src/access/access_reliable.c.obj
                0x000000000001e504                access_reliable_init
 .text.access_model_reliable_cancel
                0x000000000001e520       0x34 CMakeFiles/51_pb_remote_server.dir/__/__/mesh/src/access/access_reliable.c.obj
                0x000000000001e520                access_model_reliable_cancel
 .text.access_model_reliable_publish
                0x000000000001e554      0x17c CMakeFiles/51_pb_remote_server.dir/__/__/mesh/src/access/access_reliable.c.obj
                0x000000000001e554                access_model_reliable_publish
 .text.dev_key_handle_get
                0x000000000001e6d0       0x30 CMakeFiles/51_pb_remote_server.dir/__/__/mesh/src/access/device_state_manager.c.obj
 .text.app_key_handle_get
                0x000000000001e700       0x30 CMakeFiles/51_pb_remote_server.dir/__/__/mesh/src/access/device_state_manager.c.obj
 .text.get_subnet_handle
                0x000000000001e730       0x38 CMakeFiles/51_pb_remote_server.dir/__/__/mesh/src/access/device_state_manager.c.obj
 .text.get_app_handle
                0x000000000001e768       0x48 CMakeFiles/51_pb_remote_server.dir/__/__/mesh/src/access/device_state_manager.c.obj
 .text.nonvirtual_address_set
                0x000000000001e7b0       0x3c CMakeFiles/51_pb_remote_server.dir/__/__/mesh/src/access/device_state_manager.c.obj
 .text.addr_nonvirtual_to_dsm_entry
                0x000000000001e7ec        0xe CMakeFiles/51_pb_remote_server.dir/__/__/mesh/src/access/device_state_manager.c.obj
 *fill*         0x000000000001e7fa        0x2 
 .text.addr_nonvirtual_to_flash_entry
                0x000000000001e7fc       0x10 CMakeFiles/51_pb_remote_server.dir/__/__/mesh/src/access/device_state_manager.c.obj
 .text.flash_mem_listener_callback
                0x000000000001e80c       0x20 CMakeFiles/51_pb_remote_server.dir/__/__/mesh/src/access/device_state_manager.c.obj
 .text.devkey_set
                0x000000000001e82c       0x60 CMakeFiles/51_pb_remote_server.dir/__/__/mesh/src/access/device_state_manager.c.obj
 .text.devkey_to_dsm_entry
                0x000000000001e88c       0x14 CMakeFiles/51_pb_remote_server.dir/__/__/mesh/src/access/device_state_manager.c.obj
 .text.devkey_to_flash_entry
                0x000000000001e8a0       0x28 CMakeFiles/51_pb_remote_server.dir/__/__/mesh/src/access/device_state_manager.c.obj
 .text.appkey_to_flash_entry
                0x000000000001e8c8       0x28 CMakeFiles/51_pb_remote_server.dir/__/__/mesh/src/access/device_state_manager.c.obj
 .text.subnet_to_flash_entry
                0x000000000001e8f0       0x20 CMakeFiles/51_pb_remote_server.dir/__/__/mesh/src/access/device_state_manager.c.obj
 .text.addr_virtual_to_flash_entry
                0x000000000001e910       0x20 CMakeFiles/51_pb_remote_server.dir/__/__/mesh/src/access/device_state_manager.c.obj
 .text.addr_unicast_to_dsm_entry
                0x000000000001e930       0x10 CMakeFiles/51_pb_remote_server.dir/__/__/mesh/src/access/device_state_manager.c.obj
 .text.addr_unicast_to_flash_entry
                0x000000000001e940       0x14 CMakeFiles/51_pb_remote_server.dir/__/__/mesh/src/access/device_state_manager.c.obj
 .text.appkey_set
                0x000000000001e954       0x8c CMakeFiles/51_pb_remote_server.dir/__/__/mesh/src/access/device_state_manager.c.obj
 .text.appkey_to_dsm_entry
                0x000000000001e9e0       0x12 CMakeFiles/51_pb_remote_server.dir/__/__/mesh/src/access/device_state_manager.c.obj
 *fill*         0x000000000001e9f2        0x2 
 .text.subnet_set
                0x000000000001e9f4       0xb4 CMakeFiles/51_pb_remote_server.dir/__/__/mesh/src/access/device_state_manager.c.obj
 .text.subnet_to_dsm_entry
                0x000000000001eaa8       0x10 CMakeFiles/51_pb_remote_server.dir/__/__/mesh/src/access/device_state_manager.c.obj
 .text.virtual_address_set
                0x000000000001eab8       0x68 CMakeFiles/51_pb_remote_server.dir/__/__/mesh/src/access/device_state_manager.c.obj
 .text.addr_virtual_to_dsm_entry
                0x000000000001eb20       0x10 CMakeFiles/51_pb_remote_server.dir/__/__/mesh/src/access/device_state_manager.c.obj
 .text.flash_save
                0x000000000001eb30       0x94 CMakeFiles/51_pb_remote_server.dir/__/__/mesh/src/access/device_state_manager.c.obj
 .text.flash_invalidate
                0x000000000001ebc4       0x80 CMakeFiles/51_pb_remote_server.dir/__/__/mesh/src/access/device_state_manager.c.obj
 .text.flash_update_all
                0x000000000001ec44       0xd4 CMakeFiles/51_pb_remote_server.dir/__/__/mesh/src/access/device_state_manager.c.obj
 .text.flash_operation_complete
                0x000000000001ed18       0x6c CMakeFiles/51_pb_remote_server.dir/__/__/mesh/src/access/device_state_manager.c.obj
 .text.flash_invalidate_complete
                0x000000000001ed84        0xc CMakeFiles/51_pb_remote_server.dir/__/__/mesh/src/access/device_state_manager.c.obj
 .text.flash_write_complete
                0x000000000001ed90        0xc CMakeFiles/51_pb_remote_server.dir/__/__/mesh/src/access/device_state_manager.c.obj
 .text.add_address
                0x000000000001ed9c      0x128 CMakeFiles/51_pb_remote_server.dir/__/__/mesh/src/access/device_state_manager.c.obj
 .text.virtual_address_uuid_index_get
                0x000000000001eec4       0x3c CMakeFiles/51_pb_remote_server.dir/__/__/mesh/src/access/device_state_manager.c.obj
 .text.dsm_flash_area_get
                0x000000000001ef00       0x14 CMakeFiles/51_pb_remote_server.dir/__/__/mesh/src/access/device_state_manager.c.obj
                0x000000000001ef00                dsm_flash_area_get
 .text.build_flash_area
                0x000000000001ef14       0x8c CMakeFiles/51_pb_remote_server.dir/__/__/mesh/src/access/device_state_manager.c.obj
 .text.dsm_init
                0x000000000001efa0       0x28 CMakeFiles/51_pb_remote_server.dir/__/__/mesh/src/access/device_state_manager.c.obj
                0x000000000001efa0                dsm_init
 .text.flash_remove_complete
                0x000000000001efc8        0x8 CMakeFiles/51_pb_remote_server.dir/__/__/mesh/src/access/device_state_manager.c.obj
 .text.dsm_local_unicast_addresses_set
                0x000000000001efd0       0x84 CMakeFiles/51_pb_remote_server.dir/__/__/mesh/src/access/device_state_manager.c.obj
                0x000000000001efd0                dsm_local_unicast_addresses_set
 .text.dsm_local_unicast_addresses_get
                0x000000000001f054       0x2c CMakeFiles/51_pb_remote_server.dir/__/__/mesh/src/access/device_state_manager.c.obj
                0x000000000001f054                dsm_local_unicast_addresses_get
 .text.dsm_address_publish_add
                0x000000000001f080        0xa CMakeFiles/51_pb_remote_server.dir/__/__/mesh/src/access/device_state_manager.c.obj
                0x000000000001f080                dsm_address_publish_add
 *fill*         0x000000000001f08a        0x2 
 .text.dsm_address_subscription_get
                0x000000000001f08c       0x64 CMakeFiles/51_pb_remote_server.dir/__/__/mesh/src/access/device_state_manager.c.obj
                0x000000000001f08c                dsm_address_subscription_get
 .text.dsm_address_get
                0x000000000001f0f0       0x70 CMakeFiles/51_pb_remote_server.dir/__/__/mesh/src/access/device_state_manager.c.obj
                0x000000000001f0f0                dsm_address_get
 .text.dsm_address_handle_get
                0x000000000001f160       0xc0 CMakeFiles/51_pb_remote_server.dir/__/__/mesh/src/access/device_state_manager.c.obj
                0x000000000001f160                dsm_address_handle_get
 .text.dsm_appkey_handle_get
                0x000000000001f220       0x14 CMakeFiles/51_pb_remote_server.dir/__/__/mesh/src/access/device_state_manager.c.obj
                0x000000000001f220                dsm_appkey_handle_get
 .text.dsm_subnet_add
                0x000000000001f234       0x58 CMakeFiles/51_pb_remote_server.dir/__/__/mesh/src/access/device_state_manager.c.obj
                0x000000000001f234                dsm_subnet_add
 .text.dsm_devkey_add
                0x000000000001f28c       0x84 CMakeFiles/51_pb_remote_server.dir/__/__/mesh/src/access/device_state_manager.c.obj
                0x000000000001f28c                dsm_devkey_add
 .text.dsm_appkey_add
                0x000000000001f310       0x80 CMakeFiles/51_pb_remote_server.dir/__/__/mesh/src/access/device_state_manager.c.obj
                0x000000000001f310                dsm_appkey_add
 .text.dsm_tx_secmat_get
                0x000000000001f390      0x124 CMakeFiles/51_pb_remote_server.dir/__/__/mesh/src/access/device_state_manager.c.obj
                0x000000000001f390                dsm_tx_secmat_get
 .text.nrf_mesh_net_secmat_next_get
                0x000000000001f4b4       0x54 CMakeFiles/51_pb_remote_server.dir/__/__/mesh/src/access/device_state_manager.c.obj
                0x000000000001f4b4                nrf_mesh_net_secmat_next_get
 .text.nrf_mesh_app_secmat_next_get
                0x000000000001f508       0x8c CMakeFiles/51_pb_remote_server.dir/__/__/mesh/src/access/device_state_manager.c.obj
                0x000000000001f508                nrf_mesh_app_secmat_next_get
 .text.nrf_mesh_devkey_secmat_get
                0x000000000001f594       0x40 CMakeFiles/51_pb_remote_server.dir/__/__/mesh/src/access/device_state_manager.c.obj
                0x000000000001f594                nrf_mesh_devkey_secmat_get
 .text.nrf_mesh_beacon_info_next_get
                0x000000000001f5d4       0x74 CMakeFiles/51_pb_remote_server.dir/__/__/mesh/src/access/device_state_manager.c.obj
                0x000000000001f5d4                nrf_mesh_beacon_info_next_get
 .text.nrf_mesh_rx_address_get
                0x000000000001f648      0x100 CMakeFiles/51_pb_remote_server.dir/__/__/mesh/src/access/device_state_manager.c.obj
                0x000000000001f648                nrf_mesh_rx_address_get
 .text.sd_evt_get
                0x000000000001f748        0x4 CMakeFiles/51_pb_remote_server.dir/__/nrf_mesh_sdk.c.obj
 .text.sd_softdevice_enable
                0x000000000001f74c        0x4 CMakeFiles/51_pb_remote_server.dir/__/nrf_mesh_sdk.c.obj
 .text.sd_ble_enable
                0x000000000001f750        0x4 CMakeFiles/51_pb_remote_server.dir/__/nrf_mesh_sdk.c.obj
 .text.sd_ble_evt_get
                0x000000000001f754        0x4 CMakeFiles/51_pb_remote_server.dir/__/nrf_mesh_sdk.c.obj
 .text.sleep_forever
                0x000000000001f758       0x24 CMakeFiles/51_pb_remote_server.dir/__/nrf_mesh_sdk.c.obj
 .text.softdevice_assert_handler
                0x000000000001f77c       0x88 CMakeFiles/51_pb_remote_server.dir/__/nrf_mesh_sdk.c.obj
                0x000000000001f77c                softdevice_assert_handler
 .text.app_error_handler
                0x000000000001f804       0x88 CMakeFiles/51_pb_remote_server.dir/__/nrf_mesh_sdk.c.obj
                0x000000000001f804                app_error_handler
 .text.mesh_assert_handler
                0x000000000001f88c       0x80 CMakeFiles/51_pb_remote_server.dir/__/nrf_mesh_sdk.c.obj
                0x000000000001f88c                mesh_assert_handler
 .text.HardFault_Handler
                0x000000000001f90c       0x7c CMakeFiles/51_pb_remote_server.dir/__/nrf_mesh_sdk.c.obj
                0x000000000001f90c                HardFault_Handler
 .text.SWI2_IRQHandler
                0x000000000001f988       0x44 CMakeFiles/51_pb_remote_server.dir/__/nrf_mesh_sdk.c.obj
                0x000000000001f988                SWI2_IRQHandler
 .text.mesh_softdevice_enable
                0x000000000001f9cc      0x154 CMakeFiles/51_pb_remote_server.dir/__/nrf_mesh_sdk.c.obj
                0x000000000001f9cc                mesh_softdevice_enable
 .text.mesh_softdevice_setup
                0x000000000001fb20       0x94 CMakeFiles/51_pb_remote_server.dir/__/nrf_mesh_sdk.c.obj
                0x000000000001fb20                mesh_softdevice_setup
 .text          0x000000000001fbb4       0x4c CMakeFiles/51_pb_remote_server.dir/__/__/toolchain/gcc/gcc_startup_nrf51.S.obj
                0x000000000001fbb4                Reset_Handler
                0x000000000001fbf4                NMI_Handler
                0x000000000001fbf8                SVC_Handler
                0x000000000001fbfa                PendSV_Handler
                0x000000000001fbfc                SysTick_Handler
                0x000000000001fbfe                TIMER2_IRQHandler
                0x000000000001fbfe                SPI0_TWI0_IRQHandler
                0x000000000001fbfe                RTC0_IRQHandler
                0x000000000001fbfe                GPIOTE_IRQHandler
                0x000000000001fbfe                POWER_CLOCK_IRQHandler
                0x000000000001fbfe                RADIO_IRQHandler
                0x000000000001fbfe                LPCOMP_IRQHandler
                0x000000000001fbfe                SWI4_IRQHandler
                0x000000000001fbfe                TEMP_IRQHandler
                0x000000000001fbfe                UART0_IRQHandler
                0x000000000001fbfe                SWI5_IRQHandler
                0x000000000001fbfe                TIMER0_IRQHandler
                0x000000000001fbfe                SWI0_IRQHandler
                0x000000000001fbfe                TIMER1_IRQHandler
                0x000000000001fbfe                ECB_IRQHandler
                0x000000000001fbfe                Default_Handler
                0x000000000001fbfe                ADC_IRQHandler
                0x000000000001fbfe                SWI3_IRQHandler
                0x000000000001fbfe                CCM_AAR_IRQHandler
                0x000000000001fbfe                WDT_IRQHandler
                0x000000000001fbfe                RNG_IRQHandler
                0x000000000001fbfe                SPI1_TWI1_IRQHandler
                0x000000000001fbfe                RTC1_IRQHandler
                0x000000000001fbfe                SWI1_IRQHandler
 .text.SystemInit
                0x000000000001fc00      0x104 CMakeFiles/51_pb_remote_server.dir/__/__/toolchain/system_nrf51.c.obj
                0x000000000001fc00                SystemInit
 .text.send_data
                0x000000000001fd04       0x4c ../../mesh/lib_51_MBTLE_PB_ADV_EE.a(provisioning.c.obj)
 .text.prov_packet_length_valid
                0x000000000001fd50       0x24 ../../mesh/lib_51_MBTLE_PB_ADV_EE.a(provisioning.c.obj)
                0x000000000001fd50                prov_packet_length_valid
 .text.prov_init
                0x000000000001fd74       0x40 ../../mesh/lib_51_MBTLE_PB_ADV_EE.a(provisioning.c.obj)
                0x000000000001fd74                prov_init
 .text.prov_listen_start
                0x000000000001fdb4       0x14 ../../mesh/lib_51_MBTLE_PB_ADV_EE.a(provisioning.c.obj)
                0x000000000001fdb4                prov_listen_start
 .text.prov_link_open
                0x000000000001fdc8       0x12 ../../mesh/lib_51_MBTLE_PB_ADV_EE.a(provisioning.c.obj)
                0x000000000001fdc8                prov_link_open
 .text.prov_link_close
                0x000000000001fdda        0xe ../../mesh/lib_51_MBTLE_PB_ADV_EE.a(provisioning.c.obj)
                0x000000000001fdda                prov_link_close
 .text.prov_tx_capabilities
                0x000000000001fde8       0x1c ../../mesh/lib_51_MBTLE_PB_ADV_EE.a(provisioning.c.obj)
                0x000000000001fde8                prov_tx_capabilities
 .text.prov_tx_public_key
                0x000000000001fe04       0x24 ../../mesh/lib_51_MBTLE_PB_ADV_EE.a(provisioning.c.obj)
                0x000000000001fe04                prov_tx_public_key
 .text.prov_tx_input_complete
                0x000000000001fe28       0x14 ../../mesh/lib_51_MBTLE_PB_ADV_EE.a(provisioning.c.obj)
                0x000000000001fe28                prov_tx_input_complete
 .text.prov_tx_confirmation
                0x000000000001fe3c       0x24 ../../mesh/lib_51_MBTLE_PB_ADV_EE.a(provisioning.c.obj)
                0x000000000001fe3c                prov_tx_confirmation
 .text.prov_tx_random
                0x000000000001fe60       0x24 ../../mesh/lib_51_MBTLE_PB_ADV_EE.a(provisioning.c.obj)
                0x000000000001fe60                prov_tx_random
 .text.prov_tx_complete
                0x000000000001fe84       0x14 ../../mesh/lib_51_MBTLE_PB_ADV_EE.a(provisioning.c.obj)
                0x000000000001fe84                prov_tx_complete
 .text.prov_tx_failed
                0x000000000001fe98       0x18 ../../mesh/lib_51_MBTLE_PB_ADV_EE.a(provisioning.c.obj)
                0x000000000001fe98                prov_tx_failed
 .text.prov_tx  0x000000000001feb0        0x8 ../../mesh/lib_51_MBTLE_PB_ADV_EE.a(provisioning.c.obj)
                0x000000000001feb0                prov_tx
 .text.prov_cb_link_opened
                0x000000000001feb8        0xe ../../mesh/lib_51_MBTLE_PB_ADV_EE.a(provisioning.c.obj)
                0x000000000001feb8                prov_cb_link_opened
 .text.prov_cb_link_closed
                0x000000000001fec6        0xe ../../mesh/lib_51_MBTLE_PB_ADV_EE.a(provisioning.c.obj)
                0x000000000001fec6                prov_cb_link_closed
 .text.prov_cb_pkt_in
                0x000000000001fed4       0x90 ../../mesh/lib_51_MBTLE_PB_ADV_EE.a(provisioning.c.obj)
                0x000000000001fed4                prov_cb_pkt_in
 .text.prov_cb_ack_in
                0x000000000001ff64        0xe ../../mesh/lib_51_MBTLE_PB_ADV_EE.a(provisioning.c.obj)
                0x000000000001ff64                prov_cb_ack_in
 *fill*         0x000000000001ff72        0x2 
 .text.nrf_mesh_prov_init
                0x000000000001ff74       0x38 ../../mesh/lib_51_MBTLE_PB_ADV_EE.a(nrf_mesh_prov.c.obj)
                0x000000000001ff74                nrf_mesh_prov_init
 .text.nrf_mesh_prov_generate_keys
                0x000000000001ffac        0x8 ../../mesh/lib_51_MBTLE_PB_ADV_EE.a(nrf_mesh_prov.c.obj)
                0x000000000001ffac                nrf_mesh_prov_generate_keys
 .text.nrf_mesh_prov_listen
                0x000000000001ffb4       0x28 ../../mesh/lib_51_MBTLE_PB_ADV_EE.a(nrf_mesh_prov.c.obj)
                0x000000000001ffb4                nrf_mesh_prov_listen
 .text.nrf_mesh_prov_auth_data_provide
                0x000000000001ffdc       0x1c ../../mesh/lib_51_MBTLE_PB_ADV_EE.a(nrf_mesh_prov.c.obj)
                0x000000000001ffdc                nrf_mesh_prov_auth_data_provide
 .text.remove_active_bearer
                0x000000000001fff8       0x88 ../../mesh/lib_51_MBTLE_PB_ADV_EE.a(prov_bearer_adv.c.obj)
 .text.send_packet
                0x0000000000020080       0x64 ../../mesh/lib_51_MBTLE_PB_ADV_EE.a(prov_bearer_adv.c.obj)
 .text.send_link_close
                0x00000000000200e4       0x3e ../../mesh/lib_51_MBTLE_PB_ADV_EE.a(prov_bearer_adv.c.obj)
 *fill*         0x0000000000020122        0x2 
 .text.prov_buffer_tx
                0x0000000000020124      0x1f0 ../../mesh/lib_51_MBTLE_PB_ADV_EE.a(prov_bearer_adv.c.obj)
 .text.send_transaction_ack
                0x0000000000020314       0x48 ../../mesh/lib_51_MBTLE_PB_ADV_EE.a(prov_bearer_adv.c.obj)
 .text.send_link_ack
                0x000000000002035c       0x3c ../../mesh/lib_51_MBTLE_PB_ADV_EE.a(prov_bearer_adv.c.obj)
 .text.prov_bearer_adv_listen_stop
                0x0000000000020398       0x40 ../../mesh/lib_51_MBTLE_PB_ADV_EE.a(prov_bearer_adv.c.obj)
 .text.close_link
                0x00000000000203d8       0x68 ../../mesh/lib_51_MBTLE_PB_ADV_EE.a(prov_bearer_adv.c.obj)
 .text.prov_bearer_adv_link_close
                0x0000000000020440       0x78 ../../mesh/lib_51_MBTLE_PB_ADV_EE.a(prov_bearer_adv.c.obj)
 .text.adv_queue_empty_cb
                0x00000000000204b8       0x3c ../../mesh/lib_51_MBTLE_PB_ADV_EE.a(prov_bearer_adv.c.obj)
 .text.link_timeout_cb
                0x00000000000204f4        0xc ../../mesh/lib_51_MBTLE_PB_ADV_EE.a(prov_bearer_adv.c.obj)
 .text.tx_retry_cb
                0x0000000000020500       0xe8 ../../mesh/lib_51_MBTLE_PB_ADV_EE.a(prov_bearer_adv.c.obj)
 .text.add_active_bearer
                0x00000000000205e8       0x98 ../../mesh/lib_51_MBTLE_PB_ADV_EE.a(prov_bearer_adv.c.obj)
 .text.prov_bearer_adv_link_open
                0x0000000000020680      0x11c ../../mesh/lib_51_MBTLE_PB_ADV_EE.a(prov_bearer_adv.c.obj)
 .text.prov_bearer_adv_listen
                0x000000000002079c       0xe8 ../../mesh/lib_51_MBTLE_PB_ADV_EE.a(prov_bearer_adv.c.obj)
 .text.calculate_3GPP_CRC
                0x0000000000020884       0x28 ../../mesh/lib_51_MBTLE_PB_ADV_EE.a(prov_bearer_adv.c.obj)
                0x0000000000020884                calculate_3GPP_CRC
 .text.prov_bearer_adv_tx
                0x00000000000208ac       0xc8 ../../mesh/lib_51_MBTLE_PB_ADV_EE.a(prov_bearer_adv.c.obj)
 .text.prov_buffer_rx
                0x0000000000020974       0x90 ../../mesh/lib_51_MBTLE_PB_ADV_EE.a(prov_bearer_adv.c.obj)
 .text.prov_bearer_adv_interface_get
                0x0000000000020a04        0x8 ../../mesh/lib_51_MBTLE_PB_ADV_EE.a(prov_bearer_adv.c.obj)
                0x0000000000020a04                prov_bearer_adv_interface_get
 .text.prov_bearer_adv_pkt_in
                0x0000000000020a0c      0xa24 ../../mesh/lib_51_MBTLE_PB_ADV_EE.a(prov_bearer_adv.c.obj)
                0x0000000000020a0c                prov_bearer_adv_pkt_in
 .text.oob_gen_alphanumeric
                0x0000000000021430       0x38 ../../mesh/lib_51_MBTLE_PB_ADV_EE.a(prov_utils.c.obj)
 .text.oob_gen_numeric
                0x0000000000021468       0x4c ../../mesh/lib_51_MBTLE_PB_ADV_EE.a(prov_utils.c.obj)
 .text.prov_utils_use_ecdh_offloading
                0x00000000000214b4        0xc ../../mesh/lib_51_MBTLE_PB_ADV_EE.a(prov_utils.c.obj)
                0x00000000000214b4                prov_utils_use_ecdh_offloading
 .text.prov_utils_authentication_values_derive
                0x00000000000214c0       0xd4 ../../mesh/lib_51_MBTLE_PB_ADV_EE.a(prov_utils.c.obj)
                0x00000000000214c0                prov_utils_authentication_values_derive
 .text.prov_utils_keys_generate
                0x0000000000021594       0x20 ../../mesh/lib_51_MBTLE_PB_ADV_EE.a(prov_utils.c.obj)
                0x0000000000021594                prov_utils_keys_generate
 .text.prov_utils_derive_keys
                0x00000000000215b4       0xc0 ../../mesh/lib_51_MBTLE_PB_ADV_EE.a(prov_utils.c.obj)
                0x00000000000215b4                prov_utils_derive_keys
 .text.prov_utils_calculate_shared_secret
                0x0000000000021674       0x44 ../../mesh/lib_51_MBTLE_PB_ADV_EE.a(prov_utils.c.obj)
                0x0000000000021674                prov_utils_calculate_shared_secret
 .text.prov_utils_generate_oob_data
                0x00000000000216b8       0xe0 ../../mesh/lib_51_MBTLE_PB_ADV_EE.a(prov_utils.c.obj)
                0x00000000000216b8                prov_utils_generate_oob_data
 .text.prov_utils_confirmation_check
                0x0000000000021798       0x6c ../../mesh/lib_51_MBTLE_PB_ADV_EE.a(prov_utils.c.obj)
                0x0000000000021798                prov_utils_confirmation_check
 .text.prov_beacon_unprov_build
                0x0000000000021804       0x52 ../../mesh/lib_51_MBTLE_PB_ADV_EE.a(prov_beacon.c.obj)
                0x0000000000021804                prov_beacon_unprov_build
 *fill*         0x0000000000021856        0x2 
 .text.prov_beacon_unprov_pkt_in
                0x0000000000021858       0xd4 ../../mesh/lib_51_MBTLE_PB_ADV_EE.a(prov_beacon.c.obj)
                0x0000000000021858                prov_beacon_unprov_pkt_in
 .text.complete_provisioning
                0x000000000002192c       0x74 ../../mesh/lib_51_MBTLE_PB_ADV_EE.a(prov_provisionee.c.obj)
 .text.prov_provisionee_cb_link_closed
                0x00000000000219a0       0x38 ../../mesh/lib_51_MBTLE_PB_ADV_EE.a(prov_provisionee.c.obj)
 .text.prov_provisionee_cb_link_established
                0x00000000000219d8       0x20 ../../mesh/lib_51_MBTLE_PB_ADV_EE.a(prov_provisionee.c.obj)
 .text.request_authentication
                0x00000000000219f8       0xb4 ../../mesh/lib_51_MBTLE_PB_ADV_EE.a(prov_provisionee.c.obj)
 .text.send_failed
                0x0000000000021aac       0x4c ../../mesh/lib_51_MBTLE_PB_ADV_EE.a(prov_provisionee.c.obj)
 .text.start_authentication
                0x0000000000021af8       0x6c ../../mesh/lib_51_MBTLE_PB_ADV_EE.a(prov_provisionee.c.obj)
 .text.prov_provisionee_cb_ack_received
                0x0000000000021b64       0xcc ../../mesh/lib_51_MBTLE_PB_ADV_EE.a(prov_provisionee.c.obj)
 .text.prov_provisionee_pkt_in
                0x0000000000021c30      0x3b0 ../../mesh/lib_51_MBTLE_PB_ADV_EE.a(prov_provisionee.c.obj)
 .text.prov_provisionee_init
                0x0000000000021fe0       0x4c ../../mesh/lib_51_MBTLE_PB_ADV_EE.a(prov_provisionee.c.obj)
                0x0000000000021fe0                prov_provisionee_init
 .text.prov_provisionee_auth_data
                0x000000000002202c       0x90 ../../mesh/lib_51_MBTLE_PB_ADV_EE.a(prov_provisionee.c.obj)
                0x000000000002202c                prov_provisionee_auth_data
 .text._weak_handler
                0x00000000000220bc        0x4 ../../mesh/lib_51_MBTLE_CORE.a(nrf_mesh_weak.c.obj)
                0x00000000000220bc                nrf_mesh_dfu_init
                0x00000000000220bc                nrf_mesh_dfu_jump_to_bootloader
                0x00000000000220bc                prov_provisioner_cb_link_established
                0x00000000000220bc                nrf_mesh_dfu_rx
                0x00000000000220bc                prov_provisionee_pkt_in
                0x00000000000220bc                prov_provisioner_provision
                0x00000000000220bc                prov_provisioner_cb_ack_received
                0x00000000000220bc                nrf_mesh_dfu_bank_info_get
                0x00000000000220bc                prov_provisionee_cb_ack_received
                0x00000000000220bc                prov_provisioner_oob_pubkey
                0x00000000000220bc                nrf_mesh_dfu_request
                0x00000000000220bc                nrf_mesh_dfu_bank_flash
                0x00000000000220bc                _weak_handler
                0x00000000000220bc                prov_provisioner_pkt_in
                0x00000000000220bc                prov_provisioner_init
                0x00000000000220bc                nrf_mesh_dfu_relay
                0x00000000000220bc                prov_provisionee_accept
                0x00000000000220bc                nrf_mesh_dfu_abort
                0x00000000000220bc                nrf_mesh_dfu_state_get
                0x00000000000220bc                prov_provisioner_shared_secret
                0x00000000000220bc                prov_provisioner_auth_data
                0x00000000000220bc                prov_provisioner_oob_use
 .text.is_valid_gap_addr
                0x00000000000220c0       0x7c ../../mesh/lib_51_MBTLE_CORE.a(bearer_adv.c.obj)
 .text.packet_tx
                0x000000000002213c       0xaa ../../mesh/lib_51_MBTLE_CORE.a(bearer_adv.c.obj)
 *fill*         0x00000000000221e6        0x2 
 .text.scan_order
                0x00000000000221e8       0xb0 ../../mesh/lib_51_MBTLE_CORE.a(bearer_adv.c.obj)
 .text.radio_idle_cb
                0x0000000000022298       0x18 ../../mesh/lib_51_MBTLE_CORE.a(bearer_adv.c.obj)
 .text.scan_begin_timer_cb
                0x00000000000222b0       0x44 ../../mesh/lib_51_MBTLE_CORE.a(bearer_adv.c.obj)
 .text.radio_tx_cb
                0x00000000000222f4       0x34 ../../mesh/lib_51_MBTLE_CORE.a(bearer_adv.c.obj)
 .text.tx_event_send
                0x0000000000022328       0x22 ../../mesh/lib_51_MBTLE_CORE.a(bearer_adv.c.obj)
 *fill*         0x000000000002234a        0x2 
 .text.radio_rx_cb
                0x000000000002234c       0x44 ../../mesh/lib_51_MBTLE_CORE.a(bearer_adv.c.obj)
 .text.adv_evt_timeout
                0x0000000000022390      0x168 ../../mesh/lib_51_MBTLE_CORE.a(bearer_adv.c.obj)
 .text.next_adv_schedule
                0x00000000000224f8       0x80 ../../mesh/lib_51_MBTLE_CORE.a(bearer_adv.c.obj)
 .text.scan_end_timer_cb
                0x0000000000022578       0x14 ../../mesh/lib_51_MBTLE_CORE.a(bearer_adv.c.obj)
 .text.bearer_adv_advertiser_init
                0x000000000002258c      0x13c ../../mesh/lib_51_MBTLE_CORE.a(bearer_adv.c.obj)
                0x000000000002258c                bearer_adv_advertiser_init
 .text.bearer_adv_reconfig
                0x00000000000226c8       0x50 ../../mesh/lib_51_MBTLE_CORE.a(bearer_adv.c.obj)
                0x00000000000226c8                bearer_adv_reconfig
 .text.bearer_adv_tx
                0x0000000000022718       0x58 ../../mesh/lib_51_MBTLE_CORE.a(bearer_adv.c.obj)
                0x0000000000022718                bearer_adv_tx
 .text.bearer_adv_adv_stop
                0x0000000000022770       0x1a ../../mesh/lib_51_MBTLE_CORE.a(bearer_adv.c.obj)
                0x0000000000022770                bearer_adv_adv_stop
 .text.bearer_adv_adv_start
                0x000000000002278a       0x26 ../../mesh/lib_51_MBTLE_CORE.a(bearer_adv.c.obj)
                0x000000000002278a                bearer_adv_adv_start
 .text.bearer_adv_flush_tx
                0x00000000000227b0       0x56 ../../mesh/lib_51_MBTLE_CORE.a(bearer_adv.c.obj)
                0x00000000000227b0                bearer_adv_flush_tx
 .text.bearer_adv_interval_reset
                0x0000000000022806       0x30 ../../mesh/lib_51_MBTLE_CORE.a(bearer_adv.c.obj)
                0x0000000000022806                bearer_adv_interval_reset
 *fill*         0x0000000000022836        0x2 
 .text.bearer_adv_scan_start
                0x0000000000022838       0x60 ../../mesh/lib_51_MBTLE_CORE.a(bearer_adv.c.obj)
                0x0000000000022838                bearer_adv_scan_start
 .text.bearer_adv_gap_type_set
                0x0000000000022898       0x60 ../../mesh/lib_51_MBTLE_CORE.a(bearer_adv.c.obj)
                0x0000000000022898                bearer_adv_gap_type_set
 .text.bearer_adv_addr_get
                0x00000000000228f8       0x28 ../../mesh/lib_51_MBTLE_CORE.a(bearer_adv.c.obj)
                0x00000000000228f8                bearer_adv_addr_get
 .text.bearer_adv_addr_default_set
                0x0000000000022920       0x30 ../../mesh/lib_51_MBTLE_CORE.a(bearer_adv.c.obj)
                0x0000000000022920                bearer_adv_addr_default_set
 .text.bearer_adv_init
                0x0000000000022950       0xf4 ../../mesh/lib_51_MBTLE_CORE.a(bearer_adv.c.obj)
                0x0000000000022950                bearer_adv_init
 .text.fifo_init
                0x0000000000022a44       0x60 ../../mesh/lib_51_MBTLE_CORE.a(fifo.c.obj)
                0x0000000000022a44                fifo_init
 .text.fifo_push
                0x0000000000022aa4       0x64 ../../mesh/lib_51_MBTLE_CORE.a(fifo.c.obj)
                0x0000000000022aa4                fifo_push
 .text.fifo_pop
                0x0000000000022b08       0x62 ../../mesh/lib_51_MBTLE_CORE.a(fifo.c.obj)
                0x0000000000022b08                fifo_pop
 .text.fifo_peek_at
                0x0000000000022b6a       0x62 ../../mesh/lib_51_MBTLE_CORE.a(fifo.c.obj)
                0x0000000000022b6a                fifo_peek_at
 .text.fifo_peek
                0x0000000000022bcc        0xa ../../mesh/lib_51_MBTLE_CORE.a(fifo.c.obj)
                0x0000000000022bcc                fifo_peek
 .text.fifo_flush
                0x0000000000022bd6        0x6 ../../mesh/lib_51_MBTLE_CORE.a(fifo.c.obj)
                0x0000000000022bd6                fifo_flush
 .text.fifo_get_len
                0x0000000000022bdc        0x8 ../../mesh/lib_51_MBTLE_CORE.a(fifo.c.obj)
                0x0000000000022bdc                fifo_get_len
 .text.fifo_is_empty
                0x0000000000022be4        0xe ../../mesh/lib_51_MBTLE_CORE.a(fifo.c.obj)
                0x0000000000022be4                fifo_is_empty
 *fill*         0x0000000000022bf2        0x2 
 .text.packet_mgr_init
                0x0000000000022bf4       0x5c ../../mesh/lib_51_MBTLE_CORE.a(packet_mgr.c.obj)
                0x0000000000022bf4                packet_mgr_init
 .text.packet_mgr_alloc
                0x0000000000022c50      0x1f4 ../../mesh/lib_51_MBTLE_CORE.a(packet_mgr.c.obj)
                0x0000000000022c50                packet_mgr_alloc
 .text.packet_mgr_free
                0x0000000000022e44       0x74 ../../mesh/lib_51_MBTLE_CORE.a(packet_mgr.c.obj)
                0x0000000000022e44                packet_mgr_free
 .text.radio_init
                0x0000000000022eb8       0x60 ../../mesh/lib_51_MBTLE_CORE.a(radio.c.obj)
                0x0000000000022eb8                radio_init
 .text.radio_order
                0x0000000000022f18      0x13c ../../mesh/lib_51_MBTLE_CORE.a(radio.c.obj)
                0x0000000000022f18                radio_order
 .text.radio_invoke
                0x0000000000023054       0x28 ../../mesh/lib_51_MBTLE_CORE.a(radio.c.obj)
                0x0000000000023054                radio_invoke
 .text.radio_stop
                0x000000000002307c       0x28 ../../mesh/lib_51_MBTLE_CORE.a(radio.c.obj)
                0x000000000002307c                radio_stop
 .text.purge_preemptable
                0x00000000000230a4       0x7c ../../mesh/lib_51_MBTLE_CORE.a(radio.c.obj)
 .text.radio_preemptable_cancel
                0x0000000000023120       0x2c ../../mesh/lib_51_MBTLE_CORE.a(radio.c.obj)
                0x0000000000023120                radio_preemptable_cancel
 .text.radio_event_handler
                0x000000000002314c      0x134 ../../mesh/lib_51_MBTLE_CORE.a(radio.c.obj)
                0x000000000002314c                radio_event_handler
 .text.radio_on_ts_begin
                0x0000000000023280       0x50 ../../mesh/lib_51_MBTLE_CORE.a(radio.c.obj)
                0x0000000000023280                radio_on_ts_begin
 .text.radio_on_ts_end
                0x00000000000232d0        0x8 ../../mesh/lib_51_MBTLE_CORE.a(radio.c.obj)
                0x00000000000232d0                radio_on_ts_end
 .text.timer_order_cb
                0x00000000000232d8       0x9c ../../mesh/lib_51_MBTLE_CORE.a(timer.c.obj)
                0x00000000000232d8                timer_order_cb
 .text.timer_abort
                0x0000000000023374       0x8c ../../mesh/lib_51_MBTLE_CORE.a(timer.c.obj)
                0x0000000000023374                timer_abort
 .text.timer_now
                0x0000000000023400       0x58 ../../mesh/lib_51_MBTLE_CORE.a(timer.c.obj)
                0x0000000000023400                timer_now
 .text.timer_event_handler
                0x0000000000023458       0xa0 ../../mesh/lib_51_MBTLE_CORE.a(timer.c.obj)
                0x0000000000023458                timer_event_handler
 .text.timer_on_ts_begin
                0x00000000000234f8      0x138 ../../mesh/lib_51_MBTLE_CORE.a(timer.c.obj)
                0x00000000000234f8                timer_on_ts_begin
 .text.timer_on_ts_end
                0x0000000000023630       0x48 ../../mesh/lib_51_MBTLE_CORE.a(timer.c.obj)
                0x0000000000023630                timer_on_ts_end
 .text.add_evt  0x0000000000023678       0x90 ../../mesh/lib_51_MBTLE_CORE.a(timer_scheduler.c.obj)
 .text.process_add_list
                0x0000000000023708       0x50 ../../mesh/lib_51_MBTLE_CORE.a(timer_scheduler.c.obj)
 .text.process_dirty_events
                0x0000000000023758       0xb8 ../../mesh/lib_51_MBTLE_CORE.a(timer_scheduler.c.obj)
 .text.flag_event_cb
                0x0000000000023810      0x138 ../../mesh/lib_51_MBTLE_CORE.a(timer_scheduler.c.obj)
 .text.timer_cb
                0x0000000000023948       0x10 ../../mesh/lib_51_MBTLE_CORE.a(timer_scheduler.c.obj)
 .text.timer_sch_init
                0x0000000000023958       0x24 ../../mesh/lib_51_MBTLE_CORE.a(timer_scheduler.c.obj)
                0x0000000000023958                timer_sch_init
 .text.timer_sch_schedule
                0x000000000002397c       0x94 ../../mesh/lib_51_MBTLE_CORE.a(timer_scheduler.c.obj)
                0x000000000002397c                timer_sch_schedule
 .text.timer_sch_abort
                0x0000000000023a10       0x6c ../../mesh/lib_51_MBTLE_CORE.a(timer_scheduler.c.obj)
                0x0000000000023a10                timer_sch_abort
 .text.timer_sch_reschedule
                0x0000000000023a7c       0xb4 ../../mesh/lib_51_MBTLE_CORE.a(timer_scheduler.c.obj)
                0x0000000000023a7c                timer_sch_reschedule
 .text.beacon_init
                0x0000000000023b30       0x44 ../../mesh/lib_51_MBTLE_CORE.a(beacon.c.obj)
                0x0000000000023b30                beacon_init
 .text.beacon_create
                0x0000000000023b74       0x5e ../../mesh/lib_51_MBTLE_CORE.a(beacon.c.obj)
                0x0000000000023b74                beacon_create
 *fill*         0x0000000000023bd2        0x2 
 .text.beacon_tx
                0x0000000000023bd4       0x48 ../../mesh/lib_51_MBTLE_CORE.a(beacon.c.obj)
                0x0000000000023bd4                beacon_tx
 .text.beacon_pkt_in
                0x0000000000023c1c      0x19c ../../mesh/lib_51_MBTLE_CORE.a(beacon.c.obj)
                0x0000000000023c1c                beacon_pkt_in
 .text.bearer_rx_cb
                0x0000000000023db8      0x3a0 ../../mesh/lib_51_MBTLE_CORE.a(bearer.c.obj)
 .text.bearer_init
                0x0000000000024158       0x68 ../../mesh/lib_51_MBTLE_CORE.a(bearer.c.obj)
                0x0000000000024158                bearer_init
 .text.bearer_enable
                0x00000000000241c0        0xa ../../mesh/lib_51_MBTLE_CORE.a(bearer.c.obj)
                0x00000000000241c0                bearer_enable
 *fill*         0x00000000000241ca        0x2 
 .text.bearer_tx
                0x00000000000241cc       0x50 ../../mesh/lib_51_MBTLE_CORE.a(bearer.c.obj)
                0x00000000000241cc                bearer_tx
 .text.bearer_rx
                0x000000000002421c       0x3c ../../mesh/lib_51_MBTLE_CORE.a(bearer.c.obj)
                0x000000000002421c                bearer_rx
 .text.evt_push
                0x0000000000024258       0x28 ../../mesh/lib_51_MBTLE_CORE.a(bearer_event.c.obj)
 .text.QDEC_IRQHandler
                0x0000000000024280       0xb4 ../../mesh/lib_51_MBTLE_CORE.a(bearer_event.c.obj)
                0x0000000000024280                QDEC_IRQHandler
 .text.bearer_event_init
                0x0000000000024334       0x40 ../../mesh/lib_51_MBTLE_CORE.a(bearer_event.c.obj)
                0x0000000000024334                bearer_event_init
 .text.bearer_event_generic_post
                0x0000000000024374       0x38 ../../mesh/lib_51_MBTLE_CORE.a(bearer_event.c.obj)
                0x0000000000024374                bearer_event_generic_post
 .text.bearer_event_timer_post
                0x00000000000243ac       0x38 ../../mesh/lib_51_MBTLE_CORE.a(bearer_event.c.obj)
                0x00000000000243ac                bearer_event_timer_post
 .text.bearer_event_critical_section_begin
                0x00000000000243e4       0x48 ../../mesh/lib_51_MBTLE_CORE.a(bearer_event.c.obj)
                0x00000000000243e4                bearer_event_critical_section_begin
 .text.bearer_event_critical_section_end
                0x000000000002442c       0x50 ../../mesh/lib_51_MBTLE_CORE.a(bearer_event.c.obj)
                0x000000000002442c                bearer_event_critical_section_end
 .text.bearer_event_flag_add
                0x000000000002447c       0x58 ../../mesh/lib_51_MBTLE_CORE.a(bearer_event.c.obj)
                0x000000000002447c                bearer_event_flag_add
 .text.bearer_event_flag_set
                0x00000000000244d4       0x5c ../../mesh/lib_51_MBTLE_CORE.a(bearer_event.c.obj)
                0x00000000000244d4                bearer_event_flag_set
 .text.nrf_mesh_configure_device_uuid_reset
                0x0000000000024530       0x28 ../../mesh/lib_51_MBTLE_CORE.a(nrf_mesh_configure.c.obj)
                0x0000000000024530                nrf_mesh_configure_device_uuid_reset
 .text.nrf_mesh_configure_device_uuid_get
                0x0000000000024558        0x8 ../../mesh/lib_51_MBTLE_CORE.a(nrf_mesh_configure.c.obj)
                0x0000000000024558                nrf_mesh_configure_device_uuid_get
 .text.enc_aes_encrypt
                0x0000000000024560        0x8 ../../mesh/lib_51_MBTLE_CORE.a(enc.c.obj)
                0x0000000000024560                enc_aes_encrypt
 .text.enc_aes_cmac
                0x0000000000024568        0x8 ../../mesh/lib_51_MBTLE_CORE.a(enc.c.obj)
                0x0000000000024568                enc_aes_cmac
 .text.enc_aes_ccm_encrypt
                0x0000000000024570        0x8 ../../mesh/lib_51_MBTLE_CORE.a(enc.c.obj)
                0x0000000000024570                enc_aes_ccm_encrypt
 .text.enc_aes_ccm_decrypt
                0x0000000000024578        0x8 ../../mesh/lib_51_MBTLE_CORE.a(enc.c.obj)
                0x0000000000024578                enc_aes_ccm_decrypt
 .text.enc_nonce_generate
                0x0000000000024580       0xcc ../../mesh/lib_51_MBTLE_CORE.a(enc.c.obj)
                0x0000000000024580                enc_nonce_generate
 .text.enc_s1   0x000000000002464c       0x44 ../../mesh/lib_51_MBTLE_CORE.a(enc.c.obj)
                0x000000000002464c                enc_s1
 .text.enc_k1   0x0000000000024690       0x58 ../../mesh/lib_51_MBTLE_CORE.a(enc.c.obj)
                0x0000000000024690                enc_k1
 .text.enc_k2   0x00000000000246e8       0xfc ../../mesh/lib_51_MBTLE_CORE.a(enc.c.obj)
                0x00000000000246e8                enc_k2
 .text.enc_k3   0x00000000000247e4       0x68 ../../mesh/lib_51_MBTLE_CORE.a(enc.c.obj)
                0x00000000000247e4                enc_k3
 .text.enc_k4   0x000000000002484c       0x64 ../../mesh/lib_51_MBTLE_CORE.a(enc.c.obj)
                0x000000000002484c                enc_k4
 .text.event_handle
                0x00000000000248b0       0x38 ../../mesh/lib_51_MBTLE_CORE.a(event.c.obj)
                0x00000000000248b0                event_handle
 .text.event_handler_add
                0x00000000000248e8       0x98 ../../mesh/lib_51_MBTLE_CORE.a(event.c.obj)
                0x00000000000248e8                event_handler_add
 .text.log_callback_rtt
                0x0000000000024980       0x2c ../../mesh/lib_51_MBTLE_CORE.a(log.c.obj)
                0x0000000000024980                log_callback_rtt
 .text.log_init
                0x00000000000249ac       0x1c ../../mesh/lib_51_MBTLE_CORE.a(log.c.obj)
                0x00000000000249ac                log_init
 .text.log_vprintf
                0x00000000000249c8       0x20 ../../mesh/lib_51_MBTLE_CORE.a(log.c.obj)
                0x00000000000249c8                log_vprintf
 .text.log_printf
                0x00000000000249e8       0x16 ../../mesh/lib_51_MBTLE_CORE.a(log.c.obj)
                0x00000000000249e8                log_printf
 *fill*         0x00000000000249fe        0x2 
 .text.network_beacon_tx_cb
                0x0000000000024a00      0x124 ../../mesh/lib_51_MBTLE_CORE.a(net_beacon.c.obj)
 .text.net_beacon_init
                0x0000000000024b24       0x60 ../../mesh/lib_51_MBTLE_CORE.a(net_beacon.c.obj)
                0x0000000000024b24                net_beacon_init
 .text.net_beacon_pkt_in
                0x0000000000024b84       0xe8 ../../mesh/lib_51_MBTLE_CORE.a(net_beacon.c.obj)
                0x0000000000024b84                net_beacon_pkt_in
 .text.flash_mem_available
                0x0000000000024c6c       0x20 ../../mesh/lib_51_MBTLE_CORE.a(net_state.c.obj)
 .text.flash_store_iv_index
                0x0000000000024c8c       0x34 ../../mesh/lib_51_MBTLE_CORE.a(net_state.c.obj)
 .text.seqnum_block_allocate
                0x0000000000024cc0       0x54 ../../mesh/lib_51_MBTLE_CORE.a(net_state.c.obj)
 .text.flash_write_complete
                0x0000000000024d14       0x84 ../../mesh/lib_51_MBTLE_CORE.a(net_state.c.obj)
 .text.net_state_recover_from_flash
                0x0000000000024d98       0x98 ../../mesh/lib_51_MBTLE_CORE.a(net_state.c.obj)
                0x0000000000024d98                net_state_recover_from_flash
 .text.net_state_flash_area_get
                0x0000000000024e30       0x14 ../../mesh/lib_51_MBTLE_CORE.a(net_state.c.obj)
                0x0000000000024e30                net_state_flash_area_get
 .text.init_flash_storage
                0x0000000000024e44       0x44 ../../mesh/lib_51_MBTLE_CORE.a(net_state.c.obj)
 .text.net_state_init
                0x0000000000024e88       0x48 ../../mesh/lib_51_MBTLE_CORE.a(net_state.c.obj)
                0x0000000000024e88                net_state_init
 .text.net_state_iv_update_start
                0x0000000000024ed0       0x70 ../../mesh/lib_51_MBTLE_CORE.a(net_state.c.obj)
                0x0000000000024ed0                net_state_iv_update_start
 .text.iv_update_trigger_if_pending
                0x0000000000024f40       0x98 ../../mesh/lib_51_MBTLE_CORE.a(net_state.c.obj)
 .text.iv_update_timer_handler
                0x0000000000024fd8       0x8c ../../mesh/lib_51_MBTLE_CORE.a(net_state.c.obj)
 .text.net_state_seqnum_alloc
                0x0000000000025064       0x74 ../../mesh/lib_51_MBTLE_CORE.a(net_state.c.obj)
                0x0000000000025064                net_state_seqnum_alloc
 .text.net_state_iv_index_lock
                0x00000000000250d8       0x5c ../../mesh/lib_51_MBTLE_CORE.a(net_state.c.obj)
                0x00000000000250d8                net_state_iv_index_lock
 .text.net_state_beacon_received
                0x0000000000025134       0xc0 ../../mesh/lib_51_MBTLE_CORE.a(net_state.c.obj)
                0x0000000000025134                net_state_beacon_received
 .text.net_state_beacon_iv_index_get
                0x00000000000251f4        0xc ../../mesh/lib_51_MBTLE_CORE.a(net_state.c.obj)
                0x00000000000251f4                net_state_beacon_iv_index_get
 .text.net_state_tx_iv_index_get
                0x0000000000025200       0x1c ../../mesh/lib_51_MBTLE_CORE.a(net_state.c.obj)
                0x0000000000025200                net_state_tx_iv_index_get
 .text.net_state_rx_iv_index_get
                0x000000000002521c       0x18 ../../mesh/lib_51_MBTLE_CORE.a(net_state.c.obj)
                0x000000000002521c                net_state_rx_iv_index_get
 .text.net_state_iv_update_get
                0x0000000000025234        0xc ../../mesh/lib_51_MBTLE_CORE.a(net_state.c.obj)
                0x0000000000025234                net_state_iv_update_get
 .text.sd_softdevice_is_enabled
                0x0000000000025240        0x4 ../../mesh/lib_51_MBTLE_CORE.a(nrf_mesh.c.obj)
 .text.nrf_mesh_init
                0x0000000000025244       0xb0 ../../mesh/lib_51_MBTLE_CORE.a(nrf_mesh.c.obj)
                0x0000000000025244                nrf_mesh_init
 .text.nrf_mesh_enable
                0x00000000000252f4       0x4c ../../mesh/lib_51_MBTLE_CORE.a(nrf_mesh.c.obj)
                0x00000000000252f4                nrf_mesh_enable
 .text.nrf_mesh_packet_send
                0x0000000000025340       0x54 ../../mesh/lib_51_MBTLE_CORE.a(nrf_mesh.c.obj)
                0x0000000000025340                nrf_mesh_packet_send
 .text.nrf_mesh_process
                0x0000000000025394      0x23c ../../mesh/lib_51_MBTLE_CORE.a(nrf_mesh.c.obj)
                0x0000000000025394                nrf_mesh_process
 .text.nrf_mesh_on_ble_evt
                0x00000000000255d0        0x4 ../../mesh/lib_51_MBTLE_CORE.a(nrf_mesh.c.obj)
                0x00000000000255d0                nrf_mesh_on_ble_evt
 .text.nrf_mesh_on_sd_evt
                0x00000000000255d4        0xa ../../mesh/lib_51_MBTLE_CORE.a(nrf_mesh.c.obj)
                0x00000000000255d4                nrf_mesh_on_sd_evt
 .text.nrf_mesh_evt_handler_add
                0x00000000000255de        0x8 ../../mesh/lib_51_MBTLE_CORE.a(nrf_mesh.c.obj)
                0x00000000000255de                nrf_mesh_evt_handler_add
 .text.nrf_mesh_keygen_aid
                0x00000000000255e6       0x1a ../../mesh/lib_51_MBTLE_CORE.a(nrf_mesh_keygen.c.obj)
                0x00000000000255e6                nrf_mesh_keygen_aid
 .text.nrf_mesh_keygen_network_secmat
                0x0000000000025600       0x2a ../../mesh/lib_51_MBTLE_CORE.a(nrf_mesh_keygen.c.obj)
                0x0000000000025600                nrf_mesh_keygen_network_secmat
 *fill*         0x000000000002562a        0x2 
 .text.nrf_mesh_keygen_beacon_secmat
                0x000000000002562c       0x58 ../../mesh/lib_51_MBTLE_CORE.a(nrf_mesh_keygen.c.obj)
                0x000000000002562c                nrf_mesh_keygen_beacon_secmat
 .text.nrf_mesh_keygen_virtual_address
                0x0000000000025684       0x54 ../../mesh/lib_51_MBTLE_CORE.a(nrf_mesh_keygen.c.obj)
                0x0000000000025684                nrf_mesh_keygen_virtual_address
 .text.nrf_mesh_address_type_get
                0x00000000000256d8       0x14 ../../mesh/lib_51_MBTLE_CORE.a(nrf_mesh_utils.c.obj)
                0x00000000000256d8                nrf_mesh_address_type_get
 .text.nrf_mesh_gap_address_type_get
                0x00000000000256ec       0x48 ../../mesh/lib_51_MBTLE_CORE.a(nrf_mesh_utils.c.obj)
                0x00000000000256ec                nrf_mesh_gap_address_type_get
 .text.radio_config_reset
                0x0000000000025734       0x48 ../../mesh/lib_51_MBTLE_CORE.a(radio_config.c.obj)
                0x0000000000025734                radio_config_reset
 .text.radio_config_channel_set
                0x000000000002577c       0x40 ../../mesh/lib_51_MBTLE_CORE.a(radio_config.c.obj)
                0x000000000002577c                radio_config_channel_set
 .text.radio_config_config
                0x00000000000257bc       0xd8 ../../mesh/lib_51_MBTLE_CORE.a(radio_config.c.obj)
                0x00000000000257bc                radio_config_config
 .text.sd_rand_application_bytes_available_get
                0x0000000000025894        0x4 ../../mesh/lib_51_MBTLE_CORE.a(rand.c.obj)
 .text.sd_rand_application_vector_get
                0x0000000000025898        0x4 ../../mesh/lib_51_MBTLE_CORE.a(rand.c.obj)
 .text.rand_prng_get
                0x000000000002589c       0x2e ../../mesh/lib_51_MBTLE_CORE.a(rand.c.obj)
                0x000000000002589c                rand_prng_get
 *fill*         0x00000000000258ca        0x2 
 .text.rand_hw_rng_get
                0x00000000000258cc       0x64 ../../mesh/lib_51_MBTLE_CORE.a(rand.c.obj)
                0x00000000000258cc                rand_hw_rng_get
 .text.rand_prng_seed
                0x0000000000025930       0x34 ../../mesh/lib_51_MBTLE_CORE.a(rand.c.obj)
                0x0000000000025930                rand_prng_seed
 .text.timer_cb
                0x0000000000025964       0x10 ../../mesh/lib_51_MBTLE_CORE.a(ticker.c.obj)
 .text.ticker_init
                0x0000000000025974       0x38 ../../mesh/lib_51_MBTLE_CORE.a(ticker.c.obj)
                0x0000000000025974                ticker_init
 .text.packet_mesh_trs_seq_auth_get
                0x00000000000259ac       0x40 ../../mesh/lib_51_MBTLE_CORE.a(transport.c.obj)
 .text.trs_sar_ack_timeout_cb
                0x00000000000259ec       0x18 ../../mesh/lib_51_MBTLE_CORE.a(transport.c.obj)
 .text.trs_sar_tx_timeout_cb
                0x0000000000025a04        0xc ../../mesh/lib_51_MBTLE_CORE.a(transport.c.obj)
 .text.trs_sar_session_next_timeout_get
                0x0000000000025a10       0x6c ../../mesh/lib_51_MBTLE_CORE.a(transport.c.obj)
 .text.m_send_sar_cancel_event
                0x0000000000025a7c       0x26 ../../mesh/lib_51_MBTLE_CORE.a(transport.c.obj)
 .text.m_send_replay_cache_full_event
                0x0000000000025aa2       0x2e ../../mesh/lib_51_MBTLE_CORE.a(transport.c.obj)
 .text.test_transport_decrypt
                0x0000000000025ad0       0xa8 ../../mesh/lib_51_MBTLE_CORE.a(transport.c.obj)
 .text.trs_sar_drop_session
                0x0000000000025b78      0x12c ../../mesh/lib_51_MBTLE_CORE.a(transport.c.obj)
 .text.trs_sar_session_cb
                0x0000000000025ca4       0xa8 ../../mesh/lib_51_MBTLE_CORE.a(transport.c.obj)
 .text.trs_sar_pkt_ack
                0x0000000000025d4c      0x154 ../../mesh/lib_51_MBTLE_CORE.a(transport.c.obj)
 .text.sar_segment_send
                0x0000000000025ea0      0x19c ../../mesh/lib_51_MBTLE_CORE.a(transport.c.obj)
 .text.trs_sar_session_timer_order
                0x000000000002603c       0x34 ../../mesh/lib_51_MBTLE_CORE.a(transport.c.obj)
 .text.trs_sar_pkt_decrypt
                0x0000000000026070      0x4c4 ../../mesh/lib_51_MBTLE_CORE.a(transport.c.obj)
                0x0000000000026070                trs_sar_pkt_decrypt
 .text.transport_sar_mem_funcs_reset
                0x0000000000026534       0x2c ../../mesh/lib_51_MBTLE_CORE.a(transport.c.obj)
                0x0000000000026534                transport_sar_mem_funcs_reset
 .text.transport_init
                0x0000000000026560       0xb8 ../../mesh/lib_51_MBTLE_CORE.a(transport.c.obj)
                0x0000000000026560                transport_init
 .text.transport_sar_mem_funcs_set
                0x0000000000026618       0x44 ../../mesh/lib_51_MBTLE_CORE.a(transport.c.obj)
                0x0000000000026618                transport_sar_mem_funcs_set
 .text.transport_pkt_in
                0x000000000002665c     0x1168 ../../mesh/lib_51_MBTLE_CORE.a(transport.c.obj)
                0x000000000002665c                transport_pkt_in
 .text.transport_sar_process
                0x00000000000277c4      0x510 ../../mesh/lib_51_MBTLE_CORE.a(transport.c.obj)
                0x00000000000277c4                transport_sar_process
 .text.transport_tx
                0x0000000000027cd4      0x234 ../../mesh/lib_51_MBTLE_CORE.a(transport.c.obj)
                0x0000000000027cd4                transport_tx
 .text.transport_seg_maxlen_get
                0x0000000000027f08       0x14 ../../mesh/lib_51_MBTLE_CORE.a(transport.c.obj)
                0x0000000000027f08                transport_seg_maxlen_get
 .text.transport_tx_sar
                0x0000000000027f1c      0x558 ../../mesh/lib_51_MBTLE_CORE.a(transport.c.obj)
                0x0000000000027f1c                transport_tx_sar
 .text.transport_unseg_maxlen_get
                0x0000000000028474        0x4 ../../mesh/lib_51_MBTLE_CORE.a(transport.c.obj)
                0x0000000000028474                transport_unseg_maxlen_get
 .text.internal_event_push
                0x0000000000028478       0x34 ../../mesh/lib_51_MBTLE_CORE.a(internal_event.c.obj)
                0x0000000000028478                internal_event_push
 .text.flash_area_is_blank
                0x00000000000284ac       0x60 ../../mesh/lib_51_MBTLE_CORE.a(flash_manager.c.obj)
 .text.free_packet_buffer
                0x000000000002850c       0x58 ../../mesh/lib_51_MBTLE_CORE.a(flash_manager.c.obj)
 .text.reserve_action_buffer
                0x0000000000028564       0x28 ../../mesh/lib_51_MBTLE_CORE.a(flash_manager.c.obj)
 .text.get_last_entry
                0x000000000002858c       0x7c ../../mesh/lib_51_MBTLE_CORE.a(flash_manager.c.obj)
 .text.process_action_queue
                0x0000000000028608      0x740 ../../mesh/lib_51_MBTLE_CORE.a(flash_manager.c.obj)
 .text.flash_op_ended_callback
                0x0000000000028d48       0x28 ../../mesh/lib_51_MBTLE_CORE.a(flash_manager.c.obj)
 .text.flash_manager_init
                0x0000000000028d70       0x6c ../../mesh/lib_51_MBTLE_CORE.a(flash_manager.c.obj)
                0x0000000000028d70                flash_manager_init
 .text.flash_manager_entry_next_get
                0x0000000000028ddc      0x140 ../../mesh/lib_51_MBTLE_CORE.a(flash_manager.c.obj)
                0x0000000000028ddc                flash_manager_entry_next_get
 .text.flash_manager_entry_alloc
                0x0000000000028f1c       0x8c ../../mesh/lib_51_MBTLE_CORE.a(flash_manager.c.obj)
                0x0000000000028f1c                flash_manager_entry_alloc
 .text.flash_manager_entry_commit
                0x0000000000028fa8       0x6c ../../mesh/lib_51_MBTLE_CORE.a(flash_manager.c.obj)
                0x0000000000028fa8                flash_manager_entry_commit
 .text.flash_manager_entry_invalidate
                0x0000000000029014       0xa4 ../../mesh/lib_51_MBTLE_CORE.a(flash_manager.c.obj)
                0x0000000000029014                flash_manager_entry_invalidate
 .text.flash_manager_add
                0x00000000000290b8      0x3b8 ../../mesh/lib_51_MBTLE_CORE.a(flash_manager.c.obj)
                0x00000000000290b8                flash_manager_add
 .text.flash_manager_mem_listener_register
                0x0000000000029470       0x4c ../../mesh/lib_51_MBTLE_CORE.a(flash_manager.c.obj)
                0x0000000000029470                flash_manager_mem_listener_register
 .text.flash_manager_is_stable
                0x00000000000294bc       0x24 ../../mesh/lib_51_MBTLE_CORE.a(flash_manager.c.obj)
                0x00000000000294bc                flash_manager_is_stable
 .text.flash_manager_on_defrag_end
                0x00000000000294e0       0x68 ../../mesh/lib_51_MBTLE_CORE.a(flash_manager.c.obj)
                0x00000000000294e0                flash_manager_on_defrag_end
 .text.flash_manager_recovery_page_get
                0x0000000000029548        0x8 ../../mesh/lib_51_MBTLE_CORE.a(flash_manager.c.obj)
                0x0000000000029548                flash_manager_recovery_page_get
 .text.defrag_on_end
                0x0000000000029550       0x1c ../../mesh/lib_51_MBTLE_CORE.a(flash_manager_defrag.c.obj)
 .text.execute_procedure_step
                0x000000000002956c       0xc0 ../../mesh/lib_51_MBTLE_CORE.a(flash_manager_defrag.c.obj)
 .text.on_flash_op_end
                0x000000000002962c       0x40 ../../mesh/lib_51_MBTLE_CORE.a(flash_manager_defrag.c.obj)
 .text.erase_source
                0x000000000002966c       0x30 ../../mesh/lib_51_MBTLE_CORE.a(flash_manager_defrag.c.obj)
 .text.erase_recovery_area
                0x000000000002969c       0x30 ../../mesh/lib_51_MBTLE_CORE.a(flash_manager_defrag.c.obj)
 .text.post_process
                0x00000000000296cc       0x6c ../../mesh/lib_51_MBTLE_CORE.a(flash_manager_defrag.c.obj)
 .text.write_back
                0x0000000000029738       0x48 ../../mesh/lib_51_MBTLE_CORE.a(flash_manager_defrag.c.obj)
 .text.write_defrag_start_pointer
                0x0000000000029780       0x38 ../../mesh/lib_51_MBTLE_CORE.a(flash_manager_defrag.c.obj)
 .text.copy_metadata
                0x00000000000297b8       0x5c ../../mesh/lib_51_MBTLE_CORE.a(flash_manager_defrag.c.obj)
 .text.seal_storage_page
                0x0000000000029814       0x7c ../../mesh/lib_51_MBTLE_CORE.a(flash_manager_defrag.c.obj)
 .text.check_for_invalid_entries
                0x0000000000029890       0x50 ../../mesh/lib_51_MBTLE_CORE.a(flash_manager_defrag.c.obj)
 .text.invalidate_duplicate_entries
                0x00000000000298e0      0x174 ../../mesh/lib_51_MBTLE_CORE.a(flash_manager_defrag.c.obj)
 .text.backup_entries
                0x0000000000029a54      0x214 ../../mesh/lib_51_MBTLE_CORE.a(flash_manager_defrag.c.obj)
 .text.flash_manager_defrag_init
                0x0000000000029c68       0xa8 ../../mesh/lib_51_MBTLE_CORE.a(flash_manager_defrag.c.obj)
                0x0000000000029c68                flash_manager_defrag_init
 .text.flash_manager_defrag_is_running
                0x0000000000029d10       0x10 ../../mesh/lib_51_MBTLE_CORE.a(flash_manager_defrag.c.obj)
                0x0000000000029d10                flash_manager_defrag_is_running
 .text.flash_manager_defrag
                0x0000000000029d20       0xec ../../mesh/lib_51_MBTLE_CORE.a(flash_manager_defrag.c.obj)
                0x0000000000029d20                flash_manager_defrag
 .text.flash_manager_defrag_recovery_page_get
                0x0000000000029e0c        0xc ../../mesh/lib_51_MBTLE_CORE.a(flash_manager_defrag.c.obj)
                0x0000000000029e0c                flash_manager_defrag_recovery_page_get
 .text.entry_get
                0x0000000000029e18       0x9c ../../mesh/lib_51_MBTLE_CORE.a(flash_manager_internal.c.obj)
                0x0000000000029e18                entry_get
 .text.sd_ecb_block_encrypt
                0x0000000000029eb4        0x4 ../../mesh/lib_51_MBTLE_CORE.a(aes.c.obj)
 .text.aes_encrypt
                0x0000000000029eb8       0x78 ../../mesh/lib_51_MBTLE_CORE.a(aes.c.obj)
                0x0000000000029eb8                aes_encrypt
 .text.queue_init
                0x0000000000029f30       0x24 ../../mesh/lib_51_MBTLE_CORE.a(queue.c.obj)
                0x0000000000029f30                queue_init
 .text.queue_push
                0x0000000000029f54       0x58 ../../mesh/lib_51_MBTLE_CORE.a(queue.c.obj)
                0x0000000000029f54                queue_push
 .text.queue_pop
                0x0000000000029fac       0x40 ../../mesh/lib_51_MBTLE_CORE.a(queue.c.obj)
                0x0000000000029fac                queue_pop
 .text.sd_radio_session_open
                0x0000000000029fec        0x4 ../../mesh/lib_51_MBTLE_CORE.a(timeslot.c.obj)
 .text.sd_radio_request
                0x0000000000029ff0        0x4 ../../mesh/lib_51_MBTLE_CORE.a(timeslot.c.obj)
 .text.ts_order_earliest
                0x0000000000029ff4       0x38 ../../mesh/lib_51_MBTLE_CORE.a(timeslot.c.obj)
 .text.ts_extend
                0x000000000002a02c       0x30 ../../mesh/lib_51_MBTLE_CORE.a(timeslot.c.obj)
 .text.end_timer_handler
                0x000000000002a05c        0xc ../../mesh/lib_51_MBTLE_CORE.a(timeslot.c.obj)
 .text.start_time_update
                0x000000000002a068       0x84 ../../mesh/lib_51_MBTLE_CORE.a(timeslot.c.obj)
                0x000000000002a068                start_time_update
 .text.timeslot_sd_event_handler
                0x000000000002a0ec       0x58 ../../mesh/lib_51_MBTLE_CORE.a(timeslot.c.obj)
                0x000000000002a0ec                timeslot_sd_event_handler
 .text.timeslot_init
                0x000000000002a144       0x94 ../../mesh/lib_51_MBTLE_CORE.a(timeslot.c.obj)
                0x000000000002a144                timeslot_init
 .text.timeslot_resume
                0x000000000002a1d8       0x4c ../../mesh/lib_51_MBTLE_CORE.a(timeslot.c.obj)
                0x000000000002a1d8                timeslot_resume
 .text.timeslot_end_time_get
                0x000000000002a224       0x24 ../../mesh/lib_51_MBTLE_CORE.a(timeslot.c.obj)
                0x000000000002a224                timeslot_end_time_get
 .text.timeslot_end
                0x000000000002a248       0x80 ../../mesh/lib_51_MBTLE_CORE.a(timeslot.c.obj)
 .text.timeslot_remaining_time_get
                0x000000000002a2c8       0x34 ../../mesh/lib_51_MBTLE_CORE.a(timeslot.c.obj)
                0x000000000002a2c8                timeslot_remaining_time_get
 .text.radio_signal_callback
                0x000000000002a2fc      0x1f0 ../../mesh/lib_51_MBTLE_CORE.a(timeslot.c.obj)
 .text.aes_cmac_subkey_generate
                0x000000000002a4ec       0xac ../../mesh/lib_51_MBTLE_CORE.a(aes_cmac.c.obj)
                0x000000000002a4ec                aes_cmac_subkey_generate
 .text.aes_cmac
                0x000000000002a598       0xf4 ../../mesh/lib_51_MBTLE_CORE.a(aes_cmac.c.obj)
                0x000000000002a598                aes_cmac
 .text.ccm_soft_crypt
                0x000000000002a68c       0xa2 ../../mesh/lib_51_MBTLE_CORE.a(ccm_soft.c.obj)
 .text.ccm_soft_authenticate_blocks
                0x000000000002a72e       0x86 ../../mesh/lib_51_MBTLE_CORE.a(ccm_soft.c.obj)
 .text.ccm_soft_authenticate
                0x000000000002a7b4       0x8c ../../mesh/lib_51_MBTLE_CORE.a(ccm_soft.c.obj)
 .text.ccm_soft_encrypt
                0x000000000002a840       0x8a ../../mesh/lib_51_MBTLE_CORE.a(ccm_soft.c.obj)
                0x000000000002a840                ccm_soft_encrypt
 .text.ccm_soft_decrypt
                0x000000000002a8ca      0x166 ../../mesh/lib_51_MBTLE_CORE.a(ccm_soft.c.obj)
                0x000000000002a8ca                ccm_soft_decrypt
 .text.msg_cache_init
                0x000000000002aa30       0x38 ../../mesh/lib_51_MBTLE_CORE.a(msg_cache.c.obj)
                0x000000000002aa30                msg_cache_init
 .text.msg_cache_entry_exists
                0x000000000002aa68       0xa8 ../../mesh/lib_51_MBTLE_CORE.a(msg_cache.c.obj)
                0x000000000002aa68                msg_cache_entry_exists
 .text.msg_cache_entry_add
                0x000000000002ab10       0x40 ../../mesh/lib_51_MBTLE_CORE.a(msg_cache.c.obj)
                0x000000000002ab10                msg_cache_entry_add
 .text.header_transfuscate
                0x000000000002ab50       0x58 ../../mesh/lib_51_MBTLE_CORE.a(network.c.obj)
 .text.network_pkt_encrypt
                0x000000000002aba8       0x7a ../../mesh/lib_51_MBTLE_CORE.a(network.c.obj)
 *fill*         0x000000000002ac22        0x2 
 .text.network_pkt_relay
                0x000000000002ac24      0x1e0 ../../mesh/lib_51_MBTLE_CORE.a(network.c.obj)
                0x000000000002ac24                network_pkt_relay
 .text.network_init
                0x000000000002ae04       0x3c ../../mesh/lib_51_MBTLE_CORE.a(network.c.obj)
                0x000000000002ae04                network_init
 .text.network_pkt_out
                0x000000000002ae40      0x170 ../../mesh/lib_51_MBTLE_CORE.a(network.c.obj)
                0x000000000002ae40                network_pkt_out
 .text.network_pkt_in
                0x000000000002afb0      0x3d4 ../../mesh/lib_51_MBTLE_CORE.a(network.c.obj)
                0x000000000002afb0                network_pkt_in
 .text.packet_type_packet_get
                0x000000000002b384       0x60 ../../mesh/lib_51_MBTLE_CORE.a(packet.c.obj)
                0x000000000002b384                packet_type_packet_get
 .text.m_index_increment
                0x000000000002b3e4       0x2c ../../mesh/lib_51_MBTLE_CORE.a(packet_buffer.c.obj)
 .text.m_free_popped_packet
                0x000000000002b410       0x58 ../../mesh/lib_51_MBTLE_CORE.a(packet_buffer.c.obj)
 .text.m_adjust_desired_packet_length
                0x000000000002b468       0x34 ../../mesh/lib_51_MBTLE_CORE.a(packet_buffer.c.obj)
 .text.packet_buffer_init
                0x000000000002b49c       0xe0 ../../mesh/lib_51_MBTLE_CORE.a(packet_buffer.c.obj)
                0x000000000002b49c                packet_buffer_init
 .text.packet_buffer_reserve
                0x000000000002b57c      0x110 ../../mesh/lib_51_MBTLE_CORE.a(packet_buffer.c.obj)
                0x000000000002b57c                packet_buffer_reserve
 .text.packet_buffer_commit
                0x000000000002b68c      0x128 ../../mesh/lib_51_MBTLE_CORE.a(packet_buffer.c.obj)
                0x000000000002b68c                packet_buffer_commit
 .text.packet_buffer_pop
                0x000000000002b7b4       0x84 ../../mesh/lib_51_MBTLE_CORE.a(packet_buffer.c.obj)
                0x000000000002b7b4                packet_buffer_pop
 .text.packet_buffer_can_pop
                0x000000000002b838       0x48 ../../mesh/lib_51_MBTLE_CORE.a(packet_buffer.c.obj)
                0x000000000002b838                packet_buffer_can_pop
 .text.packet_buffer_free
                0x000000000002b880       0x9c ../../mesh/lib_51_MBTLE_CORE.a(packet_buffer.c.obj)
                0x000000000002b880                packet_buffer_free
 .text.replay_cache_add
                0x000000000002b91c       0x98 ../../mesh/lib_51_MBTLE_CORE.a(replay_cache.c.obj)
                0x000000000002b91c                replay_cache_add
 .text.replay_cache_has_room
                0x000000000002b9b4       0x44 ../../mesh/lib_51_MBTLE_CORE.a(replay_cache.c.obj)
                0x000000000002b9b4                replay_cache_has_room
 .text.replay_cache_has_elem
                0x000000000002b9f8       0x48 ../../mesh/lib_51_MBTLE_CORE.a(replay_cache.c.obj)
                0x000000000002b9f8                replay_cache_has_elem
 .text.replay_cache_clear
                0x000000000002ba40       0x28 ../../mesh/lib_51_MBTLE_CORE.a(replay_cache.c.obj)
                0x000000000002ba40                replay_cache_clear
 .text.replay_cache_init
                0x000000000002ba68        0x8 ../../mesh/lib_51_MBTLE_CORE.a(replay_cache.c.obj)
                0x000000000002ba68                replay_cache_init
 .text.send_end_events
                0x000000000002ba70       0x88 ../../mesh/lib_51_MBTLE_CORE.a(mesh_flash.c.obj)
 .text.mesh_flash_init
                0x000000000002baf8       0x90 ../../mesh/lib_51_MBTLE_CORE.a(mesh_flash.c.obj)
                0x000000000002baf8                mesh_flash_init
 .text.mesh_flash_user_callback_set
                0x000000000002bb88       0x30 ../../mesh/lib_51_MBTLE_CORE.a(mesh_flash.c.obj)
                0x000000000002bb88                mesh_flash_user_callback_set
 .text.mesh_flash_op_push
                0x000000000002bbb8      0x168 ../../mesh/lib_51_MBTLE_CORE.a(mesh_flash.c.obj)
                0x000000000002bbb8                mesh_flash_op_push
 .text.mesh_flash_op_execute
                0x000000000002bd20      0x1d0 ../../mesh/lib_51_MBTLE_CORE.a(mesh_flash.c.obj)
                0x000000000002bd20                mesh_flash_op_execute
 .text.nrf_flash_erase
                0x000000000002bef0       0x78 ../../mesh/lib_51_MBTLE_CORE.a(nrf_flash.c.obj)
                0x000000000002bef0                nrf_flash_erase
 .text.nrf_flash_write
                0x000000000002bf68       0x78 ../../mesh/lib_51_MBTLE_CORE.a(nrf_flash.c.obj)
                0x000000000002bf68                nrf_flash_write
 .text.msq_get  0x000000000002bfe0       0x7c ../../mesh/lib_51_MBTLE_CORE.a(msqueue.c.obj)
                0x000000000002bfe0                msq_get
 .text.msq_move
                0x000000000002c05c       0x70 ../../mesh/lib_51_MBTLE_CORE.a(msqueue.c.obj)
                0x000000000002c05c                msq_move
 .text.msq_reset
                0x000000000002c0cc       0x34 ../../mesh/lib_51_MBTLE_CORE.a(msqueue.c.obj)
                0x000000000002c0cc                msq_reset
 .text.msq_init
                0x000000000002c100       0x8c ../../mesh/lib_51_MBTLE_CORE.a(msqueue.c.obj)
                0x000000000002c100                msq_init
 .text.msq_available
                0x000000000002c18c       0x60 ../../mesh/lib_51_MBTLE_CORE.a(msqueue.c.obj)
                0x000000000002c18c                msq_available
 .text.uECC_vli_add
                0x000000000002c1ec       0x4a ../../lib/micro-ecc/lib_51_UECC_LIB.a(uECC.c.obj)
 .text.uECC_vli_sub
                0x000000000002c236       0x4c ../../lib/micro-ecc/lib_51_UECC_LIB.a(uECC.c.obj)
 .text.uECC_vli_mult
                0x000000000002c282       0x90 ../../lib/micro-ecc/lib_51_UECC_LIB.a(uECC.c.obj)
 .text.uECC_vli_clear
                0x000000000002c312       0x1a ../../lib/micro-ecc/lib_51_UECC_LIB.a(uECC.c.obj)
 .text.uECC_vli_isZero
                0x000000000002c32c       0x24 ../../lib/micro-ecc/lib_51_UECC_LIB.a(uECC.c.obj)
 .text.uECC_vli_testBit
                0x000000000002c350       0x12 ../../lib/micro-ecc/lib_51_UECC_LIB.a(uECC.c.obj)
 *fill*         0x000000000002c362        0x2 
 .text.uECC_vli_numBits
                0x000000000002c364       0x54 ../../lib/micro-ecc/lib_51_UECC_LIB.a(uECC.c.obj)
 .text.uECC_vli_set
                0x000000000002c3b8       0x1c ../../lib/micro-ecc/lib_51_UECC_LIB.a(uECC.c.obj)
 .text.uECC_vli_cmp_unsafe
                0x000000000002c3d4       0x46 ../../lib/micro-ecc/lib_51_UECC_LIB.a(uECC.c.obj)
 .text.uECC_vli_cmp
                0x000000000002c41a       0x2c ../../lib/micro-ecc/lib_51_UECC_LIB.a(uECC.c.obj)
 .text.uECC_vli_rshift1
                0x000000000002c446       0x2c ../../lib/micro-ecc/lib_51_UECC_LIB.a(uECC.c.obj)
 .text.uECC_vli_modAdd
                0x000000000002c472       0x32 ../../lib/micro-ecc/lib_51_UECC_LIB.a(uECC.c.obj)
 .text.uECC_vli_modSub
                0x000000000002c4a4       0x26 ../../lib/micro-ecc/lib_51_UECC_LIB.a(uECC.c.obj)
 .text.uECC_vli_modMult_fast
                0x000000000002c4ca       0x20 ../../lib/micro-ecc/lib_51_UECC_LIB.a(uECC.c.obj)
 .text.uECC_vli_modSquare_fast
                0x000000000002c4ea        0xc ../../lib/micro-ecc/lib_51_UECC_LIB.a(uECC.c.obj)
 *fill*         0x000000000002c4f6        0x2 
 .text.vli_modInv_update
                0x000000000002c4f8       0x48 ../../lib/micro-ecc/lib_51_UECC_LIB.a(uECC.c.obj)
 .text.uECC_vli_modInv
                0x000000000002c540      0x134 ../../lib/micro-ecc/lib_51_UECC_LIB.a(uECC.c.obj)
 .text.double_jacobian_default
                0x000000000002c674      0x168 ../../lib/micro-ecc/lib_51_UECC_LIB.a(uECC.c.obj)
 .text.x_side_default
                0x000000000002c7dc       0x58 ../../lib/micro-ecc/lib_51_UECC_LIB.a(uECC.c.obj)
 .text.vli_mmod_fast_secp256r1
                0x000000000002c834      0x1bc ../../lib/micro-ecc/lib_51_UECC_LIB.a(uECC.c.obj)
 .text.apply_z  0x000000000002c9f0       0x3e ../../lib/micro-ecc/lib_51_UECC_LIB.a(uECC.c.obj)
 .text.XYcZ_add
                0x000000000002ca2e       0xcc ../../lib/micro-ecc/lib_51_UECC_LIB.a(uECC.c.obj)
 .text.XYcZ_addC
                0x000000000002cafa      0x11c ../../lib/micro-ecc/lib_51_UECC_LIB.a(uECC.c.obj)
 .text.EccPoint_mult
                0x000000000002cc16      0x1cc ../../lib/micro-ecc/lib_51_UECC_LIB.a(uECC.c.obj)
 .text.regularize_k
                0x000000000002cde2       0x60 ../../lib/micro-ecc/lib_51_UECC_LIB.a(uECC.c.obj)
 .text.EccPoint_compute_public_key
                0x000000000002ce42       0x4c ../../lib/micro-ecc/lib_51_UECC_LIB.a(uECC.c.obj)
 .text.uECC_vli_nativeToBytes
                0x000000000002ce8e       0x2a ../../lib/micro-ecc/lib_51_UECC_LIB.a(uECC.c.obj)
 .text.uECC_vli_bytesToNative
                0x000000000002ceb8       0x56 ../../lib/micro-ecc/lib_51_UECC_LIB.a(uECC.c.obj)
 *fill*         0x000000000002cf0e        0x2 
 .text.uECC_generate_random_int
                0x000000000002cf10       0x84 ../../lib/micro-ecc/lib_51_UECC_LIB.a(uECC.c.obj)
 .text.default_RNG
                0x000000000002cf94        0xc ../../lib/micro-ecc/lib_51_UECC_LIB.a(uECC.c.obj)
 .text.uECC_secp256r1
                0x000000000002cfa0        0x8 ../../lib/micro-ecc/lib_51_UECC_LIB.a(uECC.c.obj)
                0x000000000002cfa0                uECC_secp256r1
 .text.uECC_make_key
                0x000000000002cfa8       0x88 ../../lib/micro-ecc/lib_51_UECC_LIB.a(uECC.c.obj)
                0x000000000002cfa8                uECC_make_key
 .text.uECC_shared_secret
                0x000000000002d030       0xc8 ../../lib/micro-ecc/lib_51_UECC_LIB.a(uECC.c.obj)
                0x000000000002d030                uECC_shared_secret
 .text.uECC_valid_point
                0x000000000002d0f8       0x92 ../../lib/micro-ecc/lib_51_UECC_LIB.a(uECC.c.obj)
                0x000000000002d0f8                uECC_valid_point
 .text.uECC_valid_public_key
                0x000000000002d18a       0x32 ../../lib/micro-ecc/lib_51_UECC_LIB.a(uECC.c.obj)
                0x000000000002d18a                uECC_valid_public_key
 .text._GetAvailWriteSpace
                0x000000000002d1bc       0x18 ../../lib/rtt/lib_51_RTT_LIB.a(SEGGER_RTT.c.obj)
 .text._WriteNoCheck
                0x000000000002d1d4       0x3a ../../lib/rtt/lib_51_RTT_LIB.a(SEGGER_RTT.c.obj)
 .text._WriteBlocking
                0x000000000002d20e       0x6c ../../lib/rtt/lib_51_RTT_LIB.a(SEGGER_RTT.c.obj)
 *fill*         0x000000000002d27a        0x2 
 .text._DoInit  0x000000000002d27c       0x60 ../../lib/rtt/lib_51_RTT_LIB.a(SEGGER_RTT.c.obj)
 .text.SEGGER_RTT_WriteNoLock
                0x000000000002d2dc       0x70 ../../lib/rtt/lib_51_RTT_LIB.a(SEGGER_RTT.c.obj)
                0x000000000002d2dc                SEGGER_RTT_WriteNoLock
 .text.SEGGER_RTT_Write
                0x000000000002d34c       0x34 ../../lib/rtt/lib_51_RTT_LIB.a(SEGGER_RTT.c.obj)
                0x000000000002d34c                SEGGER_RTT_Write
 .text._StoreChar
                0x000000000002d380       0x40 ../../lib/rtt/lib_51_RTT_LIB.a(SEGGER_RTT_printf.c.obj)
 .text._PrintUnsigned
                0x000000000002d3c0      0x114 ../../lib/rtt/lib_51_RTT_LIB.a(SEGGER_RTT_printf.c.obj)
 .text.SEGGER_RTT_vprintf
                0x000000000002d4d4      0x2ee ../../lib/rtt/lib_51_RTT_LIB.a(SEGGER_RTT_printf.c.obj)
                0x000000000002d4d4                SEGGER_RTT_vprintf
 .text.SEGGER_RTT_printf
                0x000000000002d7c2       0x1a ../../lib/rtt/lib_51_RTT_LIB.a(SEGGER_RTT_printf.c.obj)
                0x000000000002d7c2                SEGGER_RTT_printf
 .text          0x000000000002d7dc      0x114 /usr/bin/../lib/gcc/arm-none-eabi/6.3.1/thumb/v6-m/libgcc.a(_udivsi3.o)
                0x000000000002d7dc                __udivsi3
                0x000000000002d7dc                __aeabi_uidiv
                0x000000000002d8e8                __aeabi_uidivmod
 .text          0x000000000002d8f0      0x1d4 /usr/bin/../lib/gcc/arm-none-eabi/6.3.1/thumb/v6-m/libgcc.a(_divsi3.o)
                0x000000000002d8f0                __aeabi_idiv
                0x000000000002d8f0                __divsi3
                0x000000000002dabc                __aeabi_idivmod
 .text          0x000000000002dac4        0x4 /usr/bin/../lib/gcc/arm-none-eabi/6.3.1/thumb/v6-m/libgcc.a(_dvmd_tls.o)
                0x000000000002dac4                __aeabi_ldiv0
                0x000000000002dac4                __aeabi_idiv0
 .text          0x000000000002dac8       0x54 /usr/bin/../lib/gcc/arm-none-eabi/6.3.1/thumb/v6-m/libgcc.a(_muldi3.o)
                0x000000000002dac8                __aeabi_lmul
                0x000000000002dac8                __muldi3
 .text.exit     0x000000000002db1c       0x2c /usr/bin/../lib/gcc/arm-none-eabi/6.3.1/../../../../arm-none-eabi/lib/thumb/v6-m/libg_nano.a(lib_a-exit.o)
                0x000000000002db1c                exit
 .text.__libc_init_array
                0x000000000002db48       0x48 /usr/bin/../lib/gcc/arm-none-eabi/6.3.1/../../../../arm-none-eabi/lib/thumb/v6-m/libg_nano.a(lib_a-init.o)
                0x000000000002db48                __libc_init_array
 .text.malloc   0x000000000002db90       0x14 /usr/bin/../lib/gcc/arm-none-eabi/6.3.1/../../../../arm-none-eabi/lib/thumb/v6-m/libg_nano.a(lib_a-malloc.o)
                0x000000000002db90                malloc
 .text.free     0x000000000002dba4       0x14 /usr/bin/../lib/gcc/arm-none-eabi/6.3.1/../../../../arm-none-eabi/lib/thumb/v6-m/libg_nano.a(lib_a-malloc.o)
                0x000000000002dba4                free
 .text.memcmp   0x000000000002dbb8       0x1e /usr/bin/../lib/gcc/arm-none-eabi/6.3.1/../../../../arm-none-eabi/lib/thumb/v6-m/libg_nano.a(lib_a-memcmp.o)
                0x000000000002dbb8                memcmp
 .text.memcpy   0x000000000002dbd6       0x12 /usr/bin/../lib/gcc/arm-none-eabi/6.3.1/../../../../arm-none-eabi/lib/thumb/v6-m/libg_nano.a(lib_a-memcpy-stub.o)
                0x000000000002dbd6                memcpy
 .text.memset   0x000000000002dbe8       0x10 /usr/bin/../lib/gcc/arm-none-eabi/6.3.1/../../../../arm-none-eabi/lib/thumb/v6-m/libg_nano.a(lib_a-memset.o)
                0x000000000002dbe8                memset
 .text._free_r  0x000000000002dbf8       0x94 /usr/bin/../lib/gcc/arm-none-eabi/6.3.1/../../../../arm-none-eabi/lib/thumb/v6-m/libg_nano.a(lib_a-nano-freer.o)
                0x000000000002dbf8                _free_r
 .text._malloc_r
                0x000000000002dc8c       0xbc /usr/bin/../lib/gcc/arm-none-eabi/6.3.1/../../../../arm-none-eabi/lib/thumb/v6-m/libg_nano.a(lib_a-nano-mallocr.o)
                0x000000000002dc8c                _malloc_r
 .text._sbrk_r  0x000000000002dd48       0x24 /usr/bin/../lib/gcc/arm-none-eabi/6.3.1/../../../../arm-none-eabi/lib/thumb/v6-m/libg_nano.a(lib_a-sbrkr.o)
                0x000000000002dd48                _sbrk_r
 .text.strcpy   0x000000000002dd6c       0x10 /usr/bin/../lib/gcc/arm-none-eabi/6.3.1/../../../../arm-none-eabi/lib/thumb/v6-m/libg_nano.a(lib_a-strcpy.o)
                0x000000000002dd6c                strcpy
 .text          0x000000000002dd7c        0xe /usr/bin/../lib/gcc/arm-none-eabi/6.3.1/../../../../arm-none-eabi/lib/thumb/v6-m/libg_nano.a(lib_a-strlen.o)
                0x000000000002dd7c                strlen
 .text.strrchr  0x000000000002dd8a       0x24 /usr/bin/../lib/gcc/arm-none-eabi/6.3.1/../../../../arm-none-eabi/lib/thumb/v6-m/libg_nano.a(lib_a-strrchr.o)
                0x000000000002dd8a                strrchr
 .text.__malloc_lock
                0x000000000002ddae        0x2 /usr/bin/../lib/gcc/arm-none-eabi/6.3.1/../../../../arm-none-eabi/lib/thumb/v6-m/libg_nano.a(lib_a-mlock.o)
                0x000000000002ddae                __malloc_lock
 .text.__malloc_unlock
                0x000000000002ddb0        0x2 /usr/bin/../lib/gcc/arm-none-eabi/6.3.1/../../../../arm-none-eabi/lib/thumb/v6-m/libg_nano.a(lib_a-mlock.o)
                0x000000000002ddb0                __malloc_unlock
 .text.strchr   0x000000000002ddb2       0x1c /usr/bin/../lib/gcc/arm-none-eabi/6.3.1/../../../../arm-none-eabi/lib/thumb/v6-m/libg_nano.a(lib_a-strchr.o)
                0x000000000002ddb2                strchr
 *fill*         0x000000000002ddce        0x2 
 .text._sbrk    0x000000000002ddd0       0x1c /usr/bin/../lib/gcc/arm-none-eabi/6.3.1/../../../../arm-none-eabi/lib/thumb/v6-m/libnosys.a(sbrk.o)
                0x000000000002ddd0                _sbrk
 .text._exit    0x000000000002ddec        0x4 /usr/bin/../lib/gcc/arm-none-eabi/6.3.1/../../../../arm-none-eabi/lib/thumb/v6-m/libnosys.a(_exit.o)
                0x000000000002ddec                _exit
 *(.init)
 .init          0x000000000002ddf0        0x4 /usr/bin/../lib/gcc/arm-none-eabi/6.3.1/thumb/v6-m/crti.o
                0x000000000002ddf0                _init
 .init          0x000000000002ddf4        0x8 /usr/bin/../lib/gcc/arm-none-eabi/6.3.1/thumb/v6-m/crtn.o
 *(.fini)
 .fini          0x000000000002ddfc        0x4 /usr/bin/../lib/gcc/arm-none-eabi/6.3.1/thumb/v6-m/crti.o
                0x000000000002ddfc                _fini
 .fini          0x000000000002de00        0x8 /usr/bin/../lib/gcc/arm-none-eabi/6.3.1/thumb/v6-m/crtn.o
 *crtbegin.o(.ctors)
 *crtbegin?.o(.ctors)
 *(EXCLUDE_FILE(*crtend.o *crtend?.o) .ctors)
 *(SORT(.ctors.*))
 *(.ctors)
 *crtbegin.o(.dtors)
 *crtbegin?.o(.dtors)
 *(EXCLUDE_FILE(*crtend.o *crtend?.o) .dtors)
 *(SORT(.dtors.*))
 *(.dtors)
 *(.rodata*)
 .rodata.mesh_evt_handler
                0x000000000002de08       0x30 CMakeFiles/51_pb_remote_server.dir/src/main.c.obj
 .rodata        0x000000000002de38       0x10 CMakeFiles/51_pb_remote_server.dir/src/main.c.obj
 .rodata.main.str1.4
                0x000000000002de48       0xf3 CMakeFiles/51_pb_remote_server.dir/src/main.c.obj
 *fill*         0x000000000002df3b        0x1 
 .rodata.mesh_evt_handler.str1.4
                0x000000000002df3c      0x15f CMakeFiles/51_pb_remote_server.dir/src/main.c.obj
 *fill*         0x000000000002e09b        0x1 
 .rodata.pb_remote_server_event_link_closed_cb
                0x000000000002e09c       0x14 CMakeFiles/51_pb_remote_server.dir/__/__/mesh/models/pb_remote/src/pb_remote_server.c.obj
 .rodata.pb_remote_server_event_link_open_cb
                0x000000000002e0b0       0x24 CMakeFiles/51_pb_remote_server.dir/__/__/mesh/models/pb_remote/src/pb_remote_server.c.obj
 .rodata        0x000000000002e0d4       0x30 CMakeFiles/51_pb_remote_server.dir/__/__/mesh/models/pb_remote/src/pb_remote_server.c.obj
 .rodata.do_state_change.str1.4
                0x000000000002e104       0x1e CMakeFiles/51_pb_remote_server.dir/__/__/mesh/models/pb_remote/src/pb_remote_server.c.obj
 *fill*         0x000000000002e122        0x2 
 .rodata.m_opcode_handlers
                0x000000000002e124       0x48 CMakeFiles/51_pb_remote_server.dir/__/__/mesh/models/pb_remote/src/pb_remote_server.c.obj
 .rodata.m_pb_remote_server_event_handler_callbacks
                0x000000000002e16c       0x3c CMakeFiles/51_pb_remote_server.dir/__/__/mesh/models/pb_remote/src/pb_remote_server.c.obj
 .rodata.m_prov_callbacks
                0x000000000002e1a8       0x10 CMakeFiles/51_pb_remote_server.dir/__/__/mesh/models/pb_remote/src/pb_remote_server.c.obj
 .rodata.pb_remote_server_event_link_close_cb.str1.4
                0x000000000002e1b8       0x1d CMakeFiles/51_pb_remote_server.dir/__/__/mesh/models/pb_remote/src/pb_remote_server.c.obj
 *fill*         0x000000000002e1d5        0x3 
 .rodata.pb_remote_server_event_link_established_cb.str1.4
                0x000000000002e1d8       0x2f CMakeFiles/51_pb_remote_server.dir/__/__/mesh/models/pb_remote/src/pb_remote_server.c.obj
 *fill*         0x000000000002e207        0x1 
 .rodata.pb_remote_server_event_link_open_cb.str1.4
                0x000000000002e208       0x3e CMakeFiles/51_pb_remote_server.dir/__/__/mesh/models/pb_remote/src/pb_remote_server.c.obj
 *fill*         0x000000000002e246        0x2 
 .rodata.pb_remote_server_event_link_status_cb.str1.4
                0x000000000002e248       0x90 CMakeFiles/51_pb_remote_server.dir/__/__/mesh/models/pb_remote/src/pb_remote_server.c.obj
 .rodata.pb_remote_server_event_local_ack_cb.str1.4
                0x000000000002e2d8       0x16 CMakeFiles/51_pb_remote_server.dir/__/__/mesh/models/pb_remote/src/pb_remote_server.c.obj
 *fill*         0x000000000002e2ee        0x2 
 .rodata.pb_remote_server_event_local_packet_cb.str1.4
                0x000000000002e2f0       0x2b CMakeFiles/51_pb_remote_server.dir/__/__/mesh/models/pb_remote/src/pb_remote_server.c.obj
 *fill*         0x000000000002e31b        0x1 
 .rodata.pb_remote_server_event_packet_transfer_cb.str1.4
                0x000000000002e31c       0x2d CMakeFiles/51_pb_remote_server.dir/__/__/mesh/models/pb_remote/src/pb_remote_server.c.obj
 *fill*         0x000000000002e349        0x3 
 .rodata.pb_remote_server_event_scan_report_status_cb.str1.4
                0x000000000002e34c       0x7a CMakeFiles/51_pb_remote_server.dir/__/__/mesh/models/pb_remote/src/pb_remote_server.c.obj
 *fill*         0x000000000002e3c6        0x2 
 .rodata.pb_remote_server_event_scan_start_filter_cb.str1.4
                0x000000000002e3c8        0xe CMakeFiles/51_pb_remote_server.dir/__/__/mesh/models/pb_remote/src/pb_remote_server.c.obj
                                         0x18 (size before relaxing)
 *fill*         0x000000000002e3d6        0x2 
 .rodata.pb_remote_server_event_transfer_status_cb.str1.4
                0x000000000002e3d8       0x41 CMakeFiles/51_pb_remote_server.dir/__/__/mesh/models/pb_remote/src/pb_remote_server.c.obj
 *fill*         0x000000000002e419        0x3 
 .rodata.pb_remote_server_event_unprov_uuid_cb.str1.4
                0x000000000002e41c       0x19 CMakeFiles/51_pb_remote_server.dir/__/__/mesh/models/pb_remote/src/pb_remote_server.c.obj
 *fill*         0x000000000002e435        0x3 
 .rodata.pb_remote_server_process.str1.4
                0x000000000002e438        0xc CMakeFiles/51_pb_remote_server.dir/__/__/mesh/models/pb_remote/src/pb_remote_server.c.obj
 .rodata.server_reliable_status_cb.str1.4
                0x000000000002e444       0x41 CMakeFiles/51_pb_remote_server.dir/__/__/mesh/models/pb_remote/src/pb_remote_server.c.obj
 *fill*         0x000000000002e485        0x3 
 .rodata.mesh_evt_cb.str1.4
                0x000000000002e488       0x13 CMakeFiles/51_pb_remote_server.dir/__/__/mesh/src/access/access.c.obj
 *fill*         0x000000000002e49b        0x1 
 .rodata.packet_tx.str1.4
                0x000000000002e49c       0x5b CMakeFiles/51_pb_remote_server.dir/__/__/mesh/src/access/access.c.obj
 *fill*         0x000000000002e4f7        0x1 
 .rodata.m_flash_groups
                0x000000000002e4f8       0xc0 CMakeFiles/51_pb_remote_server.dir/__/__/mesh/src/access/device_state_manager.c.obj
 .rodata.HardFault_Handler.str1.4
                0x000000000002e5b8        0xe CMakeFiles/51_pb_remote_server.dir/__/nrf_mesh_sdk.c.obj
 *fill*         0x000000000002e5c6        0x2 
 .rodata.app_error_handler.str1.4
                0x000000000002e5c8       0x1d CMakeFiles/51_pb_remote_server.dir/__/nrf_mesh_sdk.c.obj
 *fill*         0x000000000002e5e5        0x3 
 .rodata.mesh_assert_handler.str1.4
                0x000000000002e5e8       0x19 CMakeFiles/51_pb_remote_server.dir/__/nrf_mesh_sdk.c.obj
 *fill*         0x000000000002e601        0x3 
 .rodata.mesh_softdevice_enable.str1.4
                0x000000000002e604       0x65 CMakeFiles/51_pb_remote_server.dir/__/nrf_mesh_sdk.c.obj
 *fill*         0x000000000002e669        0x3 
 .rodata.softdevice_assert_handler.str1.4
                0x000000000002e66c       0x65 CMakeFiles/51_pb_remote_server.dir/__/nrf_mesh_sdk.c.obj
 *fill*         0x000000000002e6d1        0x3 
 .rodata.pdu_sizes.8302
                0x000000000002e6d4        0xa ../../mesh/lib_51_MBTLE_PB_ADV_EE.a(provisioning.c.obj)
 *fill*         0x000000000002e6de        0x2 
 .rodata.prov_cb_pkt_in.str1.4
                0x000000000002e6e0       0x60 ../../mesh/lib_51_MBTLE_PB_ADV_EE.a(provisioning.c.obj)
 .rodata.add_active_bearer.str1.4
                0x000000000002e740       0x2c ../../mesh/lib_51_MBTLE_PB_ADV_EE.a(prov_bearer_adv.c.obj)
 .rodata.crctable.8268
                0x000000000002e76c      0x100 ../../mesh/lib_51_MBTLE_PB_ADV_EE.a(prov_bearer_adv.c.obj)
 .rodata.interface.8482
                0x000000000002e86c       0x14 ../../mesh/lib_51_MBTLE_PB_ADV_EE.a(prov_bearer_adv.c.obj)
 .rodata.prov_bearer_adv_pkt_in.str1.4
                0x000000000002e880      0x283 ../../mesh/lib_51_MBTLE_PB_ADV_EE.a(prov_bearer_adv.c.obj)
 *fill*         0x000000000002eb03        0x1 
 .rodata.tx_retry_cb.str1.4
                0x000000000002eb04       0x64 ../../mesh/lib_51_MBTLE_PB_ADV_EE.a(prov_bearer_adv.c.obj)
 .rodata.alphanumeric.8393
                0x000000000002eb68       0x25 ../../mesh/lib_51_MBTLE_PB_ADV_EE.a(prov_utils.c.obj)
 *fill*         0x000000000002eb8d        0x3 
 .rodata.numeric_max.8387
                0x000000000002eb90       0x24 ../../mesh/lib_51_MBTLE_PB_ADV_EE.a(prov_utils.c.obj)
 .rodata.prov_utils_authentication_values_derive.str1.4
                0x000000000002ebb4        0x5 ../../mesh/lib_51_MBTLE_PB_ADV_EE.a(prov_utils.c.obj)
 *fill*         0x000000000002ebb9        0x3 
 .rodata.prov_utils_derive_keys.str1.4
                0x000000000002ebbc       0x15 ../../mesh/lib_51_MBTLE_PB_ADV_EE.a(prov_utils.c.obj)
 *fill*         0x000000000002ebd1        0x3 
 .rodata.prov_provisionee_cb_ack_received
                0x000000000002ebd4       0x50 ../../mesh/lib_51_MBTLE_PB_ADV_EE.a(prov_provisionee.c.obj)
 .rodata.prov_provisionee_pkt_in
                0x000000000002ec24       0x28 ../../mesh/lib_51_MBTLE_PB_ADV_EE.a(prov_provisionee.c.obj)
 .rodata.m_prov_callbacks
                0x000000000002ec4c       0x10 ../../mesh/lib_51_MBTLE_PB_ADV_EE.a(prov_provisionee.c.obj)
 .rodata.prov_provisionee_cb_ack_received.str1.4
                0x000000000002ec5c       0x7f ../../mesh/lib_51_MBTLE_PB_ADV_EE.a(prov_provisionee.c.obj)
 *fill*         0x000000000002ecdb        0x1 
 .rodata        0x000000000002ecdc       0x14 ../../mesh/lib_51_MBTLE_CORE.a(bearer_adv.c.obj)
 .rodata.bearer_adv_advertiser_init.str1.4
                0x000000000002ecf0       0x39 ../../mesh/lib_51_MBTLE_CORE.a(bearer_adv.c.obj)
 *fill*         0x000000000002ed29        0x3 
 .rodata.bearer_adv_init.str1.4
                0x000000000002ed2c       0x1d ../../mesh/lib_51_MBTLE_CORE.a(bearer_adv.c.obj)
 *fill*         0x000000000002ed49        0x3 
 .rodata.scan_order.str1.4
                0x000000000002ed4c       0x86 ../../mesh/lib_51_MBTLE_CORE.a(bearer_adv.c.obj)
 *fill*         0x000000000002edd2        0x2 
 .rodata.beacon_pkt_in.str1.4
                0x000000000002edd4       0x81 ../../mesh/lib_51_MBTLE_CORE.a(beacon.c.obj)
                                         0x8c (size before relaxing)
 *fill*         0x000000000002ee55        0x3 
 .rodata        0x000000000002ee58       0x1c ../../mesh/lib_51_MBTLE_CORE.a(bearer.c.obj)
 .rodata.bearer_rx_cb.str1.4
                0x000000000002ee74       0x76 ../../mesh/lib_51_MBTLE_CORE.a(bearer.c.obj)
 *fill*         0x000000000002eeea        0x2 
 .rodata        0x000000000002eeec       0x18 ../../mesh/lib_51_MBTLE_CORE.a(enc.c.obj)
 .rodata.log_callback_rtt.str1.4
                0x000000000002ef04       0x15 ../../mesh/lib_51_MBTLE_CORE.a(log.c.obj)
 *fill*         0x000000000002ef19        0x3 
 .rodata.str1.4
                0x000000000002ef1c       0x11 ../../mesh/lib_51_MBTLE_CORE.a(log.c.obj)
 *fill*         0x000000000002ef2d        0x3 
 .rodata.net_beacon_init.str1.4
                0x000000000002ef30        0x5 ../../mesh/lib_51_MBTLE_CORE.a(net_beacon.c.obj)
 *fill*         0x000000000002ef35        0x3 
 .rodata.nrf_mesh_adv_send.str1.4
                0x000000000002ef38       0x78 ../../mesh/lib_51_MBTLE_CORE.a(nrf_mesh.c.obj)
 .rodata.nrf_mesh_process.str1.4
                0x000000000002efb0       0x76 ../../mesh/lib_51_MBTLE_CORE.a(nrf_mesh.c.obj)
 *fill*         0x000000000002f026        0x2 
 .rodata        0x000000000002f028        0x7 ../../mesh/lib_51_MBTLE_CORE.a(nrf_mesh_keygen.c.obj)
 *fill*         0x000000000002f02f        0x1 
 .rodata.types_lookup.6530
                0x000000000002f030        0x4 ../../mesh/lib_51_MBTLE_CORE.a(nrf_mesh_utils.c.obj)
 .rodata.channel_rf_offsets.6165
                0x000000000002f034       0x28 ../../mesh/lib_51_MBTLE_CORE.a(radio_config.c.obj)
 .rodata.sar_segment_send.str1.4
                0x000000000002f05c       0x39 ../../mesh/lib_51_MBTLE_CORE.a(transport.c.obj)
 *fill*         0x000000000002f095        0x3 
 .rodata.test_transport_decrypt.str1.4
                0x000000000002f098       0x5f ../../mesh/lib_51_MBTLE_CORE.a(transport.c.obj)
 *fill*         0x000000000002f0f7        0x1 
 .rodata.transport_pkt_in.str1.4
                0x000000000002f0f8      0x1b0 ../../mesh/lib_51_MBTLE_CORE.a(transport.c.obj)
 .rodata.transport_sar_process.str1.4
                0x000000000002f2a8       0xbb ../../mesh/lib_51_MBTLE_CORE.a(transport.c.obj)
 *fill*         0x000000000002f363        0x1 
 .rodata.transport_tx.str1.4
                0x000000000002f364       0x30 ../../mesh/lib_51_MBTLE_CORE.a(transport.c.obj)
 .rodata.transport_tx_sar.str1.4
                0x000000000002f394       0x99 ../../mesh/lib_51_MBTLE_CORE.a(transport.c.obj)
 *fill*         0x000000000002f42d        0x3 
 .rodata.trs_sar_drop_session.str1.4
                0x000000000002f430       0x18 ../../mesh/lib_51_MBTLE_CORE.a(transport.c.obj)
                                         0x48 (size before relaxing)
 .rodata.trs_sar_pkt_decrypt.str1.4
                0x000000000002f448       0x61 ../../mesh/lib_51_MBTLE_CORE.a(transport.c.obj)
                                         0x69 (size before relaxing)
 *fill*         0x000000000002f4a9        0x3 
 .rodata.trs_sar_session_cb.str1.4
                0x000000000002f4ac       0x1b ../../mesh/lib_51_MBTLE_CORE.a(transport.c.obj)
 *fill*         0x000000000002f4c7        0x1 
 .rodata.process_action_queue
                0x000000000002f4c8       0x14 ../../mesh/lib_51_MBTLE_CORE.a(flash_manager.c.obj)
 .rodata.INVALID_HEADER
                0x000000000002f4dc        0x4 ../../mesh/lib_51_MBTLE_CORE.a(flash_manager.c.obj)
                0x000000000002f4dc                INVALID_HEADER
 .rodata.PADDING_HEADER
                0x000000000002f4e0        0x4 ../../mesh/lib_51_MBTLE_CORE.a(flash_manager.c.obj)
                0x000000000002f4e0                PADDING_HEADER
 .rodata.SEAL_HEADER
                0x000000000002f4e4        0x4 ../../mesh/lib_51_MBTLE_CORE.a(flash_manager.c.obj)
                0x000000000002f4e4                SEAL_HEADER
 .rodata.process_action_queue.str1.4
                0x000000000002f4e8       0x4d ../../mesh/lib_51_MBTLE_CORE.a(flash_manager.c.obj)
                                         0x7e (size before relaxing)
 *fill*         0x000000000002f535        0x3 
 .rodata.flash_manager_defrag.str1.4
                0x000000000002f538       0x54 ../../mesh/lib_51_MBTLE_CORE.a(flash_manager_defrag.c.obj)
                                         0x82 (size before relaxing)
 .rodata.m_procedure_steps
                0x000000000002f58c       0x28 ../../mesh/lib_51_MBTLE_CORE.a(flash_manager_defrag.c.obj)
 .rodata.timeslot_init
                0x000000000002f5b4       0x20 ../../mesh/lib_51_MBTLE_CORE.a(timeslot.c.obj)
 .rodata.radio_signal_callback
                0x000000000002f5d4       0x14 ../../mesh/lib_51_MBTLE_CORE.a(timeslot.c.obj)
 .rodata.Rb.5041
                0x000000000002f5e8       0x10 ../../mesh/lib_51_MBTLE_CORE.a(aes_cmac.c.obj)
 .rodata.network_pkt_in.str1.4
                0x000000000002f5f8       0x13 ../../mesh/lib_51_MBTLE_CORE.a(network.c.obj)
                                         0x1c (size before relaxing)
 *fill*         0x000000000002f60b        0x1 
 .rodata.network_pkt_out.str1.4
                0x000000000002f60c       0x25 ../../mesh/lib_51_MBTLE_CORE.a(network.c.obj)
 *fill*         0x000000000002f631        0x3 
 .rodata.network_pkt_relay.str1.4
                0x000000000002f634       0x75 ../../mesh/lib_51_MBTLE_CORE.a(network.c.obj)
                                         0xa6 (size before relaxing)
 *fill*         0x000000000002f6a9        0x3 
 .rodata.m_all_operations
                0x000000000002f6ac       0x10 ../../mesh/lib_51_MBTLE_CORE.a(mesh_flash.c.obj)
 .rodata.curve_secp256r1
                0x000000000002f6bc       0xb0 ../../lib/micro-ecc/lib_51_UECC_LIB.a(uECC.c.obj)
 .rodata._DoInit.str1.4
                0x000000000002f76c       0x18 ../../lib/rtt/lib_51_RTT_LIB.a(SEGGER_RTT.c.obj)
                                         0x17 (size before relaxing)
 .rodata._aV2C.4378
                0x000000000002f784       0x10 ../../lib/rtt/lib_51_RTT_LIB.a(SEGGER_RTT_printf.c.obj)
 .rodata._global_impure_ptr
                0x000000000002f794        0x4 /usr/bin/../lib/gcc/arm-none-eabi/6.3.1/../../../../arm-none-eabi/lib/thumb/v6-m/libg_nano.a(lib_a-impure.o)
                0x000000000002f794                _global_impure_ptr
 *(.eh_frame*)
 .eh_frame      0x000000000002f798        0x0 /usr/bin/../lib/gcc/arm-none-eabi/6.3.1/thumb/v6-m/crtbegin.o
 .eh_frame      0x000000000002f798        0x4 /usr/bin/../lib/gcc/arm-none-eabi/6.3.1/thumb/v6-m/crtend.o

.glue_7         0x000000000002f79c        0x0
 .glue_7        0x000000000002f79c        0x0 linker stubs

.glue_7t        0x000000000002f79c        0x0
 .glue_7t       0x000000000002f79c        0x0 linker stubs

.vfp11_veneer   0x000000000002f79c        0x0
 .vfp11_veneer  0x000000000002f79c        0x0 linker stubs

.v4_bx          0x000000000002f79c        0x0
 .v4_bx         0x000000000002f79c        0x0 linker stubs

.iplt           0x000000000002f79c        0x0
 .iplt          0x000000000002f79c        0x0 /usr/bin/../lib/gcc/arm-none-eabi/6.3.1/thumb/v6-m/crtbegin.o

.ARM.extab
 *(.ARM.extab* .gnu.linkonce.armextab.*)
                0x000000000002f79c                __exidx_start = .

.ARM.exidx      0x000000000002f79c        0x8
 *(.ARM.exidx* .gnu.linkonce.armexidx.*)
 .ARM.exidx     0x000000000002f79c        0x8 /usr/bin/../lib/gcc/arm-none-eabi/6.3.1/../../../../arm-none-eabi/lib/thumb/v6-m/crt0.o
                0x000000000002f7a4                __exidx_end = .
                0x000000000002f7a4                __etext = .

.rel.dyn        0x000000000002f7a4        0x0
 .rel.iplt      0x000000000002f7a4        0x0 /usr/bin/../lib/gcc/arm-none-eabi/6.3.1/thumb/v6-m/crtbegin.o

.data           0x00000000200022d8       0xf4 load address 0x000000000002f7a4
                0x00000000200022d8                __data_start__ = .
 *(vtable)
 *(.data*)
 .data.flash_add_mem_available_struct.7923
                0x00000000200022d8       0x10 CMakeFiles/51_pb_remote_server.dir/__/__/mesh/src/access/access.c.obj
 .data.m_default_ttl
                0x00000000200022e8        0x1 CMakeFiles/51_pb_remote_server.dir/__/__/mesh/src/access/access.c.obj
 *fill*         0x00000000200022e9        0x3 
 .data.mem_listener.8204
                0x00000000200022ec       0x10 CMakeFiles/51_pb_remote_server.dir/__/__/mesh/src/access/device_state_manager.c.obj
 .data.m_unprov_report
                0x00000000200022fc        0x1 ../../mesh/lib_51_MBTLE_PB_ADV_EE.a(prov_beacon.c.obj)
 .data.m_radio_state
                0x00000000200022fd        0x1 ../../mesh/lib_51_MBTLE_CORE.a(radio.c.obj)
 *fill*         0x00000000200022fe        0x2 
 .data.g_log_debug_level
                0x0000000020002300        0x4 ../../mesh/lib_51_MBTLE_CORE.a(log.c.obj)
                0x0000000020002300                g_log_debug_level
 .data.g_log_debug_msk
                0x0000000020002304        0x4 ../../mesh/lib_51_MBTLE_CORE.a(log.c.obj)
                0x0000000020002304                g_log_debug_msk
 .data.g_log_hex_digits
                0x0000000020002308        0x4 ../../mesh/lib_51_MBTLE_CORE.a(log.c.obj)
                0x0000000020002308                g_log_hex_digits
 .data.m_log_callback
                0x000000002000230c        0x4 ../../mesh/lib_51_MBTLE_CORE.a(log.c.obj)
                0x000000002000230c                m_log_callback
 .data.mem_listener.7415
                0x0000000020002310       0x10 ../../mesh/lib_51_MBTLE_CORE.a(net_state.c.obj)
 .data.mem_listener.7420
                0x0000000020002320       0x10 ../../mesh/lib_51_MBTLE_CORE.a(net_state.c.obj)
 .data.mem_listener.7434
                0x0000000020002330       0x10 ../../mesh/lib_51_MBTLE_CORE.a(net_state.c.obj)
 .data.m_lfclk_ppm
                0x0000000020002340        0x4 ../../mesh/lib_51_MBTLE_CORE.a(timeslot.c.obj)
 .data.m_negotiate_timeslot_length
                0x0000000020002344        0x4 ../../mesh/lib_51_MBTLE_CORE.a(timeslot.c.obj)
 .data.m_radio_request_earliest
                0x0000000020002348       0x10 ../../mesh/lib_51_MBTLE_CORE.a(timeslot.c.obj)
 .data.g_rng_function
                0x0000000020002358        0x4 ../../lib/micro-ecc/lib_51_UECC_LIB.a(uECC.c.obj)
 .data._impure_ptr
                0x000000002000235c        0x4 /usr/bin/../lib/gcc/arm-none-eabi/6.3.1/../../../../arm-none-eabi/lib/thumb/v6-m/libg_nano.a(lib_a-impure.o)
                0x000000002000235c                _impure_ptr
 .data.impure_data
                0x0000000020002360       0x60 /usr/bin/../lib/gcc/arm-none-eabi/6.3.1/../../../../arm-none-eabi/lib/thumb/v6-m/libg_nano.a(lib_a-impure.o)
                0x00000000200023c0                . = ALIGN (0x4)
                0x00000000200023c0                PROVIDE (__preinit_array_start, .)
 *(.preinit_array)
                0x00000000200023c0                PROVIDE (__preinit_array_end, .)
                0x00000000200023c0                . = ALIGN (0x4)
                0x00000000200023c0                PROVIDE (__init_array_start, .)
 *(SORT(.init_array.*))
 *(.init_array)
 .init_array    0x00000000200023c0        0x4 /usr/bin/../lib/gcc/arm-none-eabi/6.3.1/thumb/v6-m/crtbegin.o
                0x00000000200023c4                PROVIDE (__init_array_end, .)
                0x00000000200023c4                . = ALIGN (0x4)
                [!provide]                        PROVIDE (__fini_array_start, .)
 *(SORT(.fini_array.*))
 *(.fini_array)
 .fini_array    0x00000000200023c4        0x4 /usr/bin/../lib/gcc/arm-none-eabi/6.3.1/thumb/v6-m/crtbegin.o
                [!provide]                        PROVIDE (__fini_array_end, .)
 *(.jcr*)
 .jcr           0x00000000200023c8        0x0 /usr/bin/../lib/gcc/arm-none-eabi/6.3.1/thumb/v6-m/crtbegin.o
 .jcr           0x00000000200023c8        0x4 /usr/bin/../lib/gcc/arm-none-eabi/6.3.1/thumb/v6-m/crtend.o
                0x00000000200023cc                . = ALIGN (0x4)
                0x00000000200023cc                __data_end__ = .

.igot.plt       0x00000000200023cc        0x0 load address 0x000000000002f898
 .igot.plt      0x00000000200023cc        0x0 /usr/bin/../lib/gcc/arm-none-eabi/6.3.1/thumb/v6-m/crtbegin.o

.bss            0x00000000200023d0     0x2b8c load address 0x000000000002f8a0
                0x00000000200023d0                . = ALIGN (0x4)
                0x00000000200023d0                __bss_start__ = .
 *(.bss*)
 .bss           0x00000000200023d0       0x1c /usr/bin/../lib/gcc/arm-none-eabi/6.3.1/thumb/v6-m/crtbegin.o
 .bss.m_appkey_handle
                0x00000000200023ec        0x2 CMakeFiles/51_pb_remote_server.dir/src/main.c.obj
 .bss.m_device_state
                0x00000000200023ee        0x1 CMakeFiles/51_pb_remote_server.dir/src/main.c.obj
 *fill*         0x00000000200023ef        0x1 
 .bss.m_devkey_handle
                0x00000000200023f0        0x2 CMakeFiles/51_pb_remote_server.dir/src/main.c.obj
 *fill*         0x00000000200023f2        0x2 
 .bss.m_evt_handler
                0x00000000200023f4        0x8 CMakeFiles/51_pb_remote_server.dir/src/main.c.obj
 .bss.m_netkey_handle
                0x00000000200023fc        0x2 CMakeFiles/51_pb_remote_server.dir/src/main.c.obj
 *fill*         0x00000000200023fe        0x2 
 .bss.m_prov_ctx
                0x0000000020002400      0x2c0 CMakeFiles/51_pb_remote_server.dir/src/main.c.obj
 .bss.m_provisioner_address_handle
                0x00000000200026c0        0x2 CMakeFiles/51_pb_remote_server.dir/src/main.c.obj
 *fill*         0x00000000200026c2        0x2 
 .bss.m_remote_server
                0x00000000200026c4      0x1a0 CMakeFiles/51_pb_remote_server.dir/src/main.c.obj
 .bss.private_key
                0x0000000020002864       0x20 CMakeFiles/51_pb_remote_server.dir/src/main.c.obj
 .bss.public_key
                0x0000000020002884       0x40 CMakeFiles/51_pb_remote_server.dir/src/main.c.obj
 .bss.m_event_handler
                0x00000000200028c4        0x8 CMakeFiles/51_pb_remote_server.dir/__/__/mesh/models/pb_remote/src/pb_remote_server.c.obj
 .bss.m_is_interrupting
                0x00000000200028cc        0x1 CMakeFiles/51_pb_remote_server.dir/__/__/mesh/models/pb_remote/src/pb_remote_server.c.obj
 *fill*         0x00000000200028cd        0x3 
 .bss.m_packet  0x00000000200028d0       0x41 CMakeFiles/51_pb_remote_server.dir/__/__/mesh/models/pb_remote/src/pb_remote_server.c.obj
 *fill*         0x0000000020002911        0x3 
 .bss.m_pbr_server_alt_event_queue
                0x0000000020002914       0x14 CMakeFiles/51_pb_remote_server.dir/__/__/mesh/models/pb_remote/src/pb_remote_server.c.obj
 .bss.m_pbr_server_alt_event_queue_buffer
                0x0000000020002928       0x90 CMakeFiles/51_pb_remote_server.dir/__/__/mesh/models/pb_remote/src/pb_remote_server.c.obj
 .bss.m_pbr_server_event_queue
                0x00000000200029b8       0x14 CMakeFiles/51_pb_remote_server.dir/__/__/mesh/models/pb_remote/src/pb_remote_server.c.obj
 .bss.m_pbr_server_event_queue_buffer
                0x00000000200029cc       0x90 CMakeFiles/51_pb_remote_server.dir/__/__/mesh/models/pb_remote/src/pb_remote_server.c.obj
 .bss.m_uuid_list
                0x0000000020002a5c       0x33 CMakeFiles/51_pb_remote_server.dir/__/__/mesh/models/pb_remote/src/pb_remote_server.c.obj
 *fill*         0x0000000020002a8f        0x1 
 .bss.mp_pb_remote_server_model
                0x0000000020002a90        0x4 CMakeFiles/51_pb_remote_server.dir/__/__/mesh/models/pb_remote/src/pb_remote_server.c.obj
 .bss.m_element_pool
                0x0000000020002a94        0x6 CMakeFiles/51_pb_remote_server.dir/__/__/mesh/src/access/access.c.obj
 *fill*         0x0000000020002a9a        0x2 
 .bss.m_evt_handler
                0x0000000020002a9c        0x8 CMakeFiles/51_pb_remote_server.dir/__/__/mesh/src/access/access.c.obj
 .bss.m_flash_manager
                0x0000000020002aa4       0x24 CMakeFiles/51_pb_remote_server.dir/__/__/mesh/src/access/access.c.obj
 .bss.m_flash_not_ready
                0x0000000020002ac8        0x1 CMakeFiles/51_pb_remote_server.dir/__/__/mesh/src/access/access.c.obj
 *fill*         0x0000000020002ac9        0x3 
 .bss.m_model_pool
                0x0000000020002acc       0x34 CMakeFiles/51_pb_remote_server.dir/__/__/mesh/src/access/access.c.obj
 .bss.m_subscription_list_pool
                0x0000000020002b00        0x8 CMakeFiles/51_pb_remote_server.dir/__/__/mesh/src/access/access.c.obj
 .bss.m_reliable
                0x0000000020002b08       0x44 CMakeFiles/51_pb_remote_server.dir/__/__/mesh/src/access/access_reliable.c.obj
 .bss.m_addr_nonvirtual_allocated
                0x0000000020002b4c        0x4 CMakeFiles/51_pb_remote_server.dir/__/__/mesh/src/access/device_state_manager.c.obj
 .bss.m_addr_nonvirtual_needs_flashing
                0x0000000020002b50        0x4 CMakeFiles/51_pb_remote_server.dir/__/__/mesh/src/access/device_state_manager.c.obj
 .bss.m_addr_unicast_allocated
                0x0000000020002b54        0x4 CMakeFiles/51_pb_remote_server.dir/__/__/mesh/src/access/device_state_manager.c.obj
 .bss.m_addr_unicast_needs_flashing
                0x0000000020002b58        0x4 CMakeFiles/51_pb_remote_server.dir/__/__/mesh/src/access/device_state_manager.c.obj
 .bss.m_addr_virtual_allocated
                0x0000000020002b5c        0x4 CMakeFiles/51_pb_remote_server.dir/__/__/mesh/src/access/device_state_manager.c.obj
 .bss.m_addr_virtual_needs_flashing
                0x0000000020002b60        0x4 CMakeFiles/51_pb_remote_server.dir/__/__/mesh/src/access/device_state_manager.c.obj
 .bss.m_addresses
                0x0000000020002b64       0x10 CMakeFiles/51_pb_remote_server.dir/__/__/mesh/src/access/device_state_manager.c.obj
 .bss.m_appkey_allocated
                0x0000000020002b74        0x4 CMakeFiles/51_pb_remote_server.dir/__/__/mesh/src/access/device_state_manager.c.obj
 .bss.m_appkey_needs_flashing
                0x0000000020002b78        0x4 CMakeFiles/51_pb_remote_server.dir/__/__/mesh/src/access/device_state_manager.c.obj
 .bss.m_appkeys
                0x0000000020002b7c       0x16 CMakeFiles/51_pb_remote_server.dir/__/__/mesh/src/access/device_state_manager.c.obj
 *fill*         0x0000000020002b92        0x2 
 .bss.m_devkey_allocated
                0x0000000020002b94        0x4 CMakeFiles/51_pb_remote_server.dir/__/__/mesh/src/access/device_state_manager.c.obj
 .bss.m_devkey_needs_flashing
                0x0000000020002b98        0x4 CMakeFiles/51_pb_remote_server.dir/__/__/mesh/src/access/device_state_manager.c.obj
 .bss.m_devkeys
                0x0000000020002b9c       0x16 CMakeFiles/51_pb_remote_server.dir/__/__/mesh/src/access/device_state_manager.c.obj
 .bss.m_flash_is_available
                0x0000000020002bb2        0x1 CMakeFiles/51_pb_remote_server.dir/__/__/mesh/src/access/device_state_manager.c.obj
 *fill*         0x0000000020002bb3        0x1 
 .bss.m_flash_manager
                0x0000000020002bb4       0x24 CMakeFiles/51_pb_remote_server.dir/__/__/mesh/src/access/device_state_manager.c.obj
 .bss.m_flash_mem_listener_update_all
                0x0000000020002bd8       0x10 CMakeFiles/51_pb_remote_server.dir/__/__/mesh/src/access/device_state_manager.c.obj
 .bss.m_has_primary_subnet
                0x0000000020002be8        0x1 CMakeFiles/51_pb_remote_server.dir/__/__/mesh/src/access/device_state_manager.c.obj
 *fill*         0x0000000020002be9        0x3 
 .bss.m_local_unicast_addr
                0x0000000020002bec        0x4 CMakeFiles/51_pb_remote_server.dir/__/__/mesh/src/access/device_state_manager.c.obj
 .bss.m_subnet_allocated
                0x0000000020002bf0        0x4 CMakeFiles/51_pb_remote_server.dir/__/__/mesh/src/access/device_state_manager.c.obj
 .bss.m_subnet_needs_flashing
                0x0000000020002bf4        0x4 CMakeFiles/51_pb_remote_server.dir/__/__/mesh/src/access/device_state_manager.c.obj
 .bss.m_subnets
                0x0000000020002bf8       0x5c CMakeFiles/51_pb_remote_server.dir/__/__/mesh/src/access/device_state_manager.c.obj
 .bss.m_virtual_addresses
                0x0000000020002c54       0x14 CMakeFiles/51_pb_remote_server.dir/__/__/mesh/src/access/device_state_manager.c.obj
 .bss.m_ble_evt_buffer
                0x0000000020002c68       0x47 CMakeFiles/51_pb_remote_server.dir/__/nrf_mesh_sdk.c.obj
 *fill*         0x0000000020002caf        0x1 
 .bss.mp_bearer_head
                0x0000000020002cb0        0x4 ../../mesh/lib_51_MBTLE_PB_ADV_EE.a(prov_bearer_adv.c.obj)
 .bss.m_offload_ecdh
                0x0000000020002cb4        0x1 ../../mesh/lib_51_MBTLE_PB_ADV_EE.a(prov_utils.c.obj)
 *fill*         0x0000000020002cb5        0x3 
 .bss.m_default_gap_addr
                0x0000000020002cb8        0x7 ../../mesh/lib_51_MBTLE_CORE.a(bearer_adv.c.obj)
 .bss.m_is_scanning
                0x0000000020002cbf        0x1 ../../mesh/lib_51_MBTLE_CORE.a(bearer_adv.c.obj)
 .bss.m_scan_ch
                0x0000000020002cc0        0x1 ../../mesh/lib_51_MBTLE_CORE.a(bearer_adv.c.obj)
 *fill*         0x0000000020002cc1        0x3 
 .bss.m_scan_config
                0x0000000020002cc4        0xc ../../mesh/lib_51_MBTLE_CORE.a(bearer_adv.c.obj)
 .bss.m_scan_evt
                0x0000000020002cd0       0x18 ../../mesh/lib_51_MBTLE_CORE.a(bearer_adv.c.obj)
 .bss.m_scan_window_end_evt
                0x0000000020002ce8       0x18 ../../mesh/lib_51_MBTLE_CORE.a(bearer_adv.c.obj)
 .bss.m_pool    0x0000000020002d00     0x1000 ../../mesh/lib_51_MBTLE_CORE.a(packet_mgr.c.obj)
 .bss.mp_free_head
                0x0000000020003d00        0x4 ../../mesh/lib_51_MBTLE_CORE.a(packet_mgr.c.obj)
 .bss.m_idle_cb
                0x0000000020003d04        0x4 ../../mesh/lib_51_MBTLE_CORE.a(radio.c.obj)
 .bss.m_radio_config
                0x0000000020003d08        0x8 ../../mesh/lib_51_MBTLE_CORE.a(radio.c.obj)
 .bss.m_radio_fifo
                0x0000000020003d10       0x14 ../../mesh/lib_51_MBTLE_CORE.a(radio.c.obj)
 .bss.m_radio_fifo_queue
                0x0000000020003d24       0x60 ../../mesh/lib_51_MBTLE_CORE.a(radio.c.obj)
 .bss.m_rx_cb   0x0000000020003d84        0x4 ../../mesh/lib_51_MBTLE_CORE.a(radio.c.obj)
 .bss.m_tx_cb   0x0000000020003d88        0x4 ../../mesh/lib_51_MBTLE_CORE.a(radio.c.obj)
 .bss.s_fifo_reserved.6682
                0x0000000020003d8c        0x4 ../../mesh/lib_51_MBTLE_CORE.a(radio.c.obj)
 .bss.m_attributes
                0x0000000020003d90        0x3 ../../mesh/lib_51_MBTLE_CORE.a(timer.c.obj)
 *fill*         0x0000000020003d93        0x1 
 .bss.m_callbacks
                0x0000000020003d94        0xc ../../mesh/lib_51_MBTLE_CORE.a(timer.c.obj)
 .bss.m_is_in_ts
                0x0000000020003da0        0x1 ../../mesh/lib_51_MBTLE_CORE.a(timer.c.obj)
 *fill*         0x0000000020003da1        0x3 
 .bss.m_reference_time
                0x0000000020003da4        0x4 ../../mesh/lib_51_MBTLE_CORE.a(timer.c.obj)
 .bss.m_timeouts
                0x0000000020003da8        0xc ../../mesh/lib_51_MBTLE_CORE.a(timer.c.obj)
 .bss.m_timer_mut
                0x0000000020003db4        0x4 ../../mesh/lib_51_MBTLE_CORE.a(timer.c.obj)
 .bss.m_ts_end_time
                0x0000000020003db8        0x4 ../../mesh/lib_51_MBTLE_CORE.a(timer.c.obj)
 .bss.mp_ppi_tasks
                0x0000000020003dbc        0xc ../../mesh/lib_51_MBTLE_CORE.a(timer.c.obj)
 .bss.m_event_flag
                0x0000000020003dc8        0x4 ../../mesh/lib_51_MBTLE_CORE.a(timer_scheduler.c.obj)
 .bss.m_scheduler
                0x0000000020003dcc       0x10 ../../mesh/lib_51_MBTLE_CORE.a(timer_scheduler.c.obj)
 .bss.m_advertiser
                0x0000000020003ddc       0xe0 ../../mesh/lib_51_MBTLE_CORE.a(beacon.c.obj)
 .bss.m_addr_filter
                0x0000000020003ebc        0x8 ../../mesh/lib_51_MBTLE_CORE.a(bearer.c.obj)
 .bss.m_adtype_filter
                0x0000000020003ec4       0x20 ../../mesh/lib_51_MBTLE_CORE.a(bearer.c.obj)
 .bss.m_adtype_filtering
                0x0000000020003ee4        0x1 ../../mesh/lib_51_MBTLE_CORE.a(bearer.c.obj)
 *fill*         0x0000000020003ee5        0x3 
 .bss.m_regular_advertiser
                0x0000000020003ee8       0xe0 ../../mesh/lib_51_MBTLE_CORE.a(bearer.c.obj)
 .bss.m_rx_fifo
                0x0000000020003fc8       0x14 ../../mesh/lib_51_MBTLE_CORE.a(bearer.c.obj)
 .bss.m_rx_fifo_buffer
                0x0000000020003fdc       0xa0 ../../mesh/lib_51_MBTLE_CORE.a(bearer.c.obj)
 .bss.packets_accepted
                0x000000002000407c        0x4 ../../mesh/lib_51_MBTLE_CORE.a(bearer.c.obj)
 .bss.packets_dropped_invalid_addr
                0x0000000020004080        0x4 ../../mesh/lib_51_MBTLE_CORE.a(bearer.c.obj)
 .bss.packets_dropped_invalid_adtype
                0x0000000020004084        0x4 ../../mesh/lib_51_MBTLE_CORE.a(bearer.c.obj)
 .bss.packets_dropped_invalid_length
                0x0000000020004088        0x4 ../../mesh/lib_51_MBTLE_CORE.a(bearer.c.obj)
 .bss.m_bearer_event_fifo
                0x000000002000408c       0x14 ../../mesh/lib_51_MBTLE_CORE.a(bearer_event.c.obj)
 .bss.m_bearer_event_fifo_buffer
                0x00000000200040a0      0x100 ../../mesh/lib_51_MBTLE_CORE.a(bearer_event.c.obj)
 .bss.m_critical
                0x00000000200041a0        0x4 ../../mesh/lib_51_MBTLE_CORE.a(bearer_event.c.obj)
 .bss.m_flag_count
                0x00000000200041a4        0x4 ../../mesh/lib_51_MBTLE_CORE.a(bearer_event.c.obj)
 .bss.m_flag_event_callbacks
                0x00000000200041a8       0x10 ../../mesh/lib_51_MBTLE_CORE.a(bearer_event.c.obj)
 .bss.m_flags   0x00000000200041b8        0x4 ../../mesh/lib_51_MBTLE_CORE.a(bearer_event.c.obj)
 .bss.m_uuid    0x00000000200041bc       0x10 ../../mesh/lib_51_MBTLE_CORE.a(nrf_mesh_configure.c.obj)
 .bss.mp_evt_handlers_head
                0x00000000200041cc        0x4 ../../mesh/lib_51_MBTLE_CORE.a(event.c.obj)
 .bss.m_beacon_salt
                0x00000000200041d0       0x10 ../../mesh/lib_51_MBTLE_CORE.a(net_beacon.c.obj)
 .bss.m_enabled
                0x00000000200041e0        0x1 ../../mesh/lib_51_MBTLE_CORE.a(net_beacon.c.obj)
 *fill*         0x00000000200041e1        0x3 
 .bss.m_tx_event
                0x00000000200041e4       0x18 ../../mesh/lib_51_MBTLE_CORE.a(net_beacon.c.obj)
 .bss.lock_count.7474
                0x00000000200041fc        0x4 ../../mesh/lib_51_MBTLE_CORE.a(net_state.c.obj)
 .bss.m_flash_manager
                0x0000000020004200       0x24 ../../mesh/lib_51_MBTLE_CORE.a(net_state.c.obj)
 .bss.m_iv_update_timer
                0x0000000020004224       0x18 ../../mesh/lib_51_MBTLE_CORE.a(net_state.c.obj)
 .bss.m_net_state
                0x000000002000423c       0x14 ../../mesh/lib_51_MBTLE_CORE.a(net_state.c.obj)
 .bss.m_seqnum_allocation_in_progress
                0x0000000020004250        0x1 ../../mesh/lib_51_MBTLE_CORE.a(net_state.c.obj)
 .bss.m_test_mode
                0x0000000020004251        0x1 ../../mesh/lib_51_MBTLE_CORE.a(net_state.c.obj)
 .bss.m_is_enabled
                0x0000000020004252        0x1 ../../mesh/lib_51_MBTLE_CORE.a(nrf_mesh.c.obj)
 .bss.m_is_initialized
                0x0000000020004253        0x1 ../../mesh/lib_51_MBTLE_CORE.a(nrf_mesh.c.obj)
 .bss.m_rx_cb   0x0000000020004254        0x4 ../../mesh/lib_51_MBTLE_CORE.a(nrf_mesh.c.obj)
 .bss.m_current_time
                0x0000000020004258        0x4 ../../mesh/lib_51_MBTLE_CORE.a(ticker.c.obj)
 .bss.m_timer   0x000000002000425c       0x18 ../../mesh/lib_51_MBTLE_CORE.a(ticker.c.obj)
 .bss.m_sar_alloc
                0x0000000020004274        0x4 ../../mesh/lib_51_MBTLE_CORE.a(transport.c.obj)
 .bss.m_sar_release
                0x0000000020004278        0x4 ../../mesh/lib_51_MBTLE_CORE.a(transport.c.obj)
 .bss.m_transport_pkt_buf
                0x000000002000427c       0x13 ../../mesh/lib_51_MBTLE_CORE.a(transport.c.obj)
 *fill*         0x000000002000428f        0x1 
 .bss.m_trs_config
                0x0000000020004290       0x14 ../../mesh/lib_51_MBTLE_CORE.a(transport.c.obj)
 .bss.m_trs_sar_ack_timeout
                0x00000000200042a4        0x1 ../../mesh/lib_51_MBTLE_CORE.a(transport.c.obj)
 .bss.m_trs_sar_ack_timer_active
                0x00000000200042a5        0x1 ../../mesh/lib_51_MBTLE_CORE.a(transport.c.obj)
 *fill*         0x00000000200042a6        0x2 
 .bss.m_trs_sar_rx_ack_timer
                0x00000000200042a8       0x18 ../../mesh/lib_51_MBTLE_CORE.a(transport.c.obj)
 .bss.m_trs_sar_rx_sessions
                0x00000000200042c0       0x50 ../../mesh/lib_51_MBTLE_CORE.a(transport.c.obj)
 .bss.m_trs_sar_session_timer
                0x0000000020004310       0x18 ../../mesh/lib_51_MBTLE_CORE.a(transport.c.obj)
 .bss.m_trs_sar_tx_sessions
                0x0000000020004328       0x50 ../../mesh/lib_51_MBTLE_CORE.a(transport.c.obj)
 .bss.m_trs_sar_tx_timeout
                0x0000000020004378        0x1 ../../mesh/lib_51_MBTLE_CORE.a(transport.c.obj)
 *fill*         0x0000000020004379        0x3 
 .bss.m_trs_sar_tx_timer
                0x000000002000437c       0x18 ../../mesh/lib_51_MBTLE_CORE.a(transport.c.obj)
 .bss.m_internal_event_fifo
                0x0000000020004394       0x14 ../../mesh/lib_51_MBTLE_CORE.a(internal_event.c.obj)
 .bss.m_internal_event_initialized
                0x00000000200043a8        0x1 ../../mesh/lib_51_MBTLE_CORE.a(internal_event.c.obj)
 *fill*         0x00000000200043a9        0x3 
 .bss.m_report_cb
                0x00000000200043ac        0x4 ../../mesh/lib_51_MBTLE_CORE.a(internal_event.c.obj)
 .bss.m_action_queue
                0x00000000200043b0        0xc ../../mesh/lib_51_MBTLE_CORE.a(flash_manager.c.obj)
 .bss.m_action_queue_buffer
                0x00000000200043bc      0x104 ../../mesh/lib_51_MBTLE_CORE.a(flash_manager.c.obj)
 .bss.m_action_state
                0x00000000200044c0        0x1 ../../mesh/lib_51_MBTLE_CORE.a(flash_manager.c.obj)
 *fill*         0x00000000200044c1        0x3 
 .bss.m_memory_listener_queue
                0x00000000200044c4        0x8 ../../mesh/lib_51_MBTLE_CORE.a(flash_manager.c.obj)
 .bss.m_processing_flag
                0x00000000200044cc        0x4 ../../mesh/lib_51_MBTLE_CORE.a(flash_manager.c.obj)
 .bss.m_state   0x00000000200044d0        0x1 ../../mesh/lib_51_MBTLE_CORE.a(flash_manager.c.obj)
 *fill*         0x00000000200044d1        0x1 
 .bss.m_token   0x00000000200044d2        0x2 ../../mesh/lib_51_MBTLE_CORE.a(flash_manager.c.obj)
 .bss.p_current.8667
                0x00000000200044d4        0x4 ../../mesh/lib_51_MBTLE_CORE.a(flash_manager.c.obj)
 .bss.result.8668
                0x00000000200044d8        0x1 ../../mesh/lib_51_MBTLE_CORE.a(flash_manager.c.obj)
 *fill*         0x00000000200044d9        0x3 
 .bss.m_defrag  0x00000000200044dc       0x1c ../../mesh/lib_51_MBTLE_CORE.a(flash_manager_defrag.c.obj)
 .bss.m_token   0x00000000200044f8        0x2 ../../mesh/lib_51_MBTLE_CORE.a(flash_manager_defrag.c.obj)
 *fill*         0x00000000200044fa        0x2 
 .bss.mp_recovery_area
                0x00000000200044fc        0x4 ../../mesh/lib_51_MBTLE_CORE.a(flash_manager_defrag.c.obj)
 .bss.p_null_ptr.7732
                0x0000000020004500        0x4 ../../mesh/lib_51_MBTLE_CORE.a(flash_manager_defrag.c.obj)
 .bss.m_end_timer_triggered
                0x0000000020004504        0x1 ../../mesh/lib_51_MBTLE_CORE.a(timeslot.c.obj)
 .bss.m_framework_initialized
                0x0000000020004505        0x1 ../../mesh/lib_51_MBTLE_CORE.a(timeslot.c.obj)
 .bss.m_is_in_callback
                0x0000000020004506        0x1 ../../mesh/lib_51_MBTLE_CORE.a(timeslot.c.obj)
 .bss.m_is_in_timeslot
                0x0000000020004507        0x1 ../../mesh/lib_51_MBTLE_CORE.a(timeslot.c.obj)
 .bss.m_ret_param
                0x0000000020004508        0x8 ../../mesh/lib_51_MBTLE_CORE.a(timeslot.c.obj)
 .bss.m_start_time
                0x0000000020004510        0x4 ../../mesh/lib_51_MBTLE_CORE.a(timeslot.c.obj)
 .bss.m_timeslot_count
                0x0000000020004514        0x4 ../../mesh/lib_51_MBTLE_CORE.a(timeslot.c.obj)
 .bss.m_timeslot_forced_command
                0x0000000020004518        0x1 ../../mesh/lib_51_MBTLE_CORE.a(timeslot.c.obj)
 *fill*         0x0000000020004519        0x3 
 .bss.m_timeslot_length
                0x000000002000451c        0x4 ../../mesh/lib_51_MBTLE_CORE.a(timeslot.c.obj)
 .bss.requested_extend_time.8330
                0x0000000020004520        0x4 ../../mesh/lib_51_MBTLE_CORE.a(timeslot.c.obj)
 *fill*         0x0000000020004524        0x4 
 .bss.s_last_rtc_value.8302
                0x0000000020004528        0x8 ../../mesh/lib_51_MBTLE_CORE.a(timeslot.c.obj)
 .bss.m_128buf  0x0000000020004530       0x10 ../../mesh/lib_51_MBTLE_CORE.a(aes_cmac.c.obj)
 .bss.m_subkey1
                0x0000000020004540       0x10 ../../mesh/lib_51_MBTLE_CORE.a(aes_cmac.c.obj)
 .bss.m_subkey2
                0x0000000020004550       0x10 ../../mesh/lib_51_MBTLE_CORE.a(aes_cmac.c.obj)
 .bss.m_msg_cache
                0x0000000020004560      0x100 ../../mesh/lib_51_MBTLE_CORE.a(msg_cache.c.obj)
 .bss.m_msg_cache_head
                0x0000000020004660        0x4 ../../mesh/lib_51_MBTLE_CORE.a(msg_cache.c.obj)
 .bss.m_relay_check_cb
                0x0000000020004664        0x4 ../../mesh/lib_51_MBTLE_CORE.a(network.c.obj)
 .bss.m_relay_enable
                0x0000000020004668        0x1 ../../mesh/lib_51_MBTLE_CORE.a(network.c.obj)
 .bss.m_relay_retransmit_count
                0x0000000020004669        0x1 ../../mesh/lib_51_MBTLE_CORE.a(network.c.obj)
 .bss.m_cache_full
                0x000000002000466a        0x1 ../../mesh/lib_51_MBTLE_CORE.a(replay_cache.c.obj)
 .bss.m_cache_index
                0x000000002000466b        0x1 ../../mesh/lib_51_MBTLE_CORE.a(replay_cache.c.obj)
 .bss.m_replay_cache
                0x000000002000466c      0x200 ../../mesh/lib_51_MBTLE_CORE.a(replay_cache.c.obj)
 .bss.m_event_flag
                0x000000002000486c        0x4 ../../mesh/lib_51_MBTLE_CORE.a(mesh_flash.c.obj)
 .bss.m_suspended
                0x0000000020004870        0x1 ../../mesh/lib_51_MBTLE_CORE.a(mesh_flash.c.obj)
 *fill*         0x0000000020004871        0x3 
 .bss.m_users   0x0000000020004874      0x1d4 ../../mesh/lib_51_MBTLE_CORE.a(mesh_flash.c.obj)
 .bss._acDownBuffer
                0x0000000020004a48       0x80 ../../lib/rtt/lib_51_RTT_LIB.a(SEGGER_RTT.c.obj)
 .bss._acUpBuffer
                0x0000000020004ac8      0x400 ../../lib/rtt/lib_51_RTT_LIB.a(SEGGER_RTT.c.obj)
 .bss.__malloc_free_list
                0x0000000020004ec8        0x4 /usr/bin/../lib/gcc/arm-none-eabi/6.3.1/../../../../arm-none-eabi/lib/thumb/v6-m/libg_nano.a(lib_a-nano-mallocr.o)
                0x0000000020004ec8                __malloc_free_list
 .bss.__malloc_sbrk_start
                0x0000000020004ecc        0x4 /usr/bin/../lib/gcc/arm-none-eabi/6.3.1/../../../../arm-none-eabi/lib/thumb/v6-m/libg_nano.a(lib_a-nano-mallocr.o)
                0x0000000020004ecc                __malloc_sbrk_start
 .bss.heap_end.4116
                0x0000000020004ed0        0x4 /usr/bin/../lib/gcc/arm-none-eabi/6.3.1/../../../../arm-none-eabi/lib/thumb/v6-m/libnosys.a(sbrk.o)
 *(COMMON)
 COMMON         0x0000000020004ed4        0x8 CMakeFiles/51_pb_remote_server.dir/__/nrf_mesh_sdk.c.obj
                0x0000000020004ed4                nrf_nvic_state
 COMMON         0x0000000020004edc        0x4 ../../mesh/lib_51_MBTLE_CORE.a(nrf_mesh.c.obj)
                0x0000000020004edc                m_assertion_handler
 COMMON         0x0000000020004ee0       0x78 ../../lib/rtt/lib_51_RTT_LIB.a(SEGGER_RTT.c.obj)
                0x0000000020004ee0                _SEGGER_RTT
 COMMON         0x0000000020004f58        0x4 /usr/bin/../lib/gcc/arm-none-eabi/6.3.1/../../../../arm-none-eabi/lib/thumb/v6-m/libg_nano.a(lib_a-reent.o)
                0x0000000020004f58                errno
                0x0000000020004f5c                . = ALIGN (0x4)
                0x0000000020004f5c                __bss_end__ = .

.heap           0x0000000020004f60       0x80
                0x0000000020004f60                __HeapBase = .
                0x0000000020004f60                __end__ = .
                0x0000000020004f60                PROVIDE (end, .)
 *(.heap*)
 .heap          0x0000000020004f60       0x80 CMakeFiles/51_pb_remote_server.dir/__/__/toolchain/gcc/gcc_startup_nrf51.S.obj
                0x0000000020004fe0                __HeapLimit = .

.stack_dummy    0x0000000020004f60      0x800
 *(.stack*)
 .stack         0x0000000020004f60      0x800 CMakeFiles/51_pb_remote_server.dir/__/__/toolchain/gcc/gcc_startup_nrf51.S.obj
                0x0000000020007d00                __StackTop = (ORIGIN (RAM) + LENGTH (RAM))
                0x0000000020007500                __StackLimit = (__StackTop - SIZEOF (.stack_dummy))
                0x0000000020007d00                PROVIDE (__stack, __StackTop)
                0x0000000000000001                ASSERT ((__StackLimit >= __HeapLimit), region RAM overflowed with stack)
OUTPUT(51_pb_remote_server.elf elf32-littlearm)

.ARM.attributes
                0x0000000000000000       0x28
 .ARM.attributes
                0x0000000000000000       0x1e /usr/bin/../lib/gcc/arm-none-eabi/6.3.1/thumb/v6-m/crti.o
 .ARM.attributes
                0x000000000000001e       0x2c /usr/bin/../lib/gcc/arm-none-eabi/6.3.1/thumb/v6-m/crtbegin.o
 .ARM.attributes
                0x000000000000004a       0x1b /usr/bin/../lib/gcc/arm-none-eabi/6.3.1/../../../../arm-none-eabi/lib/thumb/v6-m/crt0.o
 .ARM.attributes
                0x0000000000000065       0x31 CMakeFiles/51_pb_remote_server.dir/src/main.c.obj
 .ARM.attributes
                0x0000000000000096       0x31 CMakeFiles/51_pb_remote_server.dir/__/__/mesh/models/pb_remote/src/pb_remote_server.c.obj
 .ARM.attributes
                0x00000000000000c7       0x31 CMakeFiles/51_pb_remote_server.dir/__/__/mesh/src/access/access.c.obj
 .ARM.attributes
                0x00000000000000f8       0x31 CMakeFiles/51_pb_remote_server.dir/__/__/mesh/src/access/access_reliable.c.obj
 .ARM.attributes
                0x0000000000000129       0x31 CMakeFiles/51_pb_remote_server.dir/__/__/mesh/src/access/device_state_manager.c.obj
 .ARM.attributes
                0x000000000000015a       0x31 CMakeFiles/51_pb_remote_server.dir/__/nrf_mesh_sdk.c.obj
 .ARM.attributes
                0x000000000000018b       0x1b CMakeFiles/51_pb_remote_server.dir/__/__/toolchain/gcc/gcc_startup_nrf51.S.obj
 .ARM.attributes
                0x00000000000001a6       0x31 CMakeFiles/51_pb_remote_server.dir/__/__/toolchain/system_nrf51.c.obj
 .ARM.attributes
                0x00000000000001d7       0x31 ../../mesh/lib_51_MBTLE_PB_ADV_EE.a(provisioning.c.obj)
 .ARM.attributes
                0x0000000000000208       0x31 ../../mesh/lib_51_MBTLE_PB_ADV_EE.a(nrf_mesh_prov.c.obj)
 .ARM.attributes
                0x0000000000000239       0x31 ../../mesh/lib_51_MBTLE_PB_ADV_EE.a(prov_bearer_adv.c.obj)
 .ARM.attributes
                0x000000000000026a       0x31 ../../mesh/lib_51_MBTLE_PB_ADV_EE.a(prov_utils.c.obj)
 .ARM.attributes
                0x000000000000029b       0x31 ../../mesh/lib_51_MBTLE_PB_ADV_EE.a(prov_beacon.c.obj)
 .ARM.attributes
                0x00000000000002cc       0x31 ../../mesh/lib_51_MBTLE_PB_ADV_EE.a(prov_provisionee.c.obj)
 .ARM.attributes
                0x00000000000002fd       0x31 ../../mesh/lib_51_MBTLE_CORE.a(nrf_mesh_weak.c.obj)
 .ARM.attributes
                0x000000000000032e       0x31 ../../mesh/lib_51_MBTLE_CORE.a(bearer_adv.c.obj)
 .ARM.attributes
                0x000000000000035f       0x31 ../../mesh/lib_51_MBTLE_CORE.a(fifo.c.obj)
 .ARM.attributes
                0x0000000000000390       0x31 ../../mesh/lib_51_MBTLE_CORE.a(packet_mgr.c.obj)
 .ARM.attributes
                0x00000000000003c1       0x31 ../../mesh/lib_51_MBTLE_CORE.a(radio.c.obj)
 .ARM.attributes
                0x00000000000003f2       0x31 ../../mesh/lib_51_MBTLE_CORE.a(timer.c.obj)
 .ARM.attributes
                0x0000000000000423       0x31 ../../mesh/lib_51_MBTLE_CORE.a(timer_scheduler.c.obj)
 .ARM.attributes
                0x0000000000000454       0x31 ../../mesh/lib_51_MBTLE_CORE.a(beacon.c.obj)
 .ARM.attributes
                0x0000000000000485       0x31 ../../mesh/lib_51_MBTLE_CORE.a(bearer.c.obj)
 .ARM.attributes
                0x00000000000004b6       0x31 ../../mesh/lib_51_MBTLE_CORE.a(bearer_event.c.obj)
 .ARM.attributes
                0x00000000000004e7       0x31 ../../mesh/lib_51_MBTLE_CORE.a(nrf_mesh_configure.c.obj)
 .ARM.attributes
                0x0000000000000518       0x31 ../../mesh/lib_51_MBTLE_CORE.a(enc.c.obj)
 .ARM.attributes
                0x0000000000000549       0x31 ../../mesh/lib_51_MBTLE_CORE.a(event.c.obj)
 .ARM.attributes
                0x000000000000057a       0x31 ../../mesh/lib_51_MBTLE_CORE.a(log.c.obj)
 .ARM.attributes
                0x00000000000005ab       0x31 ../../mesh/lib_51_MBTLE_CORE.a(net_beacon.c.obj)
 .ARM.attributes
                0x00000000000005dc       0x31 ../../mesh/lib_51_MBTLE_CORE.a(net_state.c.obj)
 .ARM.attributes
                0x000000000000060d       0x31 ../../mesh/lib_51_MBTLE_CORE.a(nrf_mesh.c.obj)
 .ARM.attributes
                0x000000000000063e       0x31 ../../mesh/lib_51_MBTLE_CORE.a(nrf_mesh_keygen.c.obj)
 .ARM.attributes
                0x000000000000066f       0x31 ../../mesh/lib_51_MBTLE_CORE.a(nrf_mesh_utils.c.obj)
 .ARM.attributes
                0x00000000000006a0       0x31 ../../mesh/lib_51_MBTLE_CORE.a(radio_config.c.obj)
 .ARM.attributes
                0x00000000000006d1       0x31 ../../mesh/lib_51_MBTLE_CORE.a(rand.c.obj)
 .ARM.attributes
                0x0000000000000702       0x31 ../../mesh/lib_51_MBTLE_CORE.a(ticker.c.obj)
 .ARM.attributes
                0x0000000000000733       0x31 ../../mesh/lib_51_MBTLE_CORE.a(transport.c.obj)
 .ARM.attributes
                0x0000000000000764       0x31 ../../mesh/lib_51_MBTLE_CORE.a(internal_event.c.obj)
 .ARM.attributes
                0x0000000000000795       0x31 ../../mesh/lib_51_MBTLE_CORE.a(flash_manager.c.obj)
 .ARM.attributes
                0x00000000000007c6       0x31 ../../mesh/lib_51_MBTLE_CORE.a(flash_manager_defrag.c.obj)
 .ARM.attributes
                0x00000000000007f7       0x31 ../../mesh/lib_51_MBTLE_CORE.a(flash_manager_internal.c.obj)
 .ARM.attributes
                0x0000000000000828       0x31 ../../mesh/lib_51_MBTLE_CORE.a(aes.c.obj)
 .ARM.attributes
                0x0000000000000859       0x31 ../../mesh/lib_51_MBTLE_CORE.a(queue.c.obj)
 .ARM.attributes
                0x000000000000088a       0x31 ../../mesh/lib_51_MBTLE_CORE.a(timeslot.c.obj)
 .ARM.attributes
                0x00000000000008bb       0x31 ../../mesh/lib_51_MBTLE_CORE.a(aes_cmac.c.obj)
 .ARM.attributes
                0x00000000000008ec       0x31 ../../mesh/lib_51_MBTLE_CORE.a(ccm_soft.c.obj)
 .ARM.attributes
                0x000000000000091d       0x31 ../../mesh/lib_51_MBTLE_CORE.a(msg_cache.c.obj)
 .ARM.attributes
                0x000000000000094e       0x31 ../../mesh/lib_51_MBTLE_CORE.a(network.c.obj)
 .ARM.attributes
                0x000000000000097f       0x31 ../../mesh/lib_51_MBTLE_CORE.a(packet.c.obj)
 .ARM.attributes
                0x00000000000009b0       0x31 ../../mesh/lib_51_MBTLE_CORE.a(packet_buffer.c.obj)
 .ARM.attributes
                0x00000000000009e1       0x31 ../../mesh/lib_51_MBTLE_CORE.a(replay_cache.c.obj)
 .ARM.attributes
                0x0000000000000a12       0x31 ../../mesh/lib_51_MBTLE_CORE.a(mesh_flash.c.obj)
 .ARM.attributes
                0x0000000000000a43       0x31 ../../mesh/lib_51_MBTLE_CORE.a(nrf_flash.c.obj)
 .ARM.attributes
                0x0000000000000a74       0x31 ../../mesh/lib_51_MBTLE_CORE.a(msqueue.c.obj)
 .ARM.attributes
                0x0000000000000aa5       0x31 ../../lib/micro-ecc/lib_51_UECC_LIB.a(uECC.c.obj)
 .ARM.attributes
                0x0000000000000ad6       0x31 ../../lib/rtt/lib_51_RTT_LIB.a(SEGGER_RTT.c.obj)
 .ARM.attributes
                0x0000000000000b07       0x31 ../../lib/rtt/lib_51_RTT_LIB.a(SEGGER_RTT_printf.c.obj)
 .ARM.attributes
                0x0000000000000b38       0x1e /usr/bin/../lib/gcc/arm-none-eabi/6.3.1/thumb/v6-m/libgcc.a(_udivsi3.o)
 .ARM.attributes
                0x0000000000000b56       0x1e /usr/bin/../lib/gcc/arm-none-eabi/6.3.1/thumb/v6-m/libgcc.a(_divsi3.o)
 .ARM.attributes
                0x0000000000000b74       0x1e /usr/bin/../lib/gcc/arm-none-eabi/6.3.1/thumb/v6-m/libgcc.a(_dvmd_tls.o)
 .ARM.attributes
                0x0000000000000b92       0x2c /usr/bin/../lib/gcc/arm-none-eabi/6.3.1/thumb/v6-m/libgcc.a(_muldi3.o)
 .ARM.attributes
                0x0000000000000bbe       0x2c /usr/bin/../lib/gcc/arm-none-eabi/6.3.1/../../../../arm-none-eabi/lib/thumb/v6-m/libg_nano.a(lib_a-exit.o)
 .ARM.attributes
                0x0000000000000bea       0x2c /usr/bin/../lib/gcc/arm-none-eabi/6.3.1/../../../../arm-none-eabi/lib/thumb/v6-m/libg_nano.a(lib_a-impure.o)
 .ARM.attributes
                0x0000000000000c16       0x2c /usr/bin/../lib/gcc/arm-none-eabi/6.3.1/../../../../arm-none-eabi/lib/thumb/v6-m/libg_nano.a(lib_a-init.o)
 .ARM.attributes
                0x0000000000000c42       0x2c /usr/bin/../lib/gcc/arm-none-eabi/6.3.1/../../../../arm-none-eabi/lib/thumb/v6-m/libg_nano.a(lib_a-malloc.o)
 .ARM.attributes
                0x0000000000000c6e       0x2c /usr/bin/../lib/gcc/arm-none-eabi/6.3.1/../../../../arm-none-eabi/lib/thumb/v6-m/libg_nano.a(lib_a-memcmp.o)
 .ARM.attributes
                0x0000000000000c9a       0x2c /usr/bin/../lib/gcc/arm-none-eabi/6.3.1/../../../../arm-none-eabi/lib/thumb/v6-m/libg_nano.a(lib_a-memcpy-stub.o)
 .ARM.attributes
                0x0000000000000cc6       0x2c /usr/bin/../lib/gcc/arm-none-eabi/6.3.1/../../../../arm-none-eabi/lib/thumb/v6-m/libg_nano.a(lib_a-memset.o)
 .ARM.attributes
                0x0000000000000cf2       0x2c /usr/bin/../lib/gcc/arm-none-eabi/6.3.1/../../../../arm-none-eabi/lib/thumb/v6-m/libg_nano.a(lib_a-nano-freer.o)
 .ARM.attributes
                0x0000000000000d1e       0x2c /usr/bin/../lib/gcc/arm-none-eabi/6.3.1/../../../../arm-none-eabi/lib/thumb/v6-m/libg_nano.a(lib_a-nano-mallocr.o)
 .ARM.attributes
                0x0000000000000d4a       0x2c /usr/bin/../lib/gcc/arm-none-eabi/6.3.1/../../../../arm-none-eabi/lib/thumb/v6-m/libg_nano.a(lib_a-sbrkr.o)
 .ARM.attributes
                0x0000000000000d76       0x2c /usr/bin/../lib/gcc/arm-none-eabi/6.3.1/../../../../arm-none-eabi/lib/thumb/v6-m/libg_nano.a(lib_a-strcpy.o)
 .ARM.attributes
                0x0000000000000da2       0x1c /usr/bin/../lib/gcc/arm-none-eabi/6.3.1/../../../../arm-none-eabi/lib/thumb/v6-m/libg_nano.a(lib_a-strlen.o)
 .ARM.attributes
                0x0000000000000dbe       0x2c /usr/bin/../lib/gcc/arm-none-eabi/6.3.1/../../../../arm-none-eabi/lib/thumb/v6-m/libg_nano.a(lib_a-strrchr.o)
 .ARM.attributes
                0x0000000000000dea       0x2c /usr/bin/../lib/gcc/arm-none-eabi/6.3.1/../../../../arm-none-eabi/lib/thumb/v6-m/libg_nano.a(lib_a-mlock.o)
 .ARM.attributes
                0x0000000000000e16       0x2c /usr/bin/../lib/gcc/arm-none-eabi/6.3.1/../../../../arm-none-eabi/lib/thumb/v6-m/libg_nano.a(lib_a-reent.o)
 .ARM.attributes
                0x0000000000000e42       0x2c /usr/bin/../lib/gcc/arm-none-eabi/6.3.1/../../../../arm-none-eabi/lib/thumb/v6-m/libg_nano.a(lib_a-strchr.o)
 .ARM.attributes
                0x0000000000000e6e       0x2c /usr/bin/../lib/gcc/arm-none-eabi/6.3.1/thumb/v6-m/crtend.o
 .ARM.attributes
                0x0000000000000e9a       0x1e /usr/bin/../lib/gcc/arm-none-eabi/6.3.1/thumb/v6-m/crtn.o
 .ARM.attributes
                0x0000000000000eb8       0x2c /usr/bin/../lib/gcc/arm-none-eabi/6.3.1/../../../../arm-none-eabi/lib/thumb/v6-m/libnosys.a(sbrk.o)
 .ARM.attributes
                0x0000000000000ee4       0x2c /usr/bin/../lib/gcc/arm-none-eabi/6.3.1/../../../../arm-none-eabi/lib/thumb/v6-m/libnosys.a(_exit.o)

.comment        0x0000000000000000       0x7f
 .comment       0x0000000000000000       0x7f CMakeFiles/51_pb_remote_server.dir/src/main.c.obj
                                         0x80 (size before relaxing)
 .comment       0x000000000000007f       0x80 CMakeFiles/51_pb_remote_server.dir/__/__/mesh/models/pb_remote/src/pb_remote_server.c.obj
 .comment       0x000000000000007f       0x80 CMakeFiles/51_pb_remote_server.dir/__/__/mesh/src/access/access.c.obj
 .comment       0x000000000000007f       0x80 CMakeFiles/51_pb_remote_server.dir/__/__/mesh/src/access/access_reliable.c.obj
 .comment       0x000000000000007f       0x80 CMakeFiles/51_pb_remote_server.dir/__/__/mesh/src/access/device_state_manager.c.obj
 .comment       0x000000000000007f       0x80 CMakeFiles/51_pb_remote_server.dir/__/nrf_mesh_sdk.c.obj
 .comment       0x000000000000007f       0x80 CMakeFiles/51_pb_remote_server.dir/__/__/toolchain/system_nrf51.c.obj
 .comment       0x000000000000007f       0x80 ../../mesh/lib_51_MBTLE_PB_ADV_EE.a(provisioning.c.obj)
 .comment       0x000000000000007f       0x80 ../../mesh/lib_51_MBTLE_PB_ADV_EE.a(nrf_mesh_prov.c.obj)
 .comment       0x000000000000007f       0x80 ../../mesh/lib_51_MBTLE_PB_ADV_EE.a(prov_bearer_adv.c.obj)
 .comment       0x000000000000007f       0x80 ../../mesh/lib_51_MBTLE_PB_ADV_EE.a(prov_utils.c.obj)
 .comment       0x000000000000007f       0x80 ../../mesh/lib_51_MBTLE_PB_ADV_EE.a(prov_beacon.c.obj)
 .comment       0x000000000000007f       0x80 ../../mesh/lib_51_MBTLE_PB_ADV_EE.a(prov_provisionee.c.obj)
 .comment       0x000000000000007f       0x80 ../../mesh/lib_51_MBTLE_CORE.a(nrf_mesh_weak.c.obj)
 .comment       0x000000000000007f       0x80 ../../mesh/lib_51_MBTLE_CORE.a(bearer_adv.c.obj)
 .comment       0x000000000000007f       0x80 ../../mesh/lib_51_MBTLE_CORE.a(fifo.c.obj)
 .comment       0x000000000000007f       0x80 ../../mesh/lib_51_MBTLE_CORE.a(packet_mgr.c.obj)
 .comment       0x000000000000007f       0x80 ../../mesh/lib_51_MBTLE_CORE.a(radio.c.obj)
 .comment       0x000000000000007f       0x80 ../../mesh/lib_51_MBTLE_CORE.a(timer.c.obj)
 .comment       0x000000000000007f       0x80 ../../mesh/lib_51_MBTLE_CORE.a(timer_scheduler.c.obj)
 .comment       0x000000000000007f       0x80 ../../mesh/lib_51_MBTLE_CORE.a(beacon.c.obj)
 .comment       0x000000000000007f       0x80 ../../mesh/lib_51_MBTLE_CORE.a(bearer.c.obj)
 .comment       0x000000000000007f       0x80 ../../mesh/lib_51_MBTLE_CORE.a(bearer_event.c.obj)
 .comment       0x000000000000007f       0x80 ../../mesh/lib_51_MBTLE_CORE.a(nrf_mesh_configure.c.obj)
 .comment       0x000000000000007f       0x80 ../../mesh/lib_51_MBTLE_CORE.a(enc.c.obj)
 .comment       0x000000000000007f       0x80 ../../mesh/lib_51_MBTLE_CORE.a(event.c.obj)
 .comment       0x000000000000007f       0x80 ../../mesh/lib_51_MBTLE_CORE.a(log.c.obj)
 .comment       0x000000000000007f       0x80 ../../mesh/lib_51_MBTLE_CORE.a(net_beacon.c.obj)
 .comment       0x000000000000007f       0x80 ../../mesh/lib_51_MBTLE_CORE.a(net_state.c.obj)
 .comment       0x000000000000007f       0x80 ../../mesh/lib_51_MBTLE_CORE.a(nrf_mesh.c.obj)
 .comment       0x000000000000007f       0x80 ../../mesh/lib_51_MBTLE_CORE.a(nrf_mesh_keygen.c.obj)
 .comment       0x000000000000007f       0x80 ../../mesh/lib_51_MBTLE_CORE.a(nrf_mesh_utils.c.obj)
 .comment       0x000000000000007f       0x80 ../../mesh/lib_51_MBTLE_CORE.a(radio_config.c.obj)
 .comment       0x000000000000007f       0x80 ../../mesh/lib_51_MBTLE_CORE.a(rand.c.obj)
 .comment       0x000000000000007f       0x80 ../../mesh/lib_51_MBTLE_CORE.a(ticker.c.obj)
 .comment       0x000000000000007f       0x80 ../../mesh/lib_51_MBTLE_CORE.a(transport.c.obj)
 .comment       0x000000000000007f       0x80 ../../mesh/lib_51_MBTLE_CORE.a(internal_event.c.obj)
 .comment       0x000000000000007f       0x80 ../../mesh/lib_51_MBTLE_CORE.a(flash_manager.c.obj)
 .comment       0x000000000000007f       0x80 ../../mesh/lib_51_MBTLE_CORE.a(flash_manager_defrag.c.obj)
 .comment       0x000000000000007f       0x80 ../../mesh/lib_51_MBTLE_CORE.a(flash_manager_internal.c.obj)
 .comment       0x000000000000007f       0x80 ../../mesh/lib_51_MBTLE_CORE.a(aes.c.obj)
 .comment       0x000000000000007f       0x80 ../../mesh/lib_51_MBTLE_CORE.a(queue.c.obj)
 .comment       0x000000000000007f       0x80 ../../mesh/lib_51_MBTLE_CORE.a(timeslot.c.obj)
 .comment       0x000000000000007f       0x80 ../../mesh/lib_51_MBTLE_CORE.a(aes_cmac.c.obj)
 .comment       0x000000000000007f       0x80 ../../mesh/lib_51_MBTLE_CORE.a(ccm_soft.c.obj)
 .comment       0x000000000000007f       0x80 ../../mesh/lib_51_MBTLE_CORE.a(msg_cache.c.obj)
 .comment       0x000000000000007f       0x80 ../../mesh/lib_51_MBTLE_CORE.a(network.c.obj)
 .comment       0x000000000000007f       0x80 ../../mesh/lib_51_MBTLE_CORE.a(packet.c.obj)
 .comment       0x000000000000007f       0x80 ../../mesh/lib_51_MBTLE_CORE.a(packet_buffer.c.obj)
 .comment       0x000000000000007f       0x80 ../../mesh/lib_51_MBTLE_CORE.a(replay_cache.c.obj)
 .comment       0x000000000000007f       0x80 ../../mesh/lib_51_MBTLE_CORE.a(mesh_flash.c.obj)
 .comment       0x000000000000007f       0x80 ../../mesh/lib_51_MBTLE_CORE.a(nrf_flash.c.obj)
 .comment       0x000000000000007f       0x80 ../../mesh/lib_51_MBTLE_CORE.a(msqueue.c.obj)
 .comment       0x000000000000007f       0x80 ../../lib/micro-ecc/lib_51_UECC_LIB.a(uECC.c.obj)
 .comment       0x000000000000007f       0x80 ../../lib/rtt/lib_51_RTT_LIB.a(SEGGER_RTT.c.obj)
 .comment       0x000000000000007f       0x80 ../../lib/rtt/lib_51_RTT_LIB.a(SEGGER_RTT_printf.c.obj)

.debug_info     0x0000000000000000    0x64677
 .debug_info    0x0000000000000000     0x3ac2 CMakeFiles/51_pb_remote_server.dir/src/main.c.obj
 .debug_info    0x0000000000003ac2     0x5d69 CMakeFiles/51_pb_remote_server.dir/__/__/mesh/models/pb_remote/src/pb_remote_server.c.obj
 .debug_info    0x000000000000982b     0x4728 CMakeFiles/51_pb_remote_server.dir/__/__/mesh/src/access/access.c.obj
 .debug_info    0x000000000000df53     0x14a6 CMakeFiles/51_pb_remote_server.dir/__/__/mesh/src/access/access_reliable.c.obj
 .debug_info    0x000000000000f3f9     0x5a76 CMakeFiles/51_pb_remote_server.dir/__/__/mesh/src/access/device_state_manager.c.obj
 .debug_info    0x0000000000014e6f     0x2e53 CMakeFiles/51_pb_remote_server.dir/__/nrf_mesh_sdk.c.obj
 .debug_info    0x0000000000017cc2       0xc8 CMakeFiles/51_pb_remote_server.dir/__/__/toolchain/gcc/gcc_startup_nrf51.S.obj
 .debug_info    0x0000000000017d8a      0x1e1 CMakeFiles/51_pb_remote_server.dir/__/__/toolchain/system_nrf51.c.obj
 .debug_info    0x0000000000017f6b     0x1fdb ../../mesh/lib_51_MBTLE_PB_ADV_EE.a(provisioning.c.obj)
 .debug_info    0x0000000000019f46     0x19e0 ../../mesh/lib_51_MBTLE_PB_ADV_EE.a(nrf_mesh_prov.c.obj)
 .debug_info    0x000000000001b926     0x388b ../../mesh/lib_51_MBTLE_PB_ADV_EE.a(prov_bearer_adv.c.obj)
 .debug_info    0x000000000001f1b1     0x20fc ../../mesh/lib_51_MBTLE_PB_ADV_EE.a(prov_utils.c.obj)
 .debug_info    0x00000000000212ad     0x1a54 ../../mesh/lib_51_MBTLE_PB_ADV_EE.a(prov_beacon.c.obj)
 .debug_info    0x0000000000022d01     0x3399 ../../mesh/lib_51_MBTLE_PB_ADV_EE.a(prov_provisionee.c.obj)
 .debug_info    0x000000000002609a      0x924 ../../mesh/lib_51_MBTLE_CORE.a(nrf_mesh_weak.c.obj)
 .debug_info    0x00000000000269be     0x3587 ../../mesh/lib_51_MBTLE_CORE.a(bearer_adv.c.obj)
 .debug_info    0x0000000000029f45      0xc92 ../../mesh/lib_51_MBTLE_CORE.a(fifo.c.obj)
 .debug_info    0x000000000002abd7     0x115b ../../mesh/lib_51_MBTLE_CORE.a(packet_mgr.c.obj)
 .debug_info    0x000000000002bd32     0x18e9 ../../mesh/lib_51_MBTLE_CORE.a(radio.c.obj)
 .debug_info    0x000000000002d61b      0xbbe ../../mesh/lib_51_MBTLE_CORE.a(timer.c.obj)
 .debug_info    0x000000000002e1d9     0x10aa ../../mesh/lib_51_MBTLE_CORE.a(timer_scheduler.c.obj)
 .debug_info    0x000000000002f283     0x151c ../../mesh/lib_51_MBTLE_CORE.a(beacon.c.obj)
 .debug_info    0x000000000003079f     0x1ee8 ../../mesh/lib_51_MBTLE_CORE.a(bearer.c.obj)
 .debug_info    0x0000000000032687     0x14cf ../../mesh/lib_51_MBTLE_CORE.a(bearer_event.c.obj)
 .debug_info    0x0000000000033b56      0xb9e ../../mesh/lib_51_MBTLE_CORE.a(nrf_mesh_configure.c.obj)
 .debug_info    0x00000000000346f4     0x1607 ../../mesh/lib_51_MBTLE_CORE.a(enc.c.obj)
 .debug_info    0x0000000000035cfb     0x1148 ../../mesh/lib_51_MBTLE_CORE.a(event.c.obj)
 .debug_info    0x0000000000036e43      0xe12 ../../mesh/lib_51_MBTLE_CORE.a(log.c.obj)
 .debug_info    0x0000000000037c55     0x1268 ../../mesh/lib_51_MBTLE_CORE.a(net_beacon.c.obj)
 .debug_info    0x0000000000038ebd     0x25f5 ../../mesh/lib_51_MBTLE_CORE.a(net_state.c.obj)
 .debug_info    0x000000000003b4b2     0x3b2c ../../mesh/lib_51_MBTLE_CORE.a(nrf_mesh.c.obj)
 .debug_info    0x000000000003efde      0xcfc ../../mesh/lib_51_MBTLE_CORE.a(nrf_mesh_keygen.c.obj)
 .debug_info    0x000000000003fcda      0xa5f ../../mesh/lib_51_MBTLE_CORE.a(nrf_mesh_utils.c.obj)
 .debug_info    0x0000000000040739      0x854 ../../mesh/lib_51_MBTLE_CORE.a(radio_config.c.obj)
 .debug_info    0x0000000000040f8d      0x41e ../../mesh/lib_51_MBTLE_CORE.a(rand.c.obj)
 .debug_info    0x00000000000413ab      0x204 ../../mesh/lib_51_MBTLE_CORE.a(ticker.c.obj)
 .debug_info    0x00000000000415af     0x6fb9 ../../mesh/lib_51_MBTLE_CORE.a(transport.c.obj)
 .debug_info    0x0000000000048568      0xc28 ../../mesh/lib_51_MBTLE_CORE.a(internal_event.c.obj)
 .debug_info    0x0000000000049190     0x3a47 ../../mesh/lib_51_MBTLE_CORE.a(flash_manager.c.obj)
 .debug_info    0x000000000004cbd7     0x248f ../../mesh/lib_51_MBTLE_CORE.a(flash_manager_defrag.c.obj)
 .debug_info    0x000000000004f066      0xb72 ../../mesh/lib_51_MBTLE_CORE.a(flash_manager_internal.c.obj)
 .debug_info    0x000000000004fbd8      0xd90 ../../mesh/lib_51_MBTLE_CORE.a(aes.c.obj)
 .debug_info    0x0000000000050968      0xadb ../../mesh/lib_51_MBTLE_CORE.a(queue.c.obj)
 .debug_info    0x0000000000051443     0x1aef ../../mesh/lib_51_MBTLE_CORE.a(timeslot.c.obj)
 .debug_info    0x0000000000052f32      0xe95 ../../mesh/lib_51_MBTLE_CORE.a(aes_cmac.c.obj)
 .debug_info    0x0000000000053dc7     0x114a ../../mesh/lib_51_MBTLE_CORE.a(ccm_soft.c.obj)
 .debug_info    0x0000000000054f11      0xb4d ../../mesh/lib_51_MBTLE_CORE.a(msg_cache.c.obj)
 .debug_info    0x0000000000055a5e     0x23ad ../../mesh/lib_51_MBTLE_CORE.a(network.c.obj)
 .debug_info    0x0000000000057e0b      0xadf ../../mesh/lib_51_MBTLE_CORE.a(packet.c.obj)
 .debug_info    0x00000000000588ea     0x193b ../../mesh/lib_51_MBTLE_CORE.a(packet_buffer.c.obj)
 .debug_info    0x000000000005a225      0xae5 ../../mesh/lib_51_MBTLE_CORE.a(replay_cache.c.obj)
 .debug_info    0x000000000005ad0a     0x14e5 ../../mesh/lib_51_MBTLE_CORE.a(mesh_flash.c.obj)
 .debug_info    0x000000000005c1ef      0xad9 ../../mesh/lib_51_MBTLE_CORE.a(nrf_flash.c.obj)
 .debug_info    0x000000000005ccc8      0xcdb ../../mesh/lib_51_MBTLE_CORE.a(msqueue.c.obj)
 .debug_info    0x000000000005d9a3     0x4488 ../../lib/micro-ecc/lib_51_UECC_LIB.a(uECC.c.obj)
 .debug_info    0x0000000000061e2b     0x18aa ../../lib/rtt/lib_51_RTT_LIB.a(SEGGER_RTT.c.obj)
 .debug_info    0x00000000000636d5      0xfa2 ../../lib/rtt/lib_51_RTT_LIB.a(SEGGER_RTT_printf.c.obj)

.debug_abbrev   0x0000000000000000     0xc205
 .debug_abbrev  0x0000000000000000      0x421 CMakeFiles/51_pb_remote_server.dir/src/main.c.obj
 .debug_abbrev  0x0000000000000421      0x521 CMakeFiles/51_pb_remote_server.dir/__/__/mesh/models/pb_remote/src/pb_remote_server.c.obj
 .debug_abbrev  0x0000000000000942      0x642 CMakeFiles/51_pb_remote_server.dir/__/__/mesh/src/access/access.c.obj
 .debug_abbrev  0x0000000000000f84      0x3dc CMakeFiles/51_pb_remote_server.dir/__/__/mesh/src/access/access_reliable.c.obj
 .debug_abbrev  0x0000000000001360      0x59b CMakeFiles/51_pb_remote_server.dir/__/__/mesh/src/access/device_state_manager.c.obj
 .debug_abbrev  0x00000000000018fb      0x482 CMakeFiles/51_pb_remote_server.dir/__/nrf_mesh_sdk.c.obj
 .debug_abbrev  0x0000000000001d7d       0x14 CMakeFiles/51_pb_remote_server.dir/__/__/toolchain/gcc/gcc_startup_nrf51.S.obj
 .debug_abbrev  0x0000000000001d91      0x106 CMakeFiles/51_pb_remote_server.dir/__/__/toolchain/system_nrf51.c.obj
 .debug_abbrev  0x0000000000001e97      0x32e ../../mesh/lib_51_MBTLE_PB_ADV_EE.a(provisioning.c.obj)
 .debug_abbrev  0x00000000000021c5      0x2a9 ../../mesh/lib_51_MBTLE_PB_ADV_EE.a(nrf_mesh_prov.c.obj)
 .debug_abbrev  0x000000000000246e      0x4f3 ../../mesh/lib_51_MBTLE_PB_ADV_EE.a(prov_bearer_adv.c.obj)
 .debug_abbrev  0x0000000000002961      0x3c8 ../../mesh/lib_51_MBTLE_PB_ADV_EE.a(prov_utils.c.obj)
 .debug_abbrev  0x0000000000002d29      0x322 ../../mesh/lib_51_MBTLE_PB_ADV_EE.a(prov_beacon.c.obj)
 .debug_abbrev  0x000000000000304b      0x46f ../../mesh/lib_51_MBTLE_PB_ADV_EE.a(prov_provisionee.c.obj)
 .debug_abbrev  0x00000000000034ba      0x1a7 ../../mesh/lib_51_MBTLE_CORE.a(nrf_mesh_weak.c.obj)
 .debug_abbrev  0x0000000000003661      0x4d2 ../../mesh/lib_51_MBTLE_CORE.a(bearer_adv.c.obj)
 .debug_abbrev  0x0000000000003b33      0x2d8 ../../mesh/lib_51_MBTLE_CORE.a(fifo.c.obj)
 .debug_abbrev  0x0000000000003e0b      0x3e2 ../../mesh/lib_51_MBTLE_CORE.a(packet_mgr.c.obj)
 .debug_abbrev  0x00000000000041ed      0x40b ../../mesh/lib_51_MBTLE_CORE.a(radio.c.obj)
 .debug_abbrev  0x00000000000045f8      0x2d3 ../../mesh/lib_51_MBTLE_CORE.a(timer.c.obj)
 .debug_abbrev  0x00000000000048cb      0x3d1 ../../mesh/lib_51_MBTLE_CORE.a(timer_scheduler.c.obj)
 .debug_abbrev  0x0000000000004c9c      0x365 ../../mesh/lib_51_MBTLE_CORE.a(beacon.c.obj)
 .debug_abbrev  0x0000000000005001      0x454 ../../mesh/lib_51_MBTLE_CORE.a(bearer.c.obj)
 .debug_abbrev  0x0000000000005455      0x49e ../../mesh/lib_51_MBTLE_CORE.a(bearer_event.c.obj)
 .debug_abbrev  0x00000000000058f3      0x240 ../../mesh/lib_51_MBTLE_CORE.a(nrf_mesh_configure.c.obj)
 .debug_abbrev  0x0000000000005b33      0x324 ../../mesh/lib_51_MBTLE_CORE.a(enc.c.obj)
 .debug_abbrev  0x0000000000005e57      0x2ab ../../mesh/lib_51_MBTLE_CORE.a(event.c.obj)
 .debug_abbrev  0x0000000000006102      0x24e ../../mesh/lib_51_MBTLE_CORE.a(log.c.obj)
 .debug_abbrev  0x0000000000006350      0x3b5 ../../mesh/lib_51_MBTLE_CORE.a(net_beacon.c.obj)
 .debug_abbrev  0x0000000000006705      0x4f5 ../../mesh/lib_51_MBTLE_CORE.a(net_state.c.obj)
 .debug_abbrev  0x0000000000006bfa      0x49d ../../mesh/lib_51_MBTLE_CORE.a(nrf_mesh.c.obj)
 .debug_abbrev  0x0000000000007097      0x20d ../../mesh/lib_51_MBTLE_CORE.a(nrf_mesh_keygen.c.obj)
 .debug_abbrev  0x00000000000072a4      0x24a ../../mesh/lib_51_MBTLE_CORE.a(nrf_mesh_utils.c.obj)
 .debug_abbrev  0x00000000000074ee      0x1a8 ../../mesh/lib_51_MBTLE_CORE.a(radio_config.c.obj)
 .debug_abbrev  0x0000000000007696      0x1af ../../mesh/lib_51_MBTLE_CORE.a(rand.c.obj)
 .debug_abbrev  0x0000000000007845      0x14d ../../mesh/lib_51_MBTLE_CORE.a(ticker.c.obj)
 .debug_abbrev  0x0000000000007992      0x68c ../../mesh/lib_51_MBTLE_CORE.a(transport.c.obj)
 .debug_abbrev  0x000000000000801e      0x24a ../../mesh/lib_51_MBTLE_CORE.a(internal_event.c.obj)
 .debug_abbrev  0x0000000000008268      0x53e ../../mesh/lib_51_MBTLE_CORE.a(flash_manager.c.obj)
 .debug_abbrev  0x00000000000087a6      0x504 ../../mesh/lib_51_MBTLE_CORE.a(flash_manager_defrag.c.obj)
 .debug_abbrev  0x0000000000008caa      0x283 ../../mesh/lib_51_MBTLE_CORE.a(flash_manager_internal.c.obj)
 .debug_abbrev  0x0000000000008f2d      0x2f8 ../../mesh/lib_51_MBTLE_CORE.a(aes.c.obj)
 .debug_abbrev  0x0000000000009225      0x222 ../../mesh/lib_51_MBTLE_CORE.a(queue.c.obj)
 .debug_abbrev  0x0000000000009447      0x496 ../../mesh/lib_51_MBTLE_CORE.a(timeslot.c.obj)
 .debug_abbrev  0x00000000000098dd      0x2a4 ../../mesh/lib_51_MBTLE_CORE.a(aes_cmac.c.obj)
 .debug_abbrev  0x0000000000009b81      0x29c ../../mesh/lib_51_MBTLE_CORE.a(ccm_soft.c.obj)
 .debug_abbrev  0x0000000000009e1d      0x278 ../../mesh/lib_51_MBTLE_CORE.a(msg_cache.c.obj)
 .debug_abbrev  0x000000000000a095      0x50c ../../mesh/lib_51_MBTLE_CORE.a(network.c.obj)
 .debug_abbrev  0x000000000000a5a1      0x242 ../../mesh/lib_51_MBTLE_CORE.a(packet.c.obj)
 .debug_abbrev  0x000000000000a7e3      0x417 ../../mesh/lib_51_MBTLE_CORE.a(packet_buffer.c.obj)
 .debug_abbrev  0x000000000000abfa      0x24c ../../mesh/lib_51_MBTLE_CORE.a(replay_cache.c.obj)
 .debug_abbrev  0x000000000000ae46      0x3f6 ../../mesh/lib_51_MBTLE_CORE.a(mesh_flash.c.obj)
 .debug_abbrev  0x000000000000b23c      0x22b ../../mesh/lib_51_MBTLE_CORE.a(nrf_flash.c.obj)
 .debug_abbrev  0x000000000000b467      0x2a5 ../../mesh/lib_51_MBTLE_CORE.a(msqueue.c.obj)
 .debug_abbrev  0x000000000000b70c      0x44a ../../lib/micro-ecc/lib_51_UECC_LIB.a(uECC.c.obj)
 .debug_abbrev  0x000000000000bb56      0x34b ../../lib/rtt/lib_51_RTT_LIB.a(SEGGER_RTT.c.obj)
 .debug_abbrev  0x000000000000bea1      0x364 ../../lib/rtt/lib_51_RTT_LIB.a(SEGGER_RTT_printf.c.obj)

.debug_loc      0x0000000000000000    0x213c1
 .debug_loc     0x0000000000000000      0x4f0 CMakeFiles/51_pb_remote_server.dir/src/main.c.obj
 .debug_loc     0x00000000000004f0     0x29da CMakeFiles/51_pb_remote_server.dir/__/__/mesh/models/pb_remote/src/pb_remote_server.c.obj
 .debug_loc     0x0000000000002eca     0x250f CMakeFiles/51_pb_remote_server.dir/__/__/mesh/src/access/access.c.obj
 .debug_loc     0x00000000000053d9      0x78e CMakeFiles/51_pb_remote_server.dir/__/__/mesh/src/access/access_reliable.c.obj
 .debug_loc     0x0000000000005b67     0x36d4 CMakeFiles/51_pb_remote_server.dir/__/__/mesh/src/access/device_state_manager.c.obj
 .debug_loc     0x000000000000923b      0x35a CMakeFiles/51_pb_remote_server.dir/__/nrf_mesh_sdk.c.obj
 .debug_loc     0x0000000000009595      0x826 ../../mesh/lib_51_MBTLE_PB_ADV_EE.a(provisioning.c.obj)
 .debug_loc     0x0000000000009dbb      0x889 ../../mesh/lib_51_MBTLE_PB_ADV_EE.a(nrf_mesh_prov.c.obj)
 .debug_loc     0x000000000000a644     0x14aa ../../mesh/lib_51_MBTLE_PB_ADV_EE.a(prov_bearer_adv.c.obj)
 .debug_loc     0x000000000000baee      0x5a0 ../../mesh/lib_51_MBTLE_PB_ADV_EE.a(prov_utils.c.obj)
 .debug_loc     0x000000000000c08e      0x1c9 ../../mesh/lib_51_MBTLE_PB_ADV_EE.a(prov_beacon.c.obj)
 .debug_loc     0x000000000000c257      0x72b ../../mesh/lib_51_MBTLE_PB_ADV_EE.a(prov_provisionee.c.obj)
 .debug_loc     0x000000000000c982     0x1082 ../../mesh/lib_51_MBTLE_CORE.a(bearer_adv.c.obj)
 .debug_loc     0x000000000000da04      0x584 ../../mesh/lib_51_MBTLE_CORE.a(fifo.c.obj)
 .debug_loc     0x000000000000df88      0x730 ../../mesh/lib_51_MBTLE_CORE.a(packet_mgr.c.obj)
 .debug_loc     0x000000000000e6b8      0x39a ../../mesh/lib_51_MBTLE_CORE.a(radio.c.obj)
 .debug_loc     0x000000000000ea52      0x7b7 ../../mesh/lib_51_MBTLE_CORE.a(timer.c.obj)
 .debug_loc     0x000000000000f209      0x5ed ../../mesh/lib_51_MBTLE_CORE.a(timer_scheduler.c.obj)
 .debug_loc     0x000000000000f7f6      0x5d9 ../../mesh/lib_51_MBTLE_CORE.a(beacon.c.obj)
 .debug_loc     0x000000000000fdcf      0x8c7 ../../mesh/lib_51_MBTLE_CORE.a(bearer.c.obj)
 .debug_loc     0x0000000000010696      0x545 ../../mesh/lib_51_MBTLE_CORE.a(bearer_event.c.obj)
 .debug_loc     0x0000000000010bdb       0x2c ../../mesh/lib_51_MBTLE_CORE.a(nrf_mesh_configure.c.obj)
 .debug_loc     0x0000000000010c07      0xc1f ../../mesh/lib_51_MBTLE_CORE.a(enc.c.obj)
 .debug_loc     0x0000000000011826      0x312 ../../mesh/lib_51_MBTLE_CORE.a(event.c.obj)
 .debug_loc     0x0000000000011b38      0x2f0 ../../mesh/lib_51_MBTLE_CORE.a(log.c.obj)
 .debug_loc     0x0000000000011e28      0x3e5 ../../mesh/lib_51_MBTLE_CORE.a(net_beacon.c.obj)
 .debug_loc     0x000000000001220d      0x729 ../../mesh/lib_51_MBTLE_CORE.a(net_state.c.obj)
 .debug_loc     0x0000000000012936      0x3dc ../../mesh/lib_51_MBTLE_CORE.a(nrf_mesh.c.obj)
 .debug_loc     0x0000000000012d12      0x226 ../../mesh/lib_51_MBTLE_CORE.a(nrf_mesh_keygen.c.obj)
 .debug_loc     0x0000000000012f38      0x12a ../../mesh/lib_51_MBTLE_CORE.a(nrf_mesh_utils.c.obj)
 .debug_loc     0x0000000000013062      0x2e2 ../../mesh/lib_51_MBTLE_CORE.a(radio_config.c.obj)
 .debug_loc     0x0000000000013344      0x1b2 ../../mesh/lib_51_MBTLE_CORE.a(rand.c.obj)
 .debug_loc     0x00000000000134f6     0x248a ../../mesh/lib_51_MBTLE_CORE.a(transport.c.obj)
 .debug_loc     0x0000000000015980      0x135 ../../mesh/lib_51_MBTLE_CORE.a(internal_event.c.obj)
 .debug_loc     0x0000000000015ab5     0x2190 ../../mesh/lib_51_MBTLE_CORE.a(flash_manager.c.obj)
 .debug_loc     0x0000000000017c45      0xc03 ../../mesh/lib_51_MBTLE_CORE.a(flash_manager_defrag.c.obj)
 .debug_loc     0x0000000000018848      0x149 ../../mesh/lib_51_MBTLE_CORE.a(flash_manager_internal.c.obj)
 .debug_loc     0x0000000000018991       0xcb ../../mesh/lib_51_MBTLE_CORE.a(aes.c.obj)
 .debug_loc     0x0000000000018a5c      0x251 ../../mesh/lib_51_MBTLE_CORE.a(queue.c.obj)
 .debug_loc     0x0000000000018cad      0x31f ../../mesh/lib_51_MBTLE_CORE.a(timeslot.c.obj)
 .debug_loc     0x0000000000018fcc      0x4c9 ../../mesh/lib_51_MBTLE_CORE.a(aes_cmac.c.obj)
 .debug_loc     0x0000000000019495      0x88b ../../mesh/lib_51_MBTLE_CORE.a(ccm_soft.c.obj)
 .debug_loc     0x0000000000019d20      0x139 ../../mesh/lib_51_MBTLE_CORE.a(msg_cache.c.obj)
 .debug_loc     0x0000000000019e59      0xafd ../../mesh/lib_51_MBTLE_CORE.a(network.c.obj)
 .debug_loc     0x000000000001a956      0x144 ../../mesh/lib_51_MBTLE_CORE.a(packet.c.obj)
 .debug_loc     0x000000000001aa9a      0xe4d ../../mesh/lib_51_MBTLE_CORE.a(packet_buffer.c.obj)
 .debug_loc     0x000000000001b8e7      0x248 ../../mesh/lib_51_MBTLE_CORE.a(replay_cache.c.obj)
 .debug_loc     0x000000000001bb2f      0xa6a ../../mesh/lib_51_MBTLE_CORE.a(mesh_flash.c.obj)
 .debug_loc     0x000000000001c599       0xf4 ../../mesh/lib_51_MBTLE_CORE.a(nrf_flash.c.obj)
 .debug_loc     0x000000000001c68d      0x4d7 ../../mesh/lib_51_MBTLE_CORE.a(msqueue.c.obj)
 .debug_loc     0x000000000001cb64     0x27fd ../../lib/micro-ecc/lib_51_UECC_LIB.a(uECC.c.obj)
 .debug_loc     0x000000000001f361     0x18a4 ../../lib/rtt/lib_51_RTT_LIB.a(SEGGER_RTT.c.obj)
 .debug_loc     0x0000000000020c05      0x7bc ../../lib/rtt/lib_51_RTT_LIB.a(SEGGER_RTT_printf.c.obj)

.debug_aranges  0x0000000000000000     0x1a18
 .debug_aranges
                0x0000000000000000       0x28 CMakeFiles/51_pb_remote_server.dir/src/main.c.obj
 .debug_aranges
                0x0000000000000028       0xf8 CMakeFiles/51_pb_remote_server.dir/__/__/mesh/models/pb_remote/src/pb_remote_server.c.obj
 .debug_aranges
                0x0000000000000120      0x190 CMakeFiles/51_pb_remote_server.dir/__/__/mesh/src/access/access.c.obj
 .debug_aranges
                0x00000000000002b0       0x50 CMakeFiles/51_pb_remote_server.dir/__/__/mesh/src/access/access_reliable.c.obj
 .debug_aranges
                0x0000000000000300      0x298 CMakeFiles/51_pb_remote_server.dir/__/__/mesh/src/access/device_state_manager.c.obj
 .debug_aranges
                0x0000000000000598       0x78 CMakeFiles/51_pb_remote_server.dir/__/nrf_mesh_sdk.c.obj
 .debug_aranges
                0x0000000000000610       0x20 CMakeFiles/51_pb_remote_server.dir/__/__/toolchain/gcc/gcc_startup_nrf51.S.obj
 .debug_aranges
                0x0000000000000630       0x28 CMakeFiles/51_pb_remote_server.dir/__/__/toolchain/system_nrf51.c.obj
 .debug_aranges
                0x0000000000000658       0xc8 ../../mesh/lib_51_MBTLE_PB_ADV_EE.a(provisioning.c.obj)
 .debug_aranges
                0x0000000000000720       0x58 ../../mesh/lib_51_MBTLE_PB_ADV_EE.a(nrf_mesh_prov.c.obj)
 .debug_aranges
                0x0000000000000778       0xb8 ../../mesh/lib_51_MBTLE_PB_ADV_EE.a(prov_bearer_adv.c.obj)
 .debug_aranges
                0x0000000000000830       0x70 ../../mesh/lib_51_MBTLE_PB_ADV_EE.a(prov_utils.c.obj)
 .debug_aranges
                0x00000000000008a0       0x30 ../../mesh/lib_51_MBTLE_PB_ADV_EE.a(prov_beacon.c.obj)
 .debug_aranges
                0x00000000000008d0       0x70 ../../mesh/lib_51_MBTLE_PB_ADV_EE.a(prov_provisionee.c.obj)
 .debug_aranges
                0x0000000000000940       0x28 ../../mesh/lib_51_MBTLE_CORE.a(nrf_mesh_weak.c.obj)
 .debug_aranges
                0x0000000000000968      0x100 ../../mesh/lib_51_MBTLE_CORE.a(bearer_adv.c.obj)
 .debug_aranges
                0x0000000000000a68       0x60 ../../mesh/lib_51_MBTLE_CORE.a(fifo.c.obj)
 .debug_aranges
                0x0000000000000ac8       0x48 ../../mesh/lib_51_MBTLE_CORE.a(packet_mgr.c.obj)
 .debug_aranges
                0x0000000000000b10       0x98 ../../mesh/lib_51_MBTLE_CORE.a(radio.c.obj)
 .debug_aranges
                0x0000000000000ba8       0x58 ../../mesh/lib_51_MBTLE_CORE.a(timer.c.obj)
 .debug_aranges
                0x0000000000000c00       0x60 ../../mesh/lib_51_MBTLE_CORE.a(timer_scheduler.c.obj)
 .debug_aranges
                0x0000000000000c60       0x38 ../../mesh/lib_51_MBTLE_CORE.a(beacon.c.obj)
 .debug_aranges
                0x0000000000000c98       0x90 ../../mesh/lib_51_MBTLE_CORE.a(bearer.c.obj)
 .debug_aranges
                0x0000000000000d28       0x70 ../../mesh/lib_51_MBTLE_CORE.a(bearer_event.c.obj)
 .debug_aranges
                0x0000000000000d98       0x30 ../../mesh/lib_51_MBTLE_CORE.a(nrf_mesh_configure.c.obj)
 .debug_aranges
                0x0000000000000dc8       0x70 ../../mesh/lib_51_MBTLE_CORE.a(enc.c.obj)
 .debug_aranges
                0x0000000000000e38       0x30 ../../mesh/lib_51_MBTLE_CORE.a(event.c.obj)
 .debug_aranges
                0x0000000000000e68       0x48 ../../mesh/lib_51_MBTLE_CORE.a(log.c.obj)
 .debug_aranges
                0x0000000000000eb0       0x40 ../../mesh/lib_51_MBTLE_CORE.a(net_beacon.c.obj)
 .debug_aranges
                0x0000000000000ef0       0xb8 ../../mesh/lib_51_MBTLE_CORE.a(net_state.c.obj)
 .debug_aranges
                0x0000000000000fa8       0x80 ../../mesh/lib_51_MBTLE_CORE.a(nrf_mesh.c.obj)
 .debug_aranges
                0x0000000000001028       0x40 ../../mesh/lib_51_MBTLE_CORE.a(nrf_mesh_keygen.c.obj)
 .debug_aranges
                0x0000000000001068       0x30 ../../mesh/lib_51_MBTLE_CORE.a(nrf_mesh_utils.c.obj)
 .debug_aranges
                0x0000000000001098       0x40 ../../mesh/lib_51_MBTLE_CORE.a(radio_config.c.obj)
 .debug_aranges
                0x00000000000010d8       0x40 ../../mesh/lib_51_MBTLE_CORE.a(rand.c.obj)
 .debug_aranges
                0x0000000000001118       0x30 ../../mesh/lib_51_MBTLE_CORE.a(ticker.c.obj)
 .debug_aranges
                0x0000000000001148       0xd8 ../../mesh/lib_51_MBTLE_CORE.a(transport.c.obj)
 .debug_aranges
                0x0000000000001220       0x30 ../../mesh/lib_51_MBTLE_CORE.a(internal_event.c.obj)
 .debug_aranges
                0x0000000000001250       0xb8 ../../mesh/lib_51_MBTLE_CORE.a(flash_manager.c.obj)
 .debug_aranges
                0x0000000000001308       0xa8 ../../mesh/lib_51_MBTLE_CORE.a(flash_manager_defrag.c.obj)
 .debug_aranges
                0x00000000000013b0       0x20 ../../mesh/lib_51_MBTLE_CORE.a(flash_manager_internal.c.obj)
 .debug_aranges
                0x00000000000013d0       0x28 ../../mesh/lib_51_MBTLE_CORE.a(aes.c.obj)
 .debug_aranges
                0x00000000000013f8       0x38 ../../mesh/lib_51_MBTLE_CORE.a(queue.c.obj)
 .debug_aranges
                0x0000000000001430       0xa8 ../../mesh/lib_51_MBTLE_CORE.a(timeslot.c.obj)
 .debug_aranges
                0x00000000000014d8       0x28 ../../mesh/lib_51_MBTLE_CORE.a(aes_cmac.c.obj)
 .debug_aranges
                0x0000000000001500       0x40 ../../mesh/lib_51_MBTLE_CORE.a(ccm_soft.c.obj)
 .debug_aranges
                0x0000000000001540       0x38 ../../mesh/lib_51_MBTLE_CORE.a(msg_cache.c.obj)
 .debug_aranges
                0x0000000000001578       0x58 ../../mesh/lib_51_MBTLE_CORE.a(network.c.obj)
 .debug_aranges
                0x00000000000015d0       0x20 ../../mesh/lib_51_MBTLE_CORE.a(packet.c.obj)
 .debug_aranges
                0x00000000000015f0       0x68 ../../mesh/lib_51_MBTLE_CORE.a(packet_buffer.c.obj)
 .debug_aranges
                0x0000000000001658       0x48 ../../mesh/lib_51_MBTLE_CORE.a(replay_cache.c.obj)
 .debug_aranges
                0x00000000000016a0       0x58 ../../mesh/lib_51_MBTLE_CORE.a(mesh_flash.c.obj)
 .debug_aranges
                0x00000000000016f8       0x28 ../../mesh/lib_51_MBTLE_CORE.a(nrf_flash.c.obj)
 .debug_aranges
                0x0000000000001720       0x40 ../../mesh/lib_51_MBTLE_CORE.a(msqueue.c.obj)
 .debug_aranges
                0x0000000000001760      0x1a8 ../../lib/micro-ecc/lib_51_UECC_LIB.a(uECC.c.obj)
 .debug_aranges
                0x0000000000001908       0xd8 ../../lib/rtt/lib_51_RTT_LIB.a(SEGGER_RTT.c.obj)
 .debug_aranges
                0x00000000000019e0       0x38 ../../lib/rtt/lib_51_RTT_LIB.a(SEGGER_RTT_printf.c.obj)

.debug_ranges   0x0000000000000000     0x52c0
 .debug_ranges  0x0000000000000000      0x268 CMakeFiles/51_pb_remote_server.dir/src/main.c.obj
 .debug_ranges  0x0000000000000268      0xa20 CMakeFiles/51_pb_remote_server.dir/__/__/mesh/models/pb_remote/src/pb_remote_server.c.obj
 .debug_ranges  0x0000000000000c88      0x608 CMakeFiles/51_pb_remote_server.dir/__/__/mesh/src/access/access.c.obj
 .debug_ranges  0x0000000000001290      0x218 CMakeFiles/51_pb_remote_server.dir/__/__/mesh/src/access/access_reliable.c.obj
 .debug_ranges  0x00000000000014a8      0x840 CMakeFiles/51_pb_remote_server.dir/__/__/mesh/src/access/device_state_manager.c.obj
 .debug_ranges  0x0000000000001ce8       0xc8 CMakeFiles/51_pb_remote_server.dir/__/nrf_mesh_sdk.c.obj
 .debug_ranges  0x0000000000001db0       0x70 CMakeFiles/51_pb_remote_server.dir/__/__/toolchain/system_nrf51.c.obj
 .debug_ranges  0x0000000000001e20       0xb8 ../../mesh/lib_51_MBTLE_PB_ADV_EE.a(provisioning.c.obj)
 .debug_ranges  0x0000000000001ed8       0x60 ../../mesh/lib_51_MBTLE_PB_ADV_EE.a(nrf_mesh_prov.c.obj)
 .debug_ranges  0x0000000000001f38      0x258 ../../mesh/lib_51_MBTLE_PB_ADV_EE.a(prov_bearer_adv.c.obj)
 .debug_ranges  0x0000000000002190       0x90 ../../mesh/lib_51_MBTLE_PB_ADV_EE.a(prov_utils.c.obj)
 .debug_ranges  0x0000000000002220       0x50 ../../mesh/lib_51_MBTLE_PB_ADV_EE.a(prov_beacon.c.obj)
 .debug_ranges  0x0000000000002270       0xc0 ../../mesh/lib_51_MBTLE_PB_ADV_EE.a(prov_provisionee.c.obj)
 .debug_ranges  0x0000000000002330       0x18 ../../mesh/lib_51_MBTLE_CORE.a(nrf_mesh_weak.c.obj)
 .debug_ranges  0x0000000000002348      0x198 ../../mesh/lib_51_MBTLE_CORE.a(bearer_adv.c.obj)
 .debug_ranges  0x00000000000024e0       0x80 ../../mesh/lib_51_MBTLE_CORE.a(fifo.c.obj)
 .debug_ranges  0x0000000000002560      0x148 ../../mesh/lib_51_MBTLE_CORE.a(packet_mgr.c.obj)
 .debug_ranges  0x00000000000026a8      0x110 ../../mesh/lib_51_MBTLE_CORE.a(radio.c.obj)
 .debug_ranges  0x00000000000027b8       0xa8 ../../mesh/lib_51_MBTLE_CORE.a(timer.c.obj)
 .debug_ranges  0x0000000000002860      0x250 ../../mesh/lib_51_MBTLE_CORE.a(timer_scheduler.c.obj)
 .debug_ranges  0x0000000000002ab0       0x58 ../../mesh/lib_51_MBTLE_CORE.a(beacon.c.obj)
 .debug_ranges  0x0000000000002b08      0x1c0 ../../mesh/lib_51_MBTLE_CORE.a(bearer.c.obj)
 .debug_ranges  0x0000000000002cc8       0xf8 ../../mesh/lib_51_MBTLE_CORE.a(bearer_event.c.obj)
 .debug_ranges  0x0000000000002dc0       0x20 ../../mesh/lib_51_MBTLE_CORE.a(nrf_mesh_configure.c.obj)
 .debug_ranges  0x0000000000002de0       0x60 ../../mesh/lib_51_MBTLE_CORE.a(enc.c.obj)
 .debug_ranges  0x0000000000002e40       0xa8 ../../mesh/lib_51_MBTLE_CORE.a(event.c.obj)
 .debug_ranges  0x0000000000002ee8       0x38 ../../mesh/lib_51_MBTLE_CORE.a(log.c.obj)
 .debug_ranges  0x0000000000002f20       0xa8 ../../mesh/lib_51_MBTLE_CORE.a(net_beacon.c.obj)
 .debug_ranges  0x0000000000002fc8      0x170 ../../mesh/lib_51_MBTLE_CORE.a(net_state.c.obj)
 .debug_ranges  0x0000000000003138       0xa8 ../../mesh/lib_51_MBTLE_CORE.a(nrf_mesh.c.obj)
 .debug_ranges  0x00000000000031e0       0x30 ../../mesh/lib_51_MBTLE_CORE.a(nrf_mesh_keygen.c.obj)
 .debug_ranges  0x0000000000003210       0x20 ../../mesh/lib_51_MBTLE_CORE.a(nrf_mesh_utils.c.obj)
 .debug_ranges  0x0000000000003230       0xf8 ../../mesh/lib_51_MBTLE_CORE.a(radio_config.c.obj)
 .debug_ranges  0x0000000000003328       0x30 ../../mesh/lib_51_MBTLE_CORE.a(rand.c.obj)
 .debug_ranges  0x0000000000003358       0x20 ../../mesh/lib_51_MBTLE_CORE.a(ticker.c.obj)
 .debug_ranges  0x0000000000003378      0x518 ../../mesh/lib_51_MBTLE_CORE.a(transport.c.obj)
 .debug_ranges  0x0000000000003890       0x20 ../../mesh/lib_51_MBTLE_CORE.a(internal_event.c.obj)
 .debug_ranges  0x00000000000038b0      0x998 ../../mesh/lib_51_MBTLE_CORE.a(flash_manager.c.obj)
 .debug_ranges  0x0000000000004248      0x340 ../../mesh/lib_51_MBTLE_CORE.a(flash_manager_defrag.c.obj)
 .debug_ranges  0x0000000000004588       0x68 ../../mesh/lib_51_MBTLE_CORE.a(flash_manager_internal.c.obj)
 .debug_ranges  0x00000000000045f0       0x18 ../../mesh/lib_51_MBTLE_CORE.a(aes.c.obj)
 .debug_ranges  0x0000000000004608       0x28 ../../mesh/lib_51_MBTLE_CORE.a(queue.c.obj)
 .debug_ranges  0x0000000000004630       0xc8 ../../mesh/lib_51_MBTLE_CORE.a(timeslot.c.obj)
 .debug_ranges  0x00000000000046f8       0x18 ../../mesh/lib_51_MBTLE_CORE.a(aes_cmac.c.obj)
 .debug_ranges  0x0000000000004710       0x30 ../../mesh/lib_51_MBTLE_CORE.a(ccm_soft.c.obj)
 .debug_ranges  0x0000000000004740       0x40 ../../mesh/lib_51_MBTLE_CORE.a(msg_cache.c.obj)
 .debug_ranges  0x0000000000004780      0x110 ../../mesh/lib_51_MBTLE_CORE.a(network.c.obj)
 .debug_ranges  0x0000000000004890       0x28 ../../mesh/lib_51_MBTLE_CORE.a(packet.c.obj)
 .debug_ranges  0x00000000000048b8      0x220 ../../mesh/lib_51_MBTLE_CORE.a(packet_buffer.c.obj)
 .debug_ranges  0x0000000000004ad8       0x88 ../../mesh/lib_51_MBTLE_CORE.a(replay_cache.c.obj)
 .debug_ranges  0x0000000000004b60      0x268 ../../mesh/lib_51_MBTLE_CORE.a(mesh_flash.c.obj)
 .debug_ranges  0x0000000000004dc8       0x48 ../../mesh/lib_51_MBTLE_CORE.a(nrf_flash.c.obj)
 .debug_ranges  0x0000000000004e10       0xf0 ../../mesh/lib_51_MBTLE_CORE.a(msqueue.c.obj)
 .debug_ranges  0x0000000000004f00      0x250 ../../lib/micro-ecc/lib_51_UECC_LIB.a(uECC.c.obj)
 .debug_ranges  0x0000000000005150      0x148 ../../lib/rtt/lib_51_RTT_LIB.a(SEGGER_RTT.c.obj)
 .debug_ranges  0x0000000000005298       0x28 ../../lib/rtt/lib_51_RTT_LIB.a(SEGGER_RTT_printf.c.obj)

.debug_line     0x0000000000000000    0x13f34
 .debug_line    0x0000000000000000      0x86c CMakeFiles/51_pb_remote_server.dir/src/main.c.obj
 .debug_line    0x000000000000086c     0x1225 CMakeFiles/51_pb_remote_server.dir/__/__/mesh/models/pb_remote/src/pb_remote_server.c.obj
 .debug_line    0x0000000000001a91      0xe42 CMakeFiles/51_pb_remote_server.dir/__/__/mesh/src/access/access.c.obj
 .debug_line    0x00000000000028d3      0x4c8 CMakeFiles/51_pb_remote_server.dir/__/__/mesh/src/access/access_reliable.c.obj
 .debug_line    0x0000000000002d9b     0x1450 CMakeFiles/51_pb_remote_server.dir/__/__/mesh/src/access/device_state_manager.c.obj
 .debug_line    0x00000000000041eb      0x63e CMakeFiles/51_pb_remote_server.dir/__/nrf_mesh_sdk.c.obj
 .debug_line    0x0000000000004829       0xac CMakeFiles/51_pb_remote_server.dir/__/__/toolchain/gcc/gcc_startup_nrf51.S.obj
 .debug_line    0x00000000000048d5      0x17c CMakeFiles/51_pb_remote_server.dir/__/__/toolchain/system_nrf51.c.obj
 .debug_line    0x0000000000004a51      0x5f5 ../../mesh/lib_51_MBTLE_PB_ADV_EE.a(provisioning.c.obj)
 .debug_line    0x0000000000005046      0x4b9 ../../mesh/lib_51_MBTLE_PB_ADV_EE.a(nrf_mesh_prov.c.obj)
 .debug_line    0x00000000000054ff      0xae8 ../../mesh/lib_51_MBTLE_PB_ADV_EE.a(prov_bearer_adv.c.obj)
 .debug_line    0x0000000000005fe7      0x53b ../../mesh/lib_51_MBTLE_PB_ADV_EE.a(prov_utils.c.obj)
 .debug_line    0x0000000000006522      0x39f ../../mesh/lib_51_MBTLE_PB_ADV_EE.a(prov_beacon.c.obj)
 .debug_line    0x00000000000068c1      0x68f ../../mesh/lib_51_MBTLE_PB_ADV_EE.a(prov_provisionee.c.obj)
 .debug_line    0x0000000000006f50      0x231 ../../mesh/lib_51_MBTLE_CORE.a(nrf_mesh_weak.c.obj)
 .debug_line    0x0000000000007181      0x974 ../../mesh/lib_51_MBTLE_CORE.a(bearer_adv.c.obj)
 .debug_line    0x0000000000007af5      0x405 ../../mesh/lib_51_MBTLE_CORE.a(fifo.c.obj)
 .debug_line    0x0000000000007efa      0x4af ../../mesh/lib_51_MBTLE_CORE.a(packet_mgr.c.obj)
 .debug_line    0x00000000000083a9      0x564 ../../mesh/lib_51_MBTLE_CORE.a(radio.c.obj)
 .debug_line    0x000000000000890d      0x4a5 ../../mesh/lib_51_MBTLE_CORE.a(timer.c.obj)
 .debug_line    0x0000000000008db2      0x501 ../../mesh/lib_51_MBTLE_CORE.a(timer_scheduler.c.obj)
 .debug_line    0x00000000000092b3      0x506 ../../mesh/lib_51_MBTLE_CORE.a(beacon.c.obj)
 .debug_line    0x00000000000097b9      0x63a ../../mesh/lib_51_MBTLE_CORE.a(bearer.c.obj)
 .debug_line    0x0000000000009df3      0x53b ../../mesh/lib_51_MBTLE_CORE.a(bearer_event.c.obj)
 .debug_line    0x000000000000a32e      0x21c ../../mesh/lib_51_MBTLE_CORE.a(nrf_mesh_configure.c.obj)
 .debug_line    0x000000000000a54a      0x44e ../../mesh/lib_51_MBTLE_CORE.a(enc.c.obj)
 .debug_line    0x000000000000a998      0x31a ../../mesh/lib_51_MBTLE_CORE.a(event.c.obj)
 .debug_line    0x000000000000acb2      0x28c ../../mesh/lib_51_MBTLE_CORE.a(log.c.obj)
 .debug_line    0x000000000000af3e      0x399 ../../mesh/lib_51_MBTLE_CORE.a(net_beacon.c.obj)
 .debug_line    0x000000000000b2d7      0x6df ../../mesh/lib_51_MBTLE_CORE.a(net_state.c.obj)
 .debug_line    0x000000000000b9b6      0x77c ../../mesh/lib_51_MBTLE_CORE.a(nrf_mesh.c.obj)
 .debug_line    0x000000000000c132      0x2cd ../../mesh/lib_51_MBTLE_CORE.a(nrf_mesh_keygen.c.obj)
 .debug_line    0x000000000000c3ff      0x27b ../../mesh/lib_51_MBTLE_CORE.a(nrf_mesh_utils.c.obj)
 .debug_line    0x000000000000c67a      0x355 ../../mesh/lib_51_MBTLE_CORE.a(radio_config.c.obj)
 .debug_line    0x000000000000c9cf      0x2ab ../../mesh/lib_51_MBTLE_CORE.a(rand.c.obj)
 .debug_line    0x000000000000cc7a      0x163 ../../mesh/lib_51_MBTLE_CORE.a(ticker.c.obj)
 .debug_line    0x000000000000cddd     0x1513 ../../mesh/lib_51_MBTLE_CORE.a(transport.c.obj)
 .debug_line    0x000000000000e2f0      0x2a8 ../../mesh/lib_51_MBTLE_CORE.a(internal_event.c.obj)
 .debug_line    0x000000000000e598      0xbb2 ../../mesh/lib_51_MBTLE_CORE.a(flash_manager.c.obj)
 .debug_line    0x000000000000f14a      0x828 ../../mesh/lib_51_MBTLE_CORE.a(flash_manager_defrag.c.obj)
 .debug_line    0x000000000000f972      0x2a8 ../../mesh/lib_51_MBTLE_CORE.a(flash_manager_internal.c.obj)
 .debug_line    0x000000000000fc1a      0x313 ../../mesh/lib_51_MBTLE_CORE.a(aes.c.obj)
 .debug_line    0x000000000000ff2d      0x329 ../../mesh/lib_51_MBTLE_CORE.a(queue.c.obj)
 .debug_line    0x0000000000010256      0x5f4 ../../mesh/lib_51_MBTLE_CORE.a(timeslot.c.obj)
 .debug_line    0x000000000001084a      0x2b1 ../../mesh/lib_51_MBTLE_CORE.a(aes_cmac.c.obj)
 .debug_line    0x0000000000010afb      0x323 ../../mesh/lib_51_MBTLE_CORE.a(ccm_soft.c.obj)
 .debug_line    0x0000000000010e1e      0x2b4 ../../mesh/lib_51_MBTLE_CORE.a(msg_cache.c.obj)
 .debug_line    0x00000000000110d2      0x6f9 ../../mesh/lib_51_MBTLE_CORE.a(network.c.obj)
 .debug_line    0x00000000000117cb      0x27a ../../mesh/lib_51_MBTLE_CORE.a(packet.c.obj)
 .debug_line    0x0000000000011a45      0x6a4 ../../mesh/lib_51_MBTLE_CORE.a(packet_buffer.c.obj)
 .debug_line    0x00000000000120e9      0x20f ../../mesh/lib_51_MBTLE_CORE.a(replay_cache.c.obj)
 .debug_line    0x00000000000122f8      0x546 ../../mesh/lib_51_MBTLE_CORE.a(mesh_flash.c.obj)
 .debug_line    0x000000000001283e      0x2e7 ../../mesh/lib_51_MBTLE_CORE.a(nrf_flash.c.obj)
 .debug_line    0x0000000000012b25      0x397 ../../mesh/lib_51_MBTLE_CORE.a(msqueue.c.obj)
 .debug_line    0x0000000000012ebc      0x908 ../../lib/micro-ecc/lib_51_UECC_LIB.a(uECC.c.obj)
 .debug_line    0x00000000000137c4      0x4b5 ../../lib/rtt/lib_51_RTT_LIB.a(SEGGER_RTT.c.obj)
 .debug_line    0x0000000000013c79      0x2bb ../../lib/rtt/lib_51_RTT_LIB.a(SEGGER_RTT_printf.c.obj)

.debug_str      0x0000000000000000     0xfaac
 .debug_str     0x0000000000000000     0x2a5c CMakeFiles/51_pb_remote_server.dir/src/main.c.obj
                                       0x2d85 (size before relaxing)
 .debug_str     0x0000000000002a5c     0x14b9 CMakeFiles/51_pb_remote_server.dir/__/__/mesh/models/pb_remote/src/pb_remote_server.c.obj
                                       0x3b8f (size before relaxing)
 .debug_str     0x0000000000003f15     0x115a CMakeFiles/51_pb_remote_server.dir/__/__/mesh/src/access/access.c.obj
                                       0x3145 (size before relaxing)
 .debug_str     0x000000000000506f      0x18f CMakeFiles/51_pb_remote_server.dir/__/__/mesh/src/access/access_reliable.c.obj
                                        0xc41 (size before relaxing)
 .debug_str     0x00000000000051fe     0x10be CMakeFiles/51_pb_remote_server.dir/__/__/mesh/src/access/device_state_manager.c.obj
                                       0x336e (size before relaxing)
 .debug_str     0x00000000000062bc     0x15a9 CMakeFiles/51_pb_remote_server.dir/__/nrf_mesh_sdk.c.obj
                                       0x1f1f (size before relaxing)
 .debug_str     0x0000000000007865      0x116 CMakeFiles/51_pb_remote_server.dir/__/__/toolchain/system_nrf51.c.obj
                                        0x2c4 (size before relaxing)
 .debug_str     0x000000000000797b      0x488 ../../mesh/lib_51_MBTLE_PB_ADV_EE.a(provisioning.c.obj)
                                       0x16bd (size before relaxing)
 .debug_str     0x0000000000007e03      0x6c2 ../../mesh/lib_51_MBTLE_PB_ADV_EE.a(nrf_mesh_prov.c.obj)
                                       0x1a10 (size before relaxing)
 .debug_str     0x00000000000084c5      0x5c9 ../../mesh/lib_51_MBTLE_PB_ADV_EE.a(prov_bearer_adv.c.obj)
                                       0x16b9 (size before relaxing)
 .debug_str     0x0000000000008a8e      0x657 ../../mesh/lib_51_MBTLE_PB_ADV_EE.a(prov_utils.c.obj)
                                       0x1ee2 (size before relaxing)
 .debug_str     0x00000000000090e5      0x112 ../../mesh/lib_51_MBTLE_PB_ADV_EE.a(prov_beacon.c.obj)
                                       0x1c1c (size before relaxing)
 .debug_str     0x00000000000091f7      0x1c8 ../../mesh/lib_51_MBTLE_PB_ADV_EE.a(prov_provisionee.c.obj)
                                       0x2e6c (size before relaxing)
 .debug_str     0x00000000000093bf       0x68 ../../mesh/lib_51_MBTLE_CORE.a(nrf_mesh_weak.c.obj)
                                        0x670 (size before relaxing)
 .debug_str     0x0000000000009427      0x729 ../../mesh/lib_51_MBTLE_CORE.a(bearer_adv.c.obj)
                                       0x2b92 (size before relaxing)
 .debug_str     0x0000000000009b50       0x6f ../../mesh/lib_51_MBTLE_CORE.a(fifo.c.obj)
                                        0x6d8 (size before relaxing)
 .debug_str     0x0000000000009bbf      0x291 ../../mesh/lib_51_MBTLE_CORE.a(packet_mgr.c.obj)
                                        0x9e5 (size before relaxing)
 .debug_str     0x0000000000009e50      0x488 ../../mesh/lib_51_MBTLE_CORE.a(radio.c.obj)
                                       0x1066 (size before relaxing)
 .debug_str     0x000000000000a2d8      0x279 ../../mesh/lib_51_MBTLE_CORE.a(timer.c.obj)
                                        0x72b (size before relaxing)
 .debug_str     0x000000000000a551      0x188 ../../mesh/lib_51_MBTLE_CORE.a(timer_scheduler.c.obj)
                                        0x931 (size before relaxing)
 .debug_str     0x000000000000a6d9       0xcc ../../mesh/lib_51_MBTLE_CORE.a(beacon.c.obj)
                                        0xd16 (size before relaxing)
 .debug_str     0x000000000000a7a5      0x664 ../../mesh/lib_51_MBTLE_CORE.a(bearer.c.obj)
                                       0x149f (size before relaxing)
 .debug_str     0x000000000000ae09      0x233 ../../mesh/lib_51_MBTLE_CORE.a(bearer_event.c.obj)
                                        0xbe4 (size before relaxing)
 .debug_str     0x000000000000b03c       0xa1 ../../mesh/lib_51_MBTLE_CORE.a(nrf_mesh_configure.c.obj)
                                        0x737 (size before relaxing)
 .debug_str     0x000000000000b0dd      0x1e5 ../../mesh/lib_51_MBTLE_CORE.a(enc.c.obj)
                                        0x917 (size before relaxing)
 .debug_str     0x000000000000b2c2       0xef ../../mesh/lib_51_MBTLE_CORE.a(event.c.obj)
                                       0x1742 (size before relaxing)
 .debug_str     0x000000000000b3b1      0x1ae ../../mesh/lib_51_MBTLE_CORE.a(log.c.obj)
                                        0x7f3 (size before relaxing)
 .debug_str     0x000000000000b55f      0x252 ../../mesh/lib_51_MBTLE_CORE.a(net_beacon.c.obj)
                                        0xc04 (size before relaxing)
 .debug_str     0x000000000000b7b1      0x339 ../../mesh/lib_51_MBTLE_CORE.a(net_state.c.obj)
                                       0x246b (size before relaxing)
 .debug_str     0x000000000000baea      0x37c ../../mesh/lib_51_MBTLE_CORE.a(nrf_mesh.c.obj)
                                       0x2f64 (size before relaxing)
 .debug_str     0x000000000000be66       0x83 ../../mesh/lib_51_MBTLE_CORE.a(nrf_mesh_keygen.c.obj)
                                        0x7e8 (size before relaxing)
 .debug_str     0x000000000000bee9       0xa7 ../../mesh/lib_51_MBTLE_CORE.a(nrf_mesh_utils.c.obj)
                                        0x74e (size before relaxing)
 .debug_str     0x000000000000bf90       0xc0 ../../mesh/lib_51_MBTLE_CORE.a(radio_config.c.obj)
                                        0x700 (size before relaxing)
 .debug_str     0x000000000000c050       0xab ../../mesh/lib_51_MBTLE_CORE.a(rand.c.obj)
                                        0x70d (size before relaxing)
 .debug_str     0x000000000000c0fb       0x68 ../../mesh/lib_51_MBTLE_CORE.a(ticker.c.obj)
                                        0x34e (size before relaxing)
 .debug_str     0x000000000000c163      0x9f1 ../../mesh/lib_51_MBTLE_CORE.a(transport.c.obj)
                                       0x3285 (size before relaxing)
 .debug_str     0x000000000000cb54       0xec ../../mesh/lib_51_MBTLE_CORE.a(internal_event.c.obj)
                                        0xa9b (size before relaxing)
 .debug_str     0x000000000000cc40      0x8ef ../../mesh/lib_51_MBTLE_CORE.a(flash_manager.c.obj)
                                       0x1994 (size before relaxing)
 .debug_str     0x000000000000d52f      0x3d6 ../../mesh/lib_51_MBTLE_CORE.a(flash_manager_defrag.c.obj)
                                       0x1507 (size before relaxing)
 .debug_str     0x000000000000d905       0x64 ../../mesh/lib_51_MBTLE_CORE.a(flash_manager_internal.c.obj)
                                        0x7e1 (size before relaxing)
 .debug_str     0x000000000000d969      0x16d ../../mesh/lib_51_MBTLE_CORE.a(aes.c.obj)
                                        0xb80 (size before relaxing)
 .debug_str     0x000000000000dad6       0x50 ../../mesh/lib_51_MBTLE_CORE.a(queue.c.obj)
                                        0x680 (size before relaxing)
 .debug_str     0x000000000000db26      0x798 ../../mesh/lib_51_MBTLE_CORE.a(timeslot.c.obj)
                                       0x1787 (size before relaxing)
 .debug_str     0x000000000000e2be       0xf6 ../../mesh/lib_51_MBTLE_CORE.a(aes_cmac.c.obj)
                                        0x738 (size before relaxing)
 .debug_str     0x000000000000e3b4       0xb1 ../../mesh/lib_51_MBTLE_CORE.a(ccm_soft.c.obj)
                                        0x780 (size before relaxing)
 .debug_str     0x000000000000e465       0xbf ../../mesh/lib_51_MBTLE_CORE.a(msg_cache.c.obj)
                                        0x750 (size before relaxing)
 .debug_str     0x000000000000e524      0x282 ../../mesh/lib_51_MBTLE_CORE.a(network.c.obj)
                                       0x15cd (size before relaxing)
 .debug_str     0x000000000000e7a6       0x46 ../../mesh/lib_51_MBTLE_CORE.a(packet.c.obj)
                                        0x732 (size before relaxing)
 .debug_str     0x000000000000e7ec      0x2ae ../../mesh/lib_51_MBTLE_CORE.a(packet_buffer.c.obj)
                                        0xba6 (size before relaxing)
 .debug_str     0x000000000000ea9a       0xcb ../../mesh/lib_51_MBTLE_CORE.a(replay_cache.c.obj)
                                        0x6b2 (size before relaxing)
 .debug_str     0x000000000000eb65      0x345 ../../mesh/lib_51_MBTLE_CORE.a(mesh_flash.c.obj)
                                        0xbf7 (size before relaxing)
 .debug_str     0x000000000000eeaa       0xa8 ../../mesh/lib_51_MBTLE_CORE.a(nrf_flash.c.obj)
                                        0x6a6 (size before relaxing)
 .debug_str     0x000000000000ef52       0x7f ../../mesh/lib_51_MBTLE_CORE.a(msqueue.c.obj)
                                        0x6bc (size before relaxing)
 .debug_str     0x000000000000efd1      0x6a0 ../../lib/micro-ecc/lib_51_UECC_LIB.a(uECC.c.obj)
                                        0x87d (size before relaxing)
 .debug_str     0x000000000000f671      0x2f8 ../../lib/rtt/lib_51_RTT_LIB.a(SEGGER_RTT.c.obj)
                                        0x91f (size before relaxing)
 .debug_str     0x000000000000f969      0x143 ../../lib/rtt/lib_51_RTT_LIB.a(SEGGER_RTT_printf.c.obj)
                                        0x7cc (size before relaxing)

.debug_frame    0x0000000000000000     0x4b34
 .debug_frame   0x0000000000000000       0x5c CMakeFiles/51_pb_remote_server.dir/src/main.c.obj
 .debug_frame   0x000000000000005c      0x338 CMakeFiles/51_pb_remote_server.dir/__/__/mesh/models/pb_remote/src/pb_remote_server.c.obj
 .debug_frame   0x0000000000000394      0x424 CMakeFiles/51_pb_remote_server.dir/__/__/mesh/src/access/access.c.obj
 .debug_frame   0x00000000000007b8       0xc8 CMakeFiles/51_pb_remote_server.dir/__/__/mesh/src/access/access_reliable.c.obj
 .debug_frame   0x0000000000000880      0x810 CMakeFiles/51_pb_remote_server.dir/__/__/mesh/src/access/device_state_manager.c.obj
 .debug_frame   0x0000000000001090      0x124 CMakeFiles/51_pb_remote_server.dir/__/nrf_mesh_sdk.c.obj
 .debug_frame   0x00000000000011b4       0x30 CMakeFiles/51_pb_remote_server.dir/__/__/toolchain/system_nrf51.c.obj
 .debug_frame   0x00000000000011e4      0x240 ../../mesh/lib_51_MBTLE_PB_ADV_EE.a(provisioning.c.obj)
 .debug_frame   0x0000000000001424       0xe0 ../../mesh/lib_51_MBTLE_PB_ADV_EE.a(nrf_mesh_prov.c.obj)
 .debug_frame   0x0000000000001504      0x260 ../../mesh/lib_51_MBTLE_PB_ADV_EE.a(prov_bearer_adv.c.obj)
 .debug_frame   0x0000000000001764      0x134 ../../mesh/lib_51_MBTLE_PB_ADV_EE.a(prov_utils.c.obj)
 .debug_frame   0x0000000000001898       0x60 ../../mesh/lib_51_MBTLE_PB_ADV_EE.a(prov_beacon.c.obj)
 .debug_frame   0x00000000000018f8      0x144 ../../mesh/lib_51_MBTLE_PB_ADV_EE.a(prov_provisionee.c.obj)
 .debug_frame   0x0000000000001a3c       0x30 ../../mesh/lib_51_MBTLE_CORE.a(nrf_mesh_weak.c.obj)
 .debug_frame   0x0000000000001a6c      0x324 ../../mesh/lib_51_MBTLE_CORE.a(bearer_adv.c.obj)
 .debug_frame   0x0000000000001d90       0xd4 ../../mesh/lib_51_MBTLE_CORE.a(fifo.c.obj)
 .debug_frame   0x0000000000001e64       0xa4 ../../mesh/lib_51_MBTLE_CORE.a(packet_mgr.c.obj)
 .debug_frame   0x0000000000001f08      0x16c ../../mesh/lib_51_MBTLE_CORE.a(radio.c.obj)
 .debug_frame   0x0000000000002074       0xf8 ../../mesh/lib_51_MBTLE_CORE.a(timer.c.obj)
 .debug_frame   0x000000000000216c      0x11c ../../mesh/lib_51_MBTLE_CORE.a(timer_scheduler.c.obj)
 .debug_frame   0x0000000000002288       0x90 ../../mesh/lib_51_MBTLE_CORE.a(beacon.c.obj)
 .debug_frame   0x0000000000002318      0x188 ../../mesh/lib_51_MBTLE_CORE.a(bearer.c.obj)
 .debug_frame   0x00000000000024a0      0x128 ../../mesh/lib_51_MBTLE_CORE.a(bearer_event.c.obj)
 .debug_frame   0x00000000000025c8       0x50 ../../mesh/lib_51_MBTLE_CORE.a(nrf_mesh_configure.c.obj)
 .debug_frame   0x0000000000002618      0x150 ../../mesh/lib_51_MBTLE_CORE.a(enc.c.obj)
 .debug_frame   0x0000000000002768       0x64 ../../mesh/lib_51_MBTLE_CORE.a(event.c.obj)
 .debug_frame   0x00000000000027cc       0xa0 ../../mesh/lib_51_MBTLE_CORE.a(log.c.obj)
 .debug_frame   0x000000000000286c       0xa4 ../../mesh/lib_51_MBTLE_CORE.a(net_beacon.c.obj)
 .debug_frame   0x0000000000002910      0x1d8 ../../mesh/lib_51_MBTLE_CORE.a(net_state.c.obj)
 .debug_frame   0x0000000000002ae8      0x140 ../../mesh/lib_51_MBTLE_CORE.a(nrf_mesh.c.obj)
 .debug_frame   0x0000000000002c28       0xa0 ../../mesh/lib_51_MBTLE_CORE.a(nrf_mesh_keygen.c.obj)
 .debug_frame   0x0000000000002cc8       0x50 ../../mesh/lib_51_MBTLE_CORE.a(nrf_mesh_utils.c.obj)
 .debug_frame   0x0000000000002d18       0x84 ../../mesh/lib_51_MBTLE_CORE.a(radio_config.c.obj)
 .debug_frame   0x0000000000002d9c       0x90 ../../mesh/lib_51_MBTLE_CORE.a(rand.c.obj)
 .debug_frame   0x0000000000002e2c       0x48 ../../mesh/lib_51_MBTLE_CORE.a(ticker.c.obj)
 .debug_frame   0x0000000000002e74      0x2c8 ../../mesh/lib_51_MBTLE_CORE.a(transport.c.obj)
 .debug_frame   0x000000000000313c       0x58 ../../mesh/lib_51_MBTLE_CORE.a(internal_event.c.obj)
 .debug_frame   0x0000000000003194      0x264 ../../mesh/lib_51_MBTLE_CORE.a(flash_manager.c.obj)
 .debug_frame   0x00000000000033f8      0x1e8 ../../mesh/lib_51_MBTLE_CORE.a(flash_manager_defrag.c.obj)
 .debug_frame   0x00000000000035e0       0x38 ../../mesh/lib_51_MBTLE_CORE.a(flash_manager_internal.c.obj)
 .debug_frame   0x0000000000003618       0x3c ../../mesh/lib_51_MBTLE_CORE.a(aes.c.obj)
 .debug_frame   0x0000000000003654       0x74 ../../mesh/lib_51_MBTLE_CORE.a(queue.c.obj)
 .debug_frame   0x00000000000036c8      0x178 ../../mesh/lib_51_MBTLE_CORE.a(timeslot.c.obj)
 .debug_frame   0x0000000000003840       0x50 ../../mesh/lib_51_MBTLE_CORE.a(aes_cmac.c.obj)
 .debug_frame   0x0000000000003890       0xe0 ../../mesh/lib_51_MBTLE_CORE.a(ccm_soft.c.obj)
 .debug_frame   0x0000000000003970       0x84 ../../mesh/lib_51_MBTLE_CORE.a(msg_cache.c.obj)
 .debug_frame   0x00000000000039f4       0xfc ../../mesh/lib_51_MBTLE_CORE.a(network.c.obj)
 .debug_frame   0x0000000000003af0       0x30 ../../mesh/lib_51_MBTLE_CORE.a(packet.c.obj)
 .debug_frame   0x0000000000003b20      0x124 ../../mesh/lib_51_MBTLE_CORE.a(packet_buffer.c.obj)
 .debug_frame   0x0000000000003c44       0xa8 ../../mesh/lib_51_MBTLE_CORE.a(replay_cache.c.obj)
 .debug_frame   0x0000000000003cec      0x10c ../../mesh/lib_51_MBTLE_CORE.a(mesh_flash.c.obj)
 .debug_frame   0x0000000000003df8       0x48 ../../mesh/lib_51_MBTLE_CORE.a(nrf_flash.c.obj)
 .debug_frame   0x0000000000003e40       0x94 ../../mesh/lib_51_MBTLE_CORE.a(msqueue.c.obj)
 .debug_frame   0x0000000000003ed4      0x5c4 ../../lib/micro-ecc/lib_51_UECC_LIB.a(uECC.c.obj)
 .debug_frame   0x0000000000004498      0x2dc ../../lib/rtt/lib_51_RTT_LIB.a(SEGGER_RTT.c.obj)
 .debug_frame   0x0000000000004774       0x9c ../../lib/rtt/lib_51_RTT_LIB.a(SEGGER_RTT_printf.c.obj)
 .debug_frame   0x0000000000004810       0x20 /usr/bin/../lib/gcc/arm-none-eabi/6.3.1/thumb/v6-m/libgcc.a(_udivsi3.o)
 .debug_frame   0x0000000000004830       0x20 /usr/bin/../lib/gcc/arm-none-eabi/6.3.1/thumb/v6-m/libgcc.a(_divsi3.o)
 .debug_frame   0x0000000000004850       0x34 /usr/bin/../lib/gcc/arm-none-eabi/6.3.1/thumb/v6-m/libgcc.a(_muldi3.o)
 .debug_frame   0x0000000000004884       0x28 /usr/bin/../lib/gcc/arm-none-eabi/6.3.1/../../../../arm-none-eabi/lib/thumb/v6-m/libg_nano.a(lib_a-exit.o)
 .debug_frame   0x00000000000048ac       0x2c /usr/bin/../lib/gcc/arm-none-eabi/6.3.1/../../../../arm-none-eabi/lib/thumb/v6-m/libg_nano.a(lib_a-init.o)
 .debug_frame   0x00000000000048d8       0x40 /usr/bin/../lib/gcc/arm-none-eabi/6.3.1/../../../../arm-none-eabi/lib/thumb/v6-m/libg_nano.a(lib_a-malloc.o)
 .debug_frame   0x0000000000004918       0x2c /usr/bin/../lib/gcc/arm-none-eabi/6.3.1/../../../../arm-none-eabi/lib/thumb/v6-m/libg_nano.a(lib_a-memcmp.o)
 .debug_frame   0x0000000000004944       0x28 /usr/bin/../lib/gcc/arm-none-eabi/6.3.1/../../../../arm-none-eabi/lib/thumb/v6-m/libg_nano.a(lib_a-memcpy-stub.o)
 .debug_frame   0x000000000000496c       0x20 /usr/bin/../lib/gcc/arm-none-eabi/6.3.1/../../../../arm-none-eabi/lib/thumb/v6-m/libg_nano.a(lib_a-memset.o)
 .debug_frame   0x000000000000498c       0x2c /usr/bin/../lib/gcc/arm-none-eabi/6.3.1/../../../../arm-none-eabi/lib/thumb/v6-m/libg_nano.a(lib_a-nano-freer.o)
 .debug_frame   0x00000000000049b8       0x2c /usr/bin/../lib/gcc/arm-none-eabi/6.3.1/../../../../arm-none-eabi/lib/thumb/v6-m/libg_nano.a(lib_a-nano-mallocr.o)
 .debug_frame   0x00000000000049e4       0x2c /usr/bin/../lib/gcc/arm-none-eabi/6.3.1/../../../../arm-none-eabi/lib/thumb/v6-m/libg_nano.a(lib_a-sbrkr.o)
 .debug_frame   0x0000000000004a10       0x20 /usr/bin/../lib/gcc/arm-none-eabi/6.3.1/../../../../arm-none-eabi/lib/thumb/v6-m/libg_nano.a(lib_a-strcpy.o)
 .debug_frame   0x0000000000004a30       0x2c /usr/bin/../lib/gcc/arm-none-eabi/6.3.1/../../../../arm-none-eabi/lib/thumb/v6-m/libg_nano.a(lib_a-strrchr.o)
 .debug_frame   0x0000000000004a5c       0x30 /usr/bin/../lib/gcc/arm-none-eabi/6.3.1/../../../../arm-none-eabi/lib/thumb/v6-m/libg_nano.a(lib_a-mlock.o)
 .debug_frame   0x0000000000004a8c       0x48 /usr/bin/../lib/gcc/arm-none-eabi/6.3.1/../../../../arm-none-eabi/lib/thumb/v6-m/libg_nano.a(lib_a-reent.o)
 .debug_frame   0x0000000000004ad4       0x20 /usr/bin/../lib/gcc/arm-none-eabi/6.3.1/../../../../arm-none-eabi/lib/thumb/v6-m/libg_nano.a(lib_a-strchr.o)
 .debug_frame   0x0000000000004af4       0x20 /usr/bin/../lib/gcc/arm-none-eabi/6.3.1/../../../../arm-none-eabi/lib/thumb/v6-m/libnosys.a(sbrk.o)
 .debug_frame   0x0000000000004b14       0x20 /usr/bin/../lib/gcc/arm-none-eabi/6.3.1/../../../../arm-none-eabi/lib/thumb/v6-m/libnosys.a(_exit.o)
