Archive member included to satisfy reference by file (symbol)

../../mesh/lib_51_MBTLE_PB_ADV_EE.a(prov_provisionee.c.obj)
                              CMakeFiles/51_mijia_device.dir/__/__/mesh/src/prov/nrf_mesh_prov.c.obj (prov_provisionee_init)
../../mesh/lib_51_MBTLE_CORE.a(nrf_mesh_weak.c.obj)
                              CMakeFiles/51_mijia_device.dir/__/__/mesh/src/prov/nrf_mesh_prov.c.obj (prov_provisioner_oob_pubkey)
../../mesh/lib_51_MBTLE_CORE.a(bearer_adv.c.obj)
                              CMakeFiles/51_mijia_device.dir/__/__/mesh/src/prov/prov_bearer_adv.c.obj (bearer_adv_advertiser_init)
../../mesh/lib_51_MBTLE_CORE.a(fifo.c.obj)
                              ../../mesh/lib_51_MBTLE_CORE.a(bearer_adv.c.obj) (fifo_init)
../../mesh/lib_51_MBTLE_CORE.a(packet_mgr.c.obj)
                              CMakeFiles/51_mijia_device.dir/__/__/mesh/src/prov/prov_bearer_adv.c.obj (packet_mgr_alloc)
../../mesh/lib_51_MBTLE_CORE.a(radio.c.obj)
                              ../../mesh/lib_51_MBTLE_CORE.a(bearer_adv.c.obj) (radio_init)
../../mesh/lib_51_MBTLE_CORE.a(timer.c.obj)
                              CMakeFiles/51_mijia_device.dir/__/__/mesh/src/prov/prov_bearer_adv.c.obj (timer_now)
../../mesh/lib_51_MBTLE_CORE.a(timer_scheduler.c.obj)
                              CMakeFiles/51_mijia_device.dir/__/__/mesh/src/access/access_publish.c.obj (timer_sch_schedule)
../../mesh/lib_51_MBTLE_CORE.a(beacon.c.obj)
                              CMakeFiles/51_mijia_device.dir/__/__/mesh/src/prov/prov_beacon.c.obj (beacon_create)
../../mesh/lib_51_MBTLE_CORE.a(bearer.c.obj)
                              ../../mesh/lib_51_MBTLE_CORE.a(bearer_adv.c.obj) (bearer_adtype_filtering_set)
../../mesh/lib_51_MBTLE_CORE.a(bearer_event.c.obj)
                              ../../mesh/lib_51_MBTLE_CORE.a(bearer_adv.c.obj) (bearer_event_generic_post)
../../mesh/lib_51_MBTLE_CORE.a(nrf_mesh_configure.c.obj)
                              CMakeFiles/51_mijia_device.dir/__/__/mesh/src/prov/prov_bearer_adv.c.obj (nrf_mesh_configure_device_uuid_get)
../../mesh/lib_51_MBTLE_CORE.a(enc.c.obj)
                              CMakeFiles/51_mijia_device.dir/__/__/mesh/src/prov/prov_utils.c.obj (enc_aes_cmac)
../../mesh/lib_51_MBTLE_CORE.a(event.c.obj)
                              CMakeFiles/51_mijia_device.dir/__/__/mesh/src/prov/prov_beacon.c.obj (event_handle)
../../mesh/lib_51_MBTLE_CORE.a(log.c.obj)
                              CMakeFiles/51_mijia_device.dir/src/main.c.obj (log_callback_rtt)
../../mesh/lib_51_MBTLE_CORE.a(net_beacon.c.obj)
                              CMakeFiles/51_mijia_device.dir/__/__/mesh/models/config/src/config_server.c.obj (net_beacon_state_set)
../../mesh/lib_51_MBTLE_CORE.a(net_state.c.obj)
                              CMakeFiles/51_mijia_device.dir/__/__/mesh/src/access/nrf_mesh_node_config.c.obj (net_state_reset)
../../mesh/lib_51_MBTLE_CORE.a(nrf_mesh.c.obj)
                              CMakeFiles/51_mijia_device.dir/__/__/mesh/src/access/nrf_mesh_node_config.c.obj (nrf_mesh_init)
../../mesh/lib_51_MBTLE_CORE.a(nrf_mesh_keygen.c.obj)
                              CMakeFiles/51_mijia_device.dir/__/__/mesh/src/access/device_state_manager.c.obj (nrf_mesh_keygen_aid)
../../mesh/lib_51_MBTLE_CORE.a(nrf_mesh_utils.c.obj)
                              CMakeFiles/51_mijia_device.dir/__/__/mesh/src/prov/nrf_mesh_prov.c.obj (nrf_mesh_address_type_get)
../../mesh/lib_51_MBTLE_CORE.a(nrf_mesh_opt.c.obj)
                              CMakeFiles/51_mijia_device.dir/__/__/mesh/models/config/src/config_server.c.obj (nrf_mesh_opt_set)
../../mesh/lib_51_MBTLE_CORE.a(radio_config.c.obj)
                              ../../mesh/lib_51_MBTLE_CORE.a(radio.c.obj) (radio_config_reset)
../../mesh/lib_51_MBTLE_CORE.a(rand.c.obj)
                              ../../mesh/lib_51_MBTLE_CORE.a(bearer_adv.c.obj) (rand_prng_get)
../../mesh/lib_51_MBTLE_CORE.a(ticker.c.obj)
                              ../../mesh/lib_51_MBTLE_CORE.a(nrf_mesh.c.obj) (ticker_init)
../../mesh/lib_51_MBTLE_CORE.a(transport.c.obj)
                              ../../mesh/lib_51_MBTLE_CORE.a(nrf_mesh.c.obj) (transport_init)
../../mesh/lib_51_MBTLE_CORE.a(internal_event.c.obj)
                              ../../mesh/lib_51_MBTLE_CORE.a(bearer.c.obj) (internal_event_push)
../../mesh/lib_51_MBTLE_CORE.a(flash_manager.c.obj)
                              ../../mesh/lib_51_MBTLE_CORE.a(nrf_mesh.c.obj) (flash_manager_init)
../../mesh/lib_51_MBTLE_CORE.a(flash_manager_defrag.c.obj)
                              ../../mesh/lib_51_MBTLE_CORE.a(flash_manager.c.obj) (flash_manager_defrag_init)
../../mesh/lib_51_MBTLE_CORE.a(flash_manager_internal.c.obj)
                              ../../mesh/lib_51_MBTLE_CORE.a(flash_manager.c.obj) (entry_get)
../../mesh/lib_51_MBTLE_CORE.a(aes.c.obj)
                              ../../mesh/lib_51_MBTLE_CORE.a(enc.c.obj) (aes_encrypt)
../../mesh/lib_51_MBTLE_CORE.a(queue.c.obj)
                              ../../mesh/lib_51_MBTLE_CORE.a(flash_manager.c.obj) (queue_init)
../../mesh/lib_51_MBTLE_CORE.a(timeslot.c.obj)
                              ../../mesh/lib_51_MBTLE_CORE.a(nrf_mesh.c.obj) (timeslot_sd_event_handler)
../../mesh/lib_51_MBTLE_CORE.a(aes_cmac.c.obj)
                              ../../mesh/lib_51_MBTLE_CORE.a(enc.c.obj) (aes_cmac)
../../mesh/lib_51_MBTLE_CORE.a(ccm_soft.c.obj)
                              ../../mesh/lib_51_MBTLE_CORE.a(enc.c.obj) (ccm_soft_encrypt)
../../mesh/lib_51_MBTLE_CORE.a(msg_cache.c.obj)
                              ../../mesh/lib_51_MBTLE_CORE.a(nrf_mesh.c.obj) (msg_cache_init)
../../mesh/lib_51_MBTLE_CORE.a(network.c.obj)
                              ../../mesh/lib_51_MBTLE_CORE.a(transport.c.obj) (network_pkt_relay)
../../mesh/lib_51_MBTLE_CORE.a(packet.c.obj)
                              ../../mesh/lib_51_MBTLE_CORE.a(network.c.obj) (packet_type_packet_get)
../../mesh/lib_51_MBTLE_CORE.a(packet_buffer.c.obj)
                              ../../mesh/lib_51_MBTLE_CORE.a(flash_manager.c.obj) (packet_buffer_init)
../../mesh/lib_51_MBTLE_CORE.a(replay_cache.c.obj)
                              ../../mesh/lib_51_MBTLE_CORE.a(transport.c.obj) (replay_cache_add)
../../mesh/lib_51_MBTLE_CORE.a(mesh_flash.c.obj)
                              ../../mesh/lib_51_MBTLE_CORE.a(flash_manager.c.obj) (mesh_flash_user_callback_set)
../../mesh/lib_51_MBTLE_CORE.a(nrf_flash.c.obj)
                              ../../mesh/lib_51_MBTLE_CORE.a(mesh_flash.c.obj) (nrf_flash_erase)
../../mesh/lib_51_MBTLE_CORE.a(msqueue.c.obj)
                              ../../mesh/lib_51_MBTLE_CORE.a(mesh_flash.c.obj) (msq_get)
../../lib/micro-ecc/lib_51_UECC_LIB.a(uECC.c.obj)
                              CMakeFiles/51_mijia_device.dir/__/__/mesh/src/prov/prov_utils.c.obj (uECC_secp256r1)
../../lib/rtt/lib_51_RTT_LIB.a(SEGGER_RTT.c.obj)
                              ../../mesh/lib_51_MBTLE_CORE.a(log.c.obj) (SEGGER_RTT_Write)
../../lib/rtt/lib_51_RTT_LIB.a(SEGGER_RTT_printf.c.obj)
                              ../../mesh/lib_51_MBTLE_CORE.a(log.c.obj) (SEGGER_RTT_vprintf)
/usr/bin/../lib/gcc/arm-none-eabi/6.3.1/thumb/v6-m/libgcc.a(_udivsi3.o)
                              CMakeFiles/51_mijia_device.dir/__/__/mesh/src/prov/prov_bearer_adv.c.obj (__aeabi_uidiv)
/usr/bin/../lib/gcc/arm-none-eabi/6.3.1/thumb/v6-m/libgcc.a(_divsi3.o)
                              CMakeFiles/51_mijia_device.dir/__/__/mesh/src/access/access_reliable.c.obj (__aeabi_idiv)
/usr/bin/../lib/gcc/arm-none-eabi/6.3.1/thumb/v6-m/libgcc.a(_dvmd_tls.o)
                              /usr/bin/../lib/gcc/arm-none-eabi/6.3.1/thumb/v6-m/libgcc.a(_udivsi3.o) (__aeabi_idiv0)
/usr/bin/../lib/gcc/arm-none-eabi/6.3.1/thumb/v6-m/libgcc.a(_muldi3.o)
                              ../../mesh/lib_51_MBTLE_CORE.a(timeslot.c.obj) (__aeabi_lmul)
/usr/bin/../lib/gcc/arm-none-eabi/6.3.1/../../../../arm-none-eabi/lib/thumb/v6-m/libg_nano.a(lib_a-exit.o)
                              /usr/bin/../lib/gcc/arm-none-eabi/6.3.1/../../../../arm-none-eabi/lib/thumb/v6-m/crt0.o (exit)
/usr/bin/../lib/gcc/arm-none-eabi/6.3.1/../../../../arm-none-eabi/lib/thumb/v6-m/libg_nano.a(lib_a-impure.o)
                              /usr/bin/../lib/gcc/arm-none-eabi/6.3.1/../../../../arm-none-eabi/lib/thumb/v6-m/libg_nano.a(lib_a-exit.o) (_global_impure_ptr)
/usr/bin/../lib/gcc/arm-none-eabi/6.3.1/../../../../arm-none-eabi/lib/thumb/v6-m/libg_nano.a(lib_a-init.o)
                              /usr/bin/../lib/gcc/arm-none-eabi/6.3.1/../../../../arm-none-eabi/lib/thumb/v6-m/crt0.o (__libc_init_array)
/usr/bin/../lib/gcc/arm-none-eabi/6.3.1/../../../../arm-none-eabi/lib/thumb/v6-m/libg_nano.a(lib_a-malloc.o)
                              ../../mesh/lib_51_MBTLE_CORE.a(transport.c.obj) (malloc)
/usr/bin/../lib/gcc/arm-none-eabi/6.3.1/../../../../arm-none-eabi/lib/thumb/v6-m/libg_nano.a(lib_a-memcmp.o)
                              CMakeFiles/51_mijia_device.dir/__/__/mesh/src/prov/prov_bearer_adv.c.obj (memcmp)
/usr/bin/../lib/gcc/arm-none-eabi/6.3.1/../../../../arm-none-eabi/lib/thumb/v6-m/libg_nano.a(lib_a-memcpy-stub.o)
                              CMakeFiles/51_mijia_device.dir/__/__/mesh/src/prov/provisioning.c.obj (memcpy)
/usr/bin/../lib/gcc/arm-none-eabi/6.3.1/../../../../arm-none-eabi/lib/thumb/v6-m/libg_nano.a(lib_a-memset.o)
                              /usr/bin/../lib/gcc/arm-none-eabi/6.3.1/../../../../arm-none-eabi/lib/thumb/v6-m/crt0.o (memset)
/usr/bin/../lib/gcc/arm-none-eabi/6.3.1/../../../../arm-none-eabi/lib/thumb/v6-m/libg_nano.a(lib_a-nano-freer.o)
                              /usr/bin/../lib/gcc/arm-none-eabi/6.3.1/../../../../arm-none-eabi/lib/thumb/v6-m/libg_nano.a(lib_a-malloc.o) (_free_r)
/usr/bin/../lib/gcc/arm-none-eabi/6.3.1/../../../../arm-none-eabi/lib/thumb/v6-m/libg_nano.a(lib_a-nano-mallocr.o)
                              /usr/bin/../lib/gcc/arm-none-eabi/6.3.1/../../../../arm-none-eabi/lib/thumb/v6-m/libg_nano.a(lib_a-malloc.o) (_malloc_r)
/usr/bin/../lib/gcc/arm-none-eabi/6.3.1/../../../../arm-none-eabi/lib/thumb/v6-m/libg_nano.a(lib_a-sbrkr.o)
                              /usr/bin/../lib/gcc/arm-none-eabi/6.3.1/../../../../arm-none-eabi/lib/thumb/v6-m/libg_nano.a(lib_a-nano-mallocr.o) (_sbrk_r)
/usr/bin/../lib/gcc/arm-none-eabi/6.3.1/../../../../arm-none-eabi/lib/thumb/v6-m/libg_nano.a(lib_a-strcpy.o)
                              ../../lib/rtt/lib_51_RTT_LIB.a(SEGGER_RTT.c.obj) (strcpy)
/usr/bin/../lib/gcc/arm-none-eabi/6.3.1/../../../../arm-none-eabi/lib/thumb/v6-m/libg_nano.a(lib_a-strlen.o)
                              CMakeFiles/51_mijia_device.dir/__/__/mesh/src/prov/prov_beacon.c.obj (strlen)
/usr/bin/../lib/gcc/arm-none-eabi/6.3.1/../../../../arm-none-eabi/lib/thumb/v6-m/libg_nano.a(lib_a-strrchr.o)
                              CMakeFiles/51_mijia_device.dir/src/main.c.obj (strrchr)
/usr/bin/../lib/gcc/arm-none-eabi/6.3.1/../../../../arm-none-eabi/lib/thumb/v6-m/libg_nano.a(lib_a-mlock.o)
                              /usr/bin/../lib/gcc/arm-none-eabi/6.3.1/../../../../arm-none-eabi/lib/thumb/v6-m/libg_nano.a(lib_a-nano-freer.o) (__malloc_lock)
/usr/bin/../lib/gcc/arm-none-eabi/6.3.1/../../../../arm-none-eabi/lib/thumb/v6-m/libg_nano.a(lib_a-reent.o)
                              /usr/bin/../lib/gcc/arm-none-eabi/6.3.1/../../../../arm-none-eabi/lib/thumb/v6-m/libg_nano.a(lib_a-sbrkr.o) (errno)
/usr/bin/../lib/gcc/arm-none-eabi/6.3.1/../../../../arm-none-eabi/lib/thumb/v6-m/libg_nano.a(lib_a-strchr.o)
                              /usr/bin/../lib/gcc/arm-none-eabi/6.3.1/../../../../arm-none-eabi/lib/thumb/v6-m/libg_nano.a(lib_a-strrchr.o) (strchr)
/usr/bin/../lib/gcc/arm-none-eabi/6.3.1/../../../../arm-none-eabi/lib/thumb/v6-m/libnosys.a(sbrk.o)
                              /usr/bin/../lib/gcc/arm-none-eabi/6.3.1/../../../../arm-none-eabi/lib/thumb/v6-m/libg_nano.a(lib_a-sbrkr.o) (_sbrk)
/usr/bin/../lib/gcc/arm-none-eabi/6.3.1/../../../../arm-none-eabi/lib/thumb/v6-m/libnosys.a(_exit.o)
                              /usr/bin/../lib/gcc/arm-none-eabi/6.3.1/../../../../arm-none-eabi/lib/thumb/v6-m/libg_nano.a(lib_a-exit.o) (_exit)

Allocating common symbols
Common symbol       size              file

nrf_nvic_state      0x8               CMakeFiles/51_mijia_device.dir/__/nrf_mesh_sdk.c.obj
errno               0x4               /usr/bin/../lib/gcc/arm-none-eabi/6.3.1/../../../../arm-none-eabi/lib/thumb/v6-m/libg_nano.a(lib_a-reent.o)
m_assertion_handler
                    0x4               ../../mesh/lib_51_MBTLE_CORE.a(nrf_mesh.c.obj)
_SEGGER_RTT         0x78              ../../lib/rtt/lib_51_RTT_LIB.a(SEGGER_RTT.c.obj)

Discarded input sections

 .text          0x0000000000000000        0x0 /usr/bin/../lib/gcc/arm-none-eabi/6.3.1/thumb/v6-m/crti.o
 .data          0x0000000000000000        0x0 /usr/bin/../lib/gcc/arm-none-eabi/6.3.1/thumb/v6-m/crti.o
 .bss           0x0000000000000000        0x0 /usr/bin/../lib/gcc/arm-none-eabi/6.3.1/thumb/v6-m/crti.o
 .data          0x0000000000000000        0x4 /usr/bin/../lib/gcc/arm-none-eabi/6.3.1/thumb/v6-m/crtbegin.o
 .data          0x0000000000000000        0x0 /usr/bin/../lib/gcc/arm-none-eabi/6.3.1/../../../../arm-none-eabi/lib/thumb/v6-m/crt0.o
 .bss           0x0000000000000000        0x0 /usr/bin/../lib/gcc/arm-none-eabi/6.3.1/../../../../arm-none-eabi/lib/thumb/v6-m/crt0.o
 .ARM.extab     0x0000000000000000        0x0 /usr/bin/../lib/gcc/arm-none-eabi/6.3.1/../../../../arm-none-eabi/lib/thumb/v6-m/crt0.o
 .text          0x0000000000000000        0x0 CMakeFiles/51_mijia_device.dir/src/main.c.obj
 .data          0x0000000000000000        0x0 CMakeFiles/51_mijia_device.dir/src/main.c.obj
 .bss           0x0000000000000000        0x0 CMakeFiles/51_mijia_device.dir/src/main.c.obj
 .text          0x0000000000000000        0x0 CMakeFiles/51_mijia_device.dir/__/__/mesh/src/prov/provisioning.c.obj
 .data          0x0000000000000000        0x0 CMakeFiles/51_mijia_device.dir/__/__/mesh/src/prov/provisioning.c.obj
 .bss           0x0000000000000000        0x0 CMakeFiles/51_mijia_device.dir/__/__/mesh/src/prov/provisioning.c.obj
 .text.prov_listen_stop
                0x0000000000000000        0xe CMakeFiles/51_mijia_device.dir/__/__/mesh/src/prov/provisioning.c.obj
 .text.prov_link_open
                0x0000000000000000       0x14 CMakeFiles/51_mijia_device.dir/__/__/mesh/src/prov/provisioning.c.obj
 .text.prov_tx_invite
                0x0000000000000000       0x28 CMakeFiles/51_mijia_device.dir/__/__/mesh/src/prov/provisioning.c.obj
 .text.prov_tx_start
                0x0000000000000000       0x1e CMakeFiles/51_mijia_device.dir/__/__/mesh/src/prov/provisioning.c.obj
 .text.prov_tx_data
                0x0000000000000000        0xa CMakeFiles/51_mijia_device.dir/__/__/mesh/src/prov/provisioning.c.obj
 .text.prov_tx  0x0000000000000000        0x8 CMakeFiles/51_mijia_device.dir/__/__/mesh/src/prov/provisioning.c.obj
 .text          0x0000000000000000        0x0 CMakeFiles/51_mijia_device.dir/__/__/mesh/src/prov/nrf_mesh_prov.c.obj
 .data          0x0000000000000000        0x0 CMakeFiles/51_mijia_device.dir/__/__/mesh/src/prov/nrf_mesh_prov.c.obj
 .bss           0x0000000000000000        0x0 CMakeFiles/51_mijia_device.dir/__/__/mesh/src/prov/nrf_mesh_prov.c.obj
 .text.nrf_mesh_prov_provision
                0x0000000000000000       0x78 CMakeFiles/51_mijia_device.dir/__/__/mesh/src/prov/nrf_mesh_prov.c.obj
 .text.nrf_mesh_prov_oob_use
                0x0000000000000000       0x18 CMakeFiles/51_mijia_device.dir/__/__/mesh/src/prov/nrf_mesh_prov.c.obj
 .text.nrf_mesh_prov_shared_secret_provide
                0x0000000000000000       0x1c CMakeFiles/51_mijia_device.dir/__/__/mesh/src/prov/nrf_mesh_prov.c.obj
 .text.nrf_mesh_prov_pubkey_provide
                0x0000000000000000       0x18 CMakeFiles/51_mijia_device.dir/__/__/mesh/src/prov/nrf_mesh_prov.c.obj
 .text          0x0000000000000000        0x0 CMakeFiles/51_mijia_device.dir/__/__/mesh/src/prov/prov_bearer_adv.c.obj
 .data          0x0000000000000000        0x0 CMakeFiles/51_mijia_device.dir/__/__/mesh/src/prov/prov_bearer_adv.c.obj
 .bss           0x0000000000000000        0x0 CMakeFiles/51_mijia_device.dir/__/__/mesh/src/prov/prov_bearer_adv.c.obj
 .text          0x0000000000000000        0x0 CMakeFiles/51_mijia_device.dir/__/__/mesh/src/prov/prov_utils.c.obj
 .data          0x0000000000000000        0x0 CMakeFiles/51_mijia_device.dir/__/__/mesh/src/prov/prov_utils.c.obj
 .bss           0x0000000000000000        0x0 CMakeFiles/51_mijia_device.dir/__/__/mesh/src/prov/prov_utils.c.obj
 .text          0x0000000000000000        0x0 CMakeFiles/51_mijia_device.dir/__/__/mesh/src/prov/prov_beacon.c.obj
 .data          0x0000000000000000        0x0 CMakeFiles/51_mijia_device.dir/__/__/mesh/src/prov/prov_beacon.c.obj
 .bss           0x0000000000000000        0x0 CMakeFiles/51_mijia_device.dir/__/__/mesh/src/prov/prov_beacon.c.obj
 .text.prov_beacon_unprov_report
                0x0000000000000000        0xc CMakeFiles/51_mijia_device.dir/__/__/mesh/src/prov/prov_beacon.c.obj
 .text          0x0000000000000000        0x0 CMakeFiles/51_mijia_device.dir/__/__/mesh/src/access/access.c.obj
 .data          0x0000000000000000        0x0 CMakeFiles/51_mijia_device.dir/__/__/mesh/src/access/access.c.obj
 .bss           0x0000000000000000        0x0 CMakeFiles/51_mijia_device.dir/__/__/mesh/src/access/access.c.obj
 .text.access_clear
                0x0000000000000000       0x10 CMakeFiles/51_mijia_device.dir/__/__/mesh/src/access/access.c.obj
 .text.access_model_subscription_lists_share
                0x0000000000000000       0x94 CMakeFiles/51_mijia_device.dir/__/__/mesh/src/access/access.c.obj
 .text.access_element_location_set
                0x0000000000000000       0x3c CMakeFiles/51_mijia_device.dir/__/__/mesh/src/access/access.c.obj
 .text          0x0000000000000000        0x0 CMakeFiles/51_mijia_device.dir/__/__/mesh/src/access/access_publish.c.obj
 .data          0x0000000000000000        0x0 CMakeFiles/51_mijia_device.dir/__/__/mesh/src/access/access_publish.c.obj
 .bss           0x0000000000000000        0x0 CMakeFiles/51_mijia_device.dir/__/__/mesh/src/access/access_publish.c.obj
 .text.trigger_publication_timers
                0x0000000000000000       0x6c CMakeFiles/51_mijia_device.dir/__/__/mesh/src/access/access_publish.c.obj
 .text.publish_timer_tick
                0x0000000000000000       0x74 CMakeFiles/51_mijia_device.dir/__/__/mesh/src/access/access_publish.c.obj
 .text.access_publish_init
                0x0000000000000000       0x38 CMakeFiles/51_mijia_device.dir/__/__/mesh/src/access/access_publish.c.obj
 .text          0x0000000000000000        0x0 CMakeFiles/51_mijia_device.dir/__/__/mesh/src/access/access_reliable.c.obj
 .data          0x0000000000000000        0x0 CMakeFiles/51_mijia_device.dir/__/__/mesh/src/access/access_reliable.c.obj
 .bss           0x0000000000000000        0x0 CMakeFiles/51_mijia_device.dir/__/__/mesh/src/access/access_reliable.c.obj
 .text.is_earliest_timeout
                0x0000000000000000       0x38 CMakeFiles/51_mijia_device.dir/__/__/mesh/src/access/access_reliable.c.obj
 .text.available_context_get
                0x0000000000000000       0x78 CMakeFiles/51_mijia_device.dir/__/__/mesh/src/access/access_reliable.c.obj
 .text.calculate_interval
                0x0000000000000000       0x80 CMakeFiles/51_mijia_device.dir/__/__/mesh/src/access/access_reliable.c.obj
 .text.add_reliable_message
                0x0000000000000000       0xb4 CMakeFiles/51_mijia_device.dir/__/__/mesh/src/access/access_reliable.c.obj
 .text.access_reliable_cancel_all
                0x0000000000000000       0x34 CMakeFiles/51_mijia_device.dir/__/__/mesh/src/access/access_reliable.c.obj
 .text.access_model_reliable_cancel
                0x0000000000000000       0x38 CMakeFiles/51_mijia_device.dir/__/__/mesh/src/access/access_reliable.c.obj
 .text.access_model_reliable_publish
                0x0000000000000000       0x70 CMakeFiles/51_mijia_device.dir/__/__/mesh/src/access/access_reliable.c.obj
 .text          0x0000000000000000        0x0 CMakeFiles/51_mijia_device.dir/__/__/mesh/src/access/device_state_manager.c.obj
 .data          0x0000000000000000        0x0 CMakeFiles/51_mijia_device.dir/__/__/mesh/src/access/device_state_manager.c.obj
 .bss           0x0000000000000000        0x0 CMakeFiles/51_mijia_device.dir/__/__/mesh/src/access/device_state_manager.c.obj
 .text.dsm_has_unflashed_data
                0x0000000000000000       0x5c CMakeFiles/51_mijia_device.dir/__/__/mesh/src/access/device_state_manager.c.obj
 .text.dsm_clear
                0x0000000000000000       0x84 CMakeFiles/51_mijia_device.dir/__/__/mesh/src/access/device_state_manager.c.obj
 .text.dsm_address_publish_remove
                0x0000000000000000       0x8c CMakeFiles/51_mijia_device.dir/__/__/mesh/src/access/device_state_manager.c.obj
 .text.dsm_address_subscription_count_get
                0x0000000000000000       0xb8 CMakeFiles/51_mijia_device.dir/__/__/mesh/src/access/device_state_manager.c.obj
 .text.dsm_address_get_all
                0x0000000000000000       0x84 CMakeFiles/51_mijia_device.dir/__/__/mesh/src/access/device_state_manager.c.obj
 .text.dsm_subnet_handle_get
                0x0000000000000000       0x14 CMakeFiles/51_mijia_device.dir/__/__/mesh/src/access/device_state_manager.c.obj
 .text.dsm_subnet_handle_to_netkey_index
                0x0000000000000000       0x40 CMakeFiles/51_mijia_device.dir/__/__/mesh/src/access/device_state_manager.c.obj
 .text.dsm_devkey_handle_get
                0x0000000000000000       0x3a CMakeFiles/51_mijia_device.dir/__/__/mesh/src/access/device_state_manager.c.obj
 .text.dsm_beacon_secmat_get
                0x0000000000000000       0x44 CMakeFiles/51_mijia_device.dir/__/__/mesh/src/access/device_state_manager.c.obj
 .text.dsm_proxy_identity_get
                0x0000000000000000        0x4 CMakeFiles/51_mijia_device.dir/__/__/mesh/src/access/device_state_manager.c.obj
 .text          0x0000000000000000        0x0 CMakeFiles/51_mijia_device.dir/__/__/mesh/src/access/nrf_mesh_node_config.c.obj
 .data          0x0000000000000000        0x0 CMakeFiles/51_mijia_device.dir/__/__/mesh/src/access/nrf_mesh_node_config.c.obj
 .bss           0x0000000000000000        0x0 CMakeFiles/51_mijia_device.dir/__/__/mesh/src/access/nrf_mesh_node_config.c.obj
 .text.nrf_mesh_node_config_clear
                0x0000000000000000       0x1c CMakeFiles/51_mijia_device.dir/__/__/mesh/src/access/nrf_mesh_node_config.c.obj
 .text          0x0000000000000000        0x0 CMakeFiles/51_mijia_device.dir/__/__/mesh/models/config/src/config_server.c.obj
 .data          0x0000000000000000        0x0 CMakeFiles/51_mijia_device.dir/__/__/mesh/models/config/src/config_server.c.obj
 .bss           0x0000000000000000        0x0 CMakeFiles/51_mijia_device.dir/__/__/mesh/models/config/src/config_server.c.obj
 .text          0x0000000000000000        0x0 CMakeFiles/51_mijia_device.dir/__/__/mesh/models/config/src/packed_index_list.c.obj
 .data          0x0000000000000000        0x0 CMakeFiles/51_mijia_device.dir/__/__/mesh/models/config/src/packed_index_list.c.obj
 .bss           0x0000000000000000        0x0 CMakeFiles/51_mijia_device.dir/__/__/mesh/models/config/src/packed_index_list.c.obj
 .text          0x0000000000000000        0x0 CMakeFiles/51_mijia_device.dir/__/__/mesh/models/config/src/composition_data.c.obj
 .data          0x0000000000000000        0x0 CMakeFiles/51_mijia_device.dir/__/__/mesh/models/config/src/composition_data.c.obj
 .bss           0x0000000000000000        0x0 CMakeFiles/51_mijia_device.dir/__/__/mesh/models/config/src/composition_data.c.obj
 .text          0x0000000000000000        0x0 CMakeFiles/51_mijia_device.dir/__/nrf_mesh_sdk.c.obj
 .data          0x0000000000000000        0x0 CMakeFiles/51_mijia_device.dir/__/nrf_mesh_sdk.c.obj
 .bss           0x0000000000000000        0x0 CMakeFiles/51_mijia_device.dir/__/nrf_mesh_sdk.c.obj
 .text.sd_softdevice_enable
                0x0000000000000000        0x4 CMakeFiles/51_mijia_device.dir/__/nrf_mesh_sdk.c.obj
 .text.sd_ble_enable
                0x0000000000000000        0x4 CMakeFiles/51_mijia_device.dir/__/nrf_mesh_sdk.c.obj
 .text.softdevice_assert_handler
                0x0000000000000000       0x88 CMakeFiles/51_mijia_device.dir/__/nrf_mesh_sdk.c.obj
 .text.mesh_assert_handler
                0x0000000000000000       0x80 CMakeFiles/51_mijia_device.dir/__/nrf_mesh_sdk.c.obj
 .text.mesh_softdevice_enable
                0x0000000000000000      0x154 CMakeFiles/51_mijia_device.dir/__/nrf_mesh_sdk.c.obj
 .text.mesh_softdevice_setup
                0x0000000000000000       0xa8 CMakeFiles/51_mijia_device.dir/__/nrf_mesh_sdk.c.obj
 .rodata.mesh_assert_handler.str1.4
                0x0000000000000000       0x19 CMakeFiles/51_mijia_device.dir/__/nrf_mesh_sdk.c.obj
 .rodata.mesh_softdevice_enable.str1.4
                0x0000000000000000       0x65 CMakeFiles/51_mijia_device.dir/__/nrf_mesh_sdk.c.obj
 .text          0x0000000000000000        0x0 CMakeFiles/51_mijia_device.dir/__/hal/src/simple_hal.c.obj
 .data          0x0000000000000000        0x0 CMakeFiles/51_mijia_device.dir/__/hal/src/simple_hal.c.obj
 .bss           0x0000000000000000        0x0 CMakeFiles/51_mijia_device.dir/__/hal/src/simple_hal.c.obj
 .text.hal_led_mask_set
                0x0000000000000000       0x20 CMakeFiles/51_mijia_device.dir/__/hal/src/simple_hal.c.obj
 .text.hal_buttons_init
                0x0000000000000000        0x4 CMakeFiles/51_mijia_device.dir/__/hal/src/simple_hal.c.obj
 .text          0x0000000000000000        0x0 CMakeFiles/51_mijia_device.dir/__/models/simple_on_off/src/simple_on_off_server.c.obj
 .data          0x0000000000000000        0x0 CMakeFiles/51_mijia_device.dir/__/models/simple_on_off/src/simple_on_off_server.c.obj
 .bss           0x0000000000000000        0x0 CMakeFiles/51_mijia_device.dir/__/models/simple_on_off/src/simple_on_off_server.c.obj
 .data          0x0000000000000000        0x0 CMakeFiles/51_mijia_device.dir/__/__/toolchain/gcc/gcc_startup_nrf51.S.obj
 .bss           0x0000000000000000        0x0 CMakeFiles/51_mijia_device.dir/__/__/toolchain/gcc/gcc_startup_nrf51.S.obj
 .text          0x0000000000000000        0x0 CMakeFiles/51_mijia_device.dir/__/__/toolchain/system_nrf51.c.obj
 .data          0x0000000000000000        0x0 CMakeFiles/51_mijia_device.dir/__/__/toolchain/system_nrf51.c.obj
 .bss           0x0000000000000000        0x0 CMakeFiles/51_mijia_device.dir/__/__/toolchain/system_nrf51.c.obj
 .text.SystemCoreClockUpdate
                0x0000000000000000       0x10 CMakeFiles/51_mijia_device.dir/__/__/toolchain/system_nrf51.c.obj
 .text          0x0000000000000000        0x0 ../../mesh/lib_51_MBTLE_PB_ADV_EE.a(prov_provisionee.c.obj)
 .data          0x0000000000000000        0x0 ../../mesh/lib_51_MBTLE_PB_ADV_EE.a(prov_provisionee.c.obj)
 .bss           0x0000000000000000        0x0 ../../mesh/lib_51_MBTLE_PB_ADV_EE.a(prov_provisionee.c.obj)
 .text.prov_provisionee_shared_secret
                0x0000000000000000       0x30 ../../mesh/lib_51_MBTLE_PB_ADV_EE.a(prov_provisionee.c.obj)
 .text          0x0000000000000000        0x0 ../../mesh/lib_51_MBTLE_CORE.a(nrf_mesh_weak.c.obj)
 .data          0x0000000000000000        0x0 ../../mesh/lib_51_MBTLE_CORE.a(nrf_mesh_weak.c.obj)
 .bss           0x0000000000000000        0x0 ../../mesh/lib_51_MBTLE_CORE.a(nrf_mesh_weak.c.obj)
 .text._weak_handler_ptr
                0x0000000000000000        0x4 ../../mesh/lib_51_MBTLE_CORE.a(nrf_mesh_weak.c.obj)
 .text          0x0000000000000000        0x0 ../../mesh/lib_51_MBTLE_CORE.a(bearer_adv.c.obj)
 .data          0x0000000000000000        0x0 ../../mesh/lib_51_MBTLE_CORE.a(bearer_adv.c.obj)
 .bss           0x0000000000000000        0x0 ../../mesh/lib_51_MBTLE_CORE.a(bearer_adv.c.obj)
 .text.bearer_adv_available
                0x0000000000000000       0x10 ../../mesh/lib_51_MBTLE_CORE.a(bearer_adv.c.obj)
 .text.bearer_adv_tx_raw
                0x0000000000000000       0x32 ../../mesh/lib_51_MBTLE_CORE.a(bearer_adv.c.obj)
 .text.bearer_adv_scan_stop
                0x0000000000000000       0x20 ../../mesh/lib_51_MBTLE_CORE.a(bearer_adv.c.obj)
 .text.bearer_adv_addr_set
                0x0000000000000000       0x3a ../../mesh/lib_51_MBTLE_CORE.a(bearer_adv.c.obj)
 .text          0x0000000000000000        0x0 ../../mesh/lib_51_MBTLE_CORE.a(fifo.c.obj)
 .data          0x0000000000000000        0x0 ../../mesh/lib_51_MBTLE_CORE.a(fifo.c.obj)
 .bss           0x0000000000000000        0x0 ../../mesh/lib_51_MBTLE_CORE.a(fifo.c.obj)
 .text.fifo_flush
                0x0000000000000000        0x6 ../../mesh/lib_51_MBTLE_CORE.a(fifo.c.obj)
 .text.fifo_is_full
                0x0000000000000000       0x14 ../../mesh/lib_51_MBTLE_CORE.a(fifo.c.obj)
 .text          0x0000000000000000        0x0 ../../mesh/lib_51_MBTLE_CORE.a(packet_mgr.c.obj)
 .data          0x0000000000000000        0x0 ../../mesh/lib_51_MBTLE_CORE.a(packet_mgr.c.obj)
 .bss           0x0000000000000000        0x0 ../../mesh/lib_51_MBTLE_CORE.a(packet_mgr.c.obj)
 .text.packet_mgr_get_free_space
                0x0000000000000000       0x1c ../../mesh/lib_51_MBTLE_CORE.a(packet_mgr.c.obj)
 .text.packet_mgr_refcount_get
                0x0000000000000000        0x6 ../../mesh/lib_51_MBTLE_CORE.a(packet_mgr.c.obj)
 .text.packet_mgr_size_get
                0x0000000000000000        0x6 ../../mesh/lib_51_MBTLE_CORE.a(packet_mgr.c.obj)
 .text          0x0000000000000000        0x0 ../../mesh/lib_51_MBTLE_CORE.a(radio.c.obj)
 .data          0x0000000000000000        0x0 ../../mesh/lib_51_MBTLE_CORE.a(radio.c.obj)
 .bss           0x0000000000000000        0x0 ../../mesh/lib_51_MBTLE_CORE.a(radio.c.obj)
 .text.radio_resume
                0x0000000000000000       0x40 ../../mesh/lib_51_MBTLE_CORE.a(radio.c.obj)
 .text          0x0000000000000000        0x0 ../../mesh/lib_51_MBTLE_CORE.a(timer.c.obj)
 .data          0x0000000000000000        0x0 ../../mesh/lib_51_MBTLE_CORE.a(timer.c.obj)
 .bss           0x0000000000000000        0x0 ../../mesh/lib_51_MBTLE_CORE.a(timer.c.obj)
 .text.timer_order_cb_ppi
                0x0000000000000000       0xb0 ../../mesh/lib_51_MBTLE_CORE.a(timer.c.obj)
 .text.timer_order_ppi
                0x0000000000000000       0x88 ../../mesh/lib_51_MBTLE_CORE.a(timer.c.obj)
 .text          0x0000000000000000        0x0 ../../mesh/lib_51_MBTLE_CORE.a(timer_scheduler.c.obj)
 .data          0x0000000000000000        0x0 ../../mesh/lib_51_MBTLE_CORE.a(timer_scheduler.c.obj)
 .bss           0x0000000000000000        0x0 ../../mesh/lib_51_MBTLE_CORE.a(timer_scheduler.c.obj)
 .text          0x0000000000000000        0x0 ../../mesh/lib_51_MBTLE_CORE.a(beacon.c.obj)
 .data          0x0000000000000000        0x0 ../../mesh/lib_51_MBTLE_CORE.a(beacon.c.obj)
 .bss           0x0000000000000000        0x0 ../../mesh/lib_51_MBTLE_CORE.a(beacon.c.obj)
 .text          0x0000000000000000        0x0 ../../mesh/lib_51_MBTLE_CORE.a(bearer.c.obj)
 .data          0x0000000000000000        0x0 ../../mesh/lib_51_MBTLE_CORE.a(bearer.c.obj)
 .bss           0x0000000000000000        0x0 ../../mesh/lib_51_MBTLE_CORE.a(bearer.c.obj)
 .text.gap_addr_filter_set
                0x0000000000000000       0x40 ../../mesh/lib_51_MBTLE_CORE.a(bearer.c.obj)
 .text.bearer_filter_gap_addr_whitelist_set
                0x0000000000000000        0xa ../../mesh/lib_51_MBTLE_CORE.a(bearer.c.obj)
 .text.bearer_filter_gap_addr_blacklist_set
                0x0000000000000000        0xa ../../mesh/lib_51_MBTLE_CORE.a(bearer.c.obj)
 .text.bearer_filter_gap_addr_range_set
                0x0000000000000000       0x36 ../../mesh/lib_51_MBTLE_CORE.a(bearer.c.obj)
 .text.bearer_filter_gap_addr_clear
                0x0000000000000000       0x28 ../../mesh/lib_51_MBTLE_CORE.a(bearer.c.obj)
 .text.bearer_disable
                0x0000000000000000       0x14 ../../mesh/lib_51_MBTLE_CORE.a(bearer.c.obj)
 .text.bearer_stats_get
                0x0000000000000000       0x2c ../../mesh/lib_51_MBTLE_CORE.a(bearer.c.obj)
 .text          0x0000000000000000        0x0 ../../mesh/lib_51_MBTLE_CORE.a(bearer_event.c.obj)
 .data          0x0000000000000000        0x0 ../../mesh/lib_51_MBTLE_CORE.a(bearer_event.c.obj)
 .bss           0x0000000000000000        0x0 ../../mesh/lib_51_MBTLE_CORE.a(bearer_event.c.obj)
 .text.bearer_event_timer_sch_post
                0x0000000000000000       0x3c ../../mesh/lib_51_MBTLE_CORE.a(bearer_event.c.obj)
 .text.bearer_event_in_progress
                0x0000000000000000       0x18 ../../mesh/lib_51_MBTLE_CORE.a(bearer_event.c.obj)
 .text          0x0000000000000000        0x0 ../../mesh/lib_51_MBTLE_CORE.a(nrf_mesh_configure.c.obj)
 .data          0x0000000000000000        0x0 ../../mesh/lib_51_MBTLE_CORE.a(nrf_mesh_configure.c.obj)
 .bss           0x0000000000000000        0x0 ../../mesh/lib_51_MBTLE_CORE.a(nrf_mesh_configure.c.obj)
 .text.nrf_mesh_configure_device_uuid_set
                0x0000000000000000       0x14 ../../mesh/lib_51_MBTLE_CORE.a(nrf_mesh_configure.c.obj)
 .text          0x0000000000000000        0x0 ../../mesh/lib_51_MBTLE_CORE.a(enc.c.obj)
 .data          0x0000000000000000        0x0 ../../mesh/lib_51_MBTLE_CORE.a(enc.c.obj)
 .bss           0x0000000000000000        0x0 ../../mesh/lib_51_MBTLE_CORE.a(enc.c.obj)
 .text.enc_key_generate
                0x0000000000000000        0xa ../../mesh/lib_51_MBTLE_CORE.a(enc.c.obj)
 .text          0x0000000000000000        0x0 ../../mesh/lib_51_MBTLE_CORE.a(event.c.obj)
 .data          0x0000000000000000        0x0 ../../mesh/lib_51_MBTLE_CORE.a(event.c.obj)
 .bss           0x0000000000000000        0x0 ../../mesh/lib_51_MBTLE_CORE.a(event.c.obj)
 .text          0x0000000000000000        0x0 ../../mesh/lib_51_MBTLE_CORE.a(log.c.obj)
 .data          0x0000000000000000        0x0 ../../mesh/lib_51_MBTLE_CORE.a(log.c.obj)
 .bss           0x0000000000000000        0x0 ../../mesh/lib_51_MBTLE_CORE.a(log.c.obj)
 .text.log_callback_logview
                0x0000000000000000       0x38 ../../mesh/lib_51_MBTLE_CORE.a(log.c.obj)
 .text.log_set_callback
                0x0000000000000000        0xc ../../mesh/lib_51_MBTLE_CORE.a(log.c.obj)
 .rodata.log_callback_logview.str1.4
                0x0000000000000000       0x12 ../../mesh/lib_51_MBTLE_CORE.a(log.c.obj)
 .text          0x0000000000000000        0x0 ../../mesh/lib_51_MBTLE_CORE.a(net_beacon.c.obj)
 .data          0x0000000000000000        0x0 ../../mesh/lib_51_MBTLE_CORE.a(net_beacon.c.obj)
 .bss           0x0000000000000000        0x0 ../../mesh/lib_51_MBTLE_CORE.a(net_beacon.c.obj)
 .text          0x0000000000000000        0x0 ../../mesh/lib_51_MBTLE_CORE.a(net_state.c.obj)
 .data          0x0000000000000000        0x0 ../../mesh/lib_51_MBTLE_CORE.a(net_state.c.obj)
 .bss           0x0000000000000000        0x0 ../../mesh/lib_51_MBTLE_CORE.a(net_state.c.obj)
 .text.net_state_reset
                0x0000000000000000       0x3c ../../mesh/lib_51_MBTLE_CORE.a(net_state.c.obj)
 .text.net_state_iv_update_test_mode_set
                0x0000000000000000        0xc ../../mesh/lib_51_MBTLE_CORE.a(net_state.c.obj)
 .data.mem_listener.7451
                0x0000000000000000       0x10 ../../mesh/lib_51_MBTLE_CORE.a(net_state.c.obj)
 .text          0x0000000000000000        0x0 ../../mesh/lib_51_MBTLE_CORE.a(nrf_mesh.c.obj)
 .data          0x0000000000000000        0x0 ../../mesh/lib_51_MBTLE_CORE.a(nrf_mesh.c.obj)
 .bss           0x0000000000000000        0x0 ../../mesh/lib_51_MBTLE_CORE.a(nrf_mesh.c.obj)
 .text.nrf_mesh_disable
                0x0000000000000000       0x28 ../../mesh/lib_51_MBTLE_CORE.a(nrf_mesh.c.obj)
 .text.nrf_mesh_adv_send
                0x0000000000000000       0xc0 ../../mesh/lib_51_MBTLE_CORE.a(nrf_mesh.c.obj)
 .text.nrf_mesh_rx_cb_set
                0x0000000000000000        0xc ../../mesh/lib_51_MBTLE_CORE.a(nrf_mesh.c.obj)
 .text.nrf_mesh_rx_cb_clear
                0x0000000000000000        0xc ../../mesh/lib_51_MBTLE_CORE.a(nrf_mesh.c.obj)
 .text          0x0000000000000000        0x0 ../../mesh/lib_51_MBTLE_CORE.a(nrf_mesh_keygen.c.obj)
 .data          0x0000000000000000        0x0 ../../mesh/lib_51_MBTLE_CORE.a(nrf_mesh_keygen.c.obj)
 .bss           0x0000000000000000        0x0 ../../mesh/lib_51_MBTLE_CORE.a(nrf_mesh_keygen.c.obj)
 .text.nrf_mesh_keygen_identitykey
                0x0000000000000000       0x54 ../../mesh/lib_51_MBTLE_CORE.a(nrf_mesh_keygen.c.obj)
 .text          0x0000000000000000        0x0 ../../mesh/lib_51_MBTLE_CORE.a(nrf_mesh_utils.c.obj)
 .data          0x0000000000000000        0x0 ../../mesh/lib_51_MBTLE_CORE.a(nrf_mesh_utils.c.obj)
 .bss           0x0000000000000000        0x0 ../../mesh/lib_51_MBTLE_CORE.a(nrf_mesh_utils.c.obj)
 .text.nrf_mesh_rand_get
                0x0000000000000000       0x14 ../../mesh/lib_51_MBTLE_CORE.a(nrf_mesh_utils.c.obj)
 .text          0x0000000000000000        0x0 ../../mesh/lib_51_MBTLE_CORE.a(nrf_mesh_opt.c.obj)
 .data          0x0000000000000000        0x0 ../../mesh/lib_51_MBTLE_CORE.a(nrf_mesh_opt.c.obj)
 .bss           0x0000000000000000        0x0 ../../mesh/lib_51_MBTLE_CORE.a(nrf_mesh_opt.c.obj)
 .text          0x0000000000000000        0x0 ../../mesh/lib_51_MBTLE_CORE.a(radio_config.c.obj)
 .data          0x0000000000000000        0x0 ../../mesh/lib_51_MBTLE_CORE.a(radio_config.c.obj)
 .bss           0x0000000000000000        0x0 ../../mesh/lib_51_MBTLE_CORE.a(radio_config.c.obj)
 .text.radio_config_access_addr_set
                0x0000000000000000       0x7c ../../mesh/lib_51_MBTLE_CORE.a(radio_config.c.obj)
 .text.radio_config_access_addr_get
                0x0000000000000000       0x80 ../../mesh/lib_51_MBTLE_CORE.a(radio_config.c.obj)
 .text          0x0000000000000000        0x0 ../../mesh/lib_51_MBTLE_CORE.a(rand.c.obj)
 .data          0x0000000000000000        0x0 ../../mesh/lib_51_MBTLE_CORE.a(rand.c.obj)
 .bss           0x0000000000000000        0x0 ../../mesh/lib_51_MBTLE_CORE.a(rand.c.obj)
 .text          0x0000000000000000        0x0 ../../mesh/lib_51_MBTLE_CORE.a(ticker.c.obj)
 .data          0x0000000000000000        0x0 ../../mesh/lib_51_MBTLE_CORE.a(ticker.c.obj)
 .bss           0x0000000000000000        0x0 ../../mesh/lib_51_MBTLE_CORE.a(ticker.c.obj)
 .text.ticker_get
                0x0000000000000000        0xc ../../mesh/lib_51_MBTLE_CORE.a(ticker.c.obj)
 .text          0x0000000000000000        0x0 ../../mesh/lib_51_MBTLE_CORE.a(transport.c.obj)
 .data          0x0000000000000000        0x0 ../../mesh/lib_51_MBTLE_CORE.a(transport.c.obj)
 .bss           0x0000000000000000        0x0 ../../mesh/lib_51_MBTLE_CORE.a(transport.c.obj)
 .text          0x0000000000000000        0x0 ../../mesh/lib_51_MBTLE_CORE.a(internal_event.c.obj)
 .data          0x0000000000000000        0x0 ../../mesh/lib_51_MBTLE_CORE.a(internal_event.c.obj)
 .bss           0x0000000000000000        0x0 ../../mesh/lib_51_MBTLE_CORE.a(internal_event.c.obj)
 .text.internal_event_init
                0x0000000000000000       0x44 ../../mesh/lib_51_MBTLE_CORE.a(internal_event.c.obj)
 .text.internal_event_pop
                0x0000000000000000       0x20 ../../mesh/lib_51_MBTLE_CORE.a(internal_event.c.obj)
 .bss.m_internal_event_fifo_buffer
                0x0000000000000000      0x100 ../../mesh/lib_51_MBTLE_CORE.a(internal_event.c.obj)
 .text          0x0000000000000000        0x0 ../../mesh/lib_51_MBTLE_CORE.a(flash_manager.c.obj)
 .data          0x0000000000000000        0x0 ../../mesh/lib_51_MBTLE_CORE.a(flash_manager.c.obj)
 .bss           0x0000000000000000        0x0 ../../mesh/lib_51_MBTLE_CORE.a(flash_manager.c.obj)
 .text.flash_manager_entry_count_get
                0x0000000000000000       0xd4 ../../mesh/lib_51_MBTLE_CORE.a(flash_manager.c.obj)
 .text.flash_manager_entry_release
                0x0000000000000000       0x58 ../../mesh/lib_51_MBTLE_CORE.a(flash_manager.c.obj)
 .text          0x0000000000000000        0x0 ../../mesh/lib_51_MBTLE_CORE.a(flash_manager_defrag.c.obj)
 .data          0x0000000000000000        0x0 ../../mesh/lib_51_MBTLE_CORE.a(flash_manager_defrag.c.obj)
 .bss           0x0000000000000000        0x0 ../../mesh/lib_51_MBTLE_CORE.a(flash_manager_defrag.c.obj)
 .text.flash_manager_defragging
                0x0000000000000000       0x60 ../../mesh/lib_51_MBTLE_CORE.a(flash_manager_defrag.c.obj)
 .text          0x0000000000000000        0x0 ../../mesh/lib_51_MBTLE_CORE.a(flash_manager_internal.c.obj)
 .data          0x0000000000000000        0x0 ../../mesh/lib_51_MBTLE_CORE.a(flash_manager_internal.c.obj)
 .bss           0x0000000000000000        0x0 ../../mesh/lib_51_MBTLE_CORE.a(flash_manager_internal.c.obj)
 .text          0x0000000000000000        0x0 ../../mesh/lib_51_MBTLE_CORE.a(aes.c.obj)
 .data          0x0000000000000000        0x0 ../../mesh/lib_51_MBTLE_CORE.a(aes.c.obj)
 .bss           0x0000000000000000        0x0 ../../mesh/lib_51_MBTLE_CORE.a(aes.c.obj)
 .text          0x0000000000000000        0x0 ../../mesh/lib_51_MBTLE_CORE.a(queue.c.obj)
 .data          0x0000000000000000        0x0 ../../mesh/lib_51_MBTLE_CORE.a(queue.c.obj)
 .bss           0x0000000000000000        0x0 ../../mesh/lib_51_MBTLE_CORE.a(queue.c.obj)
 .text.queue_peek
                0x0000000000000000       0x20 ../../mesh/lib_51_MBTLE_CORE.a(queue.c.obj)
 .text          0x0000000000000000        0x0 ../../mesh/lib_51_MBTLE_CORE.a(timeslot.c.obj)
 .data          0x0000000000000000        0x0 ../../mesh/lib_51_MBTLE_CORE.a(timeslot.c.obj)
 .bss           0x0000000000000000        0x0 ../../mesh/lib_51_MBTLE_CORE.a(timeslot.c.obj)
 .text.sd_radio_session_close
                0x0000000000000000        0x4 ../../mesh/lib_51_MBTLE_CORE.a(timeslot.c.obj)
 .text.timeslot_stop
                0x0000000000000000       0x50 ../../mesh/lib_51_MBTLE_CORE.a(timeslot.c.obj)
 .text.timeslot_restart
                0x0000000000000000       0x34 ../../mesh/lib_51_MBTLE_CORE.a(timeslot.c.obj)
 .text          0x0000000000000000        0x0 ../../mesh/lib_51_MBTLE_CORE.a(aes_cmac.c.obj)
 .data          0x0000000000000000        0x0 ../../mesh/lib_51_MBTLE_CORE.a(aes_cmac.c.obj)
 .bss           0x0000000000000000        0x0 ../../mesh/lib_51_MBTLE_CORE.a(aes_cmac.c.obj)
 .text          0x0000000000000000        0x0 ../../mesh/lib_51_MBTLE_CORE.a(ccm_soft.c.obj)
 .data          0x0000000000000000        0x0 ../../mesh/lib_51_MBTLE_CORE.a(ccm_soft.c.obj)
 .bss           0x0000000000000000        0x0 ../../mesh/lib_51_MBTLE_CORE.a(ccm_soft.c.obj)
 .text          0x0000000000000000        0x0 ../../mesh/lib_51_MBTLE_CORE.a(msg_cache.c.obj)
 .data          0x0000000000000000        0x0 ../../mesh/lib_51_MBTLE_CORE.a(msg_cache.c.obj)
 .bss           0x0000000000000000        0x0 ../../mesh/lib_51_MBTLE_CORE.a(msg_cache.c.obj)
 .text.msg_cache_clear
                0x0000000000000000       0x20 ../../mesh/lib_51_MBTLE_CORE.a(msg_cache.c.obj)
 .text          0x0000000000000000        0x0 ../../mesh/lib_51_MBTLE_CORE.a(network.c.obj)
 .data          0x0000000000000000        0x0 ../../mesh/lib_51_MBTLE_CORE.a(network.c.obj)
 .bss           0x0000000000000000        0x0 ../../mesh/lib_51_MBTLE_CORE.a(network.c.obj)
 .text          0x0000000000000000        0x0 ../../mesh/lib_51_MBTLE_CORE.a(packet.c.obj)
 .data          0x0000000000000000        0x0 ../../mesh/lib_51_MBTLE_CORE.a(packet.c.obj)
 .bss           0x0000000000000000        0x0 ../../mesh/lib_51_MBTLE_CORE.a(packet.c.obj)
 .text          0x0000000000000000        0x0 ../../mesh/lib_51_MBTLE_CORE.a(packet_buffer.c.obj)
 .data          0x0000000000000000        0x0 ../../mesh/lib_51_MBTLE_CORE.a(packet_buffer.c.obj)
 .bss           0x0000000000000000        0x0 ../../mesh/lib_51_MBTLE_CORE.a(packet_buffer.c.obj)
 .text.packet_buffer_max_packet_len_get
                0x0000000000000000       0x3c ../../mesh/lib_51_MBTLE_CORE.a(packet_buffer.c.obj)
 .text          0x0000000000000000        0x0 ../../mesh/lib_51_MBTLE_CORE.a(replay_cache.c.obj)
 .data          0x0000000000000000        0x0 ../../mesh/lib_51_MBTLE_CORE.a(replay_cache.c.obj)
 .bss           0x0000000000000000        0x0 ../../mesh/lib_51_MBTLE_CORE.a(replay_cache.c.obj)
 .text.replay_cache_on_iv_update
                0x0000000000000000       0x28 ../../mesh/lib_51_MBTLE_CORE.a(replay_cache.c.obj)
 .text          0x0000000000000000        0x0 ../../mesh/lib_51_MBTLE_CORE.a(mesh_flash.c.obj)
 .data          0x0000000000000000        0x0 ../../mesh/lib_51_MBTLE_CORE.a(mesh_flash.c.obj)
 .bss           0x0000000000000000        0x0 ../../mesh/lib_51_MBTLE_CORE.a(mesh_flash.c.obj)
 .text.mesh_flash_op_available_slots
                0x0000000000000000       0x30 ../../mesh/lib_51_MBTLE_CORE.a(mesh_flash.c.obj)
 .text.mesh_flash_in_progress
                0x0000000000000000       0x40 ../../mesh/lib_51_MBTLE_CORE.a(mesh_flash.c.obj)
 .text.mesh_flash_set_suspended
                0x0000000000000000       0x5c ../../mesh/lib_51_MBTLE_CORE.a(mesh_flash.c.obj)
 .bss.suspend_count.7574
                0x0000000000000000        0x4 ../../mesh/lib_51_MBTLE_CORE.a(mesh_flash.c.obj)
 .text          0x0000000000000000        0x0 ../../mesh/lib_51_MBTLE_CORE.a(nrf_flash.c.obj)
 .data          0x0000000000000000        0x0 ../../mesh/lib_51_MBTLE_CORE.a(nrf_flash.c.obj)
 .bss           0x0000000000000000        0x0 ../../mesh/lib_51_MBTLE_CORE.a(nrf_flash.c.obj)
 .text          0x0000000000000000        0x0 ../../mesh/lib_51_MBTLE_CORE.a(msqueue.c.obj)
 .data          0x0000000000000000        0x0 ../../mesh/lib_51_MBTLE_CORE.a(msqueue.c.obj)
 .bss           0x0000000000000000        0x0 ../../mesh/lib_51_MBTLE_CORE.a(msqueue.c.obj)
 .text          0x0000000000000000        0x0 ../../lib/micro-ecc/lib_51_UECC_LIB.a(uECC.c.obj)
 .data          0x0000000000000000        0x0 ../../lib/micro-ecc/lib_51_UECC_LIB.a(uECC.c.obj)
 .bss           0x0000000000000000        0x0 ../../lib/micro-ecc/lib_51_UECC_LIB.a(uECC.c.obj)
 .text.uECC_vli_mmod
                0x0000000000000000      0x114 ../../lib/micro-ecc/lib_51_UECC_LIB.a(uECC.c.obj)
 .text.uECC_vli_modMult
                0x0000000000000000       0x26 ../../lib/micro-ecc/lib_51_UECC_LIB.a(uECC.c.obj)
 .text.bits2int
                0x0000000000000000       0x94 ../../lib/micro-ecc/lib_51_UECC_LIB.a(uECC.c.obj)
 .text.uECC_sign_with_k
                0x0000000000000000      0x184 ../../lib/micro-ecc/lib_51_UECC_LIB.a(uECC.c.obj)
 .text.HMAC_init
                0x0000000000000000       0x42 ../../lib/micro-ecc/lib_51_UECC_LIB.a(uECC.c.obj)
 .text.HMAC_update
                0x0000000000000000        0x8 ../../lib/micro-ecc/lib_51_UECC_LIB.a(uECC.c.obj)
 .text.HMAC_finish
                0x0000000000000000       0x5e ../../lib/micro-ecc/lib_51_UECC_LIB.a(uECC.c.obj)
 .text.update_V
                0x0000000000000000       0x22 ../../lib/micro-ecc/lib_51_UECC_LIB.a(uECC.c.obj)
 .text.smax     0x0000000000000000        0xc ../../lib/micro-ecc/lib_51_UECC_LIB.a(uECC.c.obj)
 .text.uECC_set_rng
                0x0000000000000000        0xc ../../lib/micro-ecc/lib_51_UECC_LIB.a(uECC.c.obj)
 .text.uECC_get_rng
                0x0000000000000000        0xc ../../lib/micro-ecc/lib_51_UECC_LIB.a(uECC.c.obj)
 .text.uECC_curve_private_key_size
                0x0000000000000000       0x12 ../../lib/micro-ecc/lib_51_UECC_LIB.a(uECC.c.obj)
 .text.uECC_curve_public_key_size
                0x0000000000000000        0x8 ../../lib/micro-ecc/lib_51_UECC_LIB.a(uECC.c.obj)
 .text.uECC_compute_public_key
                0x0000000000000000       0x8c ../../lib/micro-ecc/lib_51_UECC_LIB.a(uECC.c.obj)
 .text.uECC_sign
                0x0000000000000000       0x56 ../../lib/micro-ecc/lib_51_UECC_LIB.a(uECC.c.obj)
 .text.uECC_sign_deterministic
                0x0000000000000000      0x1a4 ../../lib/micro-ecc/lib_51_UECC_LIB.a(uECC.c.obj)
 .text.uECC_verify
                0x0000000000000000      0x2e8 ../../lib/micro-ecc/lib_51_UECC_LIB.a(uECC.c.obj)
 .text          0x0000000000000000        0x0 ../../lib/rtt/lib_51_RTT_LIB.a(SEGGER_RTT.c.obj)
 .data          0x0000000000000000        0x0 ../../lib/rtt/lib_51_RTT_LIB.a(SEGGER_RTT.c.obj)
 .bss           0x0000000000000000        0x0 ../../lib/rtt/lib_51_RTT_LIB.a(SEGGER_RTT.c.obj)
 .text._PostTerminalSwitch
                0x0000000000000000       0x20 ../../lib/rtt/lib_51_RTT_LIB.a(SEGGER_RTT.c.obj)
 .text.SEGGER_RTT_ReadNoLock
                0x0000000000000000       0xbc ../../lib/rtt/lib_51_RTT_LIB.a(SEGGER_RTT.c.obj)
 .text.SEGGER_RTT_Read
                0x0000000000000000       0x1a ../../lib/rtt/lib_51_RTT_LIB.a(SEGGER_RTT.c.obj)
 .text.SEGGER_RTT_WriteSkipNoLock
                0x0000000000000000      0x128 ../../lib/rtt/lib_51_RTT_LIB.a(SEGGER_RTT.c.obj)
 .text.SEGGER_RTT_WriteString
                0x0000000000000000       0x18 ../../lib/rtt/lib_51_RTT_LIB.a(SEGGER_RTT.c.obj)
 .text.SEGGER_RTT_GetKey
                0x0000000000000000       0x22 ../../lib/rtt/lib_51_RTT_LIB.a(SEGGER_RTT.c.obj)
 .text.SEGGER_RTT_WaitKey
                0x0000000000000000        0xc ../../lib/rtt/lib_51_RTT_LIB.a(SEGGER_RTT.c.obj)
 .text.SEGGER_RTT_HasKey
                0x0000000000000000       0x28 ../../lib/rtt/lib_51_RTT_LIB.a(SEGGER_RTT.c.obj)
 .text.SEGGER_RTT_HasData
                0x0000000000000000       0x1c ../../lib/rtt/lib_51_RTT_LIB.a(SEGGER_RTT.c.obj)
 .text.SEGGER_RTT_AllocDownBuffer
                0x0000000000000000       0x70 ../../lib/rtt/lib_51_RTT_LIB.a(SEGGER_RTT.c.obj)
 .text.SEGGER_RTT_AllocUpBuffer
                0x0000000000000000       0x8c ../../lib/rtt/lib_51_RTT_LIB.a(SEGGER_RTT.c.obj)
 .text.SEGGER_RTT_ConfigUpBuffer
                0x0000000000000000       0x78 ../../lib/rtt/lib_51_RTT_LIB.a(SEGGER_RTT.c.obj)
 .text.SEGGER_RTT_ConfigDownBuffer
                0x0000000000000000       0x64 ../../lib/rtt/lib_51_RTT_LIB.a(SEGGER_RTT.c.obj)
 .text.SEGGER_RTT_SetNameUpBuffer
                0x0000000000000000       0x44 ../../lib/rtt/lib_51_RTT_LIB.a(SEGGER_RTT.c.obj)
 .text.SEGGER_RTT_SetNameDownBuffer
                0x0000000000000000       0x44 ../../lib/rtt/lib_51_RTT_LIB.a(SEGGER_RTT.c.obj)
 .text.SEGGER_RTT_Init
                0x0000000000000000       0x18 ../../lib/rtt/lib_51_RTT_LIB.a(SEGGER_RTT.c.obj)
 .text.SEGGER_RTT_SetTerminal
                0x0000000000000000       0x8c ../../lib/rtt/lib_51_RTT_LIB.a(SEGGER_RTT.c.obj)
 .text.SEGGER_RTT_TerminalOut
                0x0000000000000000       0xf4 ../../lib/rtt/lib_51_RTT_LIB.a(SEGGER_RTT.c.obj)
 .bss._ActiveTerminal
                0x0000000000000000        0x1 ../../lib/rtt/lib_51_RTT_LIB.a(SEGGER_RTT.c.obj)
 .rodata._aTerminalId
                0x0000000000000000       0x10 ../../lib/rtt/lib_51_RTT_LIB.a(SEGGER_RTT.c.obj)
 .text          0x0000000000000000        0x0 ../../lib/rtt/lib_51_RTT_LIB.a(SEGGER_RTT_printf.c.obj)
 .data          0x0000000000000000        0x0 ../../lib/rtt/lib_51_RTT_LIB.a(SEGGER_RTT_printf.c.obj)
 .bss           0x0000000000000000        0x0 ../../lib/rtt/lib_51_RTT_LIB.a(SEGGER_RTT_printf.c.obj)
 .data          0x0000000000000000        0x0 /usr/bin/../lib/gcc/arm-none-eabi/6.3.1/thumb/v6-m/libgcc.a(_udivsi3.o)
 .bss           0x0000000000000000        0x0 /usr/bin/../lib/gcc/arm-none-eabi/6.3.1/thumb/v6-m/libgcc.a(_udivsi3.o)
 .data          0x0000000000000000        0x0 /usr/bin/../lib/gcc/arm-none-eabi/6.3.1/thumb/v6-m/libgcc.a(_divsi3.o)
 .bss           0x0000000000000000        0x0 /usr/bin/../lib/gcc/arm-none-eabi/6.3.1/thumb/v6-m/libgcc.a(_divsi3.o)
 .data          0x0000000000000000        0x0 /usr/bin/../lib/gcc/arm-none-eabi/6.3.1/thumb/v6-m/libgcc.a(_dvmd_tls.o)
 .bss           0x0000000000000000        0x0 /usr/bin/../lib/gcc/arm-none-eabi/6.3.1/thumb/v6-m/libgcc.a(_dvmd_tls.o)
 .data          0x0000000000000000        0x0 /usr/bin/../lib/gcc/arm-none-eabi/6.3.1/thumb/v6-m/libgcc.a(_muldi3.o)
 .bss           0x0000000000000000        0x0 /usr/bin/../lib/gcc/arm-none-eabi/6.3.1/thumb/v6-m/libgcc.a(_muldi3.o)
 .text          0x0000000000000000        0x0 /usr/bin/../lib/gcc/arm-none-eabi/6.3.1/../../../../arm-none-eabi/lib/thumb/v6-m/libg_nano.a(lib_a-exit.o)
 .data          0x0000000000000000        0x0 /usr/bin/../lib/gcc/arm-none-eabi/6.3.1/../../../../arm-none-eabi/lib/thumb/v6-m/libg_nano.a(lib_a-exit.o)
 .bss           0x0000000000000000        0x0 /usr/bin/../lib/gcc/arm-none-eabi/6.3.1/../../../../arm-none-eabi/lib/thumb/v6-m/libg_nano.a(lib_a-exit.o)
 .text          0x0000000000000000        0x0 /usr/bin/../lib/gcc/arm-none-eabi/6.3.1/../../../../arm-none-eabi/lib/thumb/v6-m/libg_nano.a(lib_a-impure.o)
 .data          0x0000000000000000        0x0 /usr/bin/../lib/gcc/arm-none-eabi/6.3.1/../../../../arm-none-eabi/lib/thumb/v6-m/libg_nano.a(lib_a-impure.o)
 .bss           0x0000000000000000        0x0 /usr/bin/../lib/gcc/arm-none-eabi/6.3.1/../../../../arm-none-eabi/lib/thumb/v6-m/libg_nano.a(lib_a-impure.o)
 .text          0x0000000000000000        0x0 /usr/bin/../lib/gcc/arm-none-eabi/6.3.1/../../../../arm-none-eabi/lib/thumb/v6-m/libg_nano.a(lib_a-init.o)
 .data          0x0000000000000000        0x0 /usr/bin/../lib/gcc/arm-none-eabi/6.3.1/../../../../arm-none-eabi/lib/thumb/v6-m/libg_nano.a(lib_a-init.o)
 .bss           0x0000000000000000        0x0 /usr/bin/../lib/gcc/arm-none-eabi/6.3.1/../../../../arm-none-eabi/lib/thumb/v6-m/libg_nano.a(lib_a-init.o)
 .text          0x0000000000000000        0x0 /usr/bin/../lib/gcc/arm-none-eabi/6.3.1/../../../../arm-none-eabi/lib/thumb/v6-m/libg_nano.a(lib_a-malloc.o)
 .data          0x0000000000000000        0x0 /usr/bin/../lib/gcc/arm-none-eabi/6.3.1/../../../../arm-none-eabi/lib/thumb/v6-m/libg_nano.a(lib_a-malloc.o)
 .bss           0x0000000000000000        0x0 /usr/bin/../lib/gcc/arm-none-eabi/6.3.1/../../../../arm-none-eabi/lib/thumb/v6-m/libg_nano.a(lib_a-malloc.o)
 .text          0x0000000000000000        0x0 /usr/bin/../lib/gcc/arm-none-eabi/6.3.1/../../../../arm-none-eabi/lib/thumb/v6-m/libg_nano.a(lib_a-memcmp.o)
 .data          0x0000000000000000        0x0 /usr/bin/../lib/gcc/arm-none-eabi/6.3.1/../../../../arm-none-eabi/lib/thumb/v6-m/libg_nano.a(lib_a-memcmp.o)
 .bss           0x0000000000000000        0x0 /usr/bin/../lib/gcc/arm-none-eabi/6.3.1/../../../../arm-none-eabi/lib/thumb/v6-m/libg_nano.a(lib_a-memcmp.o)
 .text          0x0000000000000000        0x0 /usr/bin/../lib/gcc/arm-none-eabi/6.3.1/../../../../arm-none-eabi/lib/thumb/v6-m/libg_nano.a(lib_a-memcpy-stub.o)
 .data          0x0000000000000000        0x0 /usr/bin/../lib/gcc/arm-none-eabi/6.3.1/../../../../arm-none-eabi/lib/thumb/v6-m/libg_nano.a(lib_a-memcpy-stub.o)
 .bss           0x0000000000000000        0x0 /usr/bin/../lib/gcc/arm-none-eabi/6.3.1/../../../../arm-none-eabi/lib/thumb/v6-m/libg_nano.a(lib_a-memcpy-stub.o)
 .text          0x0000000000000000        0x0 /usr/bin/../lib/gcc/arm-none-eabi/6.3.1/../../../../arm-none-eabi/lib/thumb/v6-m/libg_nano.a(lib_a-memset.o)
 .data          0x0000000000000000        0x0 /usr/bin/../lib/gcc/arm-none-eabi/6.3.1/../../../../arm-none-eabi/lib/thumb/v6-m/libg_nano.a(lib_a-memset.o)
 .bss           0x0000000000000000        0x0 /usr/bin/../lib/gcc/arm-none-eabi/6.3.1/../../../../arm-none-eabi/lib/thumb/v6-m/libg_nano.a(lib_a-memset.o)
 .text          0x0000000000000000        0x0 /usr/bin/../lib/gcc/arm-none-eabi/6.3.1/../../../../arm-none-eabi/lib/thumb/v6-m/libg_nano.a(lib_a-nano-freer.o)
 .data          0x0000000000000000        0x0 /usr/bin/../lib/gcc/arm-none-eabi/6.3.1/../../../../arm-none-eabi/lib/thumb/v6-m/libg_nano.a(lib_a-nano-freer.o)
 .bss           0x0000000000000000        0x0 /usr/bin/../lib/gcc/arm-none-eabi/6.3.1/../../../../arm-none-eabi/lib/thumb/v6-m/libg_nano.a(lib_a-nano-freer.o)
 .text          0x0000000000000000        0x0 /usr/bin/../lib/gcc/arm-none-eabi/6.3.1/../../../../arm-none-eabi/lib/thumb/v6-m/libg_nano.a(lib_a-nano-mallocr.o)
 .data          0x0000000000000000        0x0 /usr/bin/../lib/gcc/arm-none-eabi/6.3.1/../../../../arm-none-eabi/lib/thumb/v6-m/libg_nano.a(lib_a-nano-mallocr.o)
 .bss           0x0000000000000000        0x0 /usr/bin/../lib/gcc/arm-none-eabi/6.3.1/../../../../arm-none-eabi/lib/thumb/v6-m/libg_nano.a(lib_a-nano-mallocr.o)
 .text          0x0000000000000000        0x0 /usr/bin/../lib/gcc/arm-none-eabi/6.3.1/../../../../arm-none-eabi/lib/thumb/v6-m/libg_nano.a(lib_a-sbrkr.o)
 .data          0x0000000000000000        0x0 /usr/bin/../lib/gcc/arm-none-eabi/6.3.1/../../../../arm-none-eabi/lib/thumb/v6-m/libg_nano.a(lib_a-sbrkr.o)
 .bss           0x0000000000000000        0x0 /usr/bin/../lib/gcc/arm-none-eabi/6.3.1/../../../../arm-none-eabi/lib/thumb/v6-m/libg_nano.a(lib_a-sbrkr.o)
 .text          0x0000000000000000        0x0 /usr/bin/../lib/gcc/arm-none-eabi/6.3.1/../../../../arm-none-eabi/lib/thumb/v6-m/libg_nano.a(lib_a-strcpy.o)
 .data          0x0000000000000000        0x0 /usr/bin/../lib/gcc/arm-none-eabi/6.3.1/../../../../arm-none-eabi/lib/thumb/v6-m/libg_nano.a(lib_a-strcpy.o)
 .bss           0x0000000000000000        0x0 /usr/bin/../lib/gcc/arm-none-eabi/6.3.1/../../../../arm-none-eabi/lib/thumb/v6-m/libg_nano.a(lib_a-strcpy.o)
 .data          0x0000000000000000        0x0 /usr/bin/../lib/gcc/arm-none-eabi/6.3.1/../../../../arm-none-eabi/lib/thumb/v6-m/libg_nano.a(lib_a-strlen.o)
 .bss           0x0000000000000000        0x0 /usr/bin/../lib/gcc/arm-none-eabi/6.3.1/../../../../arm-none-eabi/lib/thumb/v6-m/libg_nano.a(lib_a-strlen.o)
 .text          0x0000000000000000        0x0 /usr/bin/../lib/gcc/arm-none-eabi/6.3.1/../../../../arm-none-eabi/lib/thumb/v6-m/libg_nano.a(lib_a-strrchr.o)
 .data          0x0000000000000000        0x0 /usr/bin/../lib/gcc/arm-none-eabi/6.3.1/../../../../arm-none-eabi/lib/thumb/v6-m/libg_nano.a(lib_a-strrchr.o)
 .bss           0x0000000000000000        0x0 /usr/bin/../lib/gcc/arm-none-eabi/6.3.1/../../../../arm-none-eabi/lib/thumb/v6-m/libg_nano.a(lib_a-strrchr.o)
 .text          0x0000000000000000        0x0 /usr/bin/../lib/gcc/arm-none-eabi/6.3.1/../../../../arm-none-eabi/lib/thumb/v6-m/libg_nano.a(lib_a-mlock.o)
 .data          0x0000000000000000        0x0 /usr/bin/../lib/gcc/arm-none-eabi/6.3.1/../../../../arm-none-eabi/lib/thumb/v6-m/libg_nano.a(lib_a-mlock.o)
 .bss           0x0000000000000000        0x0 /usr/bin/../lib/gcc/arm-none-eabi/6.3.1/../../../../arm-none-eabi/lib/thumb/v6-m/libg_nano.a(lib_a-mlock.o)
 .text          0x0000000000000000        0x0 /usr/bin/../lib/gcc/arm-none-eabi/6.3.1/../../../../arm-none-eabi/lib/thumb/v6-m/libg_nano.a(lib_a-reent.o)
 .data          0x0000000000000000        0x0 /usr/bin/../lib/gcc/arm-none-eabi/6.3.1/../../../../arm-none-eabi/lib/thumb/v6-m/libg_nano.a(lib_a-reent.o)
 .bss           0x0000000000000000        0x0 /usr/bin/../lib/gcc/arm-none-eabi/6.3.1/../../../../arm-none-eabi/lib/thumb/v6-m/libg_nano.a(lib_a-reent.o)
 .text.cleanup_glue
                0x0000000000000000       0x1a /usr/bin/../lib/gcc/arm-none-eabi/6.3.1/../../../../arm-none-eabi/lib/thumb/v6-m/libg_nano.a(lib_a-reent.o)
 .text._reclaim_reent
                0x0000000000000000       0xcc /usr/bin/../lib/gcc/arm-none-eabi/6.3.1/../../../../arm-none-eabi/lib/thumb/v6-m/libg_nano.a(lib_a-reent.o)
 .text          0x0000000000000000        0x0 /usr/bin/../lib/gcc/arm-none-eabi/6.3.1/../../../../arm-none-eabi/lib/thumb/v6-m/libg_nano.a(lib_a-strchr.o)
 .data          0x0000000000000000        0x0 /usr/bin/../lib/gcc/arm-none-eabi/6.3.1/../../../../arm-none-eabi/lib/thumb/v6-m/libg_nano.a(lib_a-strchr.o)
 .bss           0x0000000000000000        0x0 /usr/bin/../lib/gcc/arm-none-eabi/6.3.1/../../../../arm-none-eabi/lib/thumb/v6-m/libg_nano.a(lib_a-strchr.o)
 .text          0x0000000000000000        0x0 /usr/bin/../lib/gcc/arm-none-eabi/6.3.1/thumb/v6-m/crtend.o
 .data          0x0000000000000000        0x0 /usr/bin/../lib/gcc/arm-none-eabi/6.3.1/thumb/v6-m/crtend.o
 .bss           0x0000000000000000        0x0 /usr/bin/../lib/gcc/arm-none-eabi/6.3.1/thumb/v6-m/crtend.o
 .text          0x0000000000000000        0x0 /usr/bin/../lib/gcc/arm-none-eabi/6.3.1/thumb/v6-m/crtn.o
 .data          0x0000000000000000        0x0 /usr/bin/../lib/gcc/arm-none-eabi/6.3.1/thumb/v6-m/crtn.o
 .bss           0x0000000000000000        0x0 /usr/bin/../lib/gcc/arm-none-eabi/6.3.1/thumb/v6-m/crtn.o
 .text          0x0000000000000000        0x0 /usr/bin/../lib/gcc/arm-none-eabi/6.3.1/../../../../arm-none-eabi/lib/thumb/v6-m/libnosys.a(sbrk.o)
 .data          0x0000000000000000        0x0 /usr/bin/../lib/gcc/arm-none-eabi/6.3.1/../../../../arm-none-eabi/lib/thumb/v6-m/libnosys.a(sbrk.o)
 .bss           0x0000000000000000        0x0 /usr/bin/../lib/gcc/arm-none-eabi/6.3.1/../../../../arm-none-eabi/lib/thumb/v6-m/libnosys.a(sbrk.o)
 .text          0x0000000000000000        0x0 /usr/bin/../lib/gcc/arm-none-eabi/6.3.1/../../../../arm-none-eabi/lib/thumb/v6-m/libnosys.a(_exit.o)
 .data          0x0000000000000000        0x0 /usr/bin/../lib/gcc/arm-none-eabi/6.3.1/../../../../arm-none-eabi/lib/thumb/v6-m/libnosys.a(_exit.o)
 .bss           0x0000000000000000        0x0 /usr/bin/../lib/gcc/arm-none-eabi/6.3.1/../../../../arm-none-eabi/lib/thumb/v6-m/libnosys.a(_exit.o)

Memory Configuration

Name             Origin             Length             Attributes
FLASH            0x000000000001b000 0x000000000001f000 xr
RAM              0x00000000200022d8 0x0000000000005a28 xrw
*default*        0x0000000000000000 0xffffffffffffffff

Linker script and memory map

LOAD /usr/bin/../lib/gcc/arm-none-eabi/6.3.1/thumb/v6-m/crti.o
LOAD /usr/bin/../lib/gcc/arm-none-eabi/6.3.1/thumb/v6-m/crtbegin.o
LOAD /usr/bin/../lib/gcc/arm-none-eabi/6.3.1/../../../../arm-none-eabi/lib/thumb/v6-m/crt0.o
LOAD CMakeFiles/51_mijia_device.dir/src/main.c.obj
LOAD CMakeFiles/51_mijia_device.dir/__/__/mesh/src/prov/provisioning.c.obj
LOAD CMakeFiles/51_mijia_device.dir/__/__/mesh/src/prov/nrf_mesh_prov.c.obj
LOAD CMakeFiles/51_mijia_device.dir/__/__/mesh/src/prov/prov_bearer_adv.c.obj
LOAD CMakeFiles/51_mijia_device.dir/__/__/mesh/src/prov/prov_utils.c.obj
LOAD CMakeFiles/51_mijia_device.dir/__/__/mesh/src/prov/prov_beacon.c.obj
LOAD CMakeFiles/51_mijia_device.dir/__/__/mesh/src/access/access.c.obj
LOAD CMakeFiles/51_mijia_device.dir/__/__/mesh/src/access/access_publish.c.obj
LOAD CMakeFiles/51_mijia_device.dir/__/__/mesh/src/access/access_reliable.c.obj
LOAD CMakeFiles/51_mijia_device.dir/__/__/mesh/src/access/device_state_manager.c.obj
LOAD CMakeFiles/51_mijia_device.dir/__/__/mesh/src/access/nrf_mesh_node_config.c.obj
LOAD CMakeFiles/51_mijia_device.dir/__/__/mesh/models/config/src/config_server.c.obj
LOAD CMakeFiles/51_mijia_device.dir/__/__/mesh/models/config/src/packed_index_list.c.obj
LOAD CMakeFiles/51_mijia_device.dir/__/__/mesh/models/config/src/composition_data.c.obj
LOAD CMakeFiles/51_mijia_device.dir/__/nrf_mesh_sdk.c.obj
LOAD CMakeFiles/51_mijia_device.dir/__/hal/src/simple_hal.c.obj
LOAD CMakeFiles/51_mijia_device.dir/__/models/simple_on_off/src/simple_on_off_server.c.obj
LOAD CMakeFiles/51_mijia_device.dir/__/__/toolchain/gcc/gcc_startup_nrf51.S.obj
LOAD CMakeFiles/51_mijia_device.dir/__/__/toolchain/system_nrf51.c.obj
LOAD ../../mesh/lib_51_MBTLE_PB_ADV_EE.a
LOAD ../../mesh/lib_51_MBTLE_CORE.a
LOAD ../../lib/micro-ecc/lib_51_UECC_LIB.a
LOAD ../../lib/rtt/lib_51_RTT_LIB.a
START GROUP
LOAD /usr/bin/../lib/gcc/arm-none-eabi/6.3.1/thumb/v6-m/libgcc.a
LOAD /usr/bin/../lib/gcc/arm-none-eabi/6.3.1/../../../../arm-none-eabi/lib/thumb/v6-m/libg_nano.a
LOAD /usr/bin/../lib/gcc/arm-none-eabi/6.3.1/../../../../arm-none-eabi/lib/thumb/v6-m/libc_nano.a
END GROUP
START GROUP
LOAD /usr/bin/../lib/gcc/arm-none-eabi/6.3.1/thumb/v6-m/libgcc.a
LOAD /usr/bin/../lib/gcc/arm-none-eabi/6.3.1/../../../../arm-none-eabi/lib/thumb/v6-m/libc_nano.a
END GROUP
LOAD /usr/bin/../lib/gcc/arm-none-eabi/6.3.1/thumb/v6-m/crtend.o
LOAD /usr/bin/../lib/gcc/arm-none-eabi/6.3.1/thumb/v6-m/crtn.o
START GROUP
LOAD /usr/bin/../lib/gcc/arm-none-eabi/6.3.1/thumb/v6-m/libgcc.a
LOAD /usr/bin/../lib/gcc/arm-none-eabi/6.3.1/../../../../arm-none-eabi/lib/thumb/v6-m/libc.a
LOAD /usr/bin/../lib/gcc/arm-none-eabi/6.3.1/../../../../arm-none-eabi/lib/thumb/v6-m/libnosys.a
END GROUP

.text           0x000000000001b000    0x16bc4
 *(.isr_vector)
 .isr_vector    0x000000000001b000       0xc0 CMakeFiles/51_mijia_device.dir/__/__/toolchain/gcc/gcc_startup_nrf51.S.obj
                0x000000000001b000                __isr_vector
 *(.text*)
 .text          0x000000000001b0c0       0x60 /usr/bin/../lib/gcc/arm-none-eabi/6.3.1/thumb/v6-m/crtbegin.o
 .text          0x000000000001b120       0x78 /usr/bin/../lib/gcc/arm-none-eabi/6.3.1/../../../../arm-none-eabi/lib/thumb/v6-m/crt0.o
                0x000000000001b120                _mainCRTStartup
                0x000000000001b120                _start
 .text.configuration_setup
                0x000000000001b198       0xb8 CMakeFiles/51_mijia_device.dir/src/main.c.obj
 .text.generic_set_cb
                0x000000000001b250       0x84 CMakeFiles/51_mijia_device.dir/src/main.c.obj
 .text.generic_get_cb
                0x000000000001b2d4        0xa CMakeFiles/51_mijia_device.dir/src/main.c.obj
 *fill*         0x000000000001b2de        0x2 
 .text.configuration_complete
                0x000000000001b2e0       0x84 CMakeFiles/51_mijia_device.dir/src/main.c.obj
 .text.main     0x000000000001b364       0xd0 CMakeFiles/51_mijia_device.dir/src/main.c.obj
                0x000000000001b364                main
 .text.send_data
                0x000000000001b434       0x4c CMakeFiles/51_mijia_device.dir/__/__/mesh/src/prov/provisioning.c.obj
 .text.prov_packet_length_valid
                0x000000000001b480       0x28 CMakeFiles/51_mijia_device.dir/__/__/mesh/src/prov/provisioning.c.obj
                0x000000000001b480                prov_packet_length_valid
 .text.prov_init
                0x000000000001b4a8       0x3c CMakeFiles/51_mijia_device.dir/__/__/mesh/src/prov/provisioning.c.obj
                0x000000000001b4a8                prov_init
 .text.prov_listen_start
                0x000000000001b4e4       0x14 CMakeFiles/51_mijia_device.dir/__/__/mesh/src/prov/provisioning.c.obj
                0x000000000001b4e4                prov_listen_start
 .text.prov_link_close
                0x000000000001b4f8        0xe CMakeFiles/51_mijia_device.dir/__/__/mesh/src/prov/provisioning.c.obj
                0x000000000001b4f8                prov_link_close
 .text.prov_tx_capabilities
                0x000000000001b506       0x1c CMakeFiles/51_mijia_device.dir/__/__/mesh/src/prov/provisioning.c.obj
                0x000000000001b506                prov_tx_capabilities
 .text.prov_tx_public_key
                0x000000000001b522       0x24 CMakeFiles/51_mijia_device.dir/__/__/mesh/src/prov/provisioning.c.obj
                0x000000000001b522                prov_tx_public_key
 .text.prov_tx_input_complete
                0x000000000001b546       0x14 CMakeFiles/51_mijia_device.dir/__/__/mesh/src/prov/provisioning.c.obj
                0x000000000001b546                prov_tx_input_complete
 .text.prov_tx_confirmation
                0x000000000001b55a       0x24 CMakeFiles/51_mijia_device.dir/__/__/mesh/src/prov/provisioning.c.obj
                0x000000000001b55a                prov_tx_confirmation
 .text.prov_tx_random
                0x000000000001b57e       0x24 CMakeFiles/51_mijia_device.dir/__/__/mesh/src/prov/provisioning.c.obj
                0x000000000001b57e                prov_tx_random
 .text.prov_tx_complete
                0x000000000001b5a2       0x14 CMakeFiles/51_mijia_device.dir/__/__/mesh/src/prov/provisioning.c.obj
                0x000000000001b5a2                prov_tx_complete
 .text.prov_tx_failed
                0x000000000001b5b6       0x18 CMakeFiles/51_mijia_device.dir/__/__/mesh/src/prov/provisioning.c.obj
                0x000000000001b5b6                prov_tx_failed
 .text.prov_cb_link_opened
                0x000000000001b5ce        0xe CMakeFiles/51_mijia_device.dir/__/__/mesh/src/prov/provisioning.c.obj
                0x000000000001b5ce                prov_cb_link_opened
 .text.prov_cb_link_closed
                0x000000000001b5dc        0xe CMakeFiles/51_mijia_device.dir/__/__/mesh/src/prov/provisioning.c.obj
                0x000000000001b5dc                prov_cb_link_closed
 *fill*         0x000000000001b5ea        0x2 
 .text.prov_cb_pkt_in
                0x000000000001b5ec       0x90 CMakeFiles/51_mijia_device.dir/__/__/mesh/src/prov/provisioning.c.obj
                0x000000000001b5ec                prov_cb_pkt_in
 .text.prov_cb_ack_in
                0x000000000001b67c        0xe CMakeFiles/51_mijia_device.dir/__/__/mesh/src/prov/provisioning.c.obj
                0x000000000001b67c                prov_cb_ack_in
 *fill*         0x000000000001b68a        0x2 
 .text.nrf_mesh_prov_init
                0x000000000001b68c       0x34 CMakeFiles/51_mijia_device.dir/__/__/mesh/src/prov/nrf_mesh_prov.c.obj
                0x000000000001b68c                nrf_mesh_prov_init
 .text.nrf_mesh_prov_generate_keys
                0x000000000001b6c0        0x8 CMakeFiles/51_mijia_device.dir/__/__/mesh/src/prov/nrf_mesh_prov.c.obj
                0x000000000001b6c0                nrf_mesh_prov_generate_keys
 .text.nrf_mesh_prov_listen
                0x000000000001b6c8       0x2a CMakeFiles/51_mijia_device.dir/__/__/mesh/src/prov/nrf_mesh_prov.c.obj
                0x000000000001b6c8                nrf_mesh_prov_listen
 *fill*         0x000000000001b6f2        0x2 
 .text.nrf_mesh_prov_auth_data_provide
                0x000000000001b6f4       0x1c CMakeFiles/51_mijia_device.dir/__/__/mesh/src/prov/nrf_mesh_prov.c.obj
                0x000000000001b6f4                nrf_mesh_prov_auth_data_provide
 .text.get_bearer_from_state
                0x000000000001b710       0x2c CMakeFiles/51_mijia_device.dir/__/__/mesh/src/prov/prov_bearer_adv.c.obj
 .text.get_bearer_from_link_id
                0x000000000001b73c       0x2c CMakeFiles/51_mijia_device.dir/__/__/mesh/src/prov/prov_bearer_adv.c.obj
 .text.remove_active_bearer
                0x000000000001b768       0x74 CMakeFiles/51_mijia_device.dir/__/__/mesh/src/prov/prov_bearer_adv.c.obj
 .text.pb_adv_packet_alloc
                0x000000000001b7dc       0x28 CMakeFiles/51_mijia_device.dir/__/__/mesh/src/prov/prov_bearer_adv.c.obj
 .text.send_packet
                0x000000000001b804       0x4a CMakeFiles/51_mijia_device.dir/__/__/mesh/src/prov/prov_bearer_adv.c.obj
 .text.send_link_close
                0x000000000001b84e       0x4c CMakeFiles/51_mijia_device.dir/__/__/mesh/src/prov/prov_bearer_adv.c.obj
 *fill*         0x000000000001b89a        0x2 
 .text.send_transaction_start
                0x000000000001b89c       0xe4 CMakeFiles/51_mijia_device.dir/__/__/mesh/src/prov/prov_bearer_adv.c.obj
 .text.send_transaction_continuation
                0x000000000001b980       0x94 CMakeFiles/51_mijia_device.dir/__/__/mesh/src/prov/prov_bearer_adv.c.obj
 .text.prov_buffer_tx
                0x000000000001ba14       0x64 CMakeFiles/51_mijia_device.dir/__/__/mesh/src/prov/prov_bearer_adv.c.obj
 .text.send_link_open
                0x000000000001ba78       0x54 CMakeFiles/51_mijia_device.dir/__/__/mesh/src/prov/prov_bearer_adv.c.obj
 .text.send_transaction_ack
                0x000000000001bacc       0x48 CMakeFiles/51_mijia_device.dir/__/__/mesh/src/prov/prov_bearer_adv.c.obj
 .text.send_link_ack
                0x000000000001bb14       0x4a CMakeFiles/51_mijia_device.dir/__/__/mesh/src/prov/prov_bearer_adv.c.obj
 *fill*         0x000000000001bb5e        0x2 
 .text.prov_bearer_adv_listen_stop
                0x000000000001bb60       0x40 CMakeFiles/51_mijia_device.dir/__/__/mesh/src/prov/prov_bearer_adv.c.obj
 .text.close_link
                0x000000000001bba0       0x6c CMakeFiles/51_mijia_device.dir/__/__/mesh/src/prov/prov_bearer_adv.c.obj
 .text.prov_bearer_adv_link_close
                0x000000000001bc0c       0x7c CMakeFiles/51_mijia_device.dir/__/__/mesh/src/prov/prov_bearer_adv.c.obj
 .text.adv_queue_empty_cb
                0x000000000001bc88       0x3c CMakeFiles/51_mijia_device.dir/__/__/mesh/src/prov/prov_bearer_adv.c.obj
 .text.init_bearer_structure
                0x000000000001bcc4       0x60 CMakeFiles/51_mijia_device.dir/__/__/mesh/src/prov/prov_bearer_adv.c.obj
 .text.link_timeout_cb
                0x000000000001bd24        0xc CMakeFiles/51_mijia_device.dir/__/__/mesh/src/prov/prov_bearer_adv.c.obj
 .text.tx_retry_cb
                0x000000000001bd30       0xe8 CMakeFiles/51_mijia_device.dir/__/__/mesh/src/prov/prov_bearer_adv.c.obj
 .text.add_active_bearer
                0x000000000001be18       0x98 CMakeFiles/51_mijia_device.dir/__/__/mesh/src/prov/prov_bearer_adv.c.obj
 .text.send_unprov_beacon
                0x000000000001beb0       0x38 CMakeFiles/51_mijia_device.dir/__/__/mesh/src/prov/prov_bearer_adv.c.obj
 .text.prov_bearer_adv_listen
                0x000000000001bee8       0x70 CMakeFiles/51_mijia_device.dir/__/__/mesh/src/prov/prov_bearer_adv.c.obj
 .text.prov_bearer_adv_link_open
                0x000000000001bf58       0x8c CMakeFiles/51_mijia_device.dir/__/__/mesh/src/prov/prov_bearer_adv.c.obj
 .text.handle_transaction_ack_packet
                0x000000000001bfe4      0x134 CMakeFiles/51_mijia_device.dir/__/__/mesh/src/prov/prov_bearer_adv.c.obj
 .text.handle_control_packet
                0x000000000001c118      0x3a8 CMakeFiles/51_mijia_device.dir/__/__/mesh/src/prov/prov_bearer_adv.c.obj
 .text.calculate_3GPP_CRC
                0x000000000001c4c0       0x20 CMakeFiles/51_mijia_device.dir/__/__/mesh/src/prov/prov_bearer_adv.c.obj
                0x000000000001c4c0                calculate_3GPP_CRC
 .text.prov_bearer_adv_tx
                0x000000000001c4e0       0xcc CMakeFiles/51_mijia_device.dir/__/__/mesh/src/prov/prov_bearer_adv.c.obj
 .text.prov_buffer_rx
                0x000000000001c5ac       0x94 CMakeFiles/51_mijia_device.dir/__/__/mesh/src/prov/prov_bearer_adv.c.obj
 .text.handle_transaction_start_packet
                0x000000000001c640      0x2ac CMakeFiles/51_mijia_device.dir/__/__/mesh/src/prov/prov_bearer_adv.c.obj
 .text.handle_transaction_continuation_packet
                0x000000000001c8ec      0x180 CMakeFiles/51_mijia_device.dir/__/__/mesh/src/prov/prov_bearer_adv.c.obj
 .text.prov_bearer_adv_interface_get
                0x000000000001ca6c        0x8 CMakeFiles/51_mijia_device.dir/__/__/mesh/src/prov/prov_bearer_adv.c.obj
                0x000000000001ca6c                prov_bearer_adv_interface_get
 .text.prov_bearer_adv_pkt_in
                0x000000000001ca74       0xcc CMakeFiles/51_mijia_device.dir/__/__/mesh/src/prov/prov_bearer_adv.c.obj
                0x000000000001ca74                prov_bearer_adv_pkt_in
 .text.oob_gen_count
                0x000000000001cb40       0x22 CMakeFiles/51_mijia_device.dir/__/__/mesh/src/prov/prov_utils.c.obj
 *fill*         0x000000000001cb62        0x2 
 .text.oob_gen_alphanumeric
                0x000000000001cb64       0x38 CMakeFiles/51_mijia_device.dir/__/__/mesh/src/prov/prov_utils.c.obj
 .text.oob_gen_numeric
                0x000000000001cb9c       0x4c CMakeFiles/51_mijia_device.dir/__/__/mesh/src/prov/prov_utils.c.obj
 .text.create_confirmation_salt
                0x000000000001cbe8       0x74 CMakeFiles/51_mijia_device.dir/__/__/mesh/src/prov/prov_utils.c.obj
 .text.prov_utils_opt_set
                0x000000000001cc5c       0x28 CMakeFiles/51_mijia_device.dir/__/__/mesh/src/prov/prov_utils.c.obj
                0x000000000001cc5c                prov_utils_opt_set
 .text.prov_utils_opt_get
                0x000000000001cc84       0x1c CMakeFiles/51_mijia_device.dir/__/__/mesh/src/prov/prov_utils.c.obj
                0x000000000001cc84                prov_utils_opt_get
 .text.prov_utils_use_ecdh_offloading
                0x000000000001cca0        0xc CMakeFiles/51_mijia_device.dir/__/__/mesh/src/prov/prov_utils.c.obj
                0x000000000001cca0                prov_utils_use_ecdh_offloading
 .text.prov_utils_authentication_values_derive
                0x000000000001ccac       0x60 CMakeFiles/51_mijia_device.dir/__/__/mesh/src/prov/prov_utils.c.obj
                0x000000000001ccac                prov_utils_authentication_values_derive
 .text.prov_utils_keys_generate
                0x000000000001cd0c       0x20 CMakeFiles/51_mijia_device.dir/__/__/mesh/src/prov/prov_utils.c.obj
                0x000000000001cd0c                prov_utils_keys_generate
 .text.prov_utils_derive_keys
                0x000000000001cd2c       0xc0 CMakeFiles/51_mijia_device.dir/__/__/mesh/src/prov/prov_utils.c.obj
                0x000000000001cd2c                prov_utils_derive_keys
 .text.prov_utils_calculate_shared_secret
                0x000000000001cdec       0x42 CMakeFiles/51_mijia_device.dir/__/__/mesh/src/prov/prov_utils.c.obj
                0x000000000001cdec                prov_utils_calculate_shared_secret
 *fill*         0x000000000001ce2e        0x2 
 .text.prov_utils_generate_oob_data
                0x000000000001ce30       0xb4 CMakeFiles/51_mijia_device.dir/__/__/mesh/src/prov/prov_utils.c.obj
                0x000000000001ce30                prov_utils_generate_oob_data
 .text.prov_utils_confirmation_check
                0x000000000001cee4       0x6c CMakeFiles/51_mijia_device.dir/__/__/mesh/src/prov/prov_utils.c.obj
                0x000000000001cee4                prov_utils_confirmation_check
 .text.prov_beacon_unprov_build
                0x000000000001cf50       0x52 CMakeFiles/51_mijia_device.dir/__/__/mesh/src/prov/prov_beacon.c.obj
                0x000000000001cf50                prov_beacon_unprov_build
 *fill*         0x000000000001cfa2        0x2 
 .text.prov_beacon_unprov_pkt_in
                0x000000000001cfa4       0xd4 CMakeFiles/51_mijia_device.dir/__/__/mesh/src/prov/prov_beacon.c.obj
                0x000000000001cfa4                prov_beacon_unprov_pkt_in
 .text.increment_model_count
                0x000000000001d078       0x3c CMakeFiles/51_mijia_device.dir/__/__/mesh/src/access/access.c.obj
 .text.element_has_model_id
                0x000000000001d0b4       0x70 CMakeFiles/51_mijia_device.dir/__/__/mesh/src/access/access.c.obj
 .text.access_opcode_get
                0x000000000001d124       0x6a CMakeFiles/51_mijia_device.dir/__/__/mesh/src/access/access.c.obj
 *fill*         0x000000000001d18e        0x2 
 .text.opcode_set
                0x000000000001d190       0x3c CMakeFiles/51_mijia_device.dir/__/__/mesh/src/access/access.c.obj
 .text.is_valid_opcode
                0x000000000001d1cc       0x60 CMakeFiles/51_mijia_device.dir/__/__/mesh/src/access/access.c.obj
 .text.opcodes_are_valid
                0x000000000001d22c       0x20 CMakeFiles/51_mijia_device.dir/__/__/mesh/src/access/access.c.obj
 .text.is_opcode_of_model
                0x000000000001d24c       0x3a CMakeFiles/51_mijia_device.dir/__/__/mesh/src/access/access.c.obj
 *fill*         0x000000000001d286        0x2 
 .text.check_tx_params
                0x000000000001d288       0xb4 CMakeFiles/51_mijia_device.dir/__/__/mesh/src/access/access.c.obj
 .text.flash_invalidate_complete
                0x000000000001d33c       0x18 CMakeFiles/51_mijia_device.dir/__/__/mesh/src/access/access.c.obj
 .text.flash_manager_mem_available
                0x000000000001d354        0x6 CMakeFiles/51_mijia_device.dir/__/__/mesh/src/access/access.c.obj
 *fill*         0x000000000001d35a        0x2 
 .text.restore_acquired_subscription
                0x000000000001d35c       0x44 CMakeFiles/51_mijia_device.dir/__/__/mesh/src/access/access.c.obj
 .text.restore_acquired_element
                0x000000000001d3a0       0x20 CMakeFiles/51_mijia_device.dir/__/__/mesh/src/access/access.c.obj
 .text.restore_flash_data
                0x000000000001d3c0       0x60 CMakeFiles/51_mijia_device.dir/__/__/mesh/src/access/access.c.obj
 .text.restore_acquired_model
                0x000000000001d420       0x78 CMakeFiles/51_mijia_device.dir/__/__/mesh/src/access/access.c.obj
 .text.access_flash_config_clear
                0x000000000001d498       0x28 CMakeFiles/51_mijia_device.dir/__/__/mesh/src/access/access.c.obj
 .text.access_flash_config_store
                0x000000000001d4c0      0x188 CMakeFiles/51_mijia_device.dir/__/__/mesh/src/access/access.c.obj
                0x000000000001d4c0                access_flash_config_store
 .text.access_state_clear
                0x000000000001d648       0x50 CMakeFiles/51_mijia_device.dir/__/__/mesh/src/access/access.c.obj
 .text.mesh_msg_handle
                0x000000000001d698      0x2a0 CMakeFiles/51_mijia_device.dir/__/__/mesh/src/access/access.c.obj
 .text.mesh_evt_cb
                0x000000000001d938       0x12 CMakeFiles/51_mijia_device.dir/__/__/mesh/src/access/access.c.obj
 *fill*         0x000000000001d94a        0x2 
 .text.add_flash_manager
                0x000000000001d94c       0x64 CMakeFiles/51_mijia_device.dir/__/__/mesh/src/access/access.c.obj
 .text.flash_remove_complete
                0x000000000001d9b0       0x8c CMakeFiles/51_mijia_device.dir/__/__/mesh/src/access/access.c.obj
 .text.flash_write_complete
                0x000000000001da3c       0x6c CMakeFiles/51_mijia_device.dir/__/__/mesh/src/access/access.c.obj
 .text.packet_tx
                0x000000000001daa8      0x21c CMakeFiles/51_mijia_device.dir/__/__/mesh/src/access/access.c.obj
 .text.access_flash_config_load
                0x000000000001dcc4      0x1cc CMakeFiles/51_mijia_device.dir/__/__/mesh/src/access/access.c.obj
                0x000000000001dcc4                access_flash_config_load
 .text.access_init
                0x000000000001de90       0x24 CMakeFiles/51_mijia_device.dir/__/__/mesh/src/access/access.c.obj
                0x000000000001de90                access_init
 .text.access_model_add
                0x000000000001deb4      0x150 CMakeFiles/51_mijia_device.dir/__/__/mesh/src/access/access.c.obj
                0x000000000001deb4                access_model_add
 .text.access_model_publish
                0x000000000001e004       0x12 CMakeFiles/51_mijia_device.dir/__/__/mesh/src/access/access.c.obj
                0x000000000001e004                access_model_publish
 .text.access_model_reply
                0x000000000001e016       0x1e CMakeFiles/51_mijia_device.dir/__/__/mesh/src/access/access.c.obj
                0x000000000001e016                access_model_reply
 .text.access_model_publish_address_set
                0x000000000001e034       0x58 CMakeFiles/51_mijia_device.dir/__/__/mesh/src/access/access.c.obj
                0x000000000001e034                access_model_publish_address_set
 .text.access_model_publish_address_get
                0x000000000001e08c       0x44 CMakeFiles/51_mijia_device.dir/__/__/mesh/src/access/access.c.obj
                0x000000000001e08c                access_model_publish_address_get
 .text.access_model_publish_period_set
                0x000000000001e0d0       0xb0 CMakeFiles/51_mijia_device.dir/__/__/mesh/src/access/access.c.obj
                0x000000000001e0d0                access_model_publish_period_set
 .text.access_model_publish_period_get
                0x000000000001e180       0x60 CMakeFiles/51_mijia_device.dir/__/__/mesh/src/access/access.c.obj
                0x000000000001e180                access_model_publish_period_get
 .text.access_model_subscription_list_alloc
                0x000000000001e1e0       0x74 CMakeFiles/51_mijia_device.dir/__/__/mesh/src/access/access.c.obj
                0x000000000001e1e0                access_model_subscription_list_alloc
 .text.access_model_subscription_add
                0x000000000001e254       0x88 CMakeFiles/51_mijia_device.dir/__/__/mesh/src/access/access.c.obj
                0x000000000001e254                access_model_subscription_add
 .text.access_model_subscription_remove
                0x000000000001e2dc       0x88 CMakeFiles/51_mijia_device.dir/__/__/mesh/src/access/access.c.obj
                0x000000000001e2dc                access_model_subscription_remove
 .text.access_model_subscriptions_get
                0x000000000001e364       0xa4 CMakeFiles/51_mijia_device.dir/__/__/mesh/src/access/access.c.obj
                0x000000000001e364                access_model_subscriptions_get
 .text.access_model_application_bind
                0x000000000001e408       0x74 CMakeFiles/51_mijia_device.dir/__/__/mesh/src/access/access.c.obj
                0x000000000001e408                access_model_application_bind
 .text.access_model_application_unbind
                0x000000000001e47c       0x74 CMakeFiles/51_mijia_device.dir/__/__/mesh/src/access/access.c.obj
                0x000000000001e47c                access_model_application_unbind
 .text.access_model_applications_get
                0x000000000001e4f0       0x80 CMakeFiles/51_mijia_device.dir/__/__/mesh/src/access/access.c.obj
                0x000000000001e4f0                access_model_applications_get
 .text.access_model_publish_application_set
                0x000000000001e570       0x58 CMakeFiles/51_mijia_device.dir/__/__/mesh/src/access/access.c.obj
                0x000000000001e570                access_model_publish_application_set
 .text.access_model_publish_application_get
                0x000000000001e5c8       0x44 CMakeFiles/51_mijia_device.dir/__/__/mesh/src/access/access.c.obj
                0x000000000001e5c8                access_model_publish_application_get
 .text.access_default_ttl_set
                0x000000000001e60c       0x10 CMakeFiles/51_mijia_device.dir/__/__/mesh/src/access/access.c.obj
                0x000000000001e60c                access_default_ttl_set
 .text.access_default_ttl_get
                0x000000000001e61c        0xc CMakeFiles/51_mijia_device.dir/__/__/mesh/src/access/access.c.obj
                0x000000000001e61c                access_default_ttl_get
 .text.access_model_publish_ttl_set
                0x000000000001e628       0x60 CMakeFiles/51_mijia_device.dir/__/__/mesh/src/access/access.c.obj
                0x000000000001e628                access_model_publish_ttl_set
 .text.access_model_publish_ttl_get
                0x000000000001e688       0x44 CMakeFiles/51_mijia_device.dir/__/__/mesh/src/access/access.c.obj
                0x000000000001e688                access_model_publish_ttl_get
 .text.access_element_location_get
                0x000000000001e6cc       0x24 CMakeFiles/51_mijia_device.dir/__/__/mesh/src/access/access.c.obj
                0x000000000001e6cc                access_element_location_get
 .text.access_element_sig_model_count_get
                0x000000000001e6f0       0x28 CMakeFiles/51_mijia_device.dir/__/__/mesh/src/access/access.c.obj
                0x000000000001e6f0                access_element_sig_model_count_get
 .text.access_element_vendor_model_count_get
                0x000000000001e718       0x28 CMakeFiles/51_mijia_device.dir/__/__/mesh/src/access/access.c.obj
                0x000000000001e718                access_element_vendor_model_count_get
 .text.access_model_id_get
                0x000000000001e740       0x50 CMakeFiles/51_mijia_device.dir/__/__/mesh/src/access/access.c.obj
                0x000000000001e740                access_model_id_get
 .text.access_handle_get
                0x000000000001e790       0x68 CMakeFiles/51_mijia_device.dir/__/__/mesh/src/access/access.c.obj
                0x000000000001e790                access_handle_get
 .text.access_element_models_get
                0x000000000001e7f8       0x68 CMakeFiles/51_mijia_device.dir/__/__/mesh/src/access/access.c.obj
                0x000000000001e7f8                access_element_models_get
 .text.access_model_p_args_get
                0x000000000001e860       0x44 CMakeFiles/51_mijia_device.dir/__/__/mesh/src/access/access.c.obj
                0x000000000001e860                access_model_p_args_get
 .text.add_to_publication_list
                0x000000000001e8a4       0xa4 CMakeFiles/51_mijia_device.dir/__/__/mesh/src/access/access_publish.c.obj
 .text.calculate_next_timestamp
                0x000000000001e948      0x1f0 CMakeFiles/51_mijia_device.dir/__/__/mesh/src/access/access_publish.c.obj
 .text.schedule_publication_timer
                0x000000000001eb38       0xe0 CMakeFiles/51_mijia_device.dir/__/__/mesh/src/access/access_publish.c.obj
 .text.schedule_publication_event
                0x000000000001ec18       0x1c CMakeFiles/51_mijia_device.dir/__/__/mesh/src/access/access_publish.c.obj
 .text.access_publish_period_set
                0x000000000001ec34       0x88 CMakeFiles/51_mijia_device.dir/__/__/mesh/src/access/access_publish.c.obj
                0x000000000001ec34                access_publish_period_set
 .text.access_publish_period_get
                0x000000000001ecbc       0x34 CMakeFiles/51_mijia_device.dir/__/__/mesh/src/access/access_publish.c.obj
                0x000000000001ecbc                access_publish_period_get
 .text.find_index
                0x000000000001ecf0       0x48 CMakeFiles/51_mijia_device.dir/__/__/mesh/src/access/access_reliable.c.obj
 .text.get_next_timeout_index
                0x000000000001ed38       0x54 CMakeFiles/51_mijia_device.dir/__/__/mesh/src/access/access_reliable.c.obj
 .text.remove_and_reschedule
                0x000000000001ed8c       0xb8 CMakeFiles/51_mijia_device.dir/__/__/mesh/src/access/access_reliable.c.obj
 .text.reliable_timer_cb
                0x000000000001ee44      0x1c0 CMakeFiles/51_mijia_device.dir/__/__/mesh/src/access/access_reliable.c.obj
 .text.access_reliable_message_rx_cb
                0x000000000001f004       0x88 CMakeFiles/51_mijia_device.dir/__/__/mesh/src/access/access_reliable.c.obj
                0x000000000001f004                access_reliable_message_rx_cb
 .text.access_reliable_init
                0x000000000001f08c       0x1c CMakeFiles/51_mijia_device.dir/__/__/mesh/src/access/access_reliable.c.obj
                0x000000000001f08c                access_reliable_init
 .text.rx_unicast_address_get
                0x000000000001f0a8       0x44 CMakeFiles/51_mijia_device.dir/__/__/mesh/src/access/device_state_manager.c.obj
 .text.address_nonvirtual_subscription_exists
                0x000000000001f0ec       0x54 CMakeFiles/51_mijia_device.dir/__/__/mesh/src/access/device_state_manager.c.obj
 .text.rx_group_address_get
                0x000000000001f140       0x22 CMakeFiles/51_mijia_device.dir/__/__/mesh/src/access/device_state_manager.c.obj
 *fill*         0x000000000001f162        0x2 
 .text.virtual_address_index_get
                0x000000000001f164       0x54 CMakeFiles/51_mijia_device.dir/__/__/mesh/src/access/device_state_manager.c.obj
 .text.non_virtual_address_handle_get
                0x000000000001f1b8       0x54 CMakeFiles/51_mijia_device.dir/__/__/mesh/src/access/device_state_manager.c.obj
 .text.dev_key_handle_get
                0x000000000001f20c       0x58 CMakeFiles/51_mijia_device.dir/__/__/mesh/src/access/device_state_manager.c.obj
 .text.app_key_handle_get
                0x000000000001f264       0x54 CMakeFiles/51_mijia_device.dir/__/__/mesh/src/access/device_state_manager.c.obj
 .text.get_all_appkeys
                0x000000000001f2b8       0x5c CMakeFiles/51_mijia_device.dir/__/__/mesh/src/access/device_state_manager.c.obj
 .text.get_all_subnets
                0x000000000001f314       0x4c CMakeFiles/51_mijia_device.dir/__/__/mesh/src/access/device_state_manager.c.obj
 .text.get_subnet_handle
                0x000000000001f360       0x48 CMakeFiles/51_mijia_device.dir/__/__/mesh/src/access/device_state_manager.c.obj
 .text.get_subnet_handle_by_beacon_info
                0x000000000001f3a8       0x48 CMakeFiles/51_mijia_device.dir/__/__/mesh/src/access/device_state_manager.c.obj
 .text.get_app_handle
                0x000000000001f3f0       0x6c CMakeFiles/51_mijia_device.dir/__/__/mesh/src/access/device_state_manager.c.obj
 .text.get_devkey_secmat
                0x000000000001f45c       0x30 CMakeFiles/51_mijia_device.dir/__/__/mesh/src/access/device_state_manager.c.obj
 .text.get_app_secmat
                0x000000000001f48c       0x6c CMakeFiles/51_mijia_device.dir/__/__/mesh/src/access/device_state_manager.c.obj
 .text.nonvirtual_address_set
                0x000000000001f4f8       0x3c CMakeFiles/51_mijia_device.dir/__/__/mesh/src/access/device_state_manager.c.obj
 .text.addr_nonvirtual_to_dsm_entry
                0x000000000001f534        0xe CMakeFiles/51_mijia_device.dir/__/__/mesh/src/access/device_state_manager.c.obj
 *fill*         0x000000000001f542        0x2 
 .text.addr_nonvirtual_to_flash_entry
                0x000000000001f544       0x10 CMakeFiles/51_mijia_device.dir/__/__/mesh/src/access/device_state_manager.c.obj
 .text.flash_mem_listener_callback
                0x000000000001f554       0x20 CMakeFiles/51_mijia_device.dir/__/__/mesh/src/access/device_state_manager.c.obj
 .text.flash_load
                0x000000000001f574       0x4c CMakeFiles/51_mijia_device.dir/__/__/mesh/src/access/device_state_manager.c.obj
 .text.devkey_set
                0x000000000001f5c0       0x64 CMakeFiles/51_mijia_device.dir/__/__/mesh/src/access/device_state_manager.c.obj
 .text.devkey_to_dsm_entry
                0x000000000001f624       0x14 CMakeFiles/51_mijia_device.dir/__/__/mesh/src/access/device_state_manager.c.obj
 .text.devkey_to_flash_entry
                0x000000000001f638       0x28 CMakeFiles/51_mijia_device.dir/__/__/mesh/src/access/device_state_manager.c.obj
 .text.appkey_to_flash_entry
                0x000000000001f660       0x28 CMakeFiles/51_mijia_device.dir/__/__/mesh/src/access/device_state_manager.c.obj
 .text.subnet_to_flash_entry
                0x000000000001f688       0x24 CMakeFiles/51_mijia_device.dir/__/__/mesh/src/access/device_state_manager.c.obj
 .text.addr_virtual_to_flash_entry
                0x000000000001f6ac       0x20 CMakeFiles/51_mijia_device.dir/__/__/mesh/src/access/device_state_manager.c.obj
 .text.addr_unicast_to_dsm_entry
                0x000000000001f6cc       0x10 CMakeFiles/51_mijia_device.dir/__/__/mesh/src/access/device_state_manager.c.obj
 .text.addr_unicast_to_flash_entry
                0x000000000001f6dc       0x14 CMakeFiles/51_mijia_device.dir/__/__/mesh/src/access/device_state_manager.c.obj
 .text.appkey_set
                0x000000000001f6f0       0x80 CMakeFiles/51_mijia_device.dir/__/__/mesh/src/access/device_state_manager.c.obj
 .text.appkey_to_dsm_entry
                0x000000000001f770       0x12 CMakeFiles/51_mijia_device.dir/__/__/mesh/src/access/device_state_manager.c.obj
 *fill*         0x000000000001f782        0x2 
 .text.subnet_set
                0x000000000001f784       0xc4 CMakeFiles/51_mijia_device.dir/__/__/mesh/src/access/device_state_manager.c.obj
 .text.subnet_to_dsm_entry
                0x000000000001f848       0x10 CMakeFiles/51_mijia_device.dir/__/__/mesh/src/access/device_state_manager.c.obj
 .text.virtual_address_set
                0x000000000001f858       0x68 CMakeFiles/51_mijia_device.dir/__/__/mesh/src/access/device_state_manager.c.obj
 .text.addr_virtual_to_dsm_entry
                0x000000000001f8c0       0x10 CMakeFiles/51_mijia_device.dir/__/__/mesh/src/access/device_state_manager.c.obj
 .text.flash_save
                0x000000000001f8d0       0x9c CMakeFiles/51_mijia_device.dir/__/__/mesh/src/access/device_state_manager.c.obj
 .text.flash_store_metainfo
                0x000000000001f96c       0x34 CMakeFiles/51_mijia_device.dir/__/__/mesh/src/access/device_state_manager.c.obj
 .text.flash_invalidate
                0x000000000001f9a0       0x84 CMakeFiles/51_mijia_device.dir/__/__/mesh/src/access/device_state_manager.c.obj
 .text.flash_update_all
                0x000000000001fa24       0xd4 CMakeFiles/51_mijia_device.dir/__/__/mesh/src/access/device_state_manager.c.obj
 .text.address_delete_if_unused
                0x000000000001faf8       0xe4 CMakeFiles/51_mijia_device.dir/__/__/mesh/src/access/device_state_manager.c.obj
 .text.flash_operation_complete
                0x000000000001fbdc       0x70 CMakeFiles/51_mijia_device.dir/__/__/mesh/src/access/device_state_manager.c.obj
 .text.flash_invalidate_complete
                0x000000000001fc4c        0xc CMakeFiles/51_mijia_device.dir/__/__/mesh/src/access/device_state_manager.c.obj
 .text.flash_write_complete
                0x000000000001fc58        0xc CMakeFiles/51_mijia_device.dir/__/__/mesh/src/access/device_state_manager.c.obj
 .text.reset_flash_area
                0x000000000001fc64       0x28 CMakeFiles/51_mijia_device.dir/__/__/mesh/src/access/device_state_manager.c.obj
 .text.address_exists
                0x000000000001fc8c       0xa8 CMakeFiles/51_mijia_device.dir/__/__/mesh/src/access/device_state_manager.c.obj
 .text.add_address
                0x000000000001fd34       0xa0 CMakeFiles/51_mijia_device.dir/__/__/mesh/src/access/device_state_manager.c.obj
 .text.virtual_address_uuid_index_get
                0x000000000001fdd4       0x64 CMakeFiles/51_mijia_device.dir/__/__/mesh/src/access/device_state_manager.c.obj
 .text.add_address_virtual
                0x000000000001fe38       0x9c CMakeFiles/51_mijia_device.dir/__/__/mesh/src/access/device_state_manager.c.obj
 .text.rx_virtual_address_get
                0x000000000001fed4       0x6c CMakeFiles/51_mijia_device.dir/__/__/mesh/src/access/device_state_manager.c.obj
 .text.dsm_flash_config_load
                0x000000000001ff40      0x114 CMakeFiles/51_mijia_device.dir/__/__/mesh/src/access/device_state_manager.c.obj
                0x000000000001ff40                dsm_flash_config_load
 .text.dsm_flash_area_get
                0x0000000000020054       0x14 CMakeFiles/51_mijia_device.dir/__/__/mesh/src/access/device_state_manager.c.obj
                0x0000000000020054                dsm_flash_area_get
 .text.build_flash_area
                0x0000000000020068       0x78 CMakeFiles/51_mijia_device.dir/__/__/mesh/src/access/device_state_manager.c.obj
 .text.dsm_init
                0x00000000000200e0       0x28 CMakeFiles/51_mijia_device.dir/__/__/mesh/src/access/device_state_manager.c.obj
                0x00000000000200e0                dsm_init
 .text.flash_remove_complete
                0x0000000000020108        0x8 CMakeFiles/51_mijia_device.dir/__/__/mesh/src/access/device_state_manager.c.obj
 .text.dsm_local_unicast_addresses_set
                0x0000000000020110       0x84 CMakeFiles/51_mijia_device.dir/__/__/mesh/src/access/device_state_manager.c.obj
                0x0000000000020110                dsm_local_unicast_addresses_set
 .text.dsm_local_unicast_addresses_get
                0x0000000000020194       0x2c CMakeFiles/51_mijia_device.dir/__/__/mesh/src/access/device_state_manager.c.obj
                0x0000000000020194                dsm_local_unicast_addresses_get
 .text.dsm_address_publish_add
                0x00000000000201c0        0xa CMakeFiles/51_mijia_device.dir/__/__/mesh/src/access/device_state_manager.c.obj
                0x00000000000201c0                dsm_address_publish_add
 *fill*         0x00000000000201ca        0x2 
 .text.dsm_address_publish_add_handle
                0x00000000000201cc       0x9c CMakeFiles/51_mijia_device.dir/__/__/mesh/src/access/device_state_manager.c.obj
                0x00000000000201cc                dsm_address_publish_add_handle
 .text.dsm_address_publish_virtual_add
                0x0000000000020268        0xa CMakeFiles/51_mijia_device.dir/__/__/mesh/src/access/device_state_manager.c.obj
                0x0000000000020268                dsm_address_publish_virtual_add
 .text.dsm_address_subscription_add
                0x0000000000020272        0xa CMakeFiles/51_mijia_device.dir/__/__/mesh/src/access/device_state_manager.c.obj
                0x0000000000020272                dsm_address_subscription_add
 .text.dsm_address_subscription_virtual_add
                0x000000000002027c        0xa CMakeFiles/51_mijia_device.dir/__/__/mesh/src/access/device_state_manager.c.obj
                0x000000000002027c                dsm_address_subscription_virtual_add
 *fill*         0x0000000000020286        0x2 
 .text.dsm_address_subscription_add_handle
                0x0000000000020288       0x9c CMakeFiles/51_mijia_device.dir/__/__/mesh/src/access/device_state_manager.c.obj
                0x0000000000020288                dsm_address_subscription_add_handle
 .text.dsm_address_subscription_get
                0x0000000000020324       0x94 CMakeFiles/51_mijia_device.dir/__/__/mesh/src/access/device_state_manager.c.obj
                0x0000000000020324                dsm_address_subscription_get
 .text.dsm_address_get
                0x00000000000203b8       0x9c CMakeFiles/51_mijia_device.dir/__/__/mesh/src/access/device_state_manager.c.obj
                0x00000000000203b8                dsm_address_get
 .text.dsm_address_subscription_remove
                0x0000000000020454       0xe0 CMakeFiles/51_mijia_device.dir/__/__/mesh/src/access/device_state_manager.c.obj
                0x0000000000020454                dsm_address_subscription_remove
 .text.dsm_address_handle_get
                0x0000000000020534       0x74 CMakeFiles/51_mijia_device.dir/__/__/mesh/src/access/device_state_manager.c.obj
                0x0000000000020534                dsm_address_handle_get
 .text.dsm_net_key_index_to_subnet_handle
                0x00000000000205a8       0x58 CMakeFiles/51_mijia_device.dir/__/__/mesh/src/access/device_state_manager.c.obj
                0x00000000000205a8                dsm_net_key_index_to_subnet_handle
 .text.dsm_app_key_index_to_appkey_handle
                0x0000000000020600       0x20 CMakeFiles/51_mijia_device.dir/__/__/mesh/src/access/device_state_manager.c.obj
                0x0000000000020600                dsm_app_key_index_to_appkey_handle
 .text.dsm_appkey_handle_get
                0x0000000000020620       0x14 CMakeFiles/51_mijia_device.dir/__/__/mesh/src/access/device_state_manager.c.obj
                0x0000000000020620                dsm_appkey_handle_get
 .text.dsm_appkey_handle_to_appkey_index
                0x0000000000020634       0x40 CMakeFiles/51_mijia_device.dir/__/__/mesh/src/access/device_state_manager.c.obj
                0x0000000000020634                dsm_appkey_handle_to_appkey_index
 .text.dsm_subnet_add
                0x0000000000020674       0x94 CMakeFiles/51_mijia_device.dir/__/__/mesh/src/access/device_state_manager.c.obj
                0x0000000000020674                dsm_subnet_add
 .text.dsm_subnet_update
                0x0000000000020708       0x50 CMakeFiles/51_mijia_device.dir/__/__/mesh/src/access/device_state_manager.c.obj
                0x0000000000020708                dsm_subnet_update
 .text.dsm_subnet_get_all
                0x0000000000020758       0x22 CMakeFiles/51_mijia_device.dir/__/__/mesh/src/access/device_state_manager.c.obj
                0x0000000000020758                dsm_subnet_get_all
 *fill*         0x000000000002077a        0x2 
 .text.dsm_devkey_add
                0x000000000002077c       0x94 CMakeFiles/51_mijia_device.dir/__/__/mesh/src/access/device_state_manager.c.obj
                0x000000000002077c                dsm_devkey_add
 .text.dsm_devkey_delete
                0x0000000000020810       0x4c CMakeFiles/51_mijia_device.dir/__/__/mesh/src/access/device_state_manager.c.obj
                0x0000000000020810                dsm_devkey_delete
 .text.dsm_appkey_add
                0x000000000002085c       0x94 CMakeFiles/51_mijia_device.dir/__/__/mesh/src/access/device_state_manager.c.obj
                0x000000000002085c                dsm_appkey_add
 .text.dsm_appkey_update
                0x00000000000208f0       0x58 CMakeFiles/51_mijia_device.dir/__/__/mesh/src/access/device_state_manager.c.obj
                0x00000000000208f0                dsm_appkey_update
 .text.dsm_appkey_delete
                0x0000000000020948       0x38 CMakeFiles/51_mijia_device.dir/__/__/mesh/src/access/device_state_manager.c.obj
                0x0000000000020948                dsm_appkey_delete
 .text.dsm_subnet_delete
                0x0000000000020980       0xd4 CMakeFiles/51_mijia_device.dir/__/__/mesh/src/access/device_state_manager.c.obj
                0x0000000000020980                dsm_subnet_delete
 .text.dsm_appkey_get_all
                0x0000000000020a54       0x48 CMakeFiles/51_mijia_device.dir/__/__/mesh/src/access/device_state_manager.c.obj
                0x0000000000020a54                dsm_appkey_get_all
 .text.dsm_tx_secmat_get
                0x0000000000020a9c      0x144 CMakeFiles/51_mijia_device.dir/__/__/mesh/src/access/device_state_manager.c.obj
                0x0000000000020a9c                dsm_tx_secmat_get
 .text.nrf_mesh_net_secmat_next_get
                0x0000000000020be0       0x78 CMakeFiles/51_mijia_device.dir/__/__/mesh/src/access/device_state_manager.c.obj
                0x0000000000020be0                nrf_mesh_net_secmat_next_get
 .text.nrf_mesh_app_secmat_next_get
                0x0000000000020c58       0x58 CMakeFiles/51_mijia_device.dir/__/__/mesh/src/access/device_state_manager.c.obj
                0x0000000000020c58                nrf_mesh_app_secmat_next_get
 .text.nrf_mesh_devkey_secmat_get
                0x0000000000020cb0       0x28 CMakeFiles/51_mijia_device.dir/__/__/mesh/src/access/device_state_manager.c.obj
                0x0000000000020cb0                nrf_mesh_devkey_secmat_get
 .text.nrf_mesh_beacon_info_next_get
                0x0000000000020cd8       0xb0 CMakeFiles/51_mijia_device.dir/__/__/mesh/src/access/device_state_manager.c.obj
                0x0000000000020cd8                nrf_mesh_beacon_info_next_get
 .text.nrf_mesh_rx_address_get
                0x0000000000020d88       0x38 CMakeFiles/51_mijia_device.dir/__/__/mesh/src/access/device_state_manager.c.obj
                0x0000000000020d88                nrf_mesh_rx_address_get
 .text.sd_softdevice_enable
                0x0000000000020dc0        0x4 CMakeFiles/51_mijia_device.dir/__/__/mesh/src/access/nrf_mesh_node_config.c.obj
 .text.sleep_forever
                0x0000000000020dc4       0x10 CMakeFiles/51_mijia_device.dir/__/__/mesh/src/access/nrf_mesh_node_config.c.obj
 .text.default_mesh_assertion_handler
                0x0000000000020dd4       0x80 CMakeFiles/51_mijia_device.dir/__/__/mesh/src/access/nrf_mesh_node_config.c.obj
                0x0000000000020dd4                default_mesh_assertion_handler
 .text.default_softdevice_assertion_handler
                0x0000000000020e54       0x88 CMakeFiles/51_mijia_device.dir/__/__/mesh/src/access/nrf_mesh_node_config.c.obj
 .text.setup_provisionee
                0x0000000000020edc       0x30 CMakeFiles/51_mijia_device.dir/__/__/mesh/src/access/nrf_mesh_node_config.c.obj
 .text.start_provisionee
                0x0000000000020f0c       0x1c CMakeFiles/51_mijia_device.dir/__/__/mesh/src/access/nrf_mesh_node_config.c.obj
 .text.mesh_evt_handler
                0x0000000000020f28      0x10c CMakeFiles/51_mijia_device.dir/__/__/mesh/src/access/nrf_mesh_node_config.c.obj
 .text.softdevice_setup
                0x0000000000021034       0x7c CMakeFiles/51_mijia_device.dir/__/__/mesh/src/access/nrf_mesh_node_config.c.obj
                0x0000000000021034                softdevice_setup
 .text.nrf_mesh_node_config
                0x00000000000210b0       0xe0 CMakeFiles/51_mijia_device.dir/__/__/mesh/src/access/nrf_mesh_node_config.c.obj
                0x00000000000210b0                nrf_mesh_node_config
 .text.get_element_index
                0x0000000000021190       0x2c CMakeFiles/51_mijia_device.dir/__/__/mesh/models/config/src/config_server.c.obj
 .text.send_reply
                0x00000000000211bc       0x20 CMakeFiles/51_mijia_device.dir/__/__/mesh/models/config/src/config_server.c.obj
 .text.send_generic_error_reply
                0x00000000000211dc       0x3e CMakeFiles/51_mijia_device.dir/__/__/mesh/models/config/src/config_server.c.obj
 *fill*         0x000000000002121a        0x2 
 .text.handle_model_app_get
                0x000000000002121c      0x1f0 CMakeFiles/51_mijia_device.dir/__/__/mesh/models/config/src/config_server.c.obj
 .text.handle_node_reset
                0x000000000002140c       0x20 CMakeFiles/51_mijia_device.dir/__/__/mesh/models/config/src/config_server.c.obj
 .text.handle_node_identity_set
                0x000000000002142c       0x3c CMakeFiles/51_mijia_device.dir/__/__/mesh/models/config/src/config_server.c.obj
 .text.handle_node_identity_get
                0x0000000000021468       0x3c CMakeFiles/51_mijia_device.dir/__/__/mesh/models/config/src/config_server.c.obj
 .text.send_netkey_status
                0x00000000000214a4       0x28 CMakeFiles/51_mijia_device.dir/__/__/mesh/models/config/src/config_server.c.obj
 .text.handle_heartbeat_subscription_set
                0x00000000000214cc       0x30 CMakeFiles/51_mijia_device.dir/__/__/mesh/models/config/src/config_server.c.obj
 .text.handle_heartbeat_subscription_get
                0x00000000000214fc       0x30 CMakeFiles/51_mijia_device.dir/__/__/mesh/models/config/src/config_server.c.obj
 .text.handle_heartbeat_publication_set
                0x000000000002152c       0x2a CMakeFiles/51_mijia_device.dir/__/__/mesh/models/config/src/config_server.c.obj
 .text.handle_heartbeat_publication_get
                0x0000000000021556       0x2a CMakeFiles/51_mijia_device.dir/__/__/mesh/models/config/src/config_server.c.obj
 .text.send_subscription_status
                0x0000000000021580       0x54 CMakeFiles/51_mijia_device.dir/__/__/mesh/models/config/src/config_server.c.obj
 .text.handle_config_gatt_proxy_set
                0x00000000000215d4       0x24 CMakeFiles/51_mijia_device.dir/__/__/mesh/models/config/src/config_server.c.obj
 .text.handle_config_gatt_proxy_get
                0x00000000000215f8       0x24 CMakeFiles/51_mijia_device.dir/__/__/mesh/models/config/src/config_server.c.obj
 .text.handle_config_friend_set
                0x000000000002161c       0x24 CMakeFiles/51_mijia_device.dir/__/__/mesh/models/config/src/config_server.c.obj
 .text.handle_config_friend_get
                0x0000000000021640       0x24 CMakeFiles/51_mijia_device.dir/__/__/mesh/models/config/src/config_server.c.obj
 .text.send_appkey_status
                0x0000000000021664       0x34 CMakeFiles/51_mijia_device.dir/__/__/mesh/models/config/src/config_server.c.obj
 .text.handle_netkey_get
                0x0000000000021698       0x6c CMakeFiles/51_mijia_device.dir/__/__/mesh/models/config/src/config_server.c.obj
 .text.handle_netkey_delete
                0x0000000000021704       0x6c CMakeFiles/51_mijia_device.dir/__/__/mesh/models/config/src/config_server.c.obj
 .text.handle_netkey_add_update
                0x0000000000021770       0x94 CMakeFiles/51_mijia_device.dir/__/__/mesh/models/config/src/config_server.c.obj
 .text.handle_model_app_bind_unbind
                0x0000000000021804      0x130 CMakeFiles/51_mijia_device.dir/__/__/mesh/models/config/src/config_server.c.obj
 .text.handle_config_sig_model_subscription_get
                0x0000000000021934      0x110 CMakeFiles/51_mijia_device.dir/__/__/mesh/models/config/src/config_server.c.obj
 .text.send_relay_status
                0x0000000000021a44       0x8c CMakeFiles/51_mijia_device.dir/__/__/mesh/models/config/src/config_server.c.obj
 .text.handle_config_relay_set
                0x0000000000021ad0       0xa0 CMakeFiles/51_mijia_device.dir/__/__/mesh/models/config/src/config_server.c.obj
 .text.handle_config_relay_get
                0x0000000000021b70       0x10 CMakeFiles/51_mijia_device.dir/__/__/mesh/models/config/src/config_server.c.obj
 .text.handle_config_model_subscription_virtual_address_add
                0x0000000000021b80      0x180 CMakeFiles/51_mijia_device.dir/__/__/mesh/models/config/src/config_server.c.obj
 .text.delete_all_subscriptions
                0x0000000000021d00       0x8c CMakeFiles/51_mijia_device.dir/__/__/mesh/models/config/src/config_server.c.obj
 .text.handle_config_model_subscription_virtual_address_overwrite
                0x0000000000021d8c      0x1ac CMakeFiles/51_mijia_device.dir/__/__/mesh/models/config/src/config_server.c.obj
 .text.handle_config_model_subscription_delete_all
                0x0000000000021f38       0xdc CMakeFiles/51_mijia_device.dir/__/__/mesh/models/config/src/config_server.c.obj
 .text.handle_config_model_subscription_virtual_address_delete
                0x0000000000022014      0x184 CMakeFiles/51_mijia_device.dir/__/__/mesh/models/config/src/config_server.c.obj
 .text.handle_config_model_subscription_delete
                0x0000000000022198      0x1bc CMakeFiles/51_mijia_device.dir/__/__/mesh/models/config/src/config_server.c.obj
 .text.handle_config_model_subscription_overwrite
                0x0000000000022354      0x1c8 CMakeFiles/51_mijia_device.dir/__/__/mesh/models/config/src/config_server.c.obj
 .text.handle_config_model_subscription_add
                0x000000000002251c      0x19c CMakeFiles/51_mijia_device.dir/__/__/mesh/models/config/src/config_server.c.obj
 .text.send_publication_status
                0x00000000000226b8      0x1bc CMakeFiles/51_mijia_device.dir/__/__/mesh/models/config/src/config_server.c.obj
 .text.handle_config_model_publication_get
                0x0000000000022874       0x98 CMakeFiles/51_mijia_device.dir/__/__/mesh/models/config/src/config_server.c.obj
 .text.handle_config_default_ttl_getset
                0x000000000002290c       0x58 CMakeFiles/51_mijia_device.dir/__/__/mesh/models/config/src/config_server.c.obj
 .text.send_net_beacon_state
                0x0000000000022964       0x2c CMakeFiles/51_mijia_device.dir/__/__/mesh/models/config/src/config_server.c.obj
 .text.handle_config_beacon_set
                0x0000000000022990       0x2a CMakeFiles/51_mijia_device.dir/__/__/mesh/models/config/src/config_server.c.obj
 .text.handle_config_beacon_get
                0x00000000000229ba       0x10 CMakeFiles/51_mijia_device.dir/__/__/mesh/models/config/src/config_server.c.obj
 *fill*         0x00000000000229ca        0x2 
 .text.handle_composition_data_get
                0x00000000000229cc       0x54 CMakeFiles/51_mijia_device.dir/__/__/mesh/models/config/src/config_server.c.obj
 .text.handle_appkey_get
                0x0000000000022a20       0xcc CMakeFiles/51_mijia_device.dir/__/__/mesh/models/config/src/config_server.c.obj
 .text.handle_appkey_delete
                0x0000000000022aec       0x6c CMakeFiles/51_mijia_device.dir/__/__/mesh/models/config/src/config_server.c.obj
 .text.handle_config_model_publication_set
                0x0000000000022b58      0x290 CMakeFiles/51_mijia_device.dir/__/__/mesh/models/config/src/config_server.c.obj
 .text.handle_appkey_add_update
                0x0000000000022de8       0xac CMakeFiles/51_mijia_device.dir/__/__/mesh/models/config/src/config_server.c.obj
 .text.handle_config_vendor_model_subscription_get
                0x0000000000022e94      0x130 CMakeFiles/51_mijia_device.dir/__/__/mesh/models/config/src/config_server.c.obj
 .text.config_server_init
                0x0000000000022fc4       0x54 CMakeFiles/51_mijia_device.dir/__/__/mesh/models/config/src/config_server.c.obj
                0x0000000000022fc4                config_server_init
 .text.config_server_bind
                0x0000000000023018       0x14 CMakeFiles/51_mijia_device.dir/__/__/mesh/models/config/src/config_server.c.obj
                0x0000000000023018                config_server_bind
 .text.packed_index_list_size
                0x000000000002302c       0x12 CMakeFiles/51_mijia_device.dir/__/__/mesh/models/config/src/packed_index_list.c.obj
                0x000000000002302c                packed_index_list_size
 .text.packed_index_list_create
                0x000000000002303e       0x50 CMakeFiles/51_mijia_device.dir/__/__/mesh/models/config/src/packed_index_list.c.obj
                0x000000000002303e                packed_index_list_create
 *fill*         0x000000000002308e        0x2 
 .text.composition_data_sig_models_write
                0x0000000000023090       0x68 CMakeFiles/51_mijia_device.dir/__/__/mesh/models/config/src/composition_data.c.obj
 .text.composition_data_vendor_models_write
                0x00000000000230f8       0x74 CMakeFiles/51_mijia_device.dir/__/__/mesh/models/config/src/composition_data.c.obj
 .text.config_composition_data_get
                0x000000000002316c      0x130 CMakeFiles/51_mijia_device.dir/__/__/mesh/models/config/src/composition_data.c.obj
                0x000000000002316c                config_composition_data_get
 .text.sd_evt_get
                0x000000000002329c        0x4 CMakeFiles/51_mijia_device.dir/__/nrf_mesh_sdk.c.obj
 .text.sd_ble_evt_get
                0x00000000000232a0        0x4 CMakeFiles/51_mijia_device.dir/__/nrf_mesh_sdk.c.obj
 .text.sleep_forever
                0x00000000000232a4       0x24 CMakeFiles/51_mijia_device.dir/__/nrf_mesh_sdk.c.obj
 .text.app_error_handler
                0x00000000000232c8       0x88 CMakeFiles/51_mijia_device.dir/__/nrf_mesh_sdk.c.obj
                0x00000000000232c8                app_error_handler
 .text.HardFault_Handler
                0x0000000000023350       0x7c CMakeFiles/51_mijia_device.dir/__/nrf_mesh_sdk.c.obj
                0x0000000000023350                HardFault_Handler
 .text.SWI2_IRQHandler
                0x00000000000233cc       0x40 CMakeFiles/51_mijia_device.dir/__/nrf_mesh_sdk.c.obj
                0x00000000000233cc                SWI2_IRQHandler
 .text.hal_led_pin_get
                0x000000000002340c       0x1c CMakeFiles/51_mijia_device.dir/__/hal/src/simple_hal.c.obj
                0x000000000002340c                hal_led_pin_get
 .text.hal_led_pin_set
                0x0000000000023428       0x28 CMakeFiles/51_mijia_device.dir/__/hal/src/simple_hal.c.obj
                0x0000000000023428                hal_led_pin_set
 .text.hal_led_blink_ms
                0x0000000000023450       0x58 CMakeFiles/51_mijia_device.dir/__/hal/src/simple_hal.c.obj
                0x0000000000023450                hal_led_blink_ms
 .text.hal_leds_init
                0x00000000000234a8       0x26 CMakeFiles/51_mijia_device.dir/__/hal/src/simple_hal.c.obj
                0x00000000000234a8                hal_leds_init
 .text.publish_state
                0x00000000000234ce       0x22 CMakeFiles/51_mijia_device.dir/__/models/simple_on_off/src/simple_on_off_server.c.obj
 .text.rx_set_unreliable_cb
                0x00000000000234f0       0x3c CMakeFiles/51_mijia_device.dir/__/models/simple_on_off/src/simple_on_off_server.c.obj
 .text.reply_status
                0x000000000002352c       0x24 CMakeFiles/51_mijia_device.dir/__/models/simple_on_off/src/simple_on_off_server.c.obj
 .text.rx_get_cb
                0x0000000000023550       0x34 CMakeFiles/51_mijia_device.dir/__/models/simple_on_off/src/simple_on_off_server.c.obj
 .text.rx_set_cb
                0x0000000000023584       0x48 CMakeFiles/51_mijia_device.dir/__/models/simple_on_off/src/simple_on_off_server.c.obj
 .text.simple_on_off_server_init
                0x00000000000235cc       0x4c CMakeFiles/51_mijia_device.dir/__/models/simple_on_off/src/simple_on_off_server.c.obj
                0x00000000000235cc                simple_on_off_server_init
 .text          0x0000000000023618       0x4c CMakeFiles/51_mijia_device.dir/__/__/toolchain/gcc/gcc_startup_nrf51.S.obj
                0x0000000000023618                Reset_Handler
                0x0000000000023658                NMI_Handler
                0x000000000002365c                SVC_Handler
                0x000000000002365e                PendSV_Handler
                0x0000000000023660                SysTick_Handler
                0x0000000000023662                TIMER2_IRQHandler
                0x0000000000023662                SPI0_TWI0_IRQHandler
                0x0000000000023662                RTC0_IRQHandler
                0x0000000000023662                GPIOTE_IRQHandler
                0x0000000000023662                POWER_CLOCK_IRQHandler
                0x0000000000023662                RADIO_IRQHandler
                0x0000000000023662                LPCOMP_IRQHandler
                0x0000000000023662                SWI4_IRQHandler
                0x0000000000023662                TEMP_IRQHandler
                0x0000000000023662                UART0_IRQHandler
                0x0000000000023662                SWI5_IRQHandler
                0x0000000000023662                TIMER0_IRQHandler
                0x0000000000023662                SWI0_IRQHandler
                0x0000000000023662                TIMER1_IRQHandler
                0x0000000000023662                ECB_IRQHandler
                0x0000000000023662                Default_Handler
                0x0000000000023662                ADC_IRQHandler
                0x0000000000023662                SWI3_IRQHandler
                0x0000000000023662                CCM_AAR_IRQHandler
                0x0000000000023662                WDT_IRQHandler
                0x0000000000023662                RNG_IRQHandler
                0x0000000000023662                SPI1_TWI1_IRQHandler
                0x0000000000023662                RTC1_IRQHandler
                0x0000000000023662                SWI1_IRQHandler
 .text.is_manual_peripheral_setup_needed
                0x0000000000023664       0x70 CMakeFiles/51_mijia_device.dir/__/__/toolchain/system_nrf51.c.obj
 .text.is_disabled_in_debug_needed
                0x00000000000236d4       0x50 CMakeFiles/51_mijia_device.dir/__/__/toolchain/system_nrf51.c.obj
 .text.is_peripheral_domain_setup_needed
                0x0000000000023724       0x60 CMakeFiles/51_mijia_device.dir/__/__/toolchain/system_nrf51.c.obj
 .text.SystemInit
                0x0000000000023784       0x6c CMakeFiles/51_mijia_device.dir/__/__/toolchain/system_nrf51.c.obj
                0x0000000000023784                SystemInit
 .text.complete_provisioning
                0x00000000000237f0       0x70 ../../mesh/lib_51_MBTLE_PB_ADV_EE.a(prov_provisionee.c.obj)
 .text.prov_provisionee_cb_link_closed
                0x0000000000023860       0x38 ../../mesh/lib_51_MBTLE_PB_ADV_EE.a(prov_provisionee.c.obj)
 .text.prov_provisionee_cb_link_established
                0x0000000000023898       0x20 ../../mesh/lib_51_MBTLE_PB_ADV_EE.a(prov_provisionee.c.obj)
 .text.request_authentication
                0x00000000000238b8       0xb4 ../../mesh/lib_51_MBTLE_PB_ADV_EE.a(prov_provisionee.c.obj)
 .text.send_failed
                0x000000000002396c       0x4c ../../mesh/lib_51_MBTLE_PB_ADV_EE.a(prov_provisionee.c.obj)
 .text.start_authentication
                0x00000000000239b8       0x6c ../../mesh/lib_51_MBTLE_PB_ADV_EE.a(prov_provisionee.c.obj)
 .text.prov_provisionee_cb_ack_received
                0x0000000000023a24       0xcc ../../mesh/lib_51_MBTLE_PB_ADV_EE.a(prov_provisionee.c.obj)
 .text.handle_prov_start
                0x0000000000023af0       0x58 ../../mesh/lib_51_MBTLE_PB_ADV_EE.a(prov_provisionee.c.obj)
 .text.send_capabilities
                0x0000000000023b48       0x9c ../../mesh/lib_51_MBTLE_PB_ADV_EE.a(prov_provisionee.c.obj)
 .text.handle_data
                0x0000000000023be4       0xd8 ../../mesh/lib_51_MBTLE_PB_ADV_EE.a(prov_provisionee.c.obj)
 .text.prov_provisionee_pkt_in
                0x0000000000023cbc      0x234 ../../mesh/lib_51_MBTLE_PB_ADV_EE.a(prov_provisionee.c.obj)
 .text.prov_provisionee_init
                0x0000000000023ef0       0x48 ../../mesh/lib_51_MBTLE_PB_ADV_EE.a(prov_provisionee.c.obj)
                0x0000000000023ef0                prov_provisionee_init
 .text.prov_provisionee_auth_data
                0x0000000000023f38       0x9c ../../mesh/lib_51_MBTLE_PB_ADV_EE.a(prov_provisionee.c.obj)
                0x0000000000023f38                prov_provisionee_auth_data
 .text._weak_handler
                0x0000000000023fd4        0x4 ../../mesh/lib_51_MBTLE_CORE.a(nrf_mesh_weak.c.obj)
                0x0000000000023fd4                nrf_mesh_dfu_init
                0x0000000000023fd4                nrf_mesh_dfu_jump_to_bootloader
                0x0000000000023fd4                prov_provisioner_cb_link_established
                0x0000000000023fd4                nrf_mesh_dfu_rx
                0x0000000000023fd4                prov_provisionee_pkt_in
                0x0000000000023fd4                prov_provisioner_provision
                0x0000000000023fd4                prov_provisioner_cb_ack_received
                0x0000000000023fd4                nrf_mesh_dfu_bank_info_get
                0x0000000000023fd4                prov_provisionee_cb_ack_received
                0x0000000000023fd4                prov_provisioner_oob_pubkey
                0x0000000000023fd4                nrf_mesh_dfu_request
                0x0000000000023fd4                nrf_mesh_dfu_bank_flash
                0x0000000000023fd4                _weak_handler
                0x0000000000023fd4                prov_provisioner_pkt_in
                0x0000000000023fd4                prov_provisioner_init
                0x0000000000023fd4                nrf_mesh_dfu_relay
                0x0000000000023fd4                prov_provisionee_accept
                0x0000000000023fd4                nrf_mesh_dfu_abort
                0x0000000000023fd4                nrf_mesh_dfu_state_get
                0x0000000000023fd4                prov_provisioner_shared_secret
                0x0000000000023fd4                prov_provisioner_auth_data
                0x0000000000023fd4                prov_provisioner_oob_use
 .text.scan_channel_iterate
                0x0000000000023fd8       0x34 ../../mesh/lib_51_MBTLE_CORE.a(bearer_adv.c.obj)
 .text.is_valid_gap_addr
                0x000000000002400c       0x7c ../../mesh/lib_51_MBTLE_CORE.a(bearer_adv.c.obj)
 .text.packet_tx
                0x0000000000024088       0x7e ../../mesh/lib_51_MBTLE_CORE.a(bearer_adv.c.obj)
 *fill*         0x0000000000024106        0x2 
 .text.scan_order
                0x0000000000024108       0xb0 ../../mesh/lib_51_MBTLE_CORE.a(bearer_adv.c.obj)
 .text.radio_idle_cb
                0x00000000000241b8       0x18 ../../mesh/lib_51_MBTLE_CORE.a(bearer_adv.c.obj)
 .text.scan_begin_timer_cb
                0x00000000000241d0       0x18 ../../mesh/lib_51_MBTLE_CORE.a(bearer_adv.c.obj)
 .text.radio_tx_cb
                0x00000000000241e8       0x34 ../../mesh/lib_51_MBTLE_CORE.a(bearer_adv.c.obj)
 .text.tx_event_send
                0x000000000002421c       0x22 ../../mesh/lib_51_MBTLE_CORE.a(bearer_adv.c.obj)
 *fill*         0x000000000002423e        0x2 
 .text.radio_rx_cb
                0x0000000000024240       0x48 ../../mesh/lib_51_MBTLE_CORE.a(bearer_adv.c.obj)
 .text.packet_fields_set
                0x0000000000024288       0x44 ../../mesh/lib_51_MBTLE_CORE.a(bearer_adv.c.obj)
 .text.adv_evt_timeout
                0x00000000000242cc      0x130 ../../mesh/lib_51_MBTLE_CORE.a(bearer_adv.c.obj)
 .text.next_adv_schedule
                0x00000000000243fc       0x80 ../../mesh/lib_51_MBTLE_CORE.a(bearer_adv.c.obj)
 .text.scan_end_timer_cb
                0x000000000002447c       0x14 ../../mesh/lib_51_MBTLE_CORE.a(bearer_adv.c.obj)
 .text.bearer_adv_advertiser_init
                0x0000000000024490      0x148 ../../mesh/lib_51_MBTLE_CORE.a(bearer_adv.c.obj)
                0x0000000000024490                bearer_adv_advertiser_init
 .text.bearer_adv_reconfig
                0x00000000000245d8       0x68 ../../mesh/lib_51_MBTLE_CORE.a(bearer_adv.c.obj)
                0x00000000000245d8                bearer_adv_reconfig
 .text.bearer_adv_opt_get
                0x0000000000024640       0xf0 ../../mesh/lib_51_MBTLE_CORE.a(bearer_adv.c.obj)
                0x0000000000024640                bearer_adv_opt_get
 .text.bearer_adv_tx
                0x0000000000024730       0x58 ../../mesh/lib_51_MBTLE_CORE.a(bearer_adv.c.obj)
                0x0000000000024730                bearer_adv_tx
 .text.bearer_adv_adv_stop
                0x0000000000024788       0x18 ../../mesh/lib_51_MBTLE_CORE.a(bearer_adv.c.obj)
                0x0000000000024788                bearer_adv_adv_stop
 .text.bearer_adv_adv_start
                0x00000000000247a0       0x26 ../../mesh/lib_51_MBTLE_CORE.a(bearer_adv.c.obj)
                0x00000000000247a0                bearer_adv_adv_start
 .text.bearer_adv_flush_tx
                0x00000000000247c6       0x50 ../../mesh/lib_51_MBTLE_CORE.a(bearer_adv.c.obj)
                0x00000000000247c6                bearer_adv_flush_tx
 .text.bearer_adv_interval_reset
                0x0000000000024816       0x30 ../../mesh/lib_51_MBTLE_CORE.a(bearer_adv.c.obj)
                0x0000000000024816                bearer_adv_interval_reset
 *fill*         0x0000000000024846        0x2 
 .text.bearer_adv_scan_start
                0x0000000000024848       0x60 ../../mesh/lib_51_MBTLE_CORE.a(bearer_adv.c.obj)
                0x0000000000024848                bearer_adv_scan_start
 .text.bearer_adv_opt_set
                0x00000000000248a8      0x134 ../../mesh/lib_51_MBTLE_CORE.a(bearer_adv.c.obj)
                0x00000000000248a8                bearer_adv_opt_set
 .text.bearer_adv_gap_type_set
                0x00000000000249dc       0x5c ../../mesh/lib_51_MBTLE_CORE.a(bearer_adv.c.obj)
                0x00000000000249dc                bearer_adv_gap_type_set
 .text.bearer_adv_addr_get
                0x0000000000024a38       0x28 ../../mesh/lib_51_MBTLE_CORE.a(bearer_adv.c.obj)
                0x0000000000024a38                bearer_adv_addr_get
 .text.bearer_adv_addr_default_set
                0x0000000000024a60       0x30 ../../mesh/lib_51_MBTLE_CORE.a(bearer_adv.c.obj)
                0x0000000000024a60                bearer_adv_addr_default_set
 .text.bearer_adv_init
                0x0000000000024a90       0xf8 ../../mesh/lib_51_MBTLE_CORE.a(bearer_adv.c.obj)
                0x0000000000024a90                bearer_adv_init
 .text.fifo_init
                0x0000000000024b88       0x60 ../../mesh/lib_51_MBTLE_CORE.a(fifo.c.obj)
                0x0000000000024b88                fifo_init
 .text.fifo_push
                0x0000000000024be8       0x64 ../../mesh/lib_51_MBTLE_CORE.a(fifo.c.obj)
                0x0000000000024be8                fifo_push
 .text.fifo_pop
                0x0000000000024c4c       0x60 ../../mesh/lib_51_MBTLE_CORE.a(fifo.c.obj)
                0x0000000000024c4c                fifo_pop
 .text.fifo_get_len
                0x0000000000024cac        0x8 ../../mesh/lib_51_MBTLE_CORE.a(fifo.c.obj)
                0x0000000000024cac                fifo_get_len
 .text.fifo_peek_at
                0x0000000000024cb4       0x66 ../../mesh/lib_51_MBTLE_CORE.a(fifo.c.obj)
                0x0000000000024cb4                fifo_peek_at
 .text.fifo_peek
                0x0000000000024d1a        0xa ../../mesh/lib_51_MBTLE_CORE.a(fifo.c.obj)
                0x0000000000024d1a                fifo_peek
 .text.fifo_is_empty
                0x0000000000024d24        0xe ../../mesh/lib_51_MBTLE_CORE.a(fifo.c.obj)
                0x0000000000024d24                fifo_is_empty
 *fill*         0x0000000000024d32        0x2 
 .text.buffer_find_preceding_free_block
                0x0000000000024d34       0x20 ../../mesh/lib_51_MBTLE_CORE.a(packet_mgr.c.obj)
 .text.buffer_remove_from_free_list
                0x0000000000024d54       0x3c ../../mesh/lib_51_MBTLE_CORE.a(packet_mgr.c.obj)
 .text.buffer_shrink
                0x0000000000024d90       0x68 ../../mesh/lib_51_MBTLE_CORE.a(packet_mgr.c.obj)
 .text.buffer_populate_new_header
                0x0000000000024df8        0xa ../../mesh/lib_51_MBTLE_CORE.a(packet_mgr.c.obj)
 *fill*         0x0000000000024e02        0x2 
 .text.packet_mgr_init
                0x0000000000024e04       0x60 ../../mesh/lib_51_MBTLE_CORE.a(packet_mgr.c.obj)
                0x0000000000024e04                packet_mgr_init
 .text.packet_mgr_alloc
                0x0000000000024e64      0x154 ../../mesh/lib_51_MBTLE_CORE.a(packet_mgr.c.obj)
                0x0000000000024e64                packet_mgr_alloc
 .text.packet_mgr_free
                0x0000000000024fb8       0x84 ../../mesh/lib_51_MBTLE_CORE.a(packet_mgr.c.obj)
                0x0000000000024fb8                packet_mgr_free
 .text.setup_event
                0x000000000002503c       0x60 ../../mesh/lib_51_MBTLE_CORE.a(radio.c.obj)
 .text.radio_init
                0x000000000002509c       0x60 ../../mesh/lib_51_MBTLE_CORE.a(radio.c.obj)
                0x000000000002509c                radio_init
 .text.radio_mode_set
                0x00000000000250fc       0x14 ../../mesh/lib_51_MBTLE_CORE.a(radio.c.obj)
                0x00000000000250fc                radio_mode_set
 .text.radio_access_addr_set
                0x0000000000025110        0xc ../../mesh/lib_51_MBTLE_CORE.a(radio.c.obj)
                0x0000000000025110                radio_access_addr_set
 .text.radio_tx_power_set
                0x000000000002511c        0xc ../../mesh/lib_51_MBTLE_CORE.a(radio.c.obj)
                0x000000000002511c                radio_tx_power_set
 .text.radio_mode_get
                0x0000000000025128        0xc ../../mesh/lib_51_MBTLE_CORE.a(radio.c.obj)
                0x0000000000025128                radio_mode_get
 .text.radio_access_addr_get
                0x0000000000025134        0xc ../../mesh/lib_51_MBTLE_CORE.a(radio.c.obj)
                0x0000000000025134                radio_access_addr_get
 .text.radio_tx_power_get
                0x0000000000025140        0xc ../../mesh/lib_51_MBTLE_CORE.a(radio.c.obj)
                0x0000000000025140                radio_tx_power_get
 .text.radio_order
                0x000000000002514c      0x108 ../../mesh/lib_51_MBTLE_CORE.a(radio.c.obj)
                0x000000000002514c                radio_order
 .text.radio_invoke
                0x0000000000025254       0x28 ../../mesh/lib_51_MBTLE_CORE.a(radio.c.obj)
                0x0000000000025254                radio_invoke
 .text.radio_stop
                0x000000000002527c       0x28 ../../mesh/lib_51_MBTLE_CORE.a(radio.c.obj)
                0x000000000002527c                radio_stop
 .text.purge_preemptable
                0x00000000000252a4       0x80 ../../mesh/lib_51_MBTLE_CORE.a(radio.c.obj)
 .text.radio_preemptable_cancel
                0x0000000000025324       0x2c ../../mesh/lib_51_MBTLE_CORE.a(radio.c.obj)
                0x0000000000025324                radio_preemptable_cancel
 .text.radio_event_handler
                0x0000000000025350      0x100 ../../mesh/lib_51_MBTLE_CORE.a(radio.c.obj)
                0x0000000000025350                radio_event_handler
 .text.radio_on_ts_begin
                0x0000000000025450       0x50 ../../mesh/lib_51_MBTLE_CORE.a(radio.c.obj)
                0x0000000000025450                radio_on_ts_begin
 .text.radio_on_ts_end
                0x00000000000254a0        0x8 ../../mesh/lib_51_MBTLE_CORE.a(radio.c.obj)
                0x00000000000254a0                radio_on_ts_end
 .text.timer_set
                0x00000000000254a8       0x2c ../../mesh/lib_51_MBTLE_CORE.a(timer.c.obj)
 .text.timer_order_cb
                0x00000000000254d4       0x7c ../../mesh/lib_51_MBTLE_CORE.a(timer.c.obj)
                0x00000000000254d4                timer_order_cb
 .text.timer_abort
                0x0000000000025550       0x8c ../../mesh/lib_51_MBTLE_CORE.a(timer.c.obj)
                0x0000000000025550                timer_abort
 .text.timer_now
                0x00000000000255dc       0x58 ../../mesh/lib_51_MBTLE_CORE.a(timer.c.obj)
                0x00000000000255dc                timer_now
 .text.timer_event_handler
                0x0000000000025634       0x98 ../../mesh/lib_51_MBTLE_CORE.a(timer.c.obj)
                0x0000000000025634                timer_event_handler
 .text.timer_on_ts_begin
                0x00000000000256cc       0xf8 ../../mesh/lib_51_MBTLE_CORE.a(timer.c.obj)
                0x00000000000256cc                timer_on_ts_begin
 .text.timer_on_ts_end
                0x00000000000257c4       0x48 ../../mesh/lib_51_MBTLE_CORE.a(timer.c.obj)
                0x00000000000257c4                timer_on_ts_end
 .text.add_evt  0x000000000002580c       0x90 ../../mesh/lib_51_MBTLE_CORE.a(timer_scheduler.c.obj)
 .text.process_add_list
                0x000000000002589c       0x50 ../../mesh/lib_51_MBTLE_CORE.a(timer_scheduler.c.obj)
 .text.process_dirty_events
                0x00000000000258ec       0xa4 ../../mesh/lib_51_MBTLE_CORE.a(timer_scheduler.c.obj)
 .text.fire_timers
                0x0000000000025990       0xb8 ../../mesh/lib_51_MBTLE_CORE.a(timer_scheduler.c.obj)
 .text.setup_timeout
                0x0000000000025a48       0x6c ../../mesh/lib_51_MBTLE_CORE.a(timer_scheduler.c.obj)
 .text.flag_event_cb
                0x0000000000025ab4       0x1c ../../mesh/lib_51_MBTLE_CORE.a(timer_scheduler.c.obj)
 .text.timer_cb
                0x0000000000025ad0       0x10 ../../mesh/lib_51_MBTLE_CORE.a(timer_scheduler.c.obj)
 .text.timer_sch_init
                0x0000000000025ae0       0x24 ../../mesh/lib_51_MBTLE_CORE.a(timer_scheduler.c.obj)
                0x0000000000025ae0                timer_sch_init
 .text.timer_sch_schedule
                0x0000000000025b04       0x94 ../../mesh/lib_51_MBTLE_CORE.a(timer_scheduler.c.obj)
                0x0000000000025b04                timer_sch_schedule
 .text.timer_sch_abort
                0x0000000000025b98       0x70 ../../mesh/lib_51_MBTLE_CORE.a(timer_scheduler.c.obj)
                0x0000000000025b98                timer_sch_abort
 .text.timer_sch_reschedule
                0x0000000000025c08       0xb4 ../../mesh/lib_51_MBTLE_CORE.a(timer_scheduler.c.obj)
                0x0000000000025c08                timer_sch_reschedule
 .text.beacon_init
                0x0000000000025cbc       0x44 ../../mesh/lib_51_MBTLE_CORE.a(beacon.c.obj)
                0x0000000000025cbc                beacon_init
 .text.beacon_create
                0x0000000000025d00       0x64 ../../mesh/lib_51_MBTLE_CORE.a(beacon.c.obj)
                0x0000000000025d00                beacon_create
 .text.beacon_tx
                0x0000000000025d64       0x54 ../../mesh/lib_51_MBTLE_CORE.a(beacon.c.obj)
                0x0000000000025d64                beacon_tx
 .text.beacon_pkt_in
                0x0000000000025db8      0x1bc ../../mesh/lib_51_MBTLE_CORE.a(beacon.c.obj)
                0x0000000000025db8                beacon_pkt_in
 .text.bearer_rx_cb
                0x0000000000025f74      0x3a0 ../../mesh/lib_51_MBTLE_CORE.a(bearer.c.obj)
 .text.bearer_init
                0x0000000000026314       0x68 ../../mesh/lib_51_MBTLE_CORE.a(bearer.c.obj)
                0x0000000000026314                bearer_init
 .text.bearer_adtype_filtering_set
                0x000000000002637c        0xc ../../mesh/lib_51_MBTLE_CORE.a(bearer.c.obj)
                0x000000000002637c                bearer_adtype_filtering_set
 .text.bearer_adtype_add
                0x0000000000026388       0x1c ../../mesh/lib_51_MBTLE_CORE.a(bearer.c.obj)
                0x0000000000026388                bearer_adtype_add
 .text.bearer_adtype_remove
                0x00000000000263a4       0x1c ../../mesh/lib_51_MBTLE_CORE.a(bearer.c.obj)
                0x00000000000263a4                bearer_adtype_remove
 .text.bearer_enable
                0x00000000000263c0        0xa ../../mesh/lib_51_MBTLE_CORE.a(bearer.c.obj)
                0x00000000000263c0                bearer_enable
 *fill*         0x00000000000263ca        0x2 
 .text.bearer_tx
                0x00000000000263cc       0x54 ../../mesh/lib_51_MBTLE_CORE.a(bearer.c.obj)
                0x00000000000263cc                bearer_tx
 .text.bearer_rx
                0x0000000000026420       0x3c ../../mesh/lib_51_MBTLE_CORE.a(bearer.c.obj)
                0x0000000000026420                bearer_rx
 .text.call_callback
                0x000000000002645c       0x38 ../../mesh/lib_51_MBTLE_CORE.a(bearer_event.c.obj)
 .text.trigger_event_handler
                0x0000000000026494       0x14 ../../mesh/lib_51_MBTLE_CORE.a(bearer_event.c.obj)
 .text.handle_events
                0x00000000000264a8       0x6c ../../mesh/lib_51_MBTLE_CORE.a(bearer_event.c.obj)
 .text.evt_push
                0x0000000000026514       0x20 ../../mesh/lib_51_MBTLE_CORE.a(bearer_event.c.obj)
 .text.QDEC_IRQHandler
                0x0000000000026534        0x8 ../../mesh/lib_51_MBTLE_CORE.a(bearer_event.c.obj)
                0x0000000000026534                QDEC_IRQHandler
 .text.bearer_event_init
                0x000000000002653c       0x40 ../../mesh/lib_51_MBTLE_CORE.a(bearer_event.c.obj)
                0x000000000002653c                bearer_event_init
 .text.bearer_event_generic_post
                0x000000000002657c       0x38 ../../mesh/lib_51_MBTLE_CORE.a(bearer_event.c.obj)
                0x000000000002657c                bearer_event_generic_post
 .text.bearer_event_timer_post
                0x00000000000265b4       0x38 ../../mesh/lib_51_MBTLE_CORE.a(bearer_event.c.obj)
                0x00000000000265b4                bearer_event_timer_post
 .text.bearer_event_critical_section_begin
                0x00000000000265ec       0x48 ../../mesh/lib_51_MBTLE_CORE.a(bearer_event.c.obj)
                0x00000000000265ec                bearer_event_critical_section_begin
 .text.bearer_event_critical_section_end
                0x0000000000026634       0x48 ../../mesh/lib_51_MBTLE_CORE.a(bearer_event.c.obj)
                0x0000000000026634                bearer_event_critical_section_end
 .text.bearer_event_flag_add
                0x000000000002667c       0x58 ../../mesh/lib_51_MBTLE_CORE.a(bearer_event.c.obj)
                0x000000000002667c                bearer_event_flag_add
 .text.bearer_event_flag_set
                0x00000000000266d4       0x50 ../../mesh/lib_51_MBTLE_CORE.a(bearer_event.c.obj)
                0x00000000000266d4                bearer_event_flag_set
 .text.nrf_mesh_configure_device_uuid_reset
                0x0000000000026724       0x28 ../../mesh/lib_51_MBTLE_CORE.a(nrf_mesh_configure.c.obj)
                0x0000000000026724                nrf_mesh_configure_device_uuid_reset
 .text.nrf_mesh_configure_device_uuid_get
                0x000000000002674c        0x8 ../../mesh/lib_51_MBTLE_CORE.a(nrf_mesh_configure.c.obj)
                0x000000000002674c                nrf_mesh_configure_device_uuid_get
 .text.enc_aes_encrypt
                0x0000000000026754        0x8 ../../mesh/lib_51_MBTLE_CORE.a(enc.c.obj)
                0x0000000000026754                enc_aes_encrypt
 .text.enc_aes_cmac
                0x000000000002675c        0x8 ../../mesh/lib_51_MBTLE_CORE.a(enc.c.obj)
                0x000000000002675c                enc_aes_cmac
 .text.enc_aes_ccm_encrypt
                0x0000000000026764        0x8 ../../mesh/lib_51_MBTLE_CORE.a(enc.c.obj)
                0x0000000000026764                enc_aes_ccm_encrypt
 .text.enc_aes_ccm_decrypt
                0x000000000002676c        0x8 ../../mesh/lib_51_MBTLE_CORE.a(enc.c.obj)
                0x000000000002676c                enc_aes_ccm_decrypt
 .text.enc_nonce_generate
                0x0000000000026774       0xdc ../../mesh/lib_51_MBTLE_CORE.a(enc.c.obj)
                0x0000000000026774                enc_nonce_generate
 .text.enc_s1   0x0000000000026850       0x44 ../../mesh/lib_51_MBTLE_CORE.a(enc.c.obj)
                0x0000000000026850                enc_s1
 .text.enc_k1   0x0000000000026894       0x58 ../../mesh/lib_51_MBTLE_CORE.a(enc.c.obj)
                0x0000000000026894                enc_k1
 .text.enc_k2   0x00000000000268ec       0xfc ../../mesh/lib_51_MBTLE_CORE.a(enc.c.obj)
                0x00000000000268ec                enc_k2
 .text.enc_k3   0x00000000000269e8       0x68 ../../mesh/lib_51_MBTLE_CORE.a(enc.c.obj)
                0x00000000000269e8                enc_k3
 .text.enc_k4   0x0000000000026a50       0x64 ../../mesh/lib_51_MBTLE_CORE.a(enc.c.obj)
                0x0000000000026a50                enc_k4
 .text.event_handle
                0x0000000000026ab4       0x3c ../../mesh/lib_51_MBTLE_CORE.a(event.c.obj)
                0x0000000000026ab4                event_handle
 .text.event_handler_add
                0x0000000000026af0       0x94 ../../mesh/lib_51_MBTLE_CORE.a(event.c.obj)
                0x0000000000026af0                event_handler_add
 .text.event_handler_remove
                0x0000000000026b84       0x70 ../../mesh/lib_51_MBTLE_CORE.a(event.c.obj)
                0x0000000000026b84                event_handler_remove
 .text.log_callback_rtt
                0x0000000000026bf4       0x2c ../../mesh/lib_51_MBTLE_CORE.a(log.c.obj)
                0x0000000000026bf4                log_callback_rtt
 .text.log_init
                0x0000000000026c20       0x1c ../../mesh/lib_51_MBTLE_CORE.a(log.c.obj)
                0x0000000000026c20                log_init
 .text.log_vprintf
                0x0000000000026c3c       0x20 ../../mesh/lib_51_MBTLE_CORE.a(log.c.obj)
                0x0000000000026c3c                log_vprintf
 .text.log_printf
                0x0000000000026c5c       0x16 ../../mesh/lib_51_MBTLE_CORE.a(log.c.obj)
                0x0000000000026c5c                log_printf
 .text.make_network_beacon_cmac
                0x0000000000026c72       0x22 ../../mesh/lib_51_MBTLE_CORE.a(net_beacon.c.obj)
 .text.network_beacon_tx_cb
                0x0000000000026c94      0x10c ../../mesh/lib_51_MBTLE_CORE.a(net_beacon.c.obj)
 .text.is_valid_beacon_pkt
                0x0000000000026da0       0x26 ../../mesh/lib_51_MBTLE_CORE.a(net_beacon.c.obj)
 *fill*         0x0000000000026dc6        0x2 
 .text.net_beacon_init
                0x0000000000026dc8       0x60 ../../mesh/lib_51_MBTLE_CORE.a(net_beacon.c.obj)
                0x0000000000026dc8                net_beacon_init
 .text.net_beacon_state_set
                0x0000000000026e28       0x44 ../../mesh/lib_51_MBTLE_CORE.a(net_beacon.c.obj)
                0x0000000000026e28                net_beacon_state_set
 .text.net_beacon_state_get
                0x0000000000026e6c        0xc ../../mesh/lib_51_MBTLE_CORE.a(net_beacon.c.obj)
                0x0000000000026e6c                net_beacon_state_get
 .text.net_beacon_pkt_in
                0x0000000000026e78       0xbc ../../mesh/lib_51_MBTLE_CORE.a(net_beacon.c.obj)
                0x0000000000026e78                net_beacon_pkt_in
 .text.flash_mem_available
                0x0000000000026f34       0x20 ../../mesh/lib_51_MBTLE_CORE.a(net_state.c.obj)
 .text.flash_store_iv_index
                0x0000000000026f54       0x34 ../../mesh/lib_51_MBTLE_CORE.a(net_state.c.obj)
 .text.seqnum_block_allocate
                0x0000000000026f88       0x54 ../../mesh/lib_51_MBTLE_CORE.a(net_state.c.obj)
 .text.flash_write_complete
                0x0000000000026fdc       0x84 ../../mesh/lib_51_MBTLE_CORE.a(net_state.c.obj)
 .text.iv_index_notify
                0x0000000000027060       0x1a ../../mesh/lib_51_MBTLE_CORE.a(net_state.c.obj)
 *fill*         0x000000000002707a        0x2 
 .text.net_state_recover_from_flash
                0x000000000002707c       0x94 ../../mesh/lib_51_MBTLE_CORE.a(net_state.c.obj)
                0x000000000002707c                net_state_recover_from_flash
 .text.net_state_flash_area_get
                0x0000000000027110       0x14 ../../mesh/lib_51_MBTLE_CORE.a(net_state.c.obj)
                0x0000000000027110                net_state_flash_area_get
 .text.init_flash_storage
                0x0000000000027124       0x44 ../../mesh/lib_51_MBTLE_CORE.a(net_state.c.obj)
 .text.net_state_init
                0x0000000000027168       0x48 ../../mesh/lib_51_MBTLE_CORE.a(net_state.c.obj)
                0x0000000000027168                net_state_init
 .text.net_state_iv_update_start
                0x00000000000271b0       0x74 ../../mesh/lib_51_MBTLE_CORE.a(net_state.c.obj)
                0x00000000000271b0                net_state_iv_update_start
 .text.iv_update_trigger_if_pending
                0x0000000000027224       0xb0 ../../mesh/lib_51_MBTLE_CORE.a(net_state.c.obj)
 .text.iv_update_timer_handler
                0x00000000000272d4       0xb8 ../../mesh/lib_51_MBTLE_CORE.a(net_state.c.obj)
 .text.net_state_seqnum_alloc
                0x000000000002738c       0x74 ../../mesh/lib_51_MBTLE_CORE.a(net_state.c.obj)
                0x000000000002738c                net_state_seqnum_alloc
 .text.net_state_iv_index_lock
                0x0000000000027400       0x54 ../../mesh/lib_51_MBTLE_CORE.a(net_state.c.obj)
                0x0000000000027400                net_state_iv_index_lock
 .text.net_state_beacon_received
                0x0000000000027454       0xb0 ../../mesh/lib_51_MBTLE_CORE.a(net_state.c.obj)
                0x0000000000027454                net_state_beacon_received
 .text.net_state_beacon_iv_index_get
                0x0000000000027504        0xc ../../mesh/lib_51_MBTLE_CORE.a(net_state.c.obj)
                0x0000000000027504                net_state_beacon_iv_index_get
 .text.net_state_tx_iv_index_get
                0x0000000000027510       0x1c ../../mesh/lib_51_MBTLE_CORE.a(net_state.c.obj)
                0x0000000000027510                net_state_tx_iv_index_get
 .text.net_state_rx_iv_index_get
                0x000000000002752c       0x14 ../../mesh/lib_51_MBTLE_CORE.a(net_state.c.obj)
                0x000000000002752c                net_state_rx_iv_index_get
 .text.net_state_iv_update_get
                0x0000000000027540        0xc ../../mesh/lib_51_MBTLE_CORE.a(net_state.c.obj)
                0x0000000000027540                net_state_iv_update_get
 .text.sd_softdevice_is_enabled
                0x000000000002754c        0x4 ../../mesh/lib_51_MBTLE_CORE.a(nrf_mesh.c.obj)
 .text.nrf_mesh_init
                0x0000000000027550       0xb4 ../../mesh/lib_51_MBTLE_CORE.a(nrf_mesh.c.obj)
                0x0000000000027550                nrf_mesh_init
 .text.nrf_mesh_enable
                0x0000000000027604       0x50 ../../mesh/lib_51_MBTLE_CORE.a(nrf_mesh.c.obj)
                0x0000000000027604                nrf_mesh_enable
 .text.nrf_mesh_packet_send
                0x0000000000027654       0x54 ../../mesh/lib_51_MBTLE_CORE.a(nrf_mesh.c.obj)
                0x0000000000027654                nrf_mesh_packet_send
 .text.nrf_mesh_process
                0x00000000000276a8      0x22c ../../mesh/lib_51_MBTLE_CORE.a(nrf_mesh.c.obj)
                0x00000000000276a8                nrf_mesh_process
 .text.nrf_mesh_on_ble_evt
                0x00000000000278d4        0x4 ../../mesh/lib_51_MBTLE_CORE.a(nrf_mesh.c.obj)
                0x00000000000278d4                nrf_mesh_on_ble_evt
 .text.nrf_mesh_on_sd_evt
                0x00000000000278d8        0xa ../../mesh/lib_51_MBTLE_CORE.a(nrf_mesh.c.obj)
                0x00000000000278d8                nrf_mesh_on_sd_evt
 .text.nrf_mesh_evt_handler_add
                0x00000000000278e2        0x8 ../../mesh/lib_51_MBTLE_CORE.a(nrf_mesh.c.obj)
                0x00000000000278e2                nrf_mesh_evt_handler_add
 .text.nrf_mesh_evt_handler_remove
                0x00000000000278ea        0x8 ../../mesh/lib_51_MBTLE_CORE.a(nrf_mesh.c.obj)
                0x00000000000278ea                nrf_mesh_evt_handler_remove
 .text.nrf_mesh_keygen_aid
                0x00000000000278f2       0x1a ../../mesh/lib_51_MBTLE_CORE.a(nrf_mesh_keygen.c.obj)
                0x00000000000278f2                nrf_mesh_keygen_aid
 .text.nrf_mesh_keygen_network_secmat
                0x000000000002790c       0x2a ../../mesh/lib_51_MBTLE_CORE.a(nrf_mesh_keygen.c.obj)
                0x000000000002790c                nrf_mesh_keygen_network_secmat
 *fill*         0x0000000000027936        0x2 
 .text.nrf_mesh_keygen_beacon_secmat
                0x0000000000027938       0x58 ../../mesh/lib_51_MBTLE_CORE.a(nrf_mesh_keygen.c.obj)
                0x0000000000027938                nrf_mesh_keygen_beacon_secmat
 .text.nrf_mesh_keygen_virtual_address
                0x0000000000027990       0x58 ../../mesh/lib_51_MBTLE_CORE.a(nrf_mesh_keygen.c.obj)
                0x0000000000027990                nrf_mesh_keygen_virtual_address
 .text.nrf_mesh_address_type_get
                0x00000000000279e8       0x14 ../../mesh/lib_51_MBTLE_CORE.a(nrf_mesh_utils.c.obj)
                0x00000000000279e8                nrf_mesh_address_type_get
 .text.nrf_mesh_gap_address_type_get
                0x00000000000279fc       0x4c ../../mesh/lib_51_MBTLE_CORE.a(nrf_mesh_utils.c.obj)
                0x00000000000279fc                nrf_mesh_gap_address_type_get
 .text.nrf_mesh_opt_set
                0x0000000000027a48       0x44 ../../mesh/lib_51_MBTLE_CORE.a(nrf_mesh_opt.c.obj)
                0x0000000000027a48                nrf_mesh_opt_set
 .text.nrf_mesh_opt_get
                0x0000000000027a8c       0x44 ../../mesh/lib_51_MBTLE_CORE.a(nrf_mesh_opt.c.obj)
                0x0000000000027a8c                nrf_mesh_opt_get
 .text.radio_config_reset
                0x0000000000027ad0       0x48 ../../mesh/lib_51_MBTLE_CORE.a(radio_config.c.obj)
                0x0000000000027ad0                radio_config_reset
 .text.radio_config_channel_set
                0x0000000000027b18       0x40 ../../mesh/lib_51_MBTLE_CORE.a(radio_config.c.obj)
                0x0000000000027b18                radio_config_channel_set
 .text.radio_config_config
                0x0000000000027b58       0xd8 ../../mesh/lib_51_MBTLE_CORE.a(radio_config.c.obj)
                0x0000000000027b58                radio_config_config
 .text.sd_rand_application_bytes_available_get
                0x0000000000027c30        0x4 ../../mesh/lib_51_MBTLE_CORE.a(rand.c.obj)
 .text.sd_rand_application_vector_get
                0x0000000000027c34        0x4 ../../mesh/lib_51_MBTLE_CORE.a(rand.c.obj)
 .text.rand_prng_get
                0x0000000000027c38       0x2c ../../mesh/lib_51_MBTLE_CORE.a(rand.c.obj)
                0x0000000000027c38                rand_prng_get
 .text.rand_hw_rng_get
                0x0000000000027c64       0x5c ../../mesh/lib_51_MBTLE_CORE.a(rand.c.obj)
                0x0000000000027c64                rand_hw_rng_get
 .text.rand_prng_seed
                0x0000000000027cc0       0x38 ../../mesh/lib_51_MBTLE_CORE.a(rand.c.obj)
                0x0000000000027cc0                rand_prng_seed
 .text.timer_cb
                0x0000000000027cf8       0x10 ../../mesh/lib_51_MBTLE_CORE.a(ticker.c.obj)
 .text.ticker_init
                0x0000000000027d08       0x38 ../../mesh/lib_51_MBTLE_CORE.a(ticker.c.obj)
                0x0000000000027d08                ticker_init
 .text.packet_mesh_trs_seq_auth_get
                0x0000000000027d40       0x3c ../../mesh/lib_51_MBTLE_CORE.a(transport.c.obj)
 .text.trs_sar_ack_timeout_cb
                0x0000000000027d7c       0x18 ../../mesh/lib_51_MBTLE_CORE.a(transport.c.obj)
 .text.trs_sar_tx_timeout_cb
                0x0000000000027d94        0xc ../../mesh/lib_51_MBTLE_CORE.a(transport.c.obj)
 .text.trs_sar_session_next_timeout_get
                0x0000000000027da0       0x6c ../../mesh/lib_51_MBTLE_CORE.a(transport.c.obj)
 .text.m_send_sar_cancel_event
                0x0000000000027e0c       0x26 ../../mesh/lib_51_MBTLE_CORE.a(transport.c.obj)
 .text.m_send_replay_cache_full_event
                0x0000000000027e32       0x2e ../../mesh/lib_51_MBTLE_CORE.a(transport.c.obj)
 .text.test_transport_decrypt
                0x0000000000027e60       0xa8 ../../mesh/lib_51_MBTLE_CORE.a(transport.c.obj)
 .text.sar_ctx_free
                0x0000000000027f08       0x44 ../../mesh/lib_51_MBTLE_CORE.a(transport.c.obj)
 .text.trs_sar_drop_session
                0x0000000000027f4c      0x12c ../../mesh/lib_51_MBTLE_CORE.a(transport.c.obj)
 .text.trs_sar_session_cb
                0x0000000000028078       0xa8 ../../mesh/lib_51_MBTLE_CORE.a(transport.c.obj)
 .text.transport_pkt_decrypt
                0x0000000000028120      0x194 ../../mesh/lib_51_MBTLE_CORE.a(transport.c.obj)
 .text.trs_sar_segack_pkt_in
                0x00000000000282b4      0x22c ../../mesh/lib_51_MBTLE_CORE.a(transport.c.obj)
 .text.trs_sar_pkt_ack
                0x00000000000284e0      0x158 ../../mesh/lib_51_MBTLE_CORE.a(transport.c.obj)
 .text.sar_segment_send
                0x0000000000028638      0x1bc ../../mesh/lib_51_MBTLE_CORE.a(transport.c.obj)
 .text.trs_sar_pkt_out
                0x00000000000287f4       0xf0 ../../mesh/lib_51_MBTLE_CORE.a(transport.c.obj)
 .text.trs_sar_tx_process
                0x00000000000288e4      0x2c8 ../../mesh/lib_51_MBTLE_CORE.a(transport.c.obj)
 .text.trs_sar_session_timer_order
                0x0000000000028bac       0x34 ../../mesh/lib_51_MBTLE_CORE.a(transport.c.obj)
 .text.trs_sar_seg_pkt_in
                0x0000000000028be0      0x694 ../../mesh/lib_51_MBTLE_CORE.a(transport.c.obj)
 .text.transport_pkt_encrypt
                0x0000000000029274       0xa8 ../../mesh/lib_51_MBTLE_CORE.a(transport.c.obj)
 .text.trs_sar_pkt_decrypt
                0x000000000002931c      0x480 ../../mesh/lib_51_MBTLE_CORE.a(transport.c.obj)
                0x000000000002931c                trs_sar_pkt_decrypt
 .text.trs_sar_rx_process
                0x000000000002979c      0x15c ../../mesh/lib_51_MBTLE_CORE.a(transport.c.obj)
 .text.transport_sar_mem_funcs_reset
                0x00000000000298f8       0x2c ../../mesh/lib_51_MBTLE_CORE.a(transport.c.obj)
                0x00000000000298f8                transport_sar_mem_funcs_reset
 .text.transport_init
                0x0000000000029924       0xb8 ../../mesh/lib_51_MBTLE_CORE.a(transport.c.obj)
                0x0000000000029924                transport_init
 .text.transport_sar_mem_funcs_set
                0x00000000000299dc       0x4c ../../mesh/lib_51_MBTLE_CORE.a(transport.c.obj)
                0x00000000000299dc                transport_sar_mem_funcs_set
 .text.transport_pkt_in
                0x0000000000029a28      0x6d0 ../../mesh/lib_51_MBTLE_CORE.a(transport.c.obj)
                0x0000000000029a28                transport_pkt_in
 .text.transport_sar_process
                0x000000000002a0f8       0x12 ../../mesh/lib_51_MBTLE_CORE.a(transport.c.obj)
                0x000000000002a0f8                transport_sar_process
 *fill*         0x000000000002a10a        0x2 
 .text.transport_tx
                0x000000000002a10c      0x198 ../../mesh/lib_51_MBTLE_CORE.a(transport.c.obj)
                0x000000000002a10c                transport_tx
 .text.transport_opt_set
                0x000000000002a2a4       0xec ../../mesh/lib_51_MBTLE_CORE.a(transport.c.obj)
                0x000000000002a2a4                transport_opt_set
 .text.transport_opt_get
                0x000000000002a390       0x80 ../../mesh/lib_51_MBTLE_CORE.a(transport.c.obj)
                0x000000000002a390                transport_opt_get
 .text.transport_seg_maxlen_get
                0x000000000002a410       0x14 ../../mesh/lib_51_MBTLE_CORE.a(transport.c.obj)
                0x000000000002a410                transport_seg_maxlen_get
 .text.transport_unseg_maxlen_get
                0x000000000002a424        0x4 ../../mesh/lib_51_MBTLE_CORE.a(transport.c.obj)
                0x000000000002a424                transport_unseg_maxlen_get
 .text.transport_tx_sar
                0x000000000002a428      0x568 ../../mesh/lib_51_MBTLE_CORE.a(transport.c.obj)
                0x000000000002a428                transport_tx_sar
 .text.internal_event_push
                0x000000000002a990       0x30 ../../mesh/lib_51_MBTLE_CORE.a(internal_event.c.obj)
                0x000000000002a990                internal_event_push
 .text.get_remaining_free_space
                0x000000000002a9c0       0x28 ../../mesh/lib_51_MBTLE_CORE.a(flash_manager.c.obj)
 .text.flash_area_is_blank
                0x000000000002a9e8       0x50 ../../mesh/lib_51_MBTLE_CORE.a(flash_manager.c.obj)
 .text.flash_area_is_valid
                0x000000000002aa38       0x7c ../../mesh/lib_51_MBTLE_CORE.a(flash_manager.c.obj)
 .text.defrag_required
                0x000000000002aab4       0x38 ../../mesh/lib_51_MBTLE_CORE.a(flash_manager.c.obj)
 .text.execute_action_replace
                0x000000000002aaec      0x17c ../../mesh/lib_51_MBTLE_CORE.a(flash_manager.c.obj)
 .text.execute_action_invalidate
                0x000000000002ac68       0x8c ../../mesh/lib_51_MBTLE_CORE.a(flash_manager.c.obj)
 .text.execute_action_build_metadata
                0x000000000002acf4       0x84 ../../mesh/lib_51_MBTLE_CORE.a(flash_manager.c.obj)
 .text.execute_action_erase_area
                0x000000000002ad78       0x44 ../../mesh/lib_51_MBTLE_CORE.a(flash_manager.c.obj)
 .text.validate_result
                0x000000000002adbc       0x56 ../../mesh/lib_51_MBTLE_CORE.a(flash_manager.c.obj)
 *fill*         0x000000000002ae12        0x2 
 .text.free_packet_buffer
                0x000000000002ae14       0x4c ../../mesh/lib_51_MBTLE_CORE.a(flash_manager.c.obj)
 .text.end_action
                0x000000000002ae60      0x150 ../../mesh/lib_51_MBTLE_CORE.a(flash_manager.c.obj)
 .text.reserve_action_buffer
                0x000000000002afb0       0x28 ../../mesh/lib_51_MBTLE_CORE.a(flash_manager.c.obj)
 .text.flash_area_build
                0x000000000002afd8      0x110 ../../mesh/lib_51_MBTLE_CORE.a(flash_manager.c.obj)
 .text.get_last_entry
                0x000000000002b0e8       0x88 ../../mesh/lib_51_MBTLE_CORE.a(flash_manager.c.obj)
 .text.recover_seal
                0x000000000002b170       0x80 ../../mesh/lib_51_MBTLE_CORE.a(flash_manager.c.obj)
 .text.get_invalid_bytes
                0x000000000002b1f0       0xa4 ../../mesh/lib_51_MBTLE_CORE.a(flash_manager.c.obj)
 .text.execute_action_recover_seal
                0x000000000002b294      0x144 ../../mesh/lib_51_MBTLE_CORE.a(flash_manager.c.obj)
 .text.execute_action
                0x000000000002b3d8       0xe8 ../../mesh/lib_51_MBTLE_CORE.a(flash_manager.c.obj)
 .text.process_action_queue
                0x000000000002b4c0       0xc4 ../../mesh/lib_51_MBTLE_CORE.a(flash_manager.c.obj)
 .text.flash_op_ended_callback
                0x000000000002b584       0x28 ../../mesh/lib_51_MBTLE_CORE.a(flash_manager.c.obj)
 .text.flash_manager_init
                0x000000000002b5ac       0x6c ../../mesh/lib_51_MBTLE_CORE.a(flash_manager.c.obj)
                0x000000000002b5ac                flash_manager_init
 .text.flash_manager_remove
                0x000000000002b618       0x60 ../../mesh/lib_51_MBTLE_CORE.a(flash_manager.c.obj)
                0x000000000002b618                flash_manager_remove
 .text.flash_manager_entry_get
                0x000000000002b678       0x64 ../../mesh/lib_51_MBTLE_CORE.a(flash_manager.c.obj)
                0x000000000002b678                flash_manager_entry_get
 .text.flash_manager_entry_next_get
                0x000000000002b6dc      0x17c ../../mesh/lib_51_MBTLE_CORE.a(flash_manager.c.obj)
                0x000000000002b6dc                flash_manager_entry_next_get
 .text.flash_manager_entry_alloc
                0x000000000002b858       0x9c ../../mesh/lib_51_MBTLE_CORE.a(flash_manager.c.obj)
                0x000000000002b858                flash_manager_entry_alloc
 .text.flash_manager_entry_commit
                0x000000000002b8f4       0x68 ../../mesh/lib_51_MBTLE_CORE.a(flash_manager.c.obj)
                0x000000000002b8f4                flash_manager_entry_commit
 .text.flash_manager_entry_invalidate
                0x000000000002b95c       0xb0 ../../mesh/lib_51_MBTLE_CORE.a(flash_manager.c.obj)
                0x000000000002b95c                flash_manager_entry_invalidate
 .text.invalidate_duplicate_of_last_entry
                0x000000000002ba0c       0xe0 ../../mesh/lib_51_MBTLE_CORE.a(flash_manager.c.obj)
 .text.flash_manager_add
                0x000000000002baec       0x90 ../../mesh/lib_51_MBTLE_CORE.a(flash_manager.c.obj)
                0x000000000002baec                flash_manager_add
 .text.flash_manager_mem_listener_register
                0x000000000002bb7c       0x4c ../../mesh/lib_51_MBTLE_CORE.a(flash_manager.c.obj)
                0x000000000002bb7c                flash_manager_mem_listener_register
 .text.flash_manager_is_stable
                0x000000000002bbc8       0x24 ../../mesh/lib_51_MBTLE_CORE.a(flash_manager.c.obj)
                0x000000000002bbc8                flash_manager_is_stable
 .text.flash_manager_on_defrag_end
                0x000000000002bbec       0x78 ../../mesh/lib_51_MBTLE_CORE.a(flash_manager.c.obj)
                0x000000000002bbec                flash_manager_on_defrag_end
 .text.flash_manager_recovery_page_get
                0x000000000002bc64        0x8 ../../mesh/lib_51_MBTLE_CORE.a(flash_manager.c.obj)
                0x000000000002bc64                flash_manager_recovery_page_get
 .text.jump_to_step
                0x000000000002bc6c       0x3c ../../mesh/lib_51_MBTLE_CORE.a(flash_manager_defrag.c.obj)
 .text.defrag_on_end
                0x000000000002bca8       0x1c ../../mesh/lib_51_MBTLE_CORE.a(flash_manager_defrag.c.obj)
 .text.execute_procedure_step
                0x000000000002bcc4       0xc0 ../../mesh/lib_51_MBTLE_CORE.a(flash_manager_defrag.c.obj)
 .text.recover_defrag_progress
                0x000000000002bd84       0x50 ../../mesh/lib_51_MBTLE_CORE.a(flash_manager_defrag.c.obj)
 .text.on_flash_op_end
                0x000000000002bdd4       0x3c ../../mesh/lib_51_MBTLE_CORE.a(flash_manager_defrag.c.obj)
 .text.erase_source
                0x000000000002be10       0x34 ../../mesh/lib_51_MBTLE_CORE.a(flash_manager_defrag.c.obj)
 .text.erase_recovery_area
                0x000000000002be44       0x34 ../../mesh/lib_51_MBTLE_CORE.a(flash_manager_defrag.c.obj)
 .text.post_process
                0x000000000002be78       0x6c ../../mesh/lib_51_MBTLE_CORE.a(flash_manager_defrag.c.obj)
 .text.write_back
                0x000000000002bee4       0x48 ../../mesh/lib_51_MBTLE_CORE.a(flash_manager_defrag.c.obj)
 .text.write_defrag_start_pointer
                0x000000000002bf2c       0x3c ../../mesh/lib_51_MBTLE_CORE.a(flash_manager_defrag.c.obj)
 .text.copy_metadata
                0x000000000002bf68       0x5c ../../mesh/lib_51_MBTLE_CORE.a(flash_manager_defrag.c.obj)
 .text.seal_storage_page
                0x000000000002bfc4       0x80 ../../mesh/lib_51_MBTLE_CORE.a(flash_manager_defrag.c.obj)
 .text.check_for_invalid_entries
                0x000000000002c044       0x50 ../../mesh/lib_51_MBTLE_CORE.a(flash_manager_defrag.c.obj)
 .text.invalidate_duplicate_entries
                0x000000000002c094      0x164 ../../mesh/lib_51_MBTLE_CORE.a(flash_manager_defrag.c.obj)
 .text.backup_entries
                0x000000000002c1f8      0x1e4 ../../mesh/lib_51_MBTLE_CORE.a(flash_manager_defrag.c.obj)
 .text.flash_manager_defrag_init
                0x000000000002c3dc       0x40 ../../mesh/lib_51_MBTLE_CORE.a(flash_manager_defrag.c.obj)
                0x000000000002c3dc                flash_manager_defrag_init
 .text.flash_manager_defrag_is_running
                0x000000000002c41c       0x10 ../../mesh/lib_51_MBTLE_CORE.a(flash_manager_defrag.c.obj)
                0x000000000002c41c                flash_manager_defrag_is_running
 .text.flash_manager_defrag
                0x000000000002c42c       0xec ../../mesh/lib_51_MBTLE_CORE.a(flash_manager_defrag.c.obj)
                0x000000000002c42c                flash_manager_defrag
 .text.flash_manager_defrag_recovery_page_get
                0x000000000002c518        0xc ../../mesh/lib_51_MBTLE_CORE.a(flash_manager_defrag.c.obj)
                0x000000000002c518                flash_manager_defrag_recovery_page_get
 .text.entry_get
                0x000000000002c524       0xa0 ../../mesh/lib_51_MBTLE_CORE.a(flash_manager_internal.c.obj)
                0x000000000002c524                entry_get
 .text.sd_ecb_block_encrypt
                0x000000000002c5c4        0x4 ../../mesh/lib_51_MBTLE_CORE.a(aes.c.obj)
 .text.aes_encrypt_hw
                0x000000000002c5c8       0x3c ../../mesh/lib_51_MBTLE_CORE.a(aes.c.obj)
 .text.aes_encrypt
                0x000000000002c604       0x40 ../../mesh/lib_51_MBTLE_CORE.a(aes.c.obj)
                0x000000000002c604                aes_encrypt
 .text.queue_init
                0x000000000002c644       0x24 ../../mesh/lib_51_MBTLE_CORE.a(queue.c.obj)
                0x000000000002c644                queue_init
 .text.queue_push
                0x000000000002c668       0x58 ../../mesh/lib_51_MBTLE_CORE.a(queue.c.obj)
                0x000000000002c668                queue_push
 .text.queue_pop
                0x000000000002c6c0       0x40 ../../mesh/lib_51_MBTLE_CORE.a(queue.c.obj)
                0x000000000002c6c0                queue_pop
 .text.sd_radio_session_open
                0x000000000002c700        0x4 ../../mesh/lib_51_MBTLE_CORE.a(timeslot.c.obj)
 .text.sd_radio_request
                0x000000000002c704        0x4 ../../mesh/lib_51_MBTLE_CORE.a(timeslot.c.obj)
 .text.end_timer_margin
                0x000000000002c708       0x28 ../../mesh/lib_51_MBTLE_CORE.a(timeslot.c.obj)
 .text.ts_order_earliest
                0x000000000002c730       0x38 ../../mesh/lib_51_MBTLE_CORE.a(timeslot.c.obj)
 .text.ts_extend
                0x000000000002c768       0x30 ../../mesh/lib_51_MBTLE_CORE.a(timeslot.c.obj)
 .text.end_timer_handler
                0x000000000002c798        0xc ../../mesh/lib_51_MBTLE_CORE.a(timeslot.c.obj)
 .text.start_time_update
                0x000000000002c7a4       0x80 ../../mesh/lib_51_MBTLE_CORE.a(timeslot.c.obj)
                0x000000000002c7a4                start_time_update
 .text.timeslot_sd_event_handler
                0x000000000002c824       0x58 ../../mesh/lib_51_MBTLE_CORE.a(timeslot.c.obj)
                0x000000000002c824                timeslot_sd_event_handler
 .text.timeslot_init
                0x000000000002c87c       0x90 ../../mesh/lib_51_MBTLE_CORE.a(timeslot.c.obj)
                0x000000000002c87c                timeslot_init
 .text.timeslot_start_time_get
                0x000000000002c90c        0xc ../../mesh/lib_51_MBTLE_CORE.a(timeslot.c.obj)
                0x000000000002c90c                timeslot_start_time_get
 .text.timeslot_end_time_get
                0x000000000002c918       0x24 ../../mesh/lib_51_MBTLE_CORE.a(timeslot.c.obj)
                0x000000000002c918                timeslot_end_time_get
 .text.timeslot_end
                0x000000000002c93c       0x74 ../../mesh/lib_51_MBTLE_CORE.a(timeslot.c.obj)
 .text.timeslot_remaining_time_get
                0x000000000002c9b0       0x34 ../../mesh/lib_51_MBTLE_CORE.a(timeslot.c.obj)
                0x000000000002c9b0                timeslot_remaining_time_get
 .text.radio_signal_callback
                0x000000000002c9e4      0x1bc ../../mesh/lib_51_MBTLE_CORE.a(timeslot.c.obj)
 .text.timeslot_is_in_ts
                0x000000000002cba0        0xc ../../mesh/lib_51_MBTLE_CORE.a(timeslot.c.obj)
                0x000000000002cba0                timeslot_is_in_ts
 .text.timeslot_resume
                0x000000000002cbac       0x48 ../../mesh/lib_51_MBTLE_CORE.a(timeslot.c.obj)
                0x000000000002cbac                timeslot_resume
 .text.my_xor   0x000000000002cbf4       0x16 ../../mesh/lib_51_MBTLE_CORE.a(aes_cmac.c.obj)
 *fill*         0x000000000002cc0a        0x2 
 .text.aes_cmac_subkey_generate
                0x000000000002cc0c       0xe8 ../../mesh/lib_51_MBTLE_CORE.a(aes_cmac.c.obj)
                0x000000000002cc0c                aes_cmac_subkey_generate
 .text.aes_cmac
                0x000000000002ccf4      0x114 ../../mesh/lib_51_MBTLE_CORE.a(aes_cmac.c.obj)
                0x000000000002ccf4                aes_cmac
 .text.ccm_soft_crypt
                0x000000000002ce08       0xb0 ../../mesh/lib_51_MBTLE_CORE.a(ccm_soft.c.obj)
 .text.ccm_soft_authenticate_blocks
                0x000000000002ceb8       0x84 ../../mesh/lib_51_MBTLE_CORE.a(ccm_soft.c.obj)
 .text.ccm_soft_authenticate
                0x000000000002cf3c       0xbe ../../mesh/lib_51_MBTLE_CORE.a(ccm_soft.c.obj)
 .text.ccm_soft_encrypt
                0x000000000002cffa       0x92 ../../mesh/lib_51_MBTLE_CORE.a(ccm_soft.c.obj)
                0x000000000002cffa                ccm_soft_encrypt
 .text.ccm_soft_decrypt
                0x000000000002d08c      0x156 ../../mesh/lib_51_MBTLE_CORE.a(ccm_soft.c.obj)
                0x000000000002d08c                ccm_soft_decrypt
 *fill*         0x000000000002d1e2        0x2 
 .text.msg_cache_init
                0x000000000002d1e4       0x34 ../../mesh/lib_51_MBTLE_CORE.a(msg_cache.c.obj)
                0x000000000002d1e4                msg_cache_init
 .text.msg_cache_entry_exists
                0x000000000002d218       0x80 ../../mesh/lib_51_MBTLE_CORE.a(msg_cache.c.obj)
                0x000000000002d218                msg_cache_entry_exists
 .text.msg_cache_entry_add
                0x000000000002d298       0x3c ../../mesh/lib_51_MBTLE_CORE.a(msg_cache.c.obj)
                0x000000000002d298                msg_cache_entry_add
 .text.header_transfuscate
                0x000000000002d2d4       0x5e ../../mesh/lib_51_MBTLE_CORE.a(network.c.obj)
 .text.network_pkt_encrypt
                0x000000000002d332       0x7a ../../mesh/lib_51_MBTLE_CORE.a(network.c.obj)
 .text.network_pkt_decrypt
                0x000000000002d3ac      0x1f4 ../../mesh/lib_51_MBTLE_CORE.a(network.c.obj)
 .text.network_pkt_relay
                0x000000000002d5a0      0x1e8 ../../mesh/lib_51_MBTLE_CORE.a(network.c.obj)
                0x000000000002d5a0                network_pkt_relay
 .text.network_init
                0x000000000002d788       0x3c ../../mesh/lib_51_MBTLE_CORE.a(network.c.obj)
                0x000000000002d788                network_init
 .text.network_opt_set
                0x000000000002d7c4       0x4c ../../mesh/lib_51_MBTLE_CORE.a(network.c.obj)
                0x000000000002d7c4                network_opt_set
 .text.network_opt_get
                0x000000000002d810       0x48 ../../mesh/lib_51_MBTLE_CORE.a(network.c.obj)
                0x000000000002d810                network_opt_get
 .text.network_pkt_out
                0x000000000002d858      0x174 ../../mesh/lib_51_MBTLE_CORE.a(network.c.obj)
                0x000000000002d858                network_pkt_out
 .text.network_pkt_in
                0x000000000002d9cc      0x168 ../../mesh/lib_51_MBTLE_CORE.a(network.c.obj)
                0x000000000002d9cc                network_pkt_in
 .text.packet_type_packet_get
                0x000000000002db34       0x48 ../../mesh/lib_51_MBTLE_CORE.a(packet.c.obj)
                0x000000000002db34                packet_type_packet_get
 .text.m_index_increment
                0x000000000002db7c       0x30 ../../mesh/lib_51_MBTLE_CORE.a(packet_buffer.c.obj)
 .text.m_free_popped_packet
                0x000000000002dbac       0x58 ../../mesh/lib_51_MBTLE_CORE.a(packet_buffer.c.obj)
 .text.m_get_next_packet
                0x000000000002dc04       0x18 ../../mesh/lib_51_MBTLE_CORE.a(packet_buffer.c.obj)
 .text.m_free_reserved_packet
                0x000000000002dc1c       0x36 ../../mesh/lib_51_MBTLE_CORE.a(packet_buffer.c.obj)
 .text.m_get_packet_state
                0x000000000002dc52        0x8 ../../mesh/lib_51_MBTLE_CORE.a(packet_buffer.c.obj)
 .text.m_max_packet_len_get
                0x000000000002dc5a        0x8 ../../mesh/lib_51_MBTLE_CORE.a(packet_buffer.c.obj)
 *fill*         0x000000000002dc62        0x2 
 .text.m_adjust_reserved_packet_len
                0x000000000002dc64       0x48 ../../mesh/lib_51_MBTLE_CORE.a(packet_buffer.c.obj)
 .text.m_reserve_packet
                0x000000000002dcac       0x32 ../../mesh/lib_51_MBTLE_CORE.a(packet_buffer.c.obj)
 *fill*         0x000000000002dcde        0x2 
 .text.m_adjust_desired_packet_length
                0x000000000002dce0       0x34 ../../mesh/lib_51_MBTLE_CORE.a(packet_buffer.c.obj)
 .text.m_head_is_tail_prepare_reserve
                0x000000000002dd14       0x1a ../../mesh/lib_51_MBTLE_CORE.a(packet_buffer.c.obj)
 .text.m_head_ahead_prepare_reserve
                0x000000000002dd2e       0x32 ../../mesh/lib_51_MBTLE_CORE.a(packet_buffer.c.obj)
 .text.m_tail_ahead_prepare_reserve
                0x000000000002dd60       0x12 ../../mesh/lib_51_MBTLE_CORE.a(packet_buffer.c.obj)
 .text.m_prepare_for_reserve
                0x000000000002dd72       0x56 ../../mesh/lib_51_MBTLE_CORE.a(packet_buffer.c.obj)
 .text.packet_buffer_init
                0x000000000002ddc8      0x100 ../../mesh/lib_51_MBTLE_CORE.a(packet_buffer.c.obj)
                0x000000000002ddc8                packet_buffer_init
 .text.packet_buffer_reserve
                0x000000000002dec8       0x90 ../../mesh/lib_51_MBTLE_CORE.a(packet_buffer.c.obj)
                0x000000000002dec8                packet_buffer_reserve
 .text.packet_buffer_commit
                0x000000000002df58       0xe8 ../../mesh/lib_51_MBTLE_CORE.a(packet_buffer.c.obj)
                0x000000000002df58                packet_buffer_commit
 .text.packet_buffer_pop
                0x000000000002e040       0x80 ../../mesh/lib_51_MBTLE_CORE.a(packet_buffer.c.obj)
                0x000000000002e040                packet_buffer_pop
 .text.packet_buffer_can_pop
                0x000000000002e0c0       0x48 ../../mesh/lib_51_MBTLE_CORE.a(packet_buffer.c.obj)
                0x000000000002e0c0                packet_buffer_can_pop
 .text.packet_buffer_free
                0x000000000002e108       0x68 ../../mesh/lib_51_MBTLE_CORE.a(packet_buffer.c.obj)
                0x000000000002e108                packet_buffer_free
 .text.replay_cache_add
                0x000000000002e170       0x74 ../../mesh/lib_51_MBTLE_CORE.a(replay_cache.c.obj)
                0x000000000002e170                replay_cache_add
 .text.replay_cache_has_room
                0x000000000002e1e4       0x38 ../../mesh/lib_51_MBTLE_CORE.a(replay_cache.c.obj)
                0x000000000002e1e4                replay_cache_has_room
 .text.replay_cache_has_elem
                0x000000000002e21c       0x3c ../../mesh/lib_51_MBTLE_CORE.a(replay_cache.c.obj)
                0x000000000002e21c                replay_cache_has_elem
 .text.replay_cache_clear
                0x000000000002e258       0x28 ../../mesh/lib_51_MBTLE_CORE.a(replay_cache.c.obj)
                0x000000000002e258                replay_cache_clear
 .text.replay_cache_init
                0x000000000002e280        0x8 ../../mesh/lib_51_MBTLE_CORE.a(replay_cache.c.obj)
                0x000000000002e280                replay_cache_init
 .text.send_end_events
                0x000000000002e288       0xa0 ../../mesh/lib_51_MBTLE_CORE.a(mesh_flash.c.obj)
 .text.init_flash_op_queue
                0x000000000002e328       0x22 ../../mesh/lib_51_MBTLE_CORE.a(mesh_flash.c.obj)
 *fill*         0x000000000002e34a        0x2 
 .text.write_as_much_as_possible
                0x000000000002e34c       0x80 ../../mesh/lib_51_MBTLE_CORE.a(mesh_flash.c.obj)
 .text.erase_as_much_as_possible
                0x000000000002e3cc       0x80 ../../mesh/lib_51_MBTLE_CORE.a(mesh_flash.c.obj)
 .text.execute_next_operation
                0x000000000002e44c       0x80 ../../mesh/lib_51_MBTLE_CORE.a(mesh_flash.c.obj)
 .text.mesh_flash_init
                0x000000000002e4cc       0x30 ../../mesh/lib_51_MBTLE_CORE.a(mesh_flash.c.obj)
                0x000000000002e4cc                mesh_flash_init
 .text.mesh_flash_user_callback_set
                0x000000000002e4fc       0x30 ../../mesh/lib_51_MBTLE_CORE.a(mesh_flash.c.obj)
                0x000000000002e4fc                mesh_flash_user_callback_set
 .text.mesh_flash_op_push
                0x000000000002e52c      0x16c ../../mesh/lib_51_MBTLE_CORE.a(mesh_flash.c.obj)
                0x000000000002e52c                mesh_flash_op_push
 .text.mesh_flash_op_execute
                0x000000000002e698       0x84 ../../mesh/lib_51_MBTLE_CORE.a(mesh_flash.c.obj)
                0x000000000002e698                mesh_flash_op_execute
 .text.nrf_flash_erase
                0x000000000002e71c       0x78 ../../mesh/lib_51_MBTLE_CORE.a(nrf_flash.c.obj)
                0x000000000002e71c                nrf_flash_erase
 .text.nrf_flash_write
                0x000000000002e794       0x7c ../../mesh/lib_51_MBTLE_CORE.a(nrf_flash.c.obj)
                0x000000000002e794                nrf_flash_write
 .text.msq_get  0x000000000002e810       0x7c ../../mesh/lib_51_MBTLE_CORE.a(msqueue.c.obj)
                0x000000000002e810                msq_get
 .text.msq_move
                0x000000000002e88c       0x70 ../../mesh/lib_51_MBTLE_CORE.a(msqueue.c.obj)
                0x000000000002e88c                msq_move
 .text.msq_reset
                0x000000000002e8fc       0x34 ../../mesh/lib_51_MBTLE_CORE.a(msqueue.c.obj)
                0x000000000002e8fc                msq_reset
 .text.msq_init
                0x000000000002e930       0x98 ../../mesh/lib_51_MBTLE_CORE.a(msqueue.c.obj)
                0x000000000002e930                msq_init
 .text.msq_available
                0x000000000002e9c8       0x64 ../../mesh/lib_51_MBTLE_CORE.a(msqueue.c.obj)
                0x000000000002e9c8                msq_available
 .text.uECC_vli_add
                0x000000000002ea2c       0x4a ../../lib/micro-ecc/lib_51_UECC_LIB.a(uECC.c.obj)
 .text.uECC_vli_sub
                0x000000000002ea76       0x4c ../../lib/micro-ecc/lib_51_UECC_LIB.a(uECC.c.obj)
 .text.uECC_vli_mult
                0x000000000002eac2       0x90 ../../lib/micro-ecc/lib_51_UECC_LIB.a(uECC.c.obj)
 .text.uECC_vli_clear
                0x000000000002eb52       0x18 ../../lib/micro-ecc/lib_51_UECC_LIB.a(uECC.c.obj)
 .text.uECC_vli_isZero
                0x000000000002eb6a       0x1c ../../lib/micro-ecc/lib_51_UECC_LIB.a(uECC.c.obj)
 .text.uECC_vli_testBit
                0x000000000002eb86       0x12 ../../lib/micro-ecc/lib_51_UECC_LIB.a(uECC.c.obj)
 .text.vli_numDigits
                0x000000000002eb98       0x1c ../../lib/micro-ecc/lib_51_UECC_LIB.a(uECC.c.obj)
 .text.uECC_vli_numBits
                0x000000000002ebb4       0x38 ../../lib/micro-ecc/lib_51_UECC_LIB.a(uECC.c.obj)
 .text.uECC_vli_set
                0x000000000002ebec       0x16 ../../lib/micro-ecc/lib_51_UECC_LIB.a(uECC.c.obj)
 .text.uECC_vli_cmp_unsafe
                0x000000000002ec02       0x2a ../../lib/micro-ecc/lib_51_UECC_LIB.a(uECC.c.obj)
 .text.uECC_vli_equal
                0x000000000002ec2c       0x22 ../../lib/micro-ecc/lib_51_UECC_LIB.a(uECC.c.obj)
 .text.uECC_vli_cmp
                0x000000000002ec4e       0x2c ../../lib/micro-ecc/lib_51_UECC_LIB.a(uECC.c.obj)
 .text.uECC_vli_rshift1
                0x000000000002ec7a       0x1e ../../lib/micro-ecc/lib_51_UECC_LIB.a(uECC.c.obj)
 .text.uECC_vli_modAdd
                0x000000000002ec98       0x32 ../../lib/micro-ecc/lib_51_UECC_LIB.a(uECC.c.obj)
 .text.uECC_vli_modSub
                0x000000000002ecca       0x26 ../../lib/micro-ecc/lib_51_UECC_LIB.a(uECC.c.obj)
 .text.uECC_vli_modMult_fast
                0x000000000002ecf0       0x20 ../../lib/micro-ecc/lib_51_UECC_LIB.a(uECC.c.obj)
 .text.uECC_vli_modSquare_fast
                0x000000000002ed10        0xc ../../lib/micro-ecc/lib_51_UECC_LIB.a(uECC.c.obj)
 .text.vli_modInv_update
                0x000000000002ed1c       0x44 ../../lib/micro-ecc/lib_51_UECC_LIB.a(uECC.c.obj)
 .text.uECC_vli_modInv
                0x000000000002ed60      0x12e ../../lib/micro-ecc/lib_51_UECC_LIB.a(uECC.c.obj)
 *fill*         0x000000000002ee8e        0x2 
 .text.double_jacobian_default
                0x000000000002ee90      0x168 ../../lib/micro-ecc/lib_51_UECC_LIB.a(uECC.c.obj)
 .text.x_side_default
                0x000000000002eff8       0x58 ../../lib/micro-ecc/lib_51_UECC_LIB.a(uECC.c.obj)
 .text.vli_mmod_fast_secp256r1
                0x000000000002f050      0x1b4 ../../lib/micro-ecc/lib_51_UECC_LIB.a(uECC.c.obj)
 .text.apply_z  0x000000000002f204       0x3e ../../lib/micro-ecc/lib_51_UECC_LIB.a(uECC.c.obj)
 .text.XYcZ_initial_double
                0x000000000002f242       0x6e ../../lib/micro-ecc/lib_51_UECC_LIB.a(uECC.c.obj)
 .text.XYcZ_add
                0x000000000002f2b0       0xcc ../../lib/micro-ecc/lib_51_UECC_LIB.a(uECC.c.obj)
 .text.XYcZ_addC
                0x000000000002f37c      0x11c ../../lib/micro-ecc/lib_51_UECC_LIB.a(uECC.c.obj)
 .text.EccPoint_mult
                0x000000000002f498      0x17c ../../lib/micro-ecc/lib_51_UECC_LIB.a(uECC.c.obj)
 .text.regularize_k
                0x000000000002f614       0x64 ../../lib/micro-ecc/lib_51_UECC_LIB.a(uECC.c.obj)
 .text.EccPoint_compute_public_key
                0x000000000002f678       0x52 ../../lib/micro-ecc/lib_51_UECC_LIB.a(uECC.c.obj)
 .text.uECC_vli_nativeToBytes
                0x000000000002f6ca       0x24 ../../lib/micro-ecc/lib_51_UECC_LIB.a(uECC.c.obj)
 .text.uECC_vli_bytesToNative
                0x000000000002f6ee       0x44 ../../lib/micro-ecc/lib_51_UECC_LIB.a(uECC.c.obj)
 *fill*         0x000000000002f732        0x2 
 .text.uECC_generate_random_int
                0x000000000002f734       0x80 ../../lib/micro-ecc/lib_51_UECC_LIB.a(uECC.c.obj)
 .text.default_RNG
                0x000000000002f7b4        0xc ../../lib/micro-ecc/lib_51_UECC_LIB.a(uECC.c.obj)
 .text.uECC_secp256r1
                0x000000000002f7c0        0x8 ../../lib/micro-ecc/lib_51_UECC_LIB.a(uECC.c.obj)
                0x000000000002f7c0                uECC_secp256r1
 .text.uECC_make_key
                0x000000000002f7c8       0x82 ../../lib/micro-ecc/lib_51_UECC_LIB.a(uECC.c.obj)
                0x000000000002f7c8                uECC_make_key
 *fill*         0x000000000002f84a        0x2 
 .text.uECC_shared_secret
                0x000000000002f84c       0xc8 ../../lib/micro-ecc/lib_51_UECC_LIB.a(uECC.c.obj)
                0x000000000002f84c                uECC_shared_secret
 .text.uECC_valid_point
                0x000000000002f914       0x76 ../../lib/micro-ecc/lib_51_UECC_LIB.a(uECC.c.obj)
                0x000000000002f914                uECC_valid_point
 .text.uECC_valid_public_key
                0x000000000002f98a       0x32 ../../lib/micro-ecc/lib_51_UECC_LIB.a(uECC.c.obj)
                0x000000000002f98a                uECC_valid_public_key
 .text._GetAvailWriteSpace
                0x000000000002f9bc       0x18 ../../lib/rtt/lib_51_RTT_LIB.a(SEGGER_RTT.c.obj)
 .text._WriteNoCheck
                0x000000000002f9d4       0x3a ../../lib/rtt/lib_51_RTT_LIB.a(SEGGER_RTT.c.obj)
 .text._WriteBlocking
                0x000000000002fa0e       0x6e ../../lib/rtt/lib_51_RTT_LIB.a(SEGGER_RTT.c.obj)
 .text._DoInit  0x000000000002fa7c       0x60 ../../lib/rtt/lib_51_RTT_LIB.a(SEGGER_RTT.c.obj)
 .text.SEGGER_RTT_WriteNoLock
                0x000000000002fadc       0x70 ../../lib/rtt/lib_51_RTT_LIB.a(SEGGER_RTT.c.obj)
                0x000000000002fadc                SEGGER_RTT_WriteNoLock
 .text.SEGGER_RTT_Write
                0x000000000002fb4c       0x34 ../../lib/rtt/lib_51_RTT_LIB.a(SEGGER_RTT.c.obj)
                0x000000000002fb4c                SEGGER_RTT_Write
 .text._StoreChar
                0x000000000002fb80       0x40 ../../lib/rtt/lib_51_RTT_LIB.a(SEGGER_RTT_printf.c.obj)
 .text._PrintUnsigned
                0x000000000002fbc0      0x108 ../../lib/rtt/lib_51_RTT_LIB.a(SEGGER_RTT_printf.c.obj)
 .text._PrintInt
                0x000000000002fcc8       0xf2 ../../lib/rtt/lib_51_RTT_LIB.a(SEGGER_RTT_printf.c.obj)
 .text.SEGGER_RTT_vprintf
                0x000000000002fdba      0x1b8 ../../lib/rtt/lib_51_RTT_LIB.a(SEGGER_RTT_printf.c.obj)
                0x000000000002fdba                SEGGER_RTT_vprintf
 .text.SEGGER_RTT_printf
                0x000000000002ff72       0x1a ../../lib/rtt/lib_51_RTT_LIB.a(SEGGER_RTT_printf.c.obj)
                0x000000000002ff72                SEGGER_RTT_printf
 .text          0x000000000002ff8c      0x114 /usr/bin/../lib/gcc/arm-none-eabi/6.3.1/thumb/v6-m/libgcc.a(_udivsi3.o)
                0x000000000002ff8c                __udivsi3
                0x000000000002ff8c                __aeabi_uidiv
                0x0000000000030098                __aeabi_uidivmod
 .text          0x00000000000300a0      0x1d4 /usr/bin/../lib/gcc/arm-none-eabi/6.3.1/thumb/v6-m/libgcc.a(_divsi3.o)
                0x00000000000300a0                __aeabi_idiv
                0x00000000000300a0                __divsi3
                0x000000000003026c                __aeabi_idivmod
 .text          0x0000000000030274        0x4 /usr/bin/../lib/gcc/arm-none-eabi/6.3.1/thumb/v6-m/libgcc.a(_dvmd_tls.o)
                0x0000000000030274                __aeabi_ldiv0
                0x0000000000030274                __aeabi_idiv0
 .text          0x0000000000030278       0x54 /usr/bin/../lib/gcc/arm-none-eabi/6.3.1/thumb/v6-m/libgcc.a(_muldi3.o)
                0x0000000000030278                __aeabi_lmul
                0x0000000000030278                __muldi3
 .text.exit     0x00000000000302cc       0x2c /usr/bin/../lib/gcc/arm-none-eabi/6.3.1/../../../../arm-none-eabi/lib/thumb/v6-m/libg_nano.a(lib_a-exit.o)
                0x00000000000302cc                exit
 .text.__libc_init_array
                0x00000000000302f8       0x48 /usr/bin/../lib/gcc/arm-none-eabi/6.3.1/../../../../arm-none-eabi/lib/thumb/v6-m/libg_nano.a(lib_a-init.o)
                0x00000000000302f8                __libc_init_array
 .text.malloc   0x0000000000030340       0x14 /usr/bin/../lib/gcc/arm-none-eabi/6.3.1/../../../../arm-none-eabi/lib/thumb/v6-m/libg_nano.a(lib_a-malloc.o)
                0x0000000000030340                malloc
 .text.free     0x0000000000030354       0x14 /usr/bin/../lib/gcc/arm-none-eabi/6.3.1/../../../../arm-none-eabi/lib/thumb/v6-m/libg_nano.a(lib_a-malloc.o)
                0x0000000000030354                free
 .text.memcmp   0x0000000000030368       0x1e /usr/bin/../lib/gcc/arm-none-eabi/6.3.1/../../../../arm-none-eabi/lib/thumb/v6-m/libg_nano.a(lib_a-memcmp.o)
                0x0000000000030368                memcmp
 .text.memcpy   0x0000000000030386       0x12 /usr/bin/../lib/gcc/arm-none-eabi/6.3.1/../../../../arm-none-eabi/lib/thumb/v6-m/libg_nano.a(lib_a-memcpy-stub.o)
                0x0000000000030386                memcpy
 .text.memset   0x0000000000030398       0x10 /usr/bin/../lib/gcc/arm-none-eabi/6.3.1/../../../../arm-none-eabi/lib/thumb/v6-m/libg_nano.a(lib_a-memset.o)
                0x0000000000030398                memset
 .text._free_r  0x00000000000303a8       0x94 /usr/bin/../lib/gcc/arm-none-eabi/6.3.1/../../../../arm-none-eabi/lib/thumb/v6-m/libg_nano.a(lib_a-nano-freer.o)
                0x00000000000303a8                _free_r
 .text._malloc_r
                0x000000000003043c       0xbc /usr/bin/../lib/gcc/arm-none-eabi/6.3.1/../../../../arm-none-eabi/lib/thumb/v6-m/libg_nano.a(lib_a-nano-mallocr.o)
                0x000000000003043c                _malloc_r
 .text._sbrk_r  0x00000000000304f8       0x24 /usr/bin/../lib/gcc/arm-none-eabi/6.3.1/../../../../arm-none-eabi/lib/thumb/v6-m/libg_nano.a(lib_a-sbrkr.o)
                0x00000000000304f8                _sbrk_r
 .text.strcpy   0x000000000003051c       0x10 /usr/bin/../lib/gcc/arm-none-eabi/6.3.1/../../../../arm-none-eabi/lib/thumb/v6-m/libg_nano.a(lib_a-strcpy.o)
                0x000000000003051c                strcpy
 .text          0x000000000003052c        0xe /usr/bin/../lib/gcc/arm-none-eabi/6.3.1/../../../../arm-none-eabi/lib/thumb/v6-m/libg_nano.a(lib_a-strlen.o)
                0x000000000003052c                strlen
 .text.strrchr  0x000000000003053a       0x24 /usr/bin/../lib/gcc/arm-none-eabi/6.3.1/../../../../arm-none-eabi/lib/thumb/v6-m/libg_nano.a(lib_a-strrchr.o)
                0x000000000003053a                strrchr
 .text.__malloc_lock
                0x000000000003055e        0x2 /usr/bin/../lib/gcc/arm-none-eabi/6.3.1/../../../../arm-none-eabi/lib/thumb/v6-m/libg_nano.a(lib_a-mlock.o)
                0x000000000003055e                __malloc_lock
 .text.__malloc_unlock
                0x0000000000030560        0x2 /usr/bin/../lib/gcc/arm-none-eabi/6.3.1/../../../../arm-none-eabi/lib/thumb/v6-m/libg_nano.a(lib_a-mlock.o)
                0x0000000000030560                __malloc_unlock
 .text.strchr   0x0000000000030562       0x1c /usr/bin/../lib/gcc/arm-none-eabi/6.3.1/../../../../arm-none-eabi/lib/thumb/v6-m/libg_nano.a(lib_a-strchr.o)
                0x0000000000030562                strchr
 *fill*         0x000000000003057e        0x2 
 .text._sbrk    0x0000000000030580       0x1c /usr/bin/../lib/gcc/arm-none-eabi/6.3.1/../../../../arm-none-eabi/lib/thumb/v6-m/libnosys.a(sbrk.o)
                0x0000000000030580                _sbrk
 .text._exit    0x000000000003059c        0x4 /usr/bin/../lib/gcc/arm-none-eabi/6.3.1/../../../../arm-none-eabi/lib/thumb/v6-m/libnosys.a(_exit.o)
                0x000000000003059c                _exit
 *(.init)
 .init          0x00000000000305a0        0x4 /usr/bin/../lib/gcc/arm-none-eabi/6.3.1/thumb/v6-m/crti.o
                0x00000000000305a0                _init
 .init          0x00000000000305a4        0x8 /usr/bin/../lib/gcc/arm-none-eabi/6.3.1/thumb/v6-m/crtn.o
 *(.fini)
 .fini          0x00000000000305ac        0x4 /usr/bin/../lib/gcc/arm-none-eabi/6.3.1/thumb/v6-m/crti.o
                0x00000000000305ac                _fini
 .fini          0x00000000000305b0        0x8 /usr/bin/../lib/gcc/arm-none-eabi/6.3.1/thumb/v6-m/crtn.o
 *crtbegin.o(.ctors)
 *crtbegin?.o(.ctors)
 *(EXCLUDE_FILE(*crtend.o *crtend?.o) .ctors)
 *(SORT(.ctors.*))
 *(.ctors)
 *crtbegin.o(.dtors)
 *crtbegin?.o(.dtors)
 *(EXCLUDE_FILE(*crtend.o *crtend?.o) .dtors)
 *(SORT(.dtors.*))
 *(.dtors)
 *(.rodata*)
 .rodata.configuration_complete.str1.4
                0x00000000000305b8       0x1a CMakeFiles/51_mijia_device.dir/src/main.c.obj
 *fill*         0x00000000000305d2        0x2 
 .rodata.configuration_setup.str1.4
                0x00000000000305d4       0x70 CMakeFiles/51_mijia_device.dir/src/main.c.obj
 .rodata.generic_set_cb.str1.4
                0x0000000000030644       0x17 CMakeFiles/51_mijia_device.dir/src/main.c.obj
 *fill*         0x000000000003065b        0x1 
 .rodata.main.str1.4
                0x000000000003065c       0x30 CMakeFiles/51_mijia_device.dir/src/main.c.obj
 .rodata.static_auth_data.7516
                0x000000000003068c       0x10 CMakeFiles/51_mijia_device.dir/src/main.c.obj
 .rodata.pdu_sizes.8302
                0x000000000003069c        0xa CMakeFiles/51_mijia_device.dir/__/__/mesh/src/prov/provisioning.c.obj
 *fill*         0x00000000000306a6        0x2 
 .rodata.prov_cb_pkt_in.str1.4
                0x00000000000306a8       0x60 CMakeFiles/51_mijia_device.dir/__/__/mesh/src/prov/provisioning.c.obj
 .rodata.add_active_bearer.str1.4
                0x0000000000030708       0x2c CMakeFiles/51_mijia_device.dir/__/__/mesh/src/prov/prov_bearer_adv.c.obj
 .rodata.crctable.8268
                0x0000000000030734      0x100 CMakeFiles/51_mijia_device.dir/__/__/mesh/src/prov/prov_bearer_adv.c.obj
 .rodata.handle_control_packet.str1.4
                0x0000000000030834       0xbf CMakeFiles/51_mijia_device.dir/__/__/mesh/src/prov/prov_bearer_adv.c.obj
 *fill*         0x00000000000308f3        0x1 
 .rodata.handle_transaction_ack_packet.str1.4
                0x00000000000308f4       0x3c CMakeFiles/51_mijia_device.dir/__/__/mesh/src/prov/prov_bearer_adv.c.obj
 .rodata.handle_transaction_continuation_packet.str1.4
                0x0000000000030930       0x7a CMakeFiles/51_mijia_device.dir/__/__/mesh/src/prov/prov_bearer_adv.c.obj
 *fill*         0x00000000000309aa        0x2 
 .rodata.handle_transaction_start_packet.str1.4
                0x00000000000309ac      0x10a CMakeFiles/51_mijia_device.dir/__/__/mesh/src/prov/prov_bearer_adv.c.obj
 *fill*         0x0000000000030ab6        0x2 
 .rodata.interface.8482
                0x0000000000030ab8       0x14 CMakeFiles/51_mijia_device.dir/__/__/mesh/src/prov/prov_bearer_adv.c.obj
 .rodata.tx_retry_cb.str1.4
                0x0000000000030acc       0x64 CMakeFiles/51_mijia_device.dir/__/__/mesh/src/prov/prov_bearer_adv.c.obj
 .rodata.alphanumeric.8393
                0x0000000000030b30       0x25 CMakeFiles/51_mijia_device.dir/__/__/mesh/src/prov/prov_utils.c.obj
 *fill*         0x0000000000030b55        0x3 
 .rodata.numeric_max.8387
                0x0000000000030b58       0x24 CMakeFiles/51_mijia_device.dir/__/__/mesh/src/prov/prov_utils.c.obj
 .rodata.prov_utils_authentication_values_derive.str1.4
                0x0000000000030b7c        0x5 CMakeFiles/51_mijia_device.dir/__/__/mesh/src/prov/prov_utils.c.obj
 *fill*         0x0000000000030b81        0x3 
 .rodata.prov_utils_derive_keys.str1.4
                0x0000000000030b84       0x15 CMakeFiles/51_mijia_device.dir/__/__/mesh/src/prov/prov_utils.c.obj
 *fill*         0x0000000000030b99        0x3 
 .rodata.mesh_msg_handle.str1.4
                0x0000000000030b9c       0x5b CMakeFiles/51_mijia_device.dir/__/__/mesh/src/access/access.c.obj
 *fill*         0x0000000000030bf7        0x1 
 .rodata.multiply_de_bruijn_bit_position.6706
                0x0000000000030bf8       0x20 CMakeFiles/51_mijia_device.dir/__/__/mesh/src/access/access.c.obj
 .rodata.packet_tx.str1.4
                0x0000000000030c18       0x13 CMakeFiles/51_mijia_device.dir/__/__/mesh/src/access/access.c.obj
 *fill*         0x0000000000030c2b        0x1 
 .rodata.m_flash_groups
                0x0000000000030c2c       0xc0 CMakeFiles/51_mijia_device.dir/__/__/mesh/src/access/device_state_manager.c.obj
 .rodata.default_mesh_assertion_handler.str1.4
                0x0000000000030cec       0x71 CMakeFiles/51_mijia_device.dir/__/__/mesh/src/access/nrf_mesh_node_config.c.obj
 *fill*         0x0000000000030d5d        0x3 
 .rodata.default_softdevice_assertion_handler.str1.4
                0x0000000000030d60       0x1d CMakeFiles/51_mijia_device.dir/__/__/mesh/src/access/nrf_mesh_node_config.c.obj
 *fill*         0x0000000000030d7d        0x3 
 .rodata.opcode_handlers
                0x0000000000030d80      0x150 CMakeFiles/51_mijia_device.dir/__/__/mesh/models/config/src/config_server.c.obj
 .rodata.HardFault_Handler.str1.4
                0x0000000000030ed0        0xe CMakeFiles/51_mijia_device.dir/__/nrf_mesh_sdk.c.obj
 *fill*         0x0000000000030ede        0x2 
 .rodata.app_error_handler.str1.4
                0x0000000000030ee0       0x1d CMakeFiles/51_mijia_device.dir/__/nrf_mesh_sdk.c.obj
 *fill*         0x0000000000030efd        0x3 
 .rodata.softdevice_assert_handler.str1.4
                0x0000000000030f00       0x47 CMakeFiles/51_mijia_device.dir/__/nrf_mesh_sdk.c.obj
                                         0x65 (size before relaxing)
 *fill*         0x0000000000030f47        0x1 
 .rodata.m_opcode_handlers
                0x0000000000030f48       0x18 CMakeFiles/51_mijia_device.dir/__/models/simple_on_off/src/simple_on_off_server.c.obj
 .rodata.prov_provisionee_cb_ack_received
                0x0000000000030f60       0x50 ../../mesh/lib_51_MBTLE_PB_ADV_EE.a(prov_provisionee.c.obj)
 .rodata.prov_provisionee_pkt_in
                0x0000000000030fb0       0x28 ../../mesh/lib_51_MBTLE_PB_ADV_EE.a(prov_provisionee.c.obj)
 .rodata.m_prov_callbacks
                0x0000000000030fd8       0x10 ../../mesh/lib_51_MBTLE_PB_ADV_EE.a(prov_provisionee.c.obj)
 .rodata.prov_provisionee_cb_ack_received.str1.4
                0x0000000000030fe8       0x7f ../../mesh/lib_51_MBTLE_PB_ADV_EE.a(prov_provisionee.c.obj)
 *fill*         0x0000000000031067        0x1 
 .rodata.bearer_adv_opt_get
                0x0000000000031068       0x1c ../../mesh/lib_51_MBTLE_CORE.a(bearer_adv.c.obj)
 .rodata.bearer_adv_opt_set
                0x0000000000031084       0x28 ../../mesh/lib_51_MBTLE_CORE.a(bearer_adv.c.obj)
 .rodata        0x00000000000310ac       0x14 ../../mesh/lib_51_MBTLE_CORE.a(bearer_adv.c.obj)
 .rodata.bearer_adv_advertiser_init.str1.4
                0x00000000000310c0       0x39 ../../mesh/lib_51_MBTLE_CORE.a(bearer_adv.c.obj)
 *fill*         0x00000000000310f9        0x3 
 .rodata.bearer_adv_init.str1.4
                0x00000000000310fc       0x1d ../../mesh/lib_51_MBTLE_CORE.a(bearer_adv.c.obj)
 *fill*         0x0000000000031119        0x3 
 .rodata.bearer_adv_opt_get.str1.4
                0x000000000003111c       0x15 ../../mesh/lib_51_MBTLE_CORE.a(bearer_adv.c.obj)
 *fill*         0x0000000000031131        0x3 
 .rodata.scan_order.str1.4
                0x0000000000031134       0x86 ../../mesh/lib_51_MBTLE_CORE.a(bearer_adv.c.obj)
 *fill*         0x00000000000311ba        0x2 
 .rodata.beacon_pkt_in.str1.4
                0x00000000000311bc       0x8c ../../mesh/lib_51_MBTLE_CORE.a(beacon.c.obj)
 .rodata        0x0000000000031248       0x1c ../../mesh/lib_51_MBTLE_CORE.a(bearer.c.obj)
 .rodata.bearer_rx_cb.str1.4
                0x0000000000031264       0x76 ../../mesh/lib_51_MBTLE_CORE.a(bearer.c.obj)
 *fill*         0x00000000000312da        0x2 
 .rodata        0x00000000000312dc       0x18 ../../mesh/lib_51_MBTLE_CORE.a(enc.c.obj)
 .rodata.log_callback_rtt.str1.4
                0x00000000000312f4       0x15 ../../mesh/lib_51_MBTLE_CORE.a(log.c.obj)
 *fill*         0x0000000000031309        0x3 
 .rodata.str1.4
                0x000000000003130c       0x11 ../../mesh/lib_51_MBTLE_CORE.a(log.c.obj)
 *fill*         0x000000000003131d        0x3 
 .rodata.net_beacon_init.str1.4
                0x0000000000031320        0x5 ../../mesh/lib_51_MBTLE_CORE.a(net_beacon.c.obj)
 *fill*         0x0000000000031325        0x3 
 .rodata.nrf_mesh_adv_send.str1.4
                0x0000000000031328       0x78 ../../mesh/lib_51_MBTLE_CORE.a(nrf_mesh.c.obj)
 .rodata.nrf_mesh_process.str1.4
                0x00000000000313a0       0x76 ../../mesh/lib_51_MBTLE_CORE.a(nrf_mesh.c.obj)
 *fill*         0x0000000000031416        0x2 
 .rodata        0x0000000000031418        0x7 ../../mesh/lib_51_MBTLE_CORE.a(nrf_mesh_keygen.c.obj)
 *fill*         0x000000000003141f        0x1 
 .rodata.types_lookup.6530
                0x0000000000031420        0x4 ../../mesh/lib_51_MBTLE_CORE.a(nrf_mesh_utils.c.obj)
 .rodata.channel_rf_offsets.6165
                0x0000000000031424       0x28 ../../mesh/lib_51_MBTLE_CORE.a(radio_config.c.obj)
 .rodata.transport_opt_set
                0x000000000003144c       0x1c ../../mesh/lib_51_MBTLE_CORE.a(transport.c.obj)
 .rodata.transport_opt_get
                0x0000000000031468       0x1c ../../mesh/lib_51_MBTLE_CORE.a(transport.c.obj)
 .rodata.sar_segment_send.str1.4
                0x0000000000031484       0x39 ../../mesh/lib_51_MBTLE_CORE.a(transport.c.obj)
 *fill*         0x00000000000314bd        0x3 
 .rodata.test_transport_decrypt.str1.4
                0x00000000000314c0       0x5f ../../mesh/lib_51_MBTLE_CORE.a(transport.c.obj)
 *fill*         0x000000000003151f        0x1 
 .rodata.transport_pkt_decrypt.str1.4
                0x0000000000031520        0xf ../../mesh/lib_51_MBTLE_CORE.a(transport.c.obj)
 *fill*         0x000000000003152f        0x1 
 .rodata.transport_pkt_in.str1.4
                0x0000000000031530       0xac ../../mesh/lib_51_MBTLE_CORE.a(transport.c.obj)
 .rodata.transport_tx.str1.4
                0x00000000000315dc       0x30 ../../mesh/lib_51_MBTLE_CORE.a(transport.c.obj)
 .rodata.transport_tx_sar.str1.4
                0x000000000003160c       0x99 ../../mesh/lib_51_MBTLE_CORE.a(transport.c.obj)
 *fill*         0x00000000000316a5        0x3 
 .rodata.trs_sar_drop_session.str1.4
                0x00000000000316a8       0x18 ../../mesh/lib_51_MBTLE_CORE.a(transport.c.obj)
                                         0x48 (size before relaxing)
 .rodata.trs_sar_pkt_decrypt.str1.4
                0x00000000000316c0       0x61 ../../mesh/lib_51_MBTLE_CORE.a(transport.c.obj)
 *fill*         0x0000000000031721        0x3 
 .rodata.trs_sar_pkt_out.str1.4
                0x0000000000031724       0x1b ../../mesh/lib_51_MBTLE_CORE.a(transport.c.obj)
 *fill*         0x000000000003173f        0x1 
 .rodata.trs_sar_seg_pkt_in.str1.4
                0x0000000000031740       0xa9 ../../mesh/lib_51_MBTLE_CORE.a(transport.c.obj)
                                         0xb1 (size before relaxing)
 *fill*         0x00000000000317e9        0x3 
 .rodata.trs_sar_segack_pkt_in.str1.4
                0x00000000000317ec       0x46 ../../mesh/lib_51_MBTLE_CORE.a(transport.c.obj)
 *fill*         0x0000000000031832        0x2 
 .rodata.trs_sar_session_cb.str1.4
                0x0000000000031834       0x1b ../../mesh/lib_51_MBTLE_CORE.a(transport.c.obj)
 *fill*         0x000000000003184f        0x1 
 .rodata.trs_sar_tx_process.str1.4
                0x0000000000031850       0x9f ../../mesh/lib_51_MBTLE_CORE.a(transport.c.obj)
 *fill*         0x00000000000318ef        0x1 
 .rodata.execute_action
                0x00000000000318f0       0x14 ../../mesh/lib_51_MBTLE_CORE.a(flash_manager.c.obj)
 .rodata.INVALID_HEADER
                0x0000000000031904        0x4 ../../mesh/lib_51_MBTLE_CORE.a(flash_manager.c.obj)
                0x0000000000031904                INVALID_HEADER
 .rodata.PADDING_HEADER
                0x0000000000031908        0x4 ../../mesh/lib_51_MBTLE_CORE.a(flash_manager.c.obj)
                0x0000000000031908                PADDING_HEADER
 .rodata.SEAL_HEADER
                0x000000000003190c        0x4 ../../mesh/lib_51_MBTLE_CORE.a(flash_manager.c.obj)
                0x000000000003190c                SEAL_HEADER
 .rodata.execute_action.str1.4
                0x0000000000031910       0x4d ../../mesh/lib_51_MBTLE_CORE.a(flash_manager.c.obj)
                                         0x7e (size before relaxing)
 *fill*         0x000000000003195d        0x3 
 .rodata.flash_manager_defrag.str1.4
                0x0000000000031960       0x54 ../../mesh/lib_51_MBTLE_CORE.a(flash_manager_defrag.c.obj)
                                         0x82 (size before relaxing)
 .rodata.m_procedure_steps
                0x00000000000319b4       0x28 ../../mesh/lib_51_MBTLE_CORE.a(flash_manager_defrag.c.obj)
 .rodata.timeslot_init
                0x00000000000319dc       0x20 ../../mesh/lib_51_MBTLE_CORE.a(timeslot.c.obj)
 .rodata.radio_signal_callback
                0x00000000000319fc       0x14 ../../mesh/lib_51_MBTLE_CORE.a(timeslot.c.obj)
 .rodata.Rb.5041
                0x0000000000031a10       0x10 ../../mesh/lib_51_MBTLE_CORE.a(aes_cmac.c.obj)
 .rodata.network_pkt_decrypt.str1.4
                0x0000000000031a20       0x5b ../../mesh/lib_51_MBTLE_CORE.a(network.c.obj)
                                         0x64 (size before relaxing)
 *fill*         0x0000000000031a7b        0x1 
 .rodata.network_pkt_out.str1.4
                0x0000000000031a7c       0x25 ../../mesh/lib_51_MBTLE_CORE.a(network.c.obj)
 *fill*         0x0000000000031aa1        0x3 
 .rodata.network_pkt_relay.str1.4
                0x0000000000031aa4       0x2d ../../mesh/lib_51_MBTLE_CORE.a(network.c.obj)
                                         0x5e (size before relaxing)
 *fill*         0x0000000000031ad1        0x3 
 .rodata.m_all_operations
                0x0000000000031ad4       0x10 ../../mesh/lib_51_MBTLE_CORE.a(mesh_flash.c.obj)
 .rodata.curve_secp256r1
                0x0000000000031ae4       0xb0 ../../lib/micro-ecc/lib_51_UECC_LIB.a(uECC.c.obj)
 .rodata._DoInit.str1.4
                0x0000000000031b94       0x18 ../../lib/rtt/lib_51_RTT_LIB.a(SEGGER_RTT.c.obj)
                                         0x17 (size before relaxing)
 .rodata._aV2C.4378
                0x0000000000031bac       0x10 ../../lib/rtt/lib_51_RTT_LIB.a(SEGGER_RTT_printf.c.obj)
 .rodata._global_impure_ptr
                0x0000000000031bbc        0x4 /usr/bin/../lib/gcc/arm-none-eabi/6.3.1/../../../../arm-none-eabi/lib/thumb/v6-m/libg_nano.a(lib_a-impure.o)
                0x0000000000031bbc                _global_impure_ptr
 *(.eh_frame*)
 .eh_frame      0x0000000000031bc0        0x0 /usr/bin/../lib/gcc/arm-none-eabi/6.3.1/thumb/v6-m/crtbegin.o
 .eh_frame      0x0000000000031bc0        0x4 /usr/bin/../lib/gcc/arm-none-eabi/6.3.1/thumb/v6-m/crtend.o

.glue_7         0x0000000000031bc4        0x0
 .glue_7        0x0000000000031bc4        0x0 linker stubs

.glue_7t        0x0000000000031bc4        0x0
 .glue_7t       0x0000000000031bc4        0x0 linker stubs

.vfp11_veneer   0x0000000000031bc4        0x0
 .vfp11_veneer  0x0000000000031bc4        0x0 linker stubs

.v4_bx          0x0000000000031bc4        0x0
 .v4_bx         0x0000000000031bc4        0x0 linker stubs

.iplt           0x0000000000031bc4        0x0
 .iplt          0x0000000000031bc4        0x0 /usr/bin/../lib/gcc/arm-none-eabi/6.3.1/thumb/v6-m/crtbegin.o

.ARM.extab
 *(.ARM.extab* .gnu.linkonce.armextab.*)
                0x0000000000031bc4                __exidx_start = .

.ARM.exidx      0x0000000000031bc4        0x8
 *(.ARM.exidx* .gnu.linkonce.armexidx.*)
 .ARM.exidx     0x0000000000031bc4        0x8 /usr/bin/../lib/gcc/arm-none-eabi/6.3.1/../../../../arm-none-eabi/lib/thumb/v6-m/crt0.o
                0x0000000000031bcc                __exidx_end = .
                0x0000000000031bcc                __etext = .

.rel.dyn        0x0000000000031bcc        0x0
 .rel.iplt      0x0000000000031bcc        0x0 /usr/bin/../lib/gcc/arm-none-eabi/6.3.1/thumb/v6-m/crtbegin.o

.data           0x00000000200022d8      0x130 load address 0x0000000000031bcc
                0x00000000200022d8                __data_start__ = .
 *(vtable)
 *(.data*)
 .data.m_unprov_report
                0x00000000200022d8        0x1 CMakeFiles/51_mijia_device.dir/__/__/mesh/src/prov/prov_beacon.c.obj
 *fill*         0x00000000200022d9        0x3 
 .data.flash_add_mem_available_struct.7923
                0x00000000200022dc       0x10 CMakeFiles/51_mijia_device.dir/__/__/mesh/src/access/access.c.obj
 .data.flash_clear_mem_available_struct.8012
                0x00000000200022ec       0x10 CMakeFiles/51_mijia_device.dir/__/__/mesh/src/access/access.c.obj
 .data.flash_store_mem_available_struct.8036
                0x00000000200022fc       0x10 CMakeFiles/51_mijia_device.dir/__/__/mesh/src/access/access.c.obj
 .data.m_default_ttl
                0x000000002000230c        0x1 CMakeFiles/51_mijia_device.dir/__/__/mesh/src/access/access.c.obj
 *fill*         0x000000002000230d        0x3 
 .data.mem_listener.8178
                0x0000000020002310       0x10 CMakeFiles/51_mijia_device.dir/__/__/mesh/src/access/device_state_manager.c.obj
 .data.mem_listener.8204
                0x0000000020002320       0x10 CMakeFiles/51_mijia_device.dir/__/__/mesh/src/access/device_state_manager.c.obj
 .data.m_config_server_handle
                0x0000000020002330        0x2 CMakeFiles/51_mijia_device.dir/__/__/mesh/models/config/src/config_server.c.obj
 *fill*         0x0000000020002332        0x2 
 .data.SystemCoreClock
                0x0000000020002334        0x4 CMakeFiles/51_mijia_device.dir/__/__/toolchain/system_nrf51.c.obj
                0x0000000020002334                SystemCoreClock
 .data.m_radio_state
                0x0000000020002338        0x1 ../../mesh/lib_51_MBTLE_CORE.a(radio.c.obj)
 *fill*         0x0000000020002339        0x3 
 .data.g_log_debug_level
                0x000000002000233c        0x4 ../../mesh/lib_51_MBTLE_CORE.a(log.c.obj)
                0x000000002000233c                g_log_debug_level
 .data.g_log_debug_msk
                0x0000000020002340        0x4 ../../mesh/lib_51_MBTLE_CORE.a(log.c.obj)
                0x0000000020002340                g_log_debug_msk
 .data.g_log_hex_digits
                0x0000000020002344        0x4 ../../mesh/lib_51_MBTLE_CORE.a(log.c.obj)
                0x0000000020002344                g_log_hex_digits
 .data.m_log_callback
                0x0000000020002348        0x4 ../../mesh/lib_51_MBTLE_CORE.a(log.c.obj)
                0x0000000020002348                m_log_callback
 .data.mem_listener.7415
                0x000000002000234c       0x10 ../../mesh/lib_51_MBTLE_CORE.a(net_state.c.obj)
 .data.mem_listener.7420
                0x000000002000235c       0x10 ../../mesh/lib_51_MBTLE_CORE.a(net_state.c.obj)
 .data.mem_listener.7434
                0x000000002000236c       0x10 ../../mesh/lib_51_MBTLE_CORE.a(net_state.c.obj)
 .data.m_lfclk_ppm
                0x000000002000237c        0x4 ../../mesh/lib_51_MBTLE_CORE.a(timeslot.c.obj)
 .data.m_negotiate_timeslot_length
                0x0000000020002380        0x4 ../../mesh/lib_51_MBTLE_CORE.a(timeslot.c.obj)
 .data.m_radio_request_earliest
                0x0000000020002384       0x10 ../../mesh/lib_51_MBTLE_CORE.a(timeslot.c.obj)
 .data.g_rng_function
                0x0000000020002394        0x4 ../../lib/micro-ecc/lib_51_UECC_LIB.a(uECC.c.obj)
 .data._impure_ptr
                0x0000000020002398        0x4 /usr/bin/../lib/gcc/arm-none-eabi/6.3.1/../../../../arm-none-eabi/lib/thumb/v6-m/libg_nano.a(lib_a-impure.o)
                0x0000000020002398                _impure_ptr
 .data.impure_data
                0x000000002000239c       0x60 /usr/bin/../lib/gcc/arm-none-eabi/6.3.1/../../../../arm-none-eabi/lib/thumb/v6-m/libg_nano.a(lib_a-impure.o)
                0x00000000200023fc                . = ALIGN (0x4)
                0x00000000200023fc                PROVIDE (__preinit_array_start, .)
 *(.preinit_array)
                0x00000000200023fc                PROVIDE (__preinit_array_end, .)
                0x00000000200023fc                . = ALIGN (0x4)
                0x00000000200023fc                PROVIDE (__init_array_start, .)
 *(SORT(.init_array.*))
 *(.init_array)
 .init_array    0x00000000200023fc        0x4 /usr/bin/../lib/gcc/arm-none-eabi/6.3.1/thumb/v6-m/crtbegin.o
                0x0000000020002400                PROVIDE (__init_array_end, .)
                0x0000000020002400                . = ALIGN (0x4)
                [!provide]                        PROVIDE (__fini_array_start, .)
 *(SORT(.fini_array.*))
 *(.fini_array)
 .fini_array    0x0000000020002400        0x4 /usr/bin/../lib/gcc/arm-none-eabi/6.3.1/thumb/v6-m/crtbegin.o
                [!provide]                        PROVIDE (__fini_array_end, .)
 *(.jcr*)
 .jcr           0x0000000020002404        0x0 /usr/bin/../lib/gcc/arm-none-eabi/6.3.1/thumb/v6-m/crtbegin.o
 .jcr           0x0000000020002404        0x4 /usr/bin/../lib/gcc/arm-none-eabi/6.3.1/thumb/v6-m/crtend.o
                0x0000000020002408                . = ALIGN (0x4)
                0x0000000020002408                __data_end__ = .

.igot.plt       0x0000000020002408        0x0 load address 0x0000000000031cfc
 .igot.plt      0x0000000020002408        0x0 /usr/bin/../lib/gcc/arm-none-eabi/6.3.1/thumb/v6-m/crtbegin.o

.bss            0x0000000020002408     0x28cc load address 0x0000000000031d00
                0x0000000020002408                . = ALIGN (0x4)
                0x0000000020002408                __bss_start__ = .
 *(.bss*)
 .bss           0x0000000020002408       0x1c /usr/bin/../lib/gcc/arm-none-eabi/6.3.1/thumb/v6-m/crtbegin.o
 .bss.config_params.7517
                0x0000000020002424       0x30 CMakeFiles/51_mijia_device.dir/src/main.c.obj
 .bss.m_server  0x0000000020002454        0xc CMakeFiles/51_mijia_device.dir/src/main.c.obj
 .bss.mp_bearer_head
                0x0000000020002460        0x4 CMakeFiles/51_mijia_device.dir/__/__/mesh/src/prov/prov_bearer_adv.c.obj
 .bss.m_offload_ecdh
                0x0000000020002464        0x1 CMakeFiles/51_mijia_device.dir/__/__/mesh/src/prov/prov_utils.c.obj
 *fill*         0x0000000020002465        0x3 
 .bss.m_element_pool
                0x0000000020002468        0x6 CMakeFiles/51_mijia_device.dir/__/__/mesh/src/access/access.c.obj
 *fill*         0x000000002000246e        0x2 
 .bss.m_evt_handler
                0x0000000020002470        0x8 CMakeFiles/51_mijia_device.dir/__/__/mesh/src/access/access.c.obj
 .bss.m_flash_manager
                0x0000000020002478       0x24 CMakeFiles/51_mijia_device.dir/__/__/mesh/src/access/access.c.obj
 .bss.m_flash_not_ready
                0x000000002000249c        0x1 CMakeFiles/51_mijia_device.dir/__/__/mesh/src/access/access.c.obj
 .bss.m_metadata_stored
                0x000000002000249d        0x1 CMakeFiles/51_mijia_device.dir/__/__/mesh/src/access/access.c.obj
 *fill*         0x000000002000249e        0x2 
 .bss.m_model_pool
                0x00000000200024a0       0x68 CMakeFiles/51_mijia_device.dir/__/__/mesh/src/access/access.c.obj
 .bss.m_subscription_list_pool
                0x0000000020002508        0x8 CMakeFiles/51_mijia_device.dir/__/__/mesh/src/access/access.c.obj
 .bss.m_publish_timer
                0x0000000020002510       0x18 CMakeFiles/51_mijia_device.dir/__/__/mesh/src/access/access_publish.c.obj
 .bss.m_publish_timer_counter
                0x0000000020002528        0x4 CMakeFiles/51_mijia_device.dir/__/__/mesh/src/access/access_publish.c.obj
 .bss.m_publish_timer_running
                0x000000002000252c        0x1 CMakeFiles/51_mijia_device.dir/__/__/mesh/src/access/access_publish.c.obj
 .bss.m_timer_resolution
                0x000000002000252d        0x1 CMakeFiles/51_mijia_device.dir/__/__/mesh/src/access/access_publish.c.obj
 *fill*         0x000000002000252e        0x2 
 .bss.mp_publication_list
                0x0000000020002530        0x4 CMakeFiles/51_mijia_device.dir/__/__/mesh/src/access/access_publish.c.obj
 .bss.m_reliable
                0x0000000020002534       0x6c CMakeFiles/51_mijia_device.dir/__/__/mesh/src/access/access_reliable.c.obj
 .bss.m_addr_nonvirtual_allocated
                0x00000000200025a0        0x4 CMakeFiles/51_mijia_device.dir/__/__/mesh/src/access/device_state_manager.c.obj
 .bss.m_addr_nonvirtual_needs_flashing
                0x00000000200025a4        0x4 CMakeFiles/51_mijia_device.dir/__/__/mesh/src/access/device_state_manager.c.obj
 .bss.m_addr_unicast_allocated
                0x00000000200025a8        0x4 CMakeFiles/51_mijia_device.dir/__/__/mesh/src/access/device_state_manager.c.obj
 .bss.m_addr_unicast_needs_flashing
                0x00000000200025ac        0x4 CMakeFiles/51_mijia_device.dir/__/__/mesh/src/access/device_state_manager.c.obj
 .bss.m_addr_virtual_allocated
                0x00000000200025b0        0x4 CMakeFiles/51_mijia_device.dir/__/__/mesh/src/access/device_state_manager.c.obj
 .bss.m_addr_virtual_needs_flashing
                0x00000000200025b4        0x4 CMakeFiles/51_mijia_device.dir/__/__/mesh/src/access/device_state_manager.c.obj
 .bss.m_addresses
                0x00000000200025b8        0x8 CMakeFiles/51_mijia_device.dir/__/__/mesh/src/access/device_state_manager.c.obj
 .bss.m_appkey_allocated
                0x00000000200025c0        0x4 CMakeFiles/51_mijia_device.dir/__/__/mesh/src/access/device_state_manager.c.obj
 .bss.m_appkey_needs_flashing
                0x00000000200025c4        0x4 CMakeFiles/51_mijia_device.dir/__/__/mesh/src/access/device_state_manager.c.obj
 .bss.m_appkeys
                0x00000000200025c8       0x16 CMakeFiles/51_mijia_device.dir/__/__/mesh/src/access/device_state_manager.c.obj
 *fill*         0x00000000200025de        0x2 
 .bss.m_devkey_allocated
                0x00000000200025e0        0x4 CMakeFiles/51_mijia_device.dir/__/__/mesh/src/access/device_state_manager.c.obj
 .bss.m_devkey_needs_flashing
                0x00000000200025e4        0x4 CMakeFiles/51_mijia_device.dir/__/__/mesh/src/access/device_state_manager.c.obj
 .bss.m_devkeys
                0x00000000200025e8       0x16 CMakeFiles/51_mijia_device.dir/__/__/mesh/src/access/device_state_manager.c.obj
 .bss.m_flash_is_available
                0x00000000200025fe        0x1 CMakeFiles/51_mijia_device.dir/__/__/mesh/src/access/device_state_manager.c.obj
 *fill*         0x00000000200025ff        0x1 
 .bss.m_flash_manager
                0x0000000020002600       0x24 CMakeFiles/51_mijia_device.dir/__/__/mesh/src/access/device_state_manager.c.obj
 .bss.m_flash_mem_listener_update_all
                0x0000000020002624       0x10 CMakeFiles/51_mijia_device.dir/__/__/mesh/src/access/device_state_manager.c.obj
 .bss.m_has_primary_subnet
                0x0000000020002634        0x1 CMakeFiles/51_mijia_device.dir/__/__/mesh/src/access/device_state_manager.c.obj
 *fill*         0x0000000020002635        0x3 
 .bss.m_local_unicast_addr
                0x0000000020002638        0x4 CMakeFiles/51_mijia_device.dir/__/__/mesh/src/access/device_state_manager.c.obj
 .bss.m_subnet_allocated
                0x000000002000263c        0x4 CMakeFiles/51_mijia_device.dir/__/__/mesh/src/access/device_state_manager.c.obj
 .bss.m_subnet_needs_flashing
                0x0000000020002640        0x4 CMakeFiles/51_mijia_device.dir/__/__/mesh/src/access/device_state_manager.c.obj
 .bss.m_subnets
                0x0000000020002644       0x5c CMakeFiles/51_mijia_device.dir/__/__/mesh/src/access/device_state_manager.c.obj
 .bss.m_virtual_addresses
                0x00000000200026a0       0x14 CMakeFiles/51_mijia_device.dir/__/__/mesh/src/access/device_state_manager.c.obj
 .bss.m_evt_handler
                0x00000000200026b4        0x8 CMakeFiles/51_mijia_device.dir/__/__/mesh/src/access/nrf_mesh_node_config.c.obj
 .bss.m_node_provisioned
                0x00000000200026bc        0x1 CMakeFiles/51_mijia_device.dir/__/__/mesh/src/access/nrf_mesh_node_config.c.obj
 *fill*         0x00000000200026bd        0x3 
 .bss.m_private_key
                0x00000000200026c0       0x20 CMakeFiles/51_mijia_device.dir/__/__/mesh/src/access/nrf_mesh_node_config.c.obj
 .bss.m_prov_ctx
                0x00000000200026e0      0x2c0 CMakeFiles/51_mijia_device.dir/__/__/mesh/src/access/nrf_mesh_node_config.c.obj
 .bss.m_public_key
                0x00000000200029a0       0x40 CMakeFiles/51_mijia_device.dir/__/__/mesh/src/access/nrf_mesh_node_config.c.obj
 .bss.m_sd_initialized
                0x00000000200029e0        0x1 CMakeFiles/51_mijia_device.dir/__/__/mesh/src/access/nrf_mesh_node_config.c.obj
 *fill*         0x00000000200029e1        0x3 
 .bss.mp_init_params
                0x00000000200029e4        0x4 CMakeFiles/51_mijia_device.dir/__/__/mesh/src/access/nrf_mesh_node_config.c.obj
 .bss.m_ble_evt_buffer
                0x00000000200029e8       0x47 CMakeFiles/51_mijia_device.dir/__/nrf_mesh_sdk.c.obj
 *fill*         0x0000000020002a2f        0x1 
 .bss.m_default_gap_addr
                0x0000000020002a30        0x7 ../../mesh/lib_51_MBTLE_CORE.a(bearer_adv.c.obj)
 .bss.m_is_scanning
                0x0000000020002a37        0x1 ../../mesh/lib_51_MBTLE_CORE.a(bearer_adv.c.obj)
 .bss.m_scan_ch
                0x0000000020002a38        0x1 ../../mesh/lib_51_MBTLE_CORE.a(bearer_adv.c.obj)
 *fill*         0x0000000020002a39        0x3 
 .bss.m_scan_config
                0x0000000020002a3c        0xc ../../mesh/lib_51_MBTLE_CORE.a(bearer_adv.c.obj)
 .bss.m_scan_evt
                0x0000000020002a48       0x18 ../../mesh/lib_51_MBTLE_CORE.a(bearer_adv.c.obj)
 .bss.m_scan_window_end_evt
                0x0000000020002a60       0x18 ../../mesh/lib_51_MBTLE_CORE.a(bearer_adv.c.obj)
 .bss.m_pool    0x0000000020002a78     0x1000 ../../mesh/lib_51_MBTLE_CORE.a(packet_mgr.c.obj)
 .bss.mp_free_head
                0x0000000020003a78        0x4 ../../mesh/lib_51_MBTLE_CORE.a(packet_mgr.c.obj)
 .bss.m_idle_cb
                0x0000000020003a7c        0x4 ../../mesh/lib_51_MBTLE_CORE.a(radio.c.obj)
 .bss.m_radio_config
                0x0000000020003a80        0x8 ../../mesh/lib_51_MBTLE_CORE.a(radio.c.obj)
 .bss.m_radio_fifo
                0x0000000020003a88       0x14 ../../mesh/lib_51_MBTLE_CORE.a(radio.c.obj)
 .bss.m_radio_fifo_queue
                0x0000000020003a9c       0x60 ../../mesh/lib_51_MBTLE_CORE.a(radio.c.obj)
 .bss.m_rx_cb   0x0000000020003afc        0x4 ../../mesh/lib_51_MBTLE_CORE.a(radio.c.obj)
 .bss.m_tx_cb   0x0000000020003b00        0x4 ../../mesh/lib_51_MBTLE_CORE.a(radio.c.obj)
 .bss.s_fifo_reserved.6682
                0x0000000020003b04        0x4 ../../mesh/lib_51_MBTLE_CORE.a(radio.c.obj)
 .bss.m_attributes
                0x0000000020003b08        0x3 ../../mesh/lib_51_MBTLE_CORE.a(timer.c.obj)
 *fill*         0x0000000020003b0b        0x1 
 .bss.m_callbacks
                0x0000000020003b0c        0xc ../../mesh/lib_51_MBTLE_CORE.a(timer.c.obj)
 .bss.m_is_in_ts
                0x0000000020003b18        0x1 ../../mesh/lib_51_MBTLE_CORE.a(timer.c.obj)
 *fill*         0x0000000020003b19        0x3 
 .bss.m_reference_time
                0x0000000020003b1c        0x4 ../../mesh/lib_51_MBTLE_CORE.a(timer.c.obj)
 .bss.m_timeouts
                0x0000000020003b20        0xc ../../mesh/lib_51_MBTLE_CORE.a(timer.c.obj)
 .bss.m_timer_mut
                0x0000000020003b2c        0x4 ../../mesh/lib_51_MBTLE_CORE.a(timer.c.obj)
 .bss.m_ts_end_time
                0x0000000020003b30        0x4 ../../mesh/lib_51_MBTLE_CORE.a(timer.c.obj)
 .bss.mp_ppi_tasks
                0x0000000020003b34        0xc ../../mesh/lib_51_MBTLE_CORE.a(timer.c.obj)
 .bss.m_event_flag
                0x0000000020003b40        0x4 ../../mesh/lib_51_MBTLE_CORE.a(timer_scheduler.c.obj)
 .bss.m_scheduler
                0x0000000020003b44       0x10 ../../mesh/lib_51_MBTLE_CORE.a(timer_scheduler.c.obj)
 .bss.m_advertiser
                0x0000000020003b54       0xe0 ../../mesh/lib_51_MBTLE_CORE.a(beacon.c.obj)
 .bss.m_addr_filter
                0x0000000020003c34        0x8 ../../mesh/lib_51_MBTLE_CORE.a(bearer.c.obj)
 .bss.m_adtype_filter
                0x0000000020003c3c       0x20 ../../mesh/lib_51_MBTLE_CORE.a(bearer.c.obj)
 .bss.m_adtype_filtering
                0x0000000020003c5c        0x1 ../../mesh/lib_51_MBTLE_CORE.a(bearer.c.obj)
 *fill*         0x0000000020003c5d        0x3 
 .bss.m_regular_advertiser
                0x0000000020003c60       0xe0 ../../mesh/lib_51_MBTLE_CORE.a(bearer.c.obj)
 .bss.m_rx_fifo
                0x0000000020003d40       0x14 ../../mesh/lib_51_MBTLE_CORE.a(bearer.c.obj)
 .bss.m_rx_fifo_buffer
                0x0000000020003d54       0xa0 ../../mesh/lib_51_MBTLE_CORE.a(bearer.c.obj)
 .bss.packets_accepted
                0x0000000020003df4        0x4 ../../mesh/lib_51_MBTLE_CORE.a(bearer.c.obj)
 .bss.packets_dropped_invalid_addr
                0x0000000020003df8        0x4 ../../mesh/lib_51_MBTLE_CORE.a(bearer.c.obj)
 .bss.packets_dropped_invalid_adtype
                0x0000000020003dfc        0x4 ../../mesh/lib_51_MBTLE_CORE.a(bearer.c.obj)
 .bss.packets_dropped_invalid_length
                0x0000000020003e00        0x4 ../../mesh/lib_51_MBTLE_CORE.a(bearer.c.obj)
 .bss.m_bearer_event_fifo
                0x0000000020003e04       0x14 ../../mesh/lib_51_MBTLE_CORE.a(bearer_event.c.obj)
 .bss.m_bearer_event_fifo_buffer
                0x0000000020003e18      0x100 ../../mesh/lib_51_MBTLE_CORE.a(bearer_event.c.obj)
 .bss.m_critical
                0x0000000020003f18        0x4 ../../mesh/lib_51_MBTLE_CORE.a(bearer_event.c.obj)
 .bss.m_flag_count
                0x0000000020003f1c        0x4 ../../mesh/lib_51_MBTLE_CORE.a(bearer_event.c.obj)
 .bss.m_flag_event_callbacks
                0x0000000020003f20       0x10 ../../mesh/lib_51_MBTLE_CORE.a(bearer_event.c.obj)
 .bss.m_flags   0x0000000020003f30        0x4 ../../mesh/lib_51_MBTLE_CORE.a(bearer_event.c.obj)
 .bss.m_uuid    0x0000000020003f34       0x10 ../../mesh/lib_51_MBTLE_CORE.a(nrf_mesh_configure.c.obj)
 .bss.mp_evt_handlers_head
                0x0000000020003f44        0x4 ../../mesh/lib_51_MBTLE_CORE.a(event.c.obj)
 .bss.m_beacon_salt
                0x0000000020003f48       0x10 ../../mesh/lib_51_MBTLE_CORE.a(net_beacon.c.obj)
 .bss.m_enabled
                0x0000000020003f58        0x1 ../../mesh/lib_51_MBTLE_CORE.a(net_beacon.c.obj)
 *fill*         0x0000000020003f59        0x3 
 .bss.m_tx_event
                0x0000000020003f5c       0x18 ../../mesh/lib_51_MBTLE_CORE.a(net_beacon.c.obj)
 .bss.lock_count.7474
                0x0000000020003f74        0x4 ../../mesh/lib_51_MBTLE_CORE.a(net_state.c.obj)
 .bss.m_flash_manager
                0x0000000020003f78       0x24 ../../mesh/lib_51_MBTLE_CORE.a(net_state.c.obj)
 .bss.m_iv_update_timer
                0x0000000020003f9c       0x18 ../../mesh/lib_51_MBTLE_CORE.a(net_state.c.obj)
 .bss.m_net_state
                0x0000000020003fb4       0x14 ../../mesh/lib_51_MBTLE_CORE.a(net_state.c.obj)
 .bss.m_seqnum_allocation_in_progress
                0x0000000020003fc8        0x1 ../../mesh/lib_51_MBTLE_CORE.a(net_state.c.obj)
 .bss.m_test_mode
                0x0000000020003fc9        0x1 ../../mesh/lib_51_MBTLE_CORE.a(net_state.c.obj)
 .bss.m_is_enabled
                0x0000000020003fca        0x1 ../../mesh/lib_51_MBTLE_CORE.a(nrf_mesh.c.obj)
 .bss.m_is_initialized
                0x0000000020003fcb        0x1 ../../mesh/lib_51_MBTLE_CORE.a(nrf_mesh.c.obj)
 .bss.m_rx_cb   0x0000000020003fcc        0x4 ../../mesh/lib_51_MBTLE_CORE.a(nrf_mesh.c.obj)
 .bss.m_current_time
                0x0000000020003fd0        0x4 ../../mesh/lib_51_MBTLE_CORE.a(ticker.c.obj)
 .bss.m_timer   0x0000000020003fd4       0x18 ../../mesh/lib_51_MBTLE_CORE.a(ticker.c.obj)
 .bss.m_sar_alloc
                0x0000000020003fec        0x4 ../../mesh/lib_51_MBTLE_CORE.a(transport.c.obj)
 .bss.m_sar_release
                0x0000000020003ff0        0x4 ../../mesh/lib_51_MBTLE_CORE.a(transport.c.obj)
 .bss.m_transport_pkt_buf
                0x0000000020003ff4       0x13 ../../mesh/lib_51_MBTLE_CORE.a(transport.c.obj)
 *fill*         0x0000000020004007        0x1 
 .bss.m_trs_config
                0x0000000020004008       0x14 ../../mesh/lib_51_MBTLE_CORE.a(transport.c.obj)
 .bss.m_trs_sar_ack_timeout
                0x000000002000401c        0x1 ../../mesh/lib_51_MBTLE_CORE.a(transport.c.obj)
 .bss.m_trs_sar_ack_timer_active
                0x000000002000401d        0x1 ../../mesh/lib_51_MBTLE_CORE.a(transport.c.obj)
 *fill*         0x000000002000401e        0x2 
 .bss.m_trs_sar_rx_ack_timer
                0x0000000020004020       0x18 ../../mesh/lib_51_MBTLE_CORE.a(transport.c.obj)
 .bss.m_trs_sar_rx_sessions
                0x0000000020004038       0x50 ../../mesh/lib_51_MBTLE_CORE.a(transport.c.obj)
 .bss.m_trs_sar_session_timer
                0x0000000020004088       0x18 ../../mesh/lib_51_MBTLE_CORE.a(transport.c.obj)
 .bss.m_trs_sar_tx_sessions
                0x00000000200040a0       0x50 ../../mesh/lib_51_MBTLE_CORE.a(transport.c.obj)
 .bss.m_trs_sar_tx_timeout
                0x00000000200040f0        0x1 ../../mesh/lib_51_MBTLE_CORE.a(transport.c.obj)
 *fill*         0x00000000200040f1        0x3 
 .bss.m_trs_sar_tx_timer
                0x00000000200040f4       0x18 ../../mesh/lib_51_MBTLE_CORE.a(transport.c.obj)
 .bss.m_internal_event_fifo
                0x000000002000410c       0x14 ../../mesh/lib_51_MBTLE_CORE.a(internal_event.c.obj)
 .bss.m_internal_event_initialized
                0x0000000020004120        0x1 ../../mesh/lib_51_MBTLE_CORE.a(internal_event.c.obj)
 *fill*         0x0000000020004121        0x3 
 .bss.m_report_cb
                0x0000000020004124        0x4 ../../mesh/lib_51_MBTLE_CORE.a(internal_event.c.obj)
 .bss.m_action_queue
                0x0000000020004128        0xc ../../mesh/lib_51_MBTLE_CORE.a(flash_manager.c.obj)
 .bss.m_action_queue_buffer
                0x0000000020004134      0x104 ../../mesh/lib_51_MBTLE_CORE.a(flash_manager.c.obj)
 .bss.m_action_state
                0x0000000020004238        0x1 ../../mesh/lib_51_MBTLE_CORE.a(flash_manager.c.obj)
 *fill*         0x0000000020004239        0x3 
 .bss.m_memory_listener_queue
                0x000000002000423c        0x8 ../../mesh/lib_51_MBTLE_CORE.a(flash_manager.c.obj)
 .bss.m_processing_flag
                0x0000000020004244        0x4 ../../mesh/lib_51_MBTLE_CORE.a(flash_manager.c.obj)
 .bss.m_state   0x0000000020004248        0x1 ../../mesh/lib_51_MBTLE_CORE.a(flash_manager.c.obj)
 *fill*         0x0000000020004249        0x1 
 .bss.m_token   0x000000002000424a        0x2 ../../mesh/lib_51_MBTLE_CORE.a(flash_manager.c.obj)
 .bss.p_current.8667
                0x000000002000424c        0x4 ../../mesh/lib_51_MBTLE_CORE.a(flash_manager.c.obj)
 .bss.result.8668
                0x0000000020004250        0x1 ../../mesh/lib_51_MBTLE_CORE.a(flash_manager.c.obj)
 *fill*         0x0000000020004251        0x3 
 .bss.m_defrag  0x0000000020004254       0x1c ../../mesh/lib_51_MBTLE_CORE.a(flash_manager_defrag.c.obj)
 .bss.m_token   0x0000000020004270        0x2 ../../mesh/lib_51_MBTLE_CORE.a(flash_manager_defrag.c.obj)
 *fill*         0x0000000020004272        0x2 
 .bss.mp_recovery_area
                0x0000000020004274        0x4 ../../mesh/lib_51_MBTLE_CORE.a(flash_manager_defrag.c.obj)
 .bss.p_null_ptr.7732
                0x0000000020004278        0x4 ../../mesh/lib_51_MBTLE_CORE.a(flash_manager_defrag.c.obj)
 .bss.m_end_timer_triggered
                0x000000002000427c        0x1 ../../mesh/lib_51_MBTLE_CORE.a(timeslot.c.obj)
 .bss.m_framework_initialized
                0x000000002000427d        0x1 ../../mesh/lib_51_MBTLE_CORE.a(timeslot.c.obj)
 .bss.m_is_in_callback
                0x000000002000427e        0x1 ../../mesh/lib_51_MBTLE_CORE.a(timeslot.c.obj)
 .bss.m_is_in_timeslot
                0x000000002000427f        0x1 ../../mesh/lib_51_MBTLE_CORE.a(timeslot.c.obj)
 .bss.m_ret_param
                0x0000000020004280        0x8 ../../mesh/lib_51_MBTLE_CORE.a(timeslot.c.obj)
 .bss.m_start_time
                0x0000000020004288        0x4 ../../mesh/lib_51_MBTLE_CORE.a(timeslot.c.obj)
 .bss.m_timeslot_count
                0x000000002000428c        0x4 ../../mesh/lib_51_MBTLE_CORE.a(timeslot.c.obj)
 .bss.m_timeslot_forced_command
                0x0000000020004290        0x1 ../../mesh/lib_51_MBTLE_CORE.a(timeslot.c.obj)
 *fill*         0x0000000020004291        0x3 
 .bss.m_timeslot_length
                0x0000000020004294        0x4 ../../mesh/lib_51_MBTLE_CORE.a(timeslot.c.obj)
 .bss.requested_extend_time.8330
                0x0000000020004298        0x4 ../../mesh/lib_51_MBTLE_CORE.a(timeslot.c.obj)
 *fill*         0x000000002000429c        0x4 
 .bss.s_last_rtc_value.8302
                0x00000000200042a0        0x8 ../../mesh/lib_51_MBTLE_CORE.a(timeslot.c.obj)
 .bss.m_128buf  0x00000000200042a8       0x10 ../../mesh/lib_51_MBTLE_CORE.a(aes_cmac.c.obj)
 .bss.m_subkey1
                0x00000000200042b8       0x10 ../../mesh/lib_51_MBTLE_CORE.a(aes_cmac.c.obj)
 .bss.m_subkey2
                0x00000000200042c8       0x10 ../../mesh/lib_51_MBTLE_CORE.a(aes_cmac.c.obj)
 .bss.m_msg_cache
                0x00000000200042d8      0x100 ../../mesh/lib_51_MBTLE_CORE.a(msg_cache.c.obj)
 .bss.m_msg_cache_head
                0x00000000200043d8        0x4 ../../mesh/lib_51_MBTLE_CORE.a(msg_cache.c.obj)
 .bss.m_relay_check_cb
                0x00000000200043dc        0x4 ../../mesh/lib_51_MBTLE_CORE.a(network.c.obj)
 .bss.m_relay_enable
                0x00000000200043e0        0x1 ../../mesh/lib_51_MBTLE_CORE.a(network.c.obj)
 .bss.m_relay_retransmit_count
                0x00000000200043e1        0x1 ../../mesh/lib_51_MBTLE_CORE.a(network.c.obj)
 .bss.m_cache_full
                0x00000000200043e2        0x1 ../../mesh/lib_51_MBTLE_CORE.a(replay_cache.c.obj)
 .bss.m_cache_index
                0x00000000200043e3        0x1 ../../mesh/lib_51_MBTLE_CORE.a(replay_cache.c.obj)
 .bss.m_replay_cache
                0x00000000200043e4      0x200 ../../mesh/lib_51_MBTLE_CORE.a(replay_cache.c.obj)
 .bss.m_event_flag
                0x00000000200045e4        0x4 ../../mesh/lib_51_MBTLE_CORE.a(mesh_flash.c.obj)
 .bss.m_suspended
                0x00000000200045e8        0x1 ../../mesh/lib_51_MBTLE_CORE.a(mesh_flash.c.obj)
 *fill*         0x00000000200045e9        0x3 
 .bss.m_users   0x00000000200045ec      0x1d4 ../../mesh/lib_51_MBTLE_CORE.a(mesh_flash.c.obj)
 .bss._acDownBuffer
                0x00000000200047c0       0x80 ../../lib/rtt/lib_51_RTT_LIB.a(SEGGER_RTT.c.obj)
 .bss._acUpBuffer
                0x0000000020004840      0x400 ../../lib/rtt/lib_51_RTT_LIB.a(SEGGER_RTT.c.obj)
 .bss.__malloc_free_list
                0x0000000020004c40        0x4 /usr/bin/../lib/gcc/arm-none-eabi/6.3.1/../../../../arm-none-eabi/lib/thumb/v6-m/libg_nano.a(lib_a-nano-mallocr.o)
                0x0000000020004c40                __malloc_free_list
 .bss.__malloc_sbrk_start
                0x0000000020004c44        0x4 /usr/bin/../lib/gcc/arm-none-eabi/6.3.1/../../../../arm-none-eabi/lib/thumb/v6-m/libg_nano.a(lib_a-nano-mallocr.o)
                0x0000000020004c44                __malloc_sbrk_start
 .bss.heap_end.4116
                0x0000000020004c48        0x4 /usr/bin/../lib/gcc/arm-none-eabi/6.3.1/../../../../arm-none-eabi/lib/thumb/v6-m/libnosys.a(sbrk.o)
 *(COMMON)
 COMMON         0x0000000020004c4c        0x8 CMakeFiles/51_mijia_device.dir/__/nrf_mesh_sdk.c.obj
                0x0000000020004c4c                nrf_nvic_state
 COMMON         0x0000000020004c54        0x4 ../../mesh/lib_51_MBTLE_CORE.a(nrf_mesh.c.obj)
                0x0000000020004c54                m_assertion_handler
 COMMON         0x0000000020004c58       0x78 ../../lib/rtt/lib_51_RTT_LIB.a(SEGGER_RTT.c.obj)
                0x0000000020004c58                _SEGGER_RTT
 COMMON         0x0000000020004cd0        0x4 /usr/bin/../lib/gcc/arm-none-eabi/6.3.1/../../../../arm-none-eabi/lib/thumb/v6-m/libg_nano.a(lib_a-reent.o)
                0x0000000020004cd0                errno
                0x0000000020004cd4                . = ALIGN (0x4)
                0x0000000020004cd4                __bss_end__ = .

.heap           0x0000000020004cd8       0x80
                0x0000000020004cd8                __HeapBase = .
                0x0000000020004cd8                __end__ = .
                0x0000000020004cd8                PROVIDE (end, .)
 *(.heap*)
 .heap          0x0000000020004cd8       0x80 CMakeFiles/51_mijia_device.dir/__/__/toolchain/gcc/gcc_startup_nrf51.S.obj
                0x0000000020004d58                __HeapLimit = .

.stack_dummy    0x0000000020004cd8      0x800
 *(.stack*)
 .stack         0x0000000020004cd8      0x800 CMakeFiles/51_mijia_device.dir/__/__/toolchain/gcc/gcc_startup_nrf51.S.obj
                0x0000000020007d00                __StackTop = (ORIGIN (RAM) + LENGTH (RAM))
                0x0000000020007500                __StackLimit = (__StackTop - SIZEOF (.stack_dummy))
                0x0000000020007d00                PROVIDE (__stack, __StackTop)
                0x0000000000000001                ASSERT ((__StackLimit >= __HeapLimit), region RAM overflowed with stack)
OUTPUT(51_mijia_device.elf elf32-littlearm)

.ARM.attributes
                0x0000000000000000       0x28
 .ARM.attributes
                0x0000000000000000       0x1e /usr/bin/../lib/gcc/arm-none-eabi/6.3.1/thumb/v6-m/crti.o
 .ARM.attributes
                0x000000000000001e       0x2c /usr/bin/../lib/gcc/arm-none-eabi/6.3.1/thumb/v6-m/crtbegin.o
 .ARM.attributes
                0x000000000000004a       0x1b /usr/bin/../lib/gcc/arm-none-eabi/6.3.1/../../../../arm-none-eabi/lib/thumb/v6-m/crt0.o
 .ARM.attributes
                0x0000000000000065       0x31 CMakeFiles/51_mijia_device.dir/src/main.c.obj
 .ARM.attributes
                0x0000000000000096       0x31 CMakeFiles/51_mijia_device.dir/__/__/mesh/src/prov/provisioning.c.obj
 .ARM.attributes
                0x00000000000000c7       0x31 CMakeFiles/51_mijia_device.dir/__/__/mesh/src/prov/nrf_mesh_prov.c.obj
 .ARM.attributes
                0x00000000000000f8       0x31 CMakeFiles/51_mijia_device.dir/__/__/mesh/src/prov/prov_bearer_adv.c.obj
 .ARM.attributes
                0x0000000000000129       0x31 CMakeFiles/51_mijia_device.dir/__/__/mesh/src/prov/prov_utils.c.obj
 .ARM.attributes
                0x000000000000015a       0x31 CMakeFiles/51_mijia_device.dir/__/__/mesh/src/prov/prov_beacon.c.obj
 .ARM.attributes
                0x000000000000018b       0x31 CMakeFiles/51_mijia_device.dir/__/__/mesh/src/access/access.c.obj
 .ARM.attributes
                0x00000000000001bc       0x31 CMakeFiles/51_mijia_device.dir/__/__/mesh/src/access/access_publish.c.obj
 .ARM.attributes
                0x00000000000001ed       0x31 CMakeFiles/51_mijia_device.dir/__/__/mesh/src/access/access_reliable.c.obj
 .ARM.attributes
                0x000000000000021e       0x31 CMakeFiles/51_mijia_device.dir/__/__/mesh/src/access/device_state_manager.c.obj
 .ARM.attributes
                0x000000000000024f       0x31 CMakeFiles/51_mijia_device.dir/__/__/mesh/src/access/nrf_mesh_node_config.c.obj
 .ARM.attributes
                0x0000000000000280       0x31 CMakeFiles/51_mijia_device.dir/__/__/mesh/models/config/src/config_server.c.obj
 .ARM.attributes
                0x00000000000002b1       0x31 CMakeFiles/51_mijia_device.dir/__/__/mesh/models/config/src/packed_index_list.c.obj
 .ARM.attributes
                0x00000000000002e2       0x31 CMakeFiles/51_mijia_device.dir/__/__/mesh/models/config/src/composition_data.c.obj
 .ARM.attributes
                0x0000000000000313       0x31 CMakeFiles/51_mijia_device.dir/__/nrf_mesh_sdk.c.obj
 .ARM.attributes
                0x0000000000000344       0x31 CMakeFiles/51_mijia_device.dir/__/hal/src/simple_hal.c.obj
 .ARM.attributes
                0x0000000000000375       0x31 CMakeFiles/51_mijia_device.dir/__/models/simple_on_off/src/simple_on_off_server.c.obj
 .ARM.attributes
                0x00000000000003a6       0x1b CMakeFiles/51_mijia_device.dir/__/__/toolchain/gcc/gcc_startup_nrf51.S.obj
 .ARM.attributes
                0x00000000000003c1       0x31 CMakeFiles/51_mijia_device.dir/__/__/toolchain/system_nrf51.c.obj
 .ARM.attributes
                0x00000000000003f2       0x31 ../../mesh/lib_51_MBTLE_PB_ADV_EE.a(prov_provisionee.c.obj)
 .ARM.attributes
                0x0000000000000423       0x31 ../../mesh/lib_51_MBTLE_CORE.a(nrf_mesh_weak.c.obj)
 .ARM.attributes
                0x0000000000000454       0x31 ../../mesh/lib_51_MBTLE_CORE.a(bearer_adv.c.obj)
 .ARM.attributes
                0x0000000000000485       0x31 ../../mesh/lib_51_MBTLE_CORE.a(fifo.c.obj)
 .ARM.attributes
                0x00000000000004b6       0x31 ../../mesh/lib_51_MBTLE_CORE.a(packet_mgr.c.obj)
 .ARM.attributes
                0x00000000000004e7       0x31 ../../mesh/lib_51_MBTLE_CORE.a(radio.c.obj)
 .ARM.attributes
                0x0000000000000518       0x31 ../../mesh/lib_51_MBTLE_CORE.a(timer.c.obj)
 .ARM.attributes
                0x0000000000000549       0x31 ../../mesh/lib_51_MBTLE_CORE.a(timer_scheduler.c.obj)
 .ARM.attributes
                0x000000000000057a       0x31 ../../mesh/lib_51_MBTLE_CORE.a(beacon.c.obj)
 .ARM.attributes
                0x00000000000005ab       0x31 ../../mesh/lib_51_MBTLE_CORE.a(bearer.c.obj)
 .ARM.attributes
                0x00000000000005dc       0x31 ../../mesh/lib_51_MBTLE_CORE.a(bearer_event.c.obj)
 .ARM.attributes
                0x000000000000060d       0x31 ../../mesh/lib_51_MBTLE_CORE.a(nrf_mesh_configure.c.obj)
 .ARM.attributes
                0x000000000000063e       0x31 ../../mesh/lib_51_MBTLE_CORE.a(enc.c.obj)
 .ARM.attributes
                0x000000000000066f       0x31 ../../mesh/lib_51_MBTLE_CORE.a(event.c.obj)
 .ARM.attributes
                0x00000000000006a0       0x31 ../../mesh/lib_51_MBTLE_CORE.a(log.c.obj)
 .ARM.attributes
                0x00000000000006d1       0x31 ../../mesh/lib_51_MBTLE_CORE.a(net_beacon.c.obj)
 .ARM.attributes
                0x0000000000000702       0x31 ../../mesh/lib_51_MBTLE_CORE.a(net_state.c.obj)
 .ARM.attributes
                0x0000000000000733       0x31 ../../mesh/lib_51_MBTLE_CORE.a(nrf_mesh.c.obj)
 .ARM.attributes
                0x0000000000000764       0x31 ../../mesh/lib_51_MBTLE_CORE.a(nrf_mesh_keygen.c.obj)
 .ARM.attributes
                0x0000000000000795       0x31 ../../mesh/lib_51_MBTLE_CORE.a(nrf_mesh_utils.c.obj)
 .ARM.attributes
                0x00000000000007c6       0x31 ../../mesh/lib_51_MBTLE_CORE.a(nrf_mesh_opt.c.obj)
 .ARM.attributes
                0x00000000000007f7       0x31 ../../mesh/lib_51_MBTLE_CORE.a(radio_config.c.obj)
 .ARM.attributes
                0x0000000000000828       0x31 ../../mesh/lib_51_MBTLE_CORE.a(rand.c.obj)
 .ARM.attributes
                0x0000000000000859       0x31 ../../mesh/lib_51_MBTLE_CORE.a(ticker.c.obj)
 .ARM.attributes
                0x000000000000088a       0x31 ../../mesh/lib_51_MBTLE_CORE.a(transport.c.obj)
 .ARM.attributes
                0x00000000000008bb       0x31 ../../mesh/lib_51_MBTLE_CORE.a(internal_event.c.obj)
 .ARM.attributes
                0x00000000000008ec       0x31 ../../mesh/lib_51_MBTLE_CORE.a(flash_manager.c.obj)
 .ARM.attributes
                0x000000000000091d       0x31 ../../mesh/lib_51_MBTLE_CORE.a(flash_manager_defrag.c.obj)
 .ARM.attributes
                0x000000000000094e       0x31 ../../mesh/lib_51_MBTLE_CORE.a(flash_manager_internal.c.obj)
 .ARM.attributes
                0x000000000000097f       0x31 ../../mesh/lib_51_MBTLE_CORE.a(aes.c.obj)
 .ARM.attributes
                0x00000000000009b0       0x31 ../../mesh/lib_51_MBTLE_CORE.a(queue.c.obj)
 .ARM.attributes
                0x00000000000009e1       0x31 ../../mesh/lib_51_MBTLE_CORE.a(timeslot.c.obj)
 .ARM.attributes
                0x0000000000000a12       0x31 ../../mesh/lib_51_MBTLE_CORE.a(aes_cmac.c.obj)
 .ARM.attributes
                0x0000000000000a43       0x31 ../../mesh/lib_51_MBTLE_CORE.a(ccm_soft.c.obj)
 .ARM.attributes
                0x0000000000000a74       0x31 ../../mesh/lib_51_MBTLE_CORE.a(msg_cache.c.obj)
 .ARM.attributes
                0x0000000000000aa5       0x31 ../../mesh/lib_51_MBTLE_CORE.a(network.c.obj)
 .ARM.attributes
                0x0000000000000ad6       0x31 ../../mesh/lib_51_MBTLE_CORE.a(packet.c.obj)
 .ARM.attributes
                0x0000000000000b07       0x31 ../../mesh/lib_51_MBTLE_CORE.a(packet_buffer.c.obj)
 .ARM.attributes
                0x0000000000000b38       0x31 ../../mesh/lib_51_MBTLE_CORE.a(replay_cache.c.obj)
 .ARM.attributes
                0x0000000000000b69       0x31 ../../mesh/lib_51_MBTLE_CORE.a(mesh_flash.c.obj)
 .ARM.attributes
                0x0000000000000b9a       0x31 ../../mesh/lib_51_MBTLE_CORE.a(nrf_flash.c.obj)
 .ARM.attributes
                0x0000000000000bcb       0x31 ../../mesh/lib_51_MBTLE_CORE.a(msqueue.c.obj)
 .ARM.attributes
                0x0000000000000bfc       0x31 ../../lib/micro-ecc/lib_51_UECC_LIB.a(uECC.c.obj)
 .ARM.attributes
                0x0000000000000c2d       0x31 ../../lib/rtt/lib_51_RTT_LIB.a(SEGGER_RTT.c.obj)
 .ARM.attributes
                0x0000000000000c5e       0x31 ../../lib/rtt/lib_51_RTT_LIB.a(SEGGER_RTT_printf.c.obj)
 .ARM.attributes
                0x0000000000000c8f       0x1e /usr/bin/../lib/gcc/arm-none-eabi/6.3.1/thumb/v6-m/libgcc.a(_udivsi3.o)
 .ARM.attributes
                0x0000000000000cad       0x1e /usr/bin/../lib/gcc/arm-none-eabi/6.3.1/thumb/v6-m/libgcc.a(_divsi3.o)
 .ARM.attributes
                0x0000000000000ccb       0x1e /usr/bin/../lib/gcc/arm-none-eabi/6.3.1/thumb/v6-m/libgcc.a(_dvmd_tls.o)
 .ARM.attributes
                0x0000000000000ce9       0x2c /usr/bin/../lib/gcc/arm-none-eabi/6.3.1/thumb/v6-m/libgcc.a(_muldi3.o)
 .ARM.attributes
                0x0000000000000d15       0x2c /usr/bin/../lib/gcc/arm-none-eabi/6.3.1/../../../../arm-none-eabi/lib/thumb/v6-m/libg_nano.a(lib_a-exit.o)
 .ARM.attributes
                0x0000000000000d41       0x2c /usr/bin/../lib/gcc/arm-none-eabi/6.3.1/../../../../arm-none-eabi/lib/thumb/v6-m/libg_nano.a(lib_a-impure.o)
 .ARM.attributes
                0x0000000000000d6d       0x2c /usr/bin/../lib/gcc/arm-none-eabi/6.3.1/../../../../arm-none-eabi/lib/thumb/v6-m/libg_nano.a(lib_a-init.o)
 .ARM.attributes
                0x0000000000000d99       0x2c /usr/bin/../lib/gcc/arm-none-eabi/6.3.1/../../../../arm-none-eabi/lib/thumb/v6-m/libg_nano.a(lib_a-malloc.o)
 .ARM.attributes
                0x0000000000000dc5       0x2c /usr/bin/../lib/gcc/arm-none-eabi/6.3.1/../../../../arm-none-eabi/lib/thumb/v6-m/libg_nano.a(lib_a-memcmp.o)
 .ARM.attributes
                0x0000000000000df1       0x2c /usr/bin/../lib/gcc/arm-none-eabi/6.3.1/../../../../arm-none-eabi/lib/thumb/v6-m/libg_nano.a(lib_a-memcpy-stub.o)
 .ARM.attributes
                0x0000000000000e1d       0x2c /usr/bin/../lib/gcc/arm-none-eabi/6.3.1/../../../../arm-none-eabi/lib/thumb/v6-m/libg_nano.a(lib_a-memset.o)
 .ARM.attributes
                0x0000000000000e49       0x2c /usr/bin/../lib/gcc/arm-none-eabi/6.3.1/../../../../arm-none-eabi/lib/thumb/v6-m/libg_nano.a(lib_a-nano-freer.o)
 .ARM.attributes
                0x0000000000000e75       0x2c /usr/bin/../lib/gcc/arm-none-eabi/6.3.1/../../../../arm-none-eabi/lib/thumb/v6-m/libg_nano.a(lib_a-nano-mallocr.o)
 .ARM.attributes
                0x0000000000000ea1       0x2c /usr/bin/../lib/gcc/arm-none-eabi/6.3.1/../../../../arm-none-eabi/lib/thumb/v6-m/libg_nano.a(lib_a-sbrkr.o)
 .ARM.attributes
                0x0000000000000ecd       0x2c /usr/bin/../lib/gcc/arm-none-eabi/6.3.1/../../../../arm-none-eabi/lib/thumb/v6-m/libg_nano.a(lib_a-strcpy.o)
 .ARM.attributes
                0x0000000000000ef9       0x1c /usr/bin/../lib/gcc/arm-none-eabi/6.3.1/../../../../arm-none-eabi/lib/thumb/v6-m/libg_nano.a(lib_a-strlen.o)
 .ARM.attributes
                0x0000000000000f15       0x2c /usr/bin/../lib/gcc/arm-none-eabi/6.3.1/../../../../arm-none-eabi/lib/thumb/v6-m/libg_nano.a(lib_a-strrchr.o)
 .ARM.attributes
                0x0000000000000f41       0x2c /usr/bin/../lib/gcc/arm-none-eabi/6.3.1/../../../../arm-none-eabi/lib/thumb/v6-m/libg_nano.a(lib_a-mlock.o)
 .ARM.attributes
                0x0000000000000f6d       0x2c /usr/bin/../lib/gcc/arm-none-eabi/6.3.1/../../../../arm-none-eabi/lib/thumb/v6-m/libg_nano.a(lib_a-reent.o)
 .ARM.attributes
                0x0000000000000f99       0x2c /usr/bin/../lib/gcc/arm-none-eabi/6.3.1/../../../../arm-none-eabi/lib/thumb/v6-m/libg_nano.a(lib_a-strchr.o)
 .ARM.attributes
                0x0000000000000fc5       0x2c /usr/bin/../lib/gcc/arm-none-eabi/6.3.1/thumb/v6-m/crtend.o
 .ARM.attributes
                0x0000000000000ff1       0x1e /usr/bin/../lib/gcc/arm-none-eabi/6.3.1/thumb/v6-m/crtn.o
 .ARM.attributes
                0x000000000000100f       0x2c /usr/bin/../lib/gcc/arm-none-eabi/6.3.1/../../../../arm-none-eabi/lib/thumb/v6-m/libnosys.a(sbrk.o)
 .ARM.attributes
                0x000000000000103b       0x2c /usr/bin/../lib/gcc/arm-none-eabi/6.3.1/../../../../arm-none-eabi/lib/thumb/v6-m/libnosys.a(_exit.o)

.comment        0x0000000000000000       0x7f
 .comment       0x0000000000000000       0x7f CMakeFiles/51_mijia_device.dir/src/main.c.obj
                                         0x80 (size before relaxing)
 .comment       0x000000000000007f       0x80 CMakeFiles/51_mijia_device.dir/__/__/mesh/src/prov/provisioning.c.obj
 .comment       0x000000000000007f       0x80 CMakeFiles/51_mijia_device.dir/__/__/mesh/src/prov/nrf_mesh_prov.c.obj
 .comment       0x000000000000007f       0x80 CMakeFiles/51_mijia_device.dir/__/__/mesh/src/prov/prov_bearer_adv.c.obj
 .comment       0x000000000000007f       0x80 CMakeFiles/51_mijia_device.dir/__/__/mesh/src/prov/prov_utils.c.obj
 .comment       0x000000000000007f       0x80 CMakeFiles/51_mijia_device.dir/__/__/mesh/src/prov/prov_beacon.c.obj
 .comment       0x000000000000007f       0x80 CMakeFiles/51_mijia_device.dir/__/__/mesh/src/access/access.c.obj
 .comment       0x000000000000007f       0x80 CMakeFiles/51_mijia_device.dir/__/__/mesh/src/access/access_publish.c.obj
 .comment       0x000000000000007f       0x80 CMakeFiles/51_mijia_device.dir/__/__/mesh/src/access/access_reliable.c.obj
 .comment       0x000000000000007f       0x80 CMakeFiles/51_mijia_device.dir/__/__/mesh/src/access/device_state_manager.c.obj
 .comment       0x000000000000007f       0x80 CMakeFiles/51_mijia_device.dir/__/__/mesh/src/access/nrf_mesh_node_config.c.obj
 .comment       0x000000000000007f       0x80 CMakeFiles/51_mijia_device.dir/__/__/mesh/models/config/src/config_server.c.obj
 .comment       0x000000000000007f       0x80 CMakeFiles/51_mijia_device.dir/__/__/mesh/models/config/src/packed_index_list.c.obj
 .comment       0x000000000000007f       0x80 CMakeFiles/51_mijia_device.dir/__/__/mesh/models/config/src/composition_data.c.obj
 .comment       0x000000000000007f       0x80 CMakeFiles/51_mijia_device.dir/__/nrf_mesh_sdk.c.obj
 .comment       0x000000000000007f       0x80 CMakeFiles/51_mijia_device.dir/__/hal/src/simple_hal.c.obj
 .comment       0x000000000000007f       0x80 CMakeFiles/51_mijia_device.dir/__/models/simple_on_off/src/simple_on_off_server.c.obj
 .comment       0x000000000000007f       0x80 CMakeFiles/51_mijia_device.dir/__/__/toolchain/system_nrf51.c.obj
 .comment       0x000000000000007f       0x80 ../../mesh/lib_51_MBTLE_PB_ADV_EE.a(prov_provisionee.c.obj)
 .comment       0x000000000000007f       0x80 ../../mesh/lib_51_MBTLE_CORE.a(nrf_mesh_weak.c.obj)
 .comment       0x000000000000007f       0x80 ../../mesh/lib_51_MBTLE_CORE.a(bearer_adv.c.obj)
 .comment       0x000000000000007f       0x80 ../../mesh/lib_51_MBTLE_CORE.a(fifo.c.obj)
 .comment       0x000000000000007f       0x80 ../../mesh/lib_51_MBTLE_CORE.a(packet_mgr.c.obj)
 .comment       0x000000000000007f       0x80 ../../mesh/lib_51_MBTLE_CORE.a(radio.c.obj)
 .comment       0x000000000000007f       0x80 ../../mesh/lib_51_MBTLE_CORE.a(timer.c.obj)
 .comment       0x000000000000007f       0x80 ../../mesh/lib_51_MBTLE_CORE.a(timer_scheduler.c.obj)
 .comment       0x000000000000007f       0x80 ../../mesh/lib_51_MBTLE_CORE.a(beacon.c.obj)
 .comment       0x000000000000007f       0x80 ../../mesh/lib_51_MBTLE_CORE.a(bearer.c.obj)
 .comment       0x000000000000007f       0x80 ../../mesh/lib_51_MBTLE_CORE.a(bearer_event.c.obj)
 .comment       0x000000000000007f       0x80 ../../mesh/lib_51_MBTLE_CORE.a(nrf_mesh_configure.c.obj)
 .comment       0x000000000000007f       0x80 ../../mesh/lib_51_MBTLE_CORE.a(enc.c.obj)
 .comment       0x000000000000007f       0x80 ../../mesh/lib_51_MBTLE_CORE.a(event.c.obj)
 .comment       0x000000000000007f       0x80 ../../mesh/lib_51_MBTLE_CORE.a(log.c.obj)
 .comment       0x000000000000007f       0x80 ../../mesh/lib_51_MBTLE_CORE.a(net_beacon.c.obj)
 .comment       0x000000000000007f       0x80 ../../mesh/lib_51_MBTLE_CORE.a(net_state.c.obj)
 .comment       0x000000000000007f       0x80 ../../mesh/lib_51_MBTLE_CORE.a(nrf_mesh.c.obj)
 .comment       0x000000000000007f       0x80 ../../mesh/lib_51_MBTLE_CORE.a(nrf_mesh_keygen.c.obj)
 .comment       0x000000000000007f       0x80 ../../mesh/lib_51_MBTLE_CORE.a(nrf_mesh_utils.c.obj)
 .comment       0x000000000000007f       0x80 ../../mesh/lib_51_MBTLE_CORE.a(nrf_mesh_opt.c.obj)
 .comment       0x000000000000007f       0x80 ../../mesh/lib_51_MBTLE_CORE.a(radio_config.c.obj)
 .comment       0x000000000000007f       0x80 ../../mesh/lib_51_MBTLE_CORE.a(rand.c.obj)
 .comment       0x000000000000007f       0x80 ../../mesh/lib_51_MBTLE_CORE.a(ticker.c.obj)
 .comment       0x000000000000007f       0x80 ../../mesh/lib_51_MBTLE_CORE.a(transport.c.obj)
 .comment       0x000000000000007f       0x80 ../../mesh/lib_51_MBTLE_CORE.a(internal_event.c.obj)
 .comment       0x000000000000007f       0x80 ../../mesh/lib_51_MBTLE_CORE.a(flash_manager.c.obj)
 .comment       0x000000000000007f       0x80 ../../mesh/lib_51_MBTLE_CORE.a(flash_manager_defrag.c.obj)
 .comment       0x000000000000007f       0x80 ../../mesh/lib_51_MBTLE_CORE.a(flash_manager_internal.c.obj)
 .comment       0x000000000000007f       0x80 ../../mesh/lib_51_MBTLE_CORE.a(aes.c.obj)
 .comment       0x000000000000007f       0x80 ../../mesh/lib_51_MBTLE_CORE.a(queue.c.obj)
 .comment       0x000000000000007f       0x80 ../../mesh/lib_51_MBTLE_CORE.a(timeslot.c.obj)
 .comment       0x000000000000007f       0x80 ../../mesh/lib_51_MBTLE_CORE.a(aes_cmac.c.obj)
 .comment       0x000000000000007f       0x80 ../../mesh/lib_51_MBTLE_CORE.a(ccm_soft.c.obj)
 .comment       0x000000000000007f       0x80 ../../mesh/lib_51_MBTLE_CORE.a(msg_cache.c.obj)
 .comment       0x000000000000007f       0x80 ../../mesh/lib_51_MBTLE_CORE.a(network.c.obj)
 .comment       0x000000000000007f       0x80 ../../mesh/lib_51_MBTLE_CORE.a(packet.c.obj)
 .comment       0x000000000000007f       0x80 ../../mesh/lib_51_MBTLE_CORE.a(packet_buffer.c.obj)
 .comment       0x000000000000007f       0x80 ../../mesh/lib_51_MBTLE_CORE.a(replay_cache.c.obj)
 .comment       0x000000000000007f       0x80 ../../mesh/lib_51_MBTLE_CORE.a(mesh_flash.c.obj)
 .comment       0x000000000000007f       0x80 ../../mesh/lib_51_MBTLE_CORE.a(nrf_flash.c.obj)
 .comment       0x000000000000007f       0x80 ../../mesh/lib_51_MBTLE_CORE.a(msqueue.c.obj)
 .comment       0x000000000000007f       0x80 ../../lib/micro-ecc/lib_51_UECC_LIB.a(uECC.c.obj)
 .comment       0x000000000000007f       0x80 ../../lib/rtt/lib_51_RTT_LIB.a(SEGGER_RTT.c.obj)
 .comment       0x000000000000007f       0x80 ../../lib/rtt/lib_51_RTT_LIB.a(SEGGER_RTT_printf.c.obj)

.debug_info     0x0000000000000000    0x6700b
 .debug_info    0x0000000000000000     0x1331 CMakeFiles/51_mijia_device.dir/src/main.c.obj
 .debug_info    0x0000000000001331     0x1fd9 CMakeFiles/51_mijia_device.dir/__/__/mesh/src/prov/provisioning.c.obj
 .debug_info    0x000000000000330a     0x19dc CMakeFiles/51_mijia_device.dir/__/__/mesh/src/prov/nrf_mesh_prov.c.obj
 .debug_info    0x0000000000004ce6     0x3782 CMakeFiles/51_mijia_device.dir/__/__/mesh/src/prov/prov_bearer_adv.c.obj
 .debug_info    0x0000000000008468     0x20a6 CMakeFiles/51_mijia_device.dir/__/__/mesh/src/prov/prov_utils.c.obj
 .debug_info    0x000000000000a50e     0x1a54 CMakeFiles/51_mijia_device.dir/__/__/mesh/src/prov/prov_beacon.c.obj
 .debug_info    0x000000000000bf62     0x4687 CMakeFiles/51_mijia_device.dir/__/__/mesh/src/access/access.c.obj
 .debug_info    0x00000000000105e9     0x1109 CMakeFiles/51_mijia_device.dir/__/__/mesh/src/access/access_publish.c.obj
 .debug_info    0x00000000000116f2     0x142c CMakeFiles/51_mijia_device.dir/__/__/mesh/src/access/access_reliable.c.obj
 .debug_info    0x0000000000012b1e     0x5b99 CMakeFiles/51_mijia_device.dir/__/__/mesh/src/access/device_state_manager.c.obj
 .debug_info    0x00000000000186b7     0x273c CMakeFiles/51_mijia_device.dir/__/__/mesh/src/access/nrf_mesh_node_config.c.obj
 .debug_info    0x000000000001adf3     0x57cc CMakeFiles/51_mijia_device.dir/__/__/mesh/models/config/src/config_server.c.obj
 .debug_info    0x00000000000205bf      0x147 CMakeFiles/51_mijia_device.dir/__/__/mesh/models/config/src/packed_index_list.c.obj
 .debug_info    0x0000000000020706      0xe0f CMakeFiles/51_mijia_device.dir/__/__/mesh/models/config/src/composition_data.c.obj
 .debug_info    0x0000000000021515     0x2e52 CMakeFiles/51_mijia_device.dir/__/nrf_mesh_sdk.c.obj
 .debug_info    0x0000000000024367      0x35f CMakeFiles/51_mijia_device.dir/__/hal/src/simple_hal.c.obj
 .debug_info    0x00000000000246c6      0x824 CMakeFiles/51_mijia_device.dir/__/models/simple_on_off/src/simple_on_off_server.c.obj
 .debug_info    0x0000000000024eea       0xc4 CMakeFiles/51_mijia_device.dir/__/__/toolchain/gcc/gcc_startup_nrf51.S.obj
 .debug_info    0x0000000000024fae      0x1ea CMakeFiles/51_mijia_device.dir/__/__/toolchain/system_nrf51.c.obj
 .debug_info    0x0000000000025198     0x336a ../../mesh/lib_51_MBTLE_PB_ADV_EE.a(prov_provisionee.c.obj)
 .debug_info    0x0000000000028502      0x924 ../../mesh/lib_51_MBTLE_CORE.a(nrf_mesh_weak.c.obj)
 .debug_info    0x0000000000028e26     0x357b ../../mesh/lib_51_MBTLE_CORE.a(bearer_adv.c.obj)
 .debug_info    0x000000000002c3a1      0xc67 ../../mesh/lib_51_MBTLE_CORE.a(fifo.c.obj)
 .debug_info    0x000000000002d008     0x1114 ../../mesh/lib_51_MBTLE_CORE.a(packet_mgr.c.obj)
 .debug_info    0x000000000002e11c     0x18f9 ../../mesh/lib_51_MBTLE_CORE.a(radio.c.obj)
 .debug_info    0x000000000002fa15      0xb88 ../../mesh/lib_51_MBTLE_CORE.a(timer.c.obj)
 .debug_info    0x000000000003059d     0x10d3 ../../mesh/lib_51_MBTLE_CORE.a(timer_scheduler.c.obj)
 .debug_info    0x0000000000031670     0x151f ../../mesh/lib_51_MBTLE_CORE.a(beacon.c.obj)
 .debug_info    0x0000000000032b8f     0x1efe ../../mesh/lib_51_MBTLE_CORE.a(bearer.c.obj)
 .debug_info    0x0000000000034a8d     0x1463 ../../mesh/lib_51_MBTLE_CORE.a(bearer_event.c.obj)
 .debug_info    0x0000000000035ef0      0xb9e ../../mesh/lib_51_MBTLE_CORE.a(nrf_mesh_configure.c.obj)
 .debug_info    0x0000000000036a8e     0x13ac ../../mesh/lib_51_MBTLE_CORE.a(enc.c.obj)
 .debug_info    0x0000000000037e3a     0x114c ../../mesh/lib_51_MBTLE_CORE.a(event.c.obj)
 .debug_info    0x0000000000038f86      0xe12 ../../mesh/lib_51_MBTLE_CORE.a(log.c.obj)
 .debug_info    0x0000000000039d98     0x1200 ../../mesh/lib_51_MBTLE_CORE.a(net_beacon.c.obj)
 .debug_info    0x000000000003af98     0x2593 ../../mesh/lib_51_MBTLE_CORE.a(net_state.c.obj)
 .debug_info    0x000000000003d52b     0x3b2c ../../mesh/lib_51_MBTLE_CORE.a(nrf_mesh.c.obj)
 .debug_info    0x0000000000041057      0xcfc ../../mesh/lib_51_MBTLE_CORE.a(nrf_mesh_keygen.c.obj)
 .debug_info    0x0000000000041d53      0xa5f ../../mesh/lib_51_MBTLE_CORE.a(nrf_mesh_utils.c.obj)
 .debug_info    0x00000000000427b2      0xbb4 ../../mesh/lib_51_MBTLE_CORE.a(nrf_mesh_opt.c.obj)
 .debug_info    0x0000000000043366      0x854 ../../mesh/lib_51_MBTLE_CORE.a(radio_config.c.obj)
 .debug_info    0x0000000000043bba      0x41e ../../mesh/lib_51_MBTLE_CORE.a(rand.c.obj)
 .debug_info    0x0000000000043fd8      0x204 ../../mesh/lib_51_MBTLE_CORE.a(ticker.c.obj)
 .debug_info    0x00000000000441dc     0x6fca ../../mesh/lib_51_MBTLE_CORE.a(transport.c.obj)
 .debug_info    0x000000000004b1a6      0xc25 ../../mesh/lib_51_MBTLE_CORE.a(internal_event.c.obj)
 .debug_info    0x000000000004bdcb     0x3933 ../../mesh/lib_51_MBTLE_CORE.a(flash_manager.c.obj)
 .debug_info    0x000000000004f6fe     0x24c3 ../../mesh/lib_51_MBTLE_CORE.a(flash_manager_defrag.c.obj)
 .debug_info    0x0000000000051bc1      0xb76 ../../mesh/lib_51_MBTLE_CORE.a(flash_manager_internal.c.obj)
 .debug_info    0x0000000000052737      0xd83 ../../mesh/lib_51_MBTLE_CORE.a(aes.c.obj)
 .debug_info    0x00000000000534ba      0xadb ../../mesh/lib_51_MBTLE_CORE.a(queue.c.obj)
 .debug_info    0x0000000000053f95     0x1ad9 ../../mesh/lib_51_MBTLE_CORE.a(timeslot.c.obj)
 .debug_info    0x0000000000055a6e      0xea0 ../../mesh/lib_51_MBTLE_CORE.a(aes_cmac.c.obj)
 .debug_info    0x000000000005690e     0x1140 ../../mesh/lib_51_MBTLE_CORE.a(ccm_soft.c.obj)
 .debug_info    0x0000000000057a4e      0xb4f ../../mesh/lib_51_MBTLE_CORE.a(msg_cache.c.obj)
 .debug_info    0x000000000005859d     0x23ba ../../mesh/lib_51_MBTLE_CORE.a(network.c.obj)
 .debug_info    0x000000000005a957      0xadf ../../mesh/lib_51_MBTLE_CORE.a(packet.c.obj)
 .debug_info    0x000000000005b436     0x18cd ../../mesh/lib_51_MBTLE_CORE.a(packet_buffer.c.obj)
 .debug_info    0x000000000005cd03      0xae9 ../../mesh/lib_51_MBTLE_CORE.a(replay_cache.c.obj)
 .debug_info    0x000000000005d7ec     0x14a4 ../../mesh/lib_51_MBTLE_CORE.a(mesh_flash.c.obj)
 .debug_info    0x000000000005ec90      0xad9 ../../mesh/lib_51_MBTLE_CORE.a(nrf_flash.c.obj)
 .debug_info    0x000000000005f769      0xcd9 ../../mesh/lib_51_MBTLE_CORE.a(msqueue.c.obj)
 .debug_info    0x0000000000060442     0x43c9 ../../lib/micro-ecc/lib_51_UECC_LIB.a(uECC.c.obj)
 .debug_info    0x000000000006480b     0x18a9 ../../lib/rtt/lib_51_RTT_LIB.a(SEGGER_RTT.c.obj)
 .debug_info    0x00000000000660b4      0xf57 ../../lib/rtt/lib_51_RTT_LIB.a(SEGGER_RTT_printf.c.obj)

.debug_abbrev   0x0000000000000000     0xccbd
 .debug_abbrev  0x0000000000000000      0x2b0 CMakeFiles/51_mijia_device.dir/src/main.c.obj
 .debug_abbrev  0x00000000000002b0      0x32e CMakeFiles/51_mijia_device.dir/__/__/mesh/src/prov/provisioning.c.obj
 .debug_abbrev  0x00000000000005de      0x2a9 CMakeFiles/51_mijia_device.dir/__/__/mesh/src/prov/nrf_mesh_prov.c.obj
 .debug_abbrev  0x0000000000000887      0x46c CMakeFiles/51_mijia_device.dir/__/__/mesh/src/prov/prov_bearer_adv.c.obj
 .debug_abbrev  0x0000000000000cf3      0x377 CMakeFiles/51_mijia_device.dir/__/__/mesh/src/prov/prov_utils.c.obj
 .debug_abbrev  0x000000000000106a      0x322 CMakeFiles/51_mijia_device.dir/__/__/mesh/src/prov/prov_beacon.c.obj
 .debug_abbrev  0x000000000000138c      0x680 CMakeFiles/51_mijia_device.dir/__/__/mesh/src/access/access.c.obj
 .debug_abbrev  0x0000000000001a0c      0x3b3 CMakeFiles/51_mijia_device.dir/__/__/mesh/src/access/access_publish.c.obj
 .debug_abbrev  0x0000000000001dbf      0x3ba CMakeFiles/51_mijia_device.dir/__/__/mesh/src/access/access_reliable.c.obj
 .debug_abbrev  0x0000000000002179      0x54c CMakeFiles/51_mijia_device.dir/__/__/mesh/src/access/device_state_manager.c.obj
 .debug_abbrev  0x00000000000026c5      0x4e7 CMakeFiles/51_mijia_device.dir/__/__/mesh/src/access/nrf_mesh_node_config.c.obj
 .debug_abbrev  0x0000000000002bac      0x4a9 CMakeFiles/51_mijia_device.dir/__/__/mesh/models/config/src/config_server.c.obj
 .debug_abbrev  0x0000000000003055       0xad CMakeFiles/51_mijia_device.dir/__/__/mesh/models/config/src/packed_index_list.c.obj
 .debug_abbrev  0x0000000000003102      0x26d CMakeFiles/51_mijia_device.dir/__/__/mesh/models/config/src/composition_data.c.obj
 .debug_abbrev  0x000000000000336f      0x482 CMakeFiles/51_mijia_device.dir/__/nrf_mesh_sdk.c.obj
 .debug_abbrev  0x00000000000037f1      0x1b4 CMakeFiles/51_mijia_device.dir/__/hal/src/simple_hal.c.obj
 .debug_abbrev  0x00000000000039a5      0x1f8 CMakeFiles/51_mijia_device.dir/__/models/simple_on_off/src/simple_on_off_server.c.obj
 .debug_abbrev  0x0000000000003b9d       0x14 CMakeFiles/51_mijia_device.dir/__/__/toolchain/gcc/gcc_startup_nrf51.S.obj
 .debug_abbrev  0x0000000000003bb1      0x109 CMakeFiles/51_mijia_device.dir/__/__/toolchain/system_nrf51.c.obj
 .debug_abbrev  0x0000000000003cba      0x429 ../../mesh/lib_51_MBTLE_PB_ADV_EE.a(prov_provisionee.c.obj)
 .debug_abbrev  0x00000000000040e3      0x1a7 ../../mesh/lib_51_MBTLE_CORE.a(nrf_mesh_weak.c.obj)
 .debug_abbrev  0x000000000000428a      0x48f ../../mesh/lib_51_MBTLE_CORE.a(bearer_adv.c.obj)
 .debug_abbrev  0x0000000000004719      0x28a ../../mesh/lib_51_MBTLE_CORE.a(fifo.c.obj)
 .debug_abbrev  0x00000000000049a3      0x3f9 ../../mesh/lib_51_MBTLE_CORE.a(packet_mgr.c.obj)
 .debug_abbrev  0x0000000000004d9c      0x3f4 ../../mesh/lib_51_MBTLE_CORE.a(radio.c.obj)
 .debug_abbrev  0x0000000000005190      0x2e7 ../../mesh/lib_51_MBTLE_CORE.a(timer.c.obj)
 .debug_abbrev  0x0000000000005477      0x3c4 ../../mesh/lib_51_MBTLE_CORE.a(timer_scheduler.c.obj)
 .debug_abbrev  0x000000000000583b      0x356 ../../mesh/lib_51_MBTLE_CORE.a(beacon.c.obj)
 .debug_abbrev  0x0000000000005b91      0x44f ../../mesh/lib_51_MBTLE_CORE.a(bearer.c.obj)
 .debug_abbrev  0x0000000000005fe0      0x46c ../../mesh/lib_51_MBTLE_CORE.a(bearer_event.c.obj)
 .debug_abbrev  0x000000000000644c      0x240 ../../mesh/lib_51_MBTLE_CORE.a(nrf_mesh_configure.c.obj)
 .debug_abbrev  0x000000000000668c      0x2c9 ../../mesh/lib_51_MBTLE_CORE.a(enc.c.obj)
 .debug_abbrev  0x0000000000006955      0x2ab ../../mesh/lib_51_MBTLE_CORE.a(event.c.obj)
 .debug_abbrev  0x0000000000006c00      0x24e ../../mesh/lib_51_MBTLE_CORE.a(log.c.obj)
 .debug_abbrev  0x0000000000006e4e      0x3bf ../../mesh/lib_51_MBTLE_CORE.a(net_beacon.c.obj)
 .debug_abbrev  0x000000000000720d      0x4d6 ../../mesh/lib_51_MBTLE_CORE.a(net_state.c.obj)
 .debug_abbrev  0x00000000000076e3      0x49d ../../mesh/lib_51_MBTLE_CORE.a(nrf_mesh.c.obj)
 .debug_abbrev  0x0000000000007b80      0x20d ../../mesh/lib_51_MBTLE_CORE.a(nrf_mesh_keygen.c.obj)
 .debug_abbrev  0x0000000000007d8d      0x24a ../../mesh/lib_51_MBTLE_CORE.a(nrf_mesh_utils.c.obj)
 .debug_abbrev  0x0000000000007fd7      0x239 ../../mesh/lib_51_MBTLE_CORE.a(nrf_mesh_opt.c.obj)
 .debug_abbrev  0x0000000000008210      0x1a8 ../../mesh/lib_51_MBTLE_CORE.a(radio_config.c.obj)
 .debug_abbrev  0x00000000000083b8      0x1af ../../mesh/lib_51_MBTLE_CORE.a(rand.c.obj)
 .debug_abbrev  0x0000000000008567      0x14d ../../mesh/lib_51_MBTLE_CORE.a(ticker.c.obj)
 .debug_abbrev  0x00000000000086b4      0x664 ../../mesh/lib_51_MBTLE_CORE.a(transport.c.obj)
 .debug_abbrev  0x0000000000008d18      0x25b ../../mesh/lib_51_MBTLE_CORE.a(internal_event.c.obj)
 .debug_abbrev  0x0000000000008f73      0x54b ../../mesh/lib_51_MBTLE_CORE.a(flash_manager.c.obj)
 .debug_abbrev  0x00000000000094be      0x4ce ../../mesh/lib_51_MBTLE_CORE.a(flash_manager_defrag.c.obj)
 .debug_abbrev  0x000000000000998c      0x28e ../../mesh/lib_51_MBTLE_CORE.a(flash_manager_internal.c.obj)
 .debug_abbrev  0x0000000000009c1a      0x2b9 ../../mesh/lib_51_MBTLE_CORE.a(aes.c.obj)
 .debug_abbrev  0x0000000000009ed3      0x222 ../../mesh/lib_51_MBTLE_CORE.a(queue.c.obj)
 .debug_abbrev  0x000000000000a0f5      0x47a ../../mesh/lib_51_MBTLE_CORE.a(timeslot.c.obj)
 .debug_abbrev  0x000000000000a56f      0x2cb ../../mesh/lib_51_MBTLE_CORE.a(aes_cmac.c.obj)
 .debug_abbrev  0x000000000000a83a      0x2ad ../../mesh/lib_51_MBTLE_CORE.a(ccm_soft.c.obj)
 .debug_abbrev  0x000000000000aae7      0x269 ../../mesh/lib_51_MBTLE_CORE.a(msg_cache.c.obj)
 .debug_abbrev  0x000000000000ad50      0x4d6 ../../mesh/lib_51_MBTLE_CORE.a(network.c.obj)
 .debug_abbrev  0x000000000000b226      0x242 ../../mesh/lib_51_MBTLE_CORE.a(packet.c.obj)
 .debug_abbrev  0x000000000000b468      0x3ef ../../mesh/lib_51_MBTLE_CORE.a(packet_buffer.c.obj)
 .debug_abbrev  0x000000000000b857      0x264 ../../mesh/lib_51_MBTLE_CORE.a(replay_cache.c.obj)
 .debug_abbrev  0x000000000000babb      0x383 ../../mesh/lib_51_MBTLE_CORE.a(mesh_flash.c.obj)
 .debug_abbrev  0x000000000000be3e      0x21c ../../mesh/lib_51_MBTLE_CORE.a(nrf_flash.c.obj)
 .debug_abbrev  0x000000000000c05a      0x2a3 ../../mesh/lib_51_MBTLE_CORE.a(msqueue.c.obj)
 .debug_abbrev  0x000000000000c2fd      0x382 ../../lib/micro-ecc/lib_51_UECC_LIB.a(uECC.c.obj)
 .debug_abbrev  0x000000000000c67f      0x35a ../../lib/rtt/lib_51_RTT_LIB.a(SEGGER_RTT.c.obj)
 .debug_abbrev  0x000000000000c9d9      0x2e4 ../../lib/rtt/lib_51_RTT_LIB.a(SEGGER_RTT_printf.c.obj)

.debug_loc      0x0000000000000000    0x25df1
 .debug_loc     0x0000000000000000      0x163 CMakeFiles/51_mijia_device.dir/src/main.c.obj
 .debug_loc     0x0000000000000163      0x885 CMakeFiles/51_mijia_device.dir/__/__/mesh/src/prov/provisioning.c.obj
 .debug_loc     0x00000000000009e8      0x8aa CMakeFiles/51_mijia_device.dir/__/__/mesh/src/prov/nrf_mesh_prov.c.obj
 .debug_loc     0x0000000000001292     0x1c21 CMakeFiles/51_mijia_device.dir/__/__/mesh/src/prov/prov_bearer_adv.c.obj
 .debug_loc     0x0000000000002eb3      0x59f CMakeFiles/51_mijia_device.dir/__/__/mesh/src/prov/prov_utils.c.obj
 .debug_loc     0x0000000000003452      0x1c9 CMakeFiles/51_mijia_device.dir/__/__/mesh/src/prov/prov_beacon.c.obj
 .debug_loc     0x000000000000361b     0x280b CMakeFiles/51_mijia_device.dir/__/__/mesh/src/access/access.c.obj
 .debug_loc     0x0000000000005e26      0x90e CMakeFiles/51_mijia_device.dir/__/__/mesh/src/access/access_publish.c.obj
 .debug_loc     0x0000000000006734      0x63f CMakeFiles/51_mijia_device.dir/__/__/mesh/src/access/access_reliable.c.obj
 .debug_loc     0x0000000000006d73     0x4805 CMakeFiles/51_mijia_device.dir/__/__/mesh/src/access/device_state_manager.c.obj
 .debug_loc     0x000000000000b578      0x42b CMakeFiles/51_mijia_device.dir/__/__/mesh/src/access/nrf_mesh_node_config.c.obj
 .debug_loc     0x000000000000b9a3     0x3851 CMakeFiles/51_mijia_device.dir/__/__/mesh/models/config/src/config_server.c.obj
 .debug_loc     0x000000000000f1f4       0x8b CMakeFiles/51_mijia_device.dir/__/__/mesh/models/config/src/packed_index_list.c.obj
 .debug_loc     0x000000000000f27f      0x386 CMakeFiles/51_mijia_device.dir/__/__/mesh/models/config/src/composition_data.c.obj
 .debug_loc     0x000000000000f605      0x35a CMakeFiles/51_mijia_device.dir/__/nrf_mesh_sdk.c.obj
 .debug_loc     0x000000000000f95f      0x123 CMakeFiles/51_mijia_device.dir/__/hal/src/simple_hal.c.obj
 .debug_loc     0x000000000000fa82      0x58b CMakeFiles/51_mijia_device.dir/__/models/simple_on_off/src/simple_on_off_server.c.obj
 .debug_loc     0x000000000001000d      0x804 ../../mesh/lib_51_MBTLE_PB_ADV_EE.a(prov_provisionee.c.obj)
 .debug_loc     0x0000000000010811     0x115c ../../mesh/lib_51_MBTLE_CORE.a(bearer_adv.c.obj)
 .debug_loc     0x000000000001196d      0x475 ../../mesh/lib_51_MBTLE_CORE.a(fifo.c.obj)
 .debug_loc     0x0000000000011de2      0x6f5 ../../mesh/lib_51_MBTLE_CORE.a(packet_mgr.c.obj)
 .debug_loc     0x00000000000124d7      0x375 ../../mesh/lib_51_MBTLE_CORE.a(radio.c.obj)
 .debug_loc     0x000000000001284c      0x6e5 ../../mesh/lib_51_MBTLE_CORE.a(timer.c.obj)
 .debug_loc     0x0000000000012f31      0x653 ../../mesh/lib_51_MBTLE_CORE.a(timer_scheduler.c.obj)
 .debug_loc     0x0000000000013584      0x585 ../../mesh/lib_51_MBTLE_CORE.a(beacon.c.obj)
 .debug_loc     0x0000000000013b09      0x94c ../../mesh/lib_51_MBTLE_CORE.a(bearer.c.obj)
 .debug_loc     0x0000000000014455      0x563 ../../mesh/lib_51_MBTLE_CORE.a(bearer_event.c.obj)
 .debug_loc     0x00000000000149b8       0x2c ../../mesh/lib_51_MBTLE_CORE.a(nrf_mesh_configure.c.obj)
 .debug_loc     0x00000000000149e4      0x86e ../../mesh/lib_51_MBTLE_CORE.a(enc.c.obj)
 .debug_loc     0x0000000000015252      0x328 ../../mesh/lib_51_MBTLE_CORE.a(event.c.obj)
 .debug_loc     0x000000000001557a      0x2f0 ../../mesh/lib_51_MBTLE_CORE.a(log.c.obj)
 .debug_loc     0x000000000001586a      0x480 ../../mesh/lib_51_MBTLE_CORE.a(net_beacon.c.obj)
 .debug_loc     0x0000000000015cea      0x782 ../../mesh/lib_51_MBTLE_CORE.a(net_state.c.obj)
 .debug_loc     0x000000000001646c      0x411 ../../mesh/lib_51_MBTLE_CORE.a(nrf_mesh.c.obj)
 .debug_loc     0x000000000001687d      0x2b6 ../../mesh/lib_51_MBTLE_CORE.a(nrf_mesh_keygen.c.obj)
 .debug_loc     0x0000000000016b33      0x1b8 ../../mesh/lib_51_MBTLE_CORE.a(nrf_mesh_utils.c.obj)
 .debug_loc     0x0000000000016ceb      0x214 ../../mesh/lib_51_MBTLE_CORE.a(nrf_mesh_opt.c.obj)
 .debug_loc     0x0000000000016eff      0x2d3 ../../mesh/lib_51_MBTLE_CORE.a(radio_config.c.obj)
 .debug_loc     0x00000000000171d2      0x184 ../../mesh/lib_51_MBTLE_CORE.a(rand.c.obj)
 .debug_loc     0x0000000000017356     0x29e4 ../../mesh/lib_51_MBTLE_CORE.a(transport.c.obj)
 .debug_loc     0x0000000000019d3a      0x135 ../../mesh/lib_51_MBTLE_CORE.a(internal_event.c.obj)
 .debug_loc     0x0000000000019e6f     0x2632 ../../mesh/lib_51_MBTLE_CORE.a(flash_manager.c.obj)
 .debug_loc     0x000000000001c4a1      0xb94 ../../mesh/lib_51_MBTLE_CORE.a(flash_manager_defrag.c.obj)
 .debug_loc     0x000000000001d035      0x149 ../../mesh/lib_51_MBTLE_CORE.a(flash_manager_internal.c.obj)
 .debug_loc     0x000000000001d17e       0xf8 ../../mesh/lib_51_MBTLE_CORE.a(aes.c.obj)
 .debug_loc     0x000000000001d276      0x251 ../../mesh/lib_51_MBTLE_CORE.a(queue.c.obj)
 .debug_loc     0x000000000001d4c7      0x323 ../../mesh/lib_51_MBTLE_CORE.a(timeslot.c.obj)
 .debug_loc     0x000000000001d7ea      0x4bc ../../mesh/lib_51_MBTLE_CORE.a(aes_cmac.c.obj)
 .debug_loc     0x000000000001dca6      0x991 ../../mesh/lib_51_MBTLE_CORE.a(ccm_soft.c.obj)
 .debug_loc     0x000000000001e637      0x13a ../../mesh/lib_51_MBTLE_CORE.a(msg_cache.c.obj)
 .debug_loc     0x000000000001e771      0xd8f ../../mesh/lib_51_MBTLE_CORE.a(network.c.obj)
 .debug_loc     0x000000000001f500       0xea ../../mesh/lib_51_MBTLE_CORE.a(packet.c.obj)
 .debug_loc     0x000000000001f5ea     0x11c8 ../../mesh/lib_51_MBTLE_CORE.a(packet_buffer.c.obj)
 .debug_loc     0x00000000000207b2      0x1ff ../../mesh/lib_51_MBTLE_CORE.a(replay_cache.c.obj)
 .debug_loc     0x00000000000209b1      0xaaf ../../mesh/lib_51_MBTLE_CORE.a(mesh_flash.c.obj)
 .debug_loc     0x0000000000021460      0x14a ../../mesh/lib_51_MBTLE_CORE.a(nrf_flash.c.obj)
 .debug_loc     0x00000000000215aa      0x4f0 ../../mesh/lib_51_MBTLE_CORE.a(msqueue.c.obj)
 .debug_loc     0x0000000000021a9a     0x24d1 ../../lib/micro-ecc/lib_51_UECC_LIB.a(uECC.c.obj)
 .debug_loc     0x0000000000023f6b     0x16f7 ../../lib/rtt/lib_51_RTT_LIB.a(SEGGER_RTT.c.obj)
 .debug_loc     0x0000000000025662      0x78f ../../lib/rtt/lib_51_RTT_LIB.a(SEGGER_RTT_printf.c.obj)

.debug_aranges  0x0000000000000000     0x2030
 .debug_aranges
                0x0000000000000000       0x40 CMakeFiles/51_mijia_device.dir/src/main.c.obj
 .debug_aranges
                0x0000000000000040       0xc8 CMakeFiles/51_mijia_device.dir/__/__/mesh/src/prov/provisioning.c.obj
 .debug_aranges
                0x0000000000000108       0x58 CMakeFiles/51_mijia_device.dir/__/__/mesh/src/prov/nrf_mesh_prov.c.obj
 .debug_aranges
                0x0000000000000160      0x118 CMakeFiles/51_mijia_device.dir/__/__/mesh/src/prov/prov_bearer_adv.c.obj
 .debug_aranges
                0x0000000000000278       0x80 CMakeFiles/51_mijia_device.dir/__/__/mesh/src/prov/prov_utils.c.obj
 .debug_aranges
                0x00000000000002f8       0x30 CMakeFiles/51_mijia_device.dir/__/__/mesh/src/prov/prov_beacon.c.obj
 .debug_aranges
                0x0000000000000328      0x1d0 CMakeFiles/51_mijia_device.dir/__/__/mesh/src/access/access.c.obj
 .debug_aranges
                0x00000000000004f8       0x60 CMakeFiles/51_mijia_device.dir/__/__/mesh/src/access/access_publish.c.obj
 .debug_aranges
                0x0000000000000558       0x80 CMakeFiles/51_mijia_device.dir/__/__/mesh/src/access/access_reliable.c.obj
 .debug_aranges
                0x00000000000005d8      0x308 CMakeFiles/51_mijia_device.dir/__/__/mesh/src/access/device_state_manager.c.obj
 .debug_aranges
                0x00000000000008e0       0x68 CMakeFiles/51_mijia_device.dir/__/__/mesh/src/access/nrf_mesh_node_config.c.obj
 .debug_aranges
                0x0000000000000948      0x198 CMakeFiles/51_mijia_device.dir/__/__/mesh/models/config/src/config_server.c.obj
 .debug_aranges
                0x0000000000000ae0       0x28 CMakeFiles/51_mijia_device.dir/__/__/mesh/models/config/src/packed_index_list.c.obj
 .debug_aranges
                0x0000000000000b08       0x30 CMakeFiles/51_mijia_device.dir/__/__/mesh/models/config/src/composition_data.c.obj
 .debug_aranges
                0x0000000000000b38       0x78 CMakeFiles/51_mijia_device.dir/__/nrf_mesh_sdk.c.obj
 .debug_aranges
                0x0000000000000bb0       0x48 CMakeFiles/51_mijia_device.dir/__/hal/src/simple_hal.c.obj
 .debug_aranges
                0x0000000000000bf8       0x48 CMakeFiles/51_mijia_device.dir/__/models/simple_on_off/src/simple_on_off_server.c.obj
 .debug_aranges
                0x0000000000000c40       0x20 CMakeFiles/51_mijia_device.dir/__/__/toolchain/gcc/gcc_startup_nrf51.S.obj
 .debug_aranges
                0x0000000000000c60       0x40 CMakeFiles/51_mijia_device.dir/__/__/toolchain/system_nrf51.c.obj
 .debug_aranges
                0x0000000000000ca0       0x88 ../../mesh/lib_51_MBTLE_PB_ADV_EE.a(prov_provisionee.c.obj)
 .debug_aranges
                0x0000000000000d28       0x28 ../../mesh/lib_51_MBTLE_CORE.a(nrf_mesh_weak.c.obj)
 .debug_aranges
                0x0000000000000d50      0x110 ../../mesh/lib_51_MBTLE_CORE.a(bearer_adv.c.obj)
 .debug_aranges
                0x0000000000000e60       0x60 ../../mesh/lib_51_MBTLE_CORE.a(fifo.c.obj)
 .debug_aranges
                0x0000000000000ec0       0x68 ../../mesh/lib_51_MBTLE_CORE.a(packet_mgr.c.obj)
 .debug_aranges
                0x0000000000000f28       0xa0 ../../mesh/lib_51_MBTLE_CORE.a(radio.c.obj)
 .debug_aranges
                0x0000000000000fc8       0x60 ../../mesh/lib_51_MBTLE_CORE.a(timer.c.obj)
 .debug_aranges
                0x0000000000001028       0x70 ../../mesh/lib_51_MBTLE_CORE.a(timer_scheduler.c.obj)
 .debug_aranges
                0x0000000000001098       0x38 ../../mesh/lib_51_MBTLE_CORE.a(beacon.c.obj)
 .debug_aranges
                0x00000000000010d0       0x90 ../../mesh/lib_51_MBTLE_CORE.a(bearer.c.obj)
 .debug_aranges
                0x0000000000001160       0x88 ../../mesh/lib_51_MBTLE_CORE.a(bearer_event.c.obj)
 .debug_aranges
                0x00000000000011e8       0x30 ../../mesh/lib_51_MBTLE_CORE.a(nrf_mesh_configure.c.obj)
 .debug_aranges
                0x0000000000001218       0x70 ../../mesh/lib_51_MBTLE_CORE.a(enc.c.obj)
 .debug_aranges
                0x0000000000001288       0x30 ../../mesh/lib_51_MBTLE_CORE.a(event.c.obj)
 .debug_aranges
                0x00000000000012b8       0x48 ../../mesh/lib_51_MBTLE_CORE.a(log.c.obj)
 .debug_aranges
                0x0000000000001300       0x50 ../../mesh/lib_51_MBTLE_CORE.a(net_beacon.c.obj)
 .debug_aranges
                0x0000000000001350       0xc0 ../../mesh/lib_51_MBTLE_CORE.a(net_state.c.obj)
 .debug_aranges
                0x0000000000001410       0x80 ../../mesh/lib_51_MBTLE_CORE.a(nrf_mesh.c.obj)
 .debug_aranges
                0x0000000000001490       0x40 ../../mesh/lib_51_MBTLE_CORE.a(nrf_mesh_keygen.c.obj)
 .debug_aranges
                0x00000000000014d0       0x30 ../../mesh/lib_51_MBTLE_CORE.a(nrf_mesh_utils.c.obj)
 .debug_aranges
                0x0000000000001500       0x28 ../../mesh/lib_51_MBTLE_CORE.a(nrf_mesh_opt.c.obj)
 .debug_aranges
                0x0000000000001528       0x40 ../../mesh/lib_51_MBTLE_CORE.a(radio_config.c.obj)
 .debug_aranges
                0x0000000000001568       0x40 ../../mesh/lib_51_MBTLE_CORE.a(rand.c.obj)
 .debug_aranges
                0x00000000000015a8       0x30 ../../mesh/lib_51_MBTLE_CORE.a(ticker.c.obj)
 .debug_aranges
                0x00000000000015d8      0x118 ../../mesh/lib_51_MBTLE_CORE.a(transport.c.obj)
 .debug_aranges
                0x00000000000016f0       0x30 ../../mesh/lib_51_MBTLE_CORE.a(internal_event.c.obj)
 .debug_aranges
                0x0000000000001720      0x130 ../../mesh/lib_51_MBTLE_CORE.a(flash_manager.c.obj)
 .debug_aranges
                0x0000000000001850       0xb8 ../../mesh/lib_51_MBTLE_CORE.a(flash_manager_defrag.c.obj)
 .debug_aranges
                0x0000000000001908       0x20 ../../mesh/lib_51_MBTLE_CORE.a(flash_manager_internal.c.obj)
 .debug_aranges
                0x0000000000001928       0x30 ../../mesh/lib_51_MBTLE_CORE.a(aes.c.obj)
 .debug_aranges
                0x0000000000001958       0x38 ../../mesh/lib_51_MBTLE_CORE.a(queue.c.obj)
 .debug_aranges
                0x0000000000001990       0xb0 ../../mesh/lib_51_MBTLE_CORE.a(timeslot.c.obj)
 .debug_aranges
                0x0000000000001a40       0x30 ../../mesh/lib_51_MBTLE_CORE.a(aes_cmac.c.obj)
 .debug_aranges
                0x0000000000001a70       0x40 ../../mesh/lib_51_MBTLE_CORE.a(ccm_soft.c.obj)
 .debug_aranges
                0x0000000000001ab0       0x38 ../../mesh/lib_51_MBTLE_CORE.a(msg_cache.c.obj)
 .debug_aranges
                0x0000000000001ae8       0x60 ../../mesh/lib_51_MBTLE_CORE.a(network.c.obj)
 .debug_aranges
                0x0000000000001b48       0x20 ../../mesh/lib_51_MBTLE_CORE.a(packet.c.obj)
 .debug_aranges
                0x0000000000001b68       0xb8 ../../mesh/lib_51_MBTLE_CORE.a(packet_buffer.c.obj)
 .debug_aranges
                0x0000000000001c20       0x48 ../../mesh/lib_51_MBTLE_CORE.a(replay_cache.c.obj)
 .debug_aranges
                0x0000000000001c68       0x78 ../../mesh/lib_51_MBTLE_CORE.a(mesh_flash.c.obj)
 .debug_aranges
                0x0000000000001ce0       0x28 ../../mesh/lib_51_MBTLE_CORE.a(nrf_flash.c.obj)
 .debug_aranges
                0x0000000000001d08       0x40 ../../mesh/lib_51_MBTLE_CORE.a(msqueue.c.obj)
 .debug_aranges
                0x0000000000001d48      0x1d0 ../../lib/micro-ecc/lib_51_UECC_LIB.a(uECC.c.obj)
 .debug_aranges
                0x0000000000001f18       0xd8 ../../lib/rtt/lib_51_RTT_LIB.a(SEGGER_RTT.c.obj)
 .debug_aranges
                0x0000000000001ff0       0x40 ../../lib/rtt/lib_51_RTT_LIB.a(SEGGER_RTT_printf.c.obj)

.debug_ranges   0x0000000000000000     0x4de8
 .debug_ranges  0x0000000000000000       0x78 CMakeFiles/51_mijia_device.dir/src/main.c.obj
 .debug_ranges  0x0000000000000078       0xb8 CMakeFiles/51_mijia_device.dir/__/__/mesh/src/prov/provisioning.c.obj
 .debug_ranges  0x0000000000000130       0x60 CMakeFiles/51_mijia_device.dir/__/__/mesh/src/prov/nrf_mesh_prov.c.obj
 .debug_ranges  0x0000000000000190      0x210 CMakeFiles/51_mijia_device.dir/__/__/mesh/src/prov/prov_bearer_adv.c.obj
 .debug_ranges  0x00000000000003a0       0x88 CMakeFiles/51_mijia_device.dir/__/__/mesh/src/prov/prov_utils.c.obj
 .debug_ranges  0x0000000000000428       0x50 CMakeFiles/51_mijia_device.dir/__/__/mesh/src/prov/prov_beacon.c.obj
 .debug_ranges  0x0000000000000478      0x748 CMakeFiles/51_mijia_device.dir/__/__/mesh/src/access/access.c.obj
 .debug_ranges  0x0000000000000bc0      0x200 CMakeFiles/51_mijia_device.dir/__/__/mesh/src/access/access_publish.c.obj
 .debug_ranges  0x0000000000000dc0      0x1c8 CMakeFiles/51_mijia_device.dir/__/__/mesh/src/access/access_reliable.c.obj
 .debug_ranges  0x0000000000000f88      0x7d0 CMakeFiles/51_mijia_device.dir/__/__/mesh/src/access/device_state_manager.c.obj
 .debug_ranges  0x0000000000001758      0x118 CMakeFiles/51_mijia_device.dir/__/__/mesh/src/access/nrf_mesh_node_config.c.obj
 .debug_ranges  0x0000000000001870      0x610 CMakeFiles/51_mijia_device.dir/__/__/mesh/models/config/src/config_server.c.obj
 .debug_ranges  0x0000000000001e80       0x18 CMakeFiles/51_mijia_device.dir/__/__/mesh/models/config/src/packed_index_list.c.obj
 .debug_ranges  0x0000000000001e98      0x118 CMakeFiles/51_mijia_device.dir/__/__/mesh/models/config/src/composition_data.c.obj
 .debug_ranges  0x0000000000001fb0       0xe0 CMakeFiles/51_mijia_device.dir/__/nrf_mesh_sdk.c.obj
 .debug_ranges  0x0000000000002090       0x38 CMakeFiles/51_mijia_device.dir/__/hal/src/simple_hal.c.obj
 .debug_ranges  0x00000000000020c8       0x38 CMakeFiles/51_mijia_device.dir/__/models/simple_on_off/src/simple_on_off_server.c.obj
 .debug_ranges  0x0000000000002100       0x30 CMakeFiles/51_mijia_device.dir/__/__/toolchain/system_nrf51.c.obj
 .debug_ranges  0x0000000000002130       0xa8 ../../mesh/lib_51_MBTLE_PB_ADV_EE.a(prov_provisionee.c.obj)
 .debug_ranges  0x00000000000021d8       0x18 ../../mesh/lib_51_MBTLE_CORE.a(nrf_mesh_weak.c.obj)
 .debug_ranges  0x00000000000021f0      0x1a8 ../../mesh/lib_51_MBTLE_CORE.a(bearer_adv.c.obj)
 .debug_ranges  0x0000000000002398       0x80 ../../mesh/lib_51_MBTLE_CORE.a(fifo.c.obj)
 .debug_ranges  0x0000000000002418       0xd0 ../../mesh/lib_51_MBTLE_CORE.a(packet_mgr.c.obj)
 .debug_ranges  0x00000000000024e8       0xf0 ../../mesh/lib_51_MBTLE_CORE.a(radio.c.obj)
 .debug_ranges  0x00000000000025d8       0xb0 ../../mesh/lib_51_MBTLE_CORE.a(timer.c.obj)
 .debug_ranges  0x0000000000002688      0x228 ../../mesh/lib_51_MBTLE_CORE.a(timer_scheduler.c.obj)
 .debug_ranges  0x00000000000028b0       0x58 ../../mesh/lib_51_MBTLE_CORE.a(beacon.c.obj)
 .debug_ranges  0x0000000000002908      0x160 ../../mesh/lib_51_MBTLE_CORE.a(bearer.c.obj)
 .debug_ranges  0x0000000000002a68       0xf0 ../../mesh/lib_51_MBTLE_CORE.a(bearer_event.c.obj)
 .debug_ranges  0x0000000000002b58       0x20 ../../mesh/lib_51_MBTLE_CORE.a(nrf_mesh_configure.c.obj)
 .debug_ranges  0x0000000000002b78       0x60 ../../mesh/lib_51_MBTLE_CORE.a(enc.c.obj)
 .debug_ranges  0x0000000000002bd8       0x90 ../../mesh/lib_51_MBTLE_CORE.a(event.c.obj)
 .debug_ranges  0x0000000000002c68       0x38 ../../mesh/lib_51_MBTLE_CORE.a(log.c.obj)
 .debug_ranges  0x0000000000002ca0       0x88 ../../mesh/lib_51_MBTLE_CORE.a(net_beacon.c.obj)
 .debug_ranges  0x0000000000002d28      0x1e0 ../../mesh/lib_51_MBTLE_CORE.a(net_state.c.obj)
 .debug_ranges  0x0000000000002f08       0xa0 ../../mesh/lib_51_MBTLE_CORE.a(nrf_mesh.c.obj)
 .debug_ranges  0x0000000000002fa8       0x30 ../../mesh/lib_51_MBTLE_CORE.a(nrf_mesh_keygen.c.obj)
 .debug_ranges  0x0000000000002fd8       0x20 ../../mesh/lib_51_MBTLE_CORE.a(nrf_mesh_utils.c.obj)
 .debug_ranges  0x0000000000002ff8       0x18 ../../mesh/lib_51_MBTLE_CORE.a(nrf_mesh_opt.c.obj)
 .debug_ranges  0x0000000000003010       0xf8 ../../mesh/lib_51_MBTLE_CORE.a(radio_config.c.obj)
 .debug_ranges  0x0000000000003108       0x30 ../../mesh/lib_51_MBTLE_CORE.a(rand.c.obj)
 .debug_ranges  0x0000000000003138       0x20 ../../mesh/lib_51_MBTLE_CORE.a(ticker.c.obj)
 .debug_ranges  0x0000000000003158      0x428 ../../mesh/lib_51_MBTLE_CORE.a(transport.c.obj)
 .debug_ranges  0x0000000000003580       0x20 ../../mesh/lib_51_MBTLE_CORE.a(internal_event.c.obj)
 .debug_ranges  0x00000000000035a0      0x8d8 ../../mesh/lib_51_MBTLE_CORE.a(flash_manager.c.obj)
 .debug_ranges  0x0000000000003e78      0x248 ../../mesh/lib_51_MBTLE_CORE.a(flash_manager_defrag.c.obj)
 .debug_ranges  0x00000000000040c0       0x40 ../../mesh/lib_51_MBTLE_CORE.a(flash_manager_internal.c.obj)
 .debug_ranges  0x0000000000004100       0x20 ../../mesh/lib_51_MBTLE_CORE.a(aes.c.obj)
 .debug_ranges  0x0000000000004120       0x28 ../../mesh/lib_51_MBTLE_CORE.a(queue.c.obj)
 .debug_ranges  0x0000000000004148       0xd0 ../../mesh/lib_51_MBTLE_CORE.a(timeslot.c.obj)
 .debug_ranges  0x0000000000004218       0x20 ../../mesh/lib_51_MBTLE_CORE.a(aes_cmac.c.obj)
 .debug_ranges  0x0000000000004238       0xa8 ../../mesh/lib_51_MBTLE_CORE.a(ccm_soft.c.obj)
 .debug_ranges  0x00000000000042e0       0x40 ../../mesh/lib_51_MBTLE_CORE.a(msg_cache.c.obj)
 .debug_ranges  0x0000000000004320      0x110 ../../mesh/lib_51_MBTLE_CORE.a(network.c.obj)
 .debug_ranges  0x0000000000004430       0x28 ../../mesh/lib_51_MBTLE_CORE.a(packet.c.obj)
 .debug_ranges  0x0000000000004458      0x1f8 ../../mesh/lib_51_MBTLE_CORE.a(packet_buffer.c.obj)
 .debug_ranges  0x0000000000004650       0x50 ../../mesh/lib_51_MBTLE_CORE.a(replay_cache.c.obj)
 .debug_ranges  0x00000000000046a0      0x298 ../../mesh/lib_51_MBTLE_CORE.a(mesh_flash.c.obj)
 .debug_ranges  0x0000000000004938       0x18 ../../mesh/lib_51_MBTLE_CORE.a(nrf_flash.c.obj)
 .debug_ranges  0x0000000000004950      0x110 ../../mesh/lib_51_MBTLE_CORE.a(msqueue.c.obj)
 .debug_ranges  0x0000000000004a60      0x208 ../../lib/micro-ecc/lib_51_UECC_LIB.a(uECC.c.obj)
 .debug_ranges  0x0000000000004c68      0x150 ../../lib/rtt/lib_51_RTT_LIB.a(SEGGER_RTT.c.obj)
 .debug_ranges  0x0000000000004db8       0x30 ../../lib/rtt/lib_51_RTT_LIB.a(SEGGER_RTT_printf.c.obj)

.debug_line     0x0000000000000000    0x166b9
 .debug_line    0x0000000000000000      0x584 CMakeFiles/51_mijia_device.dir/src/main.c.obj
 .debug_line    0x0000000000000584      0x5e8 CMakeFiles/51_mijia_device.dir/__/__/mesh/src/prov/provisioning.c.obj
 .debug_line    0x0000000000000b6c      0x4ad CMakeFiles/51_mijia_device.dir/__/__/mesh/src/prov/nrf_mesh_prov.c.obj
 .debug_line    0x0000000000001019      0xde3 CMakeFiles/51_mijia_device.dir/__/__/mesh/src/prov/prov_bearer_adv.c.obj
 .debug_line    0x0000000000001dfc      0x54c CMakeFiles/51_mijia_device.dir/__/__/mesh/src/prov/prov_utils.c.obj
 .debug_line    0x0000000000002348      0x3a4 CMakeFiles/51_mijia_device.dir/__/__/mesh/src/prov/prov_beacon.c.obj
 .debug_line    0x00000000000026ec     0x1098 CMakeFiles/51_mijia_device.dir/__/__/mesh/src/access/access.c.obj
 .debug_line    0x0000000000003784      0x4ed CMakeFiles/51_mijia_device.dir/__/__/mesh/src/access/access_publish.c.obj
 .debug_line    0x0000000000003c71      0x593 CMakeFiles/51_mijia_device.dir/__/__/mesh/src/access/access_reliable.c.obj
 .debug_line    0x0000000000004204     0x1659 CMakeFiles/51_mijia_device.dir/__/__/mesh/src/access/device_state_manager.c.obj
 .debug_line    0x000000000000585d      0x6a3 CMakeFiles/51_mijia_device.dir/__/__/mesh/src/access/nrf_mesh_node_config.c.obj
 .debug_line    0x0000000000005f00      0xf48 CMakeFiles/51_mijia_device.dir/__/__/mesh/models/config/src/config_server.c.obj
 .debug_line    0x0000000000006e48      0x111 CMakeFiles/51_mijia_device.dir/__/__/mesh/models/config/src/packed_index_list.c.obj
 .debug_line    0x0000000000006f59      0x3b0 CMakeFiles/51_mijia_device.dir/__/__/mesh/models/config/src/composition_data.c.obj
 .debug_line    0x0000000000007309      0x656 CMakeFiles/51_mijia_device.dir/__/nrf_mesh_sdk.c.obj
 .debug_line    0x000000000000795f      0x27e CMakeFiles/51_mijia_device.dir/__/hal/src/simple_hal.c.obj
 .debug_line    0x0000000000007bdd      0x343 CMakeFiles/51_mijia_device.dir/__/models/simple_on_off/src/simple_on_off_server.c.obj
 .debug_line    0x0000000000007f20       0xac CMakeFiles/51_mijia_device.dir/__/__/toolchain/gcc/gcc_startup_nrf51.S.obj
 .debug_line    0x0000000000007fcc      0x1e5 CMakeFiles/51_mijia_device.dir/__/__/toolchain/system_nrf51.c.obj
 .debug_line    0x00000000000081b1      0x6c6 ../../mesh/lib_51_MBTLE_PB_ADV_EE.a(prov_provisionee.c.obj)
 .debug_line    0x0000000000008877      0x231 ../../mesh/lib_51_MBTLE_CORE.a(nrf_mesh_weak.c.obj)
 .debug_line    0x0000000000008aa8      0x988 ../../mesh/lib_51_MBTLE_CORE.a(bearer_adv.c.obj)
 .debug_line    0x0000000000009430      0x400 ../../mesh/lib_51_MBTLE_CORE.a(fifo.c.obj)
 .debug_line    0x0000000000009830      0x528 ../../mesh/lib_51_MBTLE_CORE.a(packet_mgr.c.obj)
 .debug_line    0x0000000000009d58      0x566 ../../mesh/lib_51_MBTLE_CORE.a(radio.c.obj)
 .debug_line    0x000000000000a2be      0x496 ../../mesh/lib_51_MBTLE_CORE.a(timer.c.obj)
 .debug_line    0x000000000000a754      0x58d ../../mesh/lib_51_MBTLE_CORE.a(timer_scheduler.c.obj)
 .debug_line    0x000000000000ace1      0x4f0 ../../mesh/lib_51_MBTLE_CORE.a(beacon.c.obj)
 .debug_line    0x000000000000b1d1      0x631 ../../mesh/lib_51_MBTLE_CORE.a(bearer.c.obj)
 .debug_line    0x000000000000b802      0x562 ../../mesh/lib_51_MBTLE_CORE.a(bearer_event.c.obj)
 .debug_line    0x000000000000bd64      0x21c ../../mesh/lib_51_MBTLE_CORE.a(nrf_mesh_configure.c.obj)
 .debug_line    0x000000000000bf80      0x413 ../../mesh/lib_51_MBTLE_CORE.a(enc.c.obj)
 .debug_line    0x000000000000c393      0x31b ../../mesh/lib_51_MBTLE_CORE.a(event.c.obj)
 .debug_line    0x000000000000c6ae      0x28c ../../mesh/lib_51_MBTLE_CORE.a(log.c.obj)
 .debug_line    0x000000000000c93a      0x3b7 ../../mesh/lib_51_MBTLE_CORE.a(net_beacon.c.obj)
 .debug_line    0x000000000000ccf1      0x719 ../../mesh/lib_51_MBTLE_CORE.a(net_state.c.obj)
 .debug_line    0x000000000000d40a      0x77b ../../mesh/lib_51_MBTLE_CORE.a(nrf_mesh.c.obj)
 .debug_line    0x000000000000db85      0x2be ../../mesh/lib_51_MBTLE_CORE.a(nrf_mesh_keygen.c.obj)
 .debug_line    0x000000000000de43      0x274 ../../mesh/lib_51_MBTLE_CORE.a(nrf_mesh_utils.c.obj)
 .debug_line    0x000000000000e0b7      0x2db ../../mesh/lib_51_MBTLE_CORE.a(nrf_mesh_opt.c.obj)
 .debug_line    0x000000000000e392      0x359 ../../mesh/lib_51_MBTLE_CORE.a(radio_config.c.obj)
 .debug_line    0x000000000000e6eb      0x2af ../../mesh/lib_51_MBTLE_CORE.a(rand.c.obj)
 .debug_line    0x000000000000e99a      0x163 ../../mesh/lib_51_MBTLE_CORE.a(ticker.c.obj)
 .debug_line    0x000000000000eafd     0x19e4 ../../mesh/lib_51_MBTLE_CORE.a(transport.c.obj)
 .debug_line    0x00000000000104e1      0x2a6 ../../mesh/lib_51_MBTLE_CORE.a(internal_event.c.obj)
 .debug_line    0x0000000000010787      0xe3d ../../mesh/lib_51_MBTLE_CORE.a(flash_manager.c.obj)
 .debug_line    0x00000000000115c4      0x81d ../../mesh/lib_51_MBTLE_CORE.a(flash_manager_defrag.c.obj)
 .debug_line    0x0000000000011de1      0x2a0 ../../mesh/lib_51_MBTLE_CORE.a(flash_manager_internal.c.obj)
 .debug_line    0x0000000000012081      0x328 ../../mesh/lib_51_MBTLE_CORE.a(aes.c.obj)
 .debug_line    0x00000000000123a9      0x329 ../../mesh/lib_51_MBTLE_CORE.a(queue.c.obj)
 .debug_line    0x00000000000126d2      0x5ee ../../mesh/lib_51_MBTLE_CORE.a(timeslot.c.obj)
 .debug_line    0x0000000000012cc0      0x2be ../../mesh/lib_51_MBTLE_CORE.a(aes_cmac.c.obj)
 .debug_line    0x0000000000012f7e      0x35f ../../mesh/lib_51_MBTLE_CORE.a(ccm_soft.c.obj)
 .debug_line    0x00000000000132dd      0x2bd ../../mesh/lib_51_MBTLE_CORE.a(msg_cache.c.obj)
 .debug_line    0x000000000001359a      0x749 ../../mesh/lib_51_MBTLE_CORE.a(network.c.obj)
 .debug_line    0x0000000000013ce3      0x27d ../../mesh/lib_51_MBTLE_CORE.a(packet.c.obj)
 .debug_line    0x0000000000013f60      0x76d ../../mesh/lib_51_MBTLE_CORE.a(packet_buffer.c.obj)
 .debug_line    0x00000000000146cd      0x202 ../../mesh/lib_51_MBTLE_CORE.a(replay_cache.c.obj)
 .debug_line    0x00000000000148cf      0x604 ../../mesh/lib_51_MBTLE_CORE.a(mesh_flash.c.obj)
 .debug_line    0x0000000000014ed3      0x2d9 ../../mesh/lib_51_MBTLE_CORE.a(nrf_flash.c.obj)
 .debug_line    0x00000000000151ac      0x3ab ../../mesh/lib_51_MBTLE_CORE.a(msqueue.c.obj)
 .debug_line    0x0000000000015557      0x9df ../../lib/micro-ecc/lib_51_UECC_LIB.a(uECC.c.obj)
 .debug_line    0x0000000000015f36      0x4a0 ../../lib/rtt/lib_51_RTT_LIB.a(SEGGER_RTT.c.obj)
 .debug_line    0x00000000000163d6      0x2e3 ../../lib/rtt/lib_51_RTT_LIB.a(SEGGER_RTT_printf.c.obj)

.debug_str      0x0000000000000000    0x10a7e
 .debug_str     0x0000000000000000      0xa95 CMakeFiles/51_mijia_device.dir/src/main.c.obj
                                        0xbae (size before relaxing)
 .debug_str     0x0000000000000a95      0xd71 CMakeFiles/51_mijia_device.dir/__/__/mesh/src/prov/provisioning.c.obj
                                       0x16e0 (size before relaxing)
 .debug_str     0x0000000000001806      0x862 CMakeFiles/51_mijia_device.dir/__/__/mesh/src/prov/nrf_mesh_prov.c.obj
                                       0x1a33 (size before relaxing)
 .debug_str     0x0000000000002068      0x60b CMakeFiles/51_mijia_device.dir/__/__/mesh/src/prov/prov_bearer_adv.c.obj
                                       0x16dc (size before relaxing)
 .debug_str     0x0000000000002673      0x81f CMakeFiles/51_mijia_device.dir/__/__/mesh/src/prov/prov_utils.c.obj
                                       0x1f05 (size before relaxing)
 .debug_str     0x0000000000002e92      0xeee CMakeFiles/51_mijia_device.dir/__/__/mesh/src/prov/prov_beacon.c.obj
                                       0x1c3f (size before relaxing)
 .debug_str     0x0000000000003d80     0x13c6 CMakeFiles/51_mijia_device.dir/__/__/mesh/src/access/access.c.obj
                                       0x3153 (size before relaxing)
 .debug_str     0x0000000000005146      0x239 CMakeFiles/51_mijia_device.dir/__/__/mesh/src/access/access_publish.c.obj
                                        0xbdb (size before relaxing)
 .debug_str     0x000000000000537f      0x22b CMakeFiles/51_mijia_device.dir/__/__/mesh/src/access/access_reliable.c.obj
                                        0xc53 (size before relaxing)
 .debug_str     0x00000000000055aa     0x1102 CMakeFiles/51_mijia_device.dir/__/__/mesh/src/access/device_state_manager.c.obj
                                       0x337c (size before relaxing)
 .debug_str     0x00000000000066ac      0x561 CMakeFiles/51_mijia_device.dir/__/__/mesh/src/access/nrf_mesh_node_config.c.obj
                                       0x24f3 (size before relaxing)
 .debug_str     0x0000000000006c0d     0x1cdb CMakeFiles/51_mijia_device.dir/__/__/mesh/models/config/src/config_server.c.obj
                                       0x3076 (size before relaxing)
 .debug_str     0x00000000000088e8       0x9a CMakeFiles/51_mijia_device.dir/__/__/mesh/models/config/src/packed_index_list.c.obj
                                        0x27d (size before relaxing)
 .debug_str     0x0000000000008982      0x1a5 CMakeFiles/51_mijia_device.dir/__/__/mesh/models/config/src/composition_data.c.obj
                                        0x8ff (size before relaxing)
 .debug_str     0x0000000000008b27     0x12be CMakeFiles/51_mijia_device.dir/__/nrf_mesh_sdk.c.obj
                                       0x1f2d (size before relaxing)
 .debug_str     0x0000000000009de5       0xd6 CMakeFiles/51_mijia_device.dir/__/hal/src/simple_hal.c.obj
                                        0x316 (size before relaxing)
 .debug_str     0x0000000000009ebb      0x188 CMakeFiles/51_mijia_device.dir/__/models/simple_on_off/src/simple_on_off_server.c.obj
                                        0x6e0 (size before relaxing)
 .debug_str     0x000000000000a043      0x116 CMakeFiles/51_mijia_device.dir/__/__/toolchain/system_nrf51.c.obj
                                        0x2d6 (size before relaxing)
 .debug_str     0x000000000000a159      0x20c ../../mesh/lib_51_MBTLE_PB_ADV_EE.a(prov_provisionee.c.obj)
                                       0x2e7e (size before relaxing)
 .debug_str     0x000000000000a365       0x68 ../../mesh/lib_51_MBTLE_CORE.a(nrf_mesh_weak.c.obj)
                                        0x682 (size before relaxing)
 .debug_str     0x000000000000a3cd      0x75e ../../mesh/lib_51_MBTLE_CORE.a(bearer_adv.c.obj)
                                       0x2ba4 (size before relaxing)
 .debug_str     0x000000000000ab2b       0x7a ../../mesh/lib_51_MBTLE_CORE.a(fifo.c.obj)
                                        0x6ea (size before relaxing)
 .debug_str     0x000000000000aba5      0x279 ../../mesh/lib_51_MBTLE_CORE.a(packet_mgr.c.obj)
                                        0x9f7 (size before relaxing)
 .debug_str     0x000000000000ae1e      0x482 ../../mesh/lib_51_MBTLE_CORE.a(radio.c.obj)
                                       0x1078 (size before relaxing)
 .debug_str     0x000000000000b2a0      0x279 ../../mesh/lib_51_MBTLE_CORE.a(timer.c.obj)
                                        0x73d (size before relaxing)
 .debug_str     0x000000000000b519      0x175 ../../mesh/lib_51_MBTLE_CORE.a(timer_scheduler.c.obj)
                                        0x943 (size before relaxing)
 .debug_str     0x000000000000b68e       0xfe ../../mesh/lib_51_MBTLE_CORE.a(beacon.c.obj)
                                        0xd28 (size before relaxing)
 .debug_str     0x000000000000b78c      0x664 ../../mesh/lib_51_MBTLE_CORE.a(bearer.c.obj)
                                       0x14b1 (size before relaxing)
 .debug_str     0x000000000000bdf0      0x233 ../../mesh/lib_51_MBTLE_CORE.a(bearer_event.c.obj)
                                        0xbf6 (size before relaxing)
 .debug_str     0x000000000000c023       0xa1 ../../mesh/lib_51_MBTLE_CORE.a(nrf_mesh_configure.c.obj)
                                        0x749 (size before relaxing)
 .debug_str     0x000000000000c0c4      0x1e5 ../../mesh/lib_51_MBTLE_CORE.a(enc.c.obj)
                                        0x929 (size before relaxing)
 .debug_str     0x000000000000c2a9       0xef ../../mesh/lib_51_MBTLE_CORE.a(event.c.obj)
                                       0x1754 (size before relaxing)
 .debug_str     0x000000000000c398      0x1ae ../../mesh/lib_51_MBTLE_CORE.a(log.c.obj)
                                        0x805 (size before relaxing)
 .debug_str     0x000000000000c546      0x20e ../../mesh/lib_51_MBTLE_CORE.a(net_beacon.c.obj)
                                        0xc16 (size before relaxing)
 .debug_str     0x000000000000c754      0x329 ../../mesh/lib_51_MBTLE_CORE.a(net_state.c.obj)
                                       0x247d (size before relaxing)
 .debug_str     0x000000000000ca7d      0x357 ../../mesh/lib_51_MBTLE_CORE.a(nrf_mesh.c.obj)
                                       0x2f76 (size before relaxing)
 .debug_str     0x000000000000cdd4       0x83 ../../mesh/lib_51_MBTLE_CORE.a(nrf_mesh_keygen.c.obj)
                                        0x7fa (size before relaxing)
 .debug_str     0x000000000000ce57       0xa7 ../../mesh/lib_51_MBTLE_CORE.a(nrf_mesh_utils.c.obj)
                                        0x760 (size before relaxing)
 .debug_str     0x000000000000cefe       0x90 ../../mesh/lib_51_MBTLE_CORE.a(nrf_mesh_opt.c.obj)
                                        0xab4 (size before relaxing)
 .debug_str     0x000000000000cf8e       0xc0 ../../mesh/lib_51_MBTLE_CORE.a(radio_config.c.obj)
                                        0x712 (size before relaxing)
 .debug_str     0x000000000000d04e       0xab ../../mesh/lib_51_MBTLE_CORE.a(rand.c.obj)
                                        0x71f (size before relaxing)
 .debug_str     0x000000000000d0f9       0x68 ../../mesh/lib_51_MBTLE_CORE.a(ticker.c.obj)
                                        0x360 (size before relaxing)
 .debug_str     0x000000000000d161      0x9cd ../../mesh/lib_51_MBTLE_CORE.a(transport.c.obj)
                                       0x3297 (size before relaxing)
 .debug_str     0x000000000000db2e       0xec ../../mesh/lib_51_MBTLE_CORE.a(internal_event.c.obj)
                                        0xaad (size before relaxing)
 .debug_str     0x000000000000dc1a      0x8ef ../../mesh/lib_51_MBTLE_CORE.a(flash_manager.c.obj)
                                       0x19a6 (size before relaxing)
 .debug_str     0x000000000000e509      0x3d6 ../../mesh/lib_51_MBTLE_CORE.a(flash_manager_defrag.c.obj)
                                       0x1519 (size before relaxing)
 .debug_str     0x000000000000e8df       0x64 ../../mesh/lib_51_MBTLE_CORE.a(flash_manager_internal.c.obj)
                                        0x7f3 (size before relaxing)
 .debug_str     0x000000000000e943      0x16d ../../mesh/lib_51_MBTLE_CORE.a(aes.c.obj)
                                        0xb92 (size before relaxing)
 .debug_str     0x000000000000eab0       0x50 ../../mesh/lib_51_MBTLE_CORE.a(queue.c.obj)
                                        0x692 (size before relaxing)
 .debug_str     0x000000000000eb00      0x798 ../../mesh/lib_51_MBTLE_CORE.a(timeslot.c.obj)
                                       0x1799 (size before relaxing)
 .debug_str     0x000000000000f298       0xfc ../../mesh/lib_51_MBTLE_CORE.a(aes_cmac.c.obj)
                                        0x74a (size before relaxing)
 .debug_str     0x000000000000f394       0xb1 ../../mesh/lib_51_MBTLE_CORE.a(ccm_soft.c.obj)
                                        0x792 (size before relaxing)
 .debug_str     0x000000000000f445       0xbf ../../mesh/lib_51_MBTLE_CORE.a(msg_cache.c.obj)
                                        0x762 (size before relaxing)
 .debug_str     0x000000000000f504      0x262 ../../mesh/lib_51_MBTLE_CORE.a(network.c.obj)
                                       0x15df (size before relaxing)
 .debug_str     0x000000000000f766       0x46 ../../mesh/lib_51_MBTLE_CORE.a(packet.c.obj)
                                        0x744 (size before relaxing)
 .debug_str     0x000000000000f7ac      0x2ae ../../mesh/lib_51_MBTLE_CORE.a(packet_buffer.c.obj)
                                        0xbb8 (size before relaxing)
 .debug_str     0x000000000000fa5a       0xcb ../../mesh/lib_51_MBTLE_CORE.a(replay_cache.c.obj)
                                        0x6c4 (size before relaxing)
 .debug_str     0x000000000000fb25      0x345 ../../mesh/lib_51_MBTLE_CORE.a(mesh_flash.c.obj)
                                        0xc09 (size before relaxing)
 .debug_str     0x000000000000fe6a       0xa8 ../../mesh/lib_51_MBTLE_CORE.a(nrf_flash.c.obj)
                                        0x6b8 (size before relaxing)
 .debug_str     0x000000000000ff12       0x7f ../../mesh/lib_51_MBTLE_CORE.a(msqueue.c.obj)
                                        0x6ce (size before relaxing)
 .debug_str     0x000000000000ff91      0x6b2 ../../lib/micro-ecc/lib_51_UECC_LIB.a(uECC.c.obj)
                                        0x88f (size before relaxing)
 .debug_str     0x0000000000010643      0x2f8 ../../lib/rtt/lib_51_RTT_LIB.a(SEGGER_RTT.c.obj)
                                        0x931 (size before relaxing)
 .debug_str     0x000000000001093b      0x143 ../../lib/rtt/lib_51_RTT_LIB.a(SEGGER_RTT_printf.c.obj)
                                        0x7de (size before relaxing)

.debug_frame    0x0000000000000000     0x5da8
 .debug_frame   0x0000000000000000       0x8c CMakeFiles/51_mijia_device.dir/src/main.c.obj
 .debug_frame   0x000000000000008c      0x23c CMakeFiles/51_mijia_device.dir/__/__/mesh/src/prov/provisioning.c.obj
 .debug_frame   0x00000000000002c8       0xdc CMakeFiles/51_mijia_device.dir/__/__/mesh/src/prov/nrf_mesh_prov.c.obj
 .debug_frame   0x00000000000003a4      0x384 CMakeFiles/51_mijia_device.dir/__/__/mesh/src/prov/prov_bearer_adv.c.obj
 .debug_frame   0x0000000000000728      0x16c CMakeFiles/51_mijia_device.dir/__/__/mesh/src/prov/prov_utils.c.obj
 .debug_frame   0x0000000000000894       0x60 CMakeFiles/51_mijia_device.dir/__/__/mesh/src/prov/prov_beacon.c.obj
 .debug_frame   0x00000000000008f4      0x540 CMakeFiles/51_mijia_device.dir/__/__/mesh/src/access/access.c.obj
 .debug_frame   0x0000000000000e34       0xfc CMakeFiles/51_mijia_device.dir/__/__/mesh/src/access/access_publish.c.obj
 .debug_frame   0x0000000000000f30      0x170 CMakeFiles/51_mijia_device.dir/__/__/mesh/src/access/access_reliable.c.obj
 .debug_frame   0x00000000000010a0      0x9d0 CMakeFiles/51_mijia_device.dir/__/__/mesh/src/access/device_state_manager.c.obj
 .debug_frame   0x0000000000001a70      0x104 CMakeFiles/51_mijia_device.dir/__/__/mesh/src/access/nrf_mesh_node_config.c.obj
 .debug_frame   0x0000000000001b74      0x62c CMakeFiles/51_mijia_device.dir/__/__/mesh/models/config/src/config_server.c.obj
 .debug_frame   0x00000000000021a0       0x44 CMakeFiles/51_mijia_device.dir/__/__/mesh/models/config/src/packed_index_list.c.obj
 .debug_frame   0x00000000000021e4       0x88 CMakeFiles/51_mijia_device.dir/__/__/mesh/models/config/src/composition_data.c.obj
 .debug_frame   0x000000000000226c      0x120 CMakeFiles/51_mijia_device.dir/__/nrf_mesh_sdk.c.obj
 .debug_frame   0x000000000000238c       0x7c CMakeFiles/51_mijia_device.dir/__/hal/src/simple_hal.c.obj
 .debug_frame   0x0000000000002408       0xb0 CMakeFiles/51_mijia_device.dir/__/models/simple_on_off/src/simple_on_off_server.c.obj
 .debug_frame   0x00000000000024b8       0x68 CMakeFiles/51_mijia_device.dir/__/__/toolchain/system_nrf51.c.obj
 .debug_frame   0x0000000000002520      0x190 ../../mesh/lib_51_MBTLE_PB_ADV_EE.a(prov_provisionee.c.obj)
 .debug_frame   0x00000000000026b0       0x30 ../../mesh/lib_51_MBTLE_CORE.a(nrf_mesh_weak.c.obj)
 .debug_frame   0x00000000000026e0      0x33c ../../mesh/lib_51_MBTLE_CORE.a(bearer_adv.c.obj)
 .debug_frame   0x0000000000002a1c       0xd8 ../../mesh/lib_51_MBTLE_CORE.a(fifo.c.obj)
 .debug_frame   0x0000000000002af4       0xf8 ../../mesh/lib_51_MBTLE_CORE.a(packet_mgr.c.obj)
 .debug_frame   0x0000000000002bec      0x188 ../../mesh/lib_51_MBTLE_CORE.a(radio.c.obj)
 .debug_frame   0x0000000000002d74       0xf4 ../../mesh/lib_51_MBTLE_CORE.a(timer.c.obj)
 .debug_frame   0x0000000000002e68      0x12c ../../mesh/lib_51_MBTLE_CORE.a(timer_scheduler.c.obj)
 .debug_frame   0x0000000000002f94       0x94 ../../mesh/lib_51_MBTLE_CORE.a(beacon.c.obj)
 .debug_frame   0x0000000000003028      0x188 ../../mesh/lib_51_MBTLE_CORE.a(bearer.c.obj)
 .debug_frame   0x00000000000031b0      0x168 ../../mesh/lib_51_MBTLE_CORE.a(bearer_event.c.obj)
 .debug_frame   0x0000000000003318       0x50 ../../mesh/lib_51_MBTLE_CORE.a(nrf_mesh_configure.c.obj)
 .debug_frame   0x0000000000003368      0x150 ../../mesh/lib_51_MBTLE_CORE.a(enc.c.obj)
 .debug_frame   0x00000000000034b8       0x64 ../../mesh/lib_51_MBTLE_CORE.a(event.c.obj)
 .debug_frame   0x000000000000351c       0xa0 ../../mesh/lib_51_MBTLE_CORE.a(log.c.obj)
 .debug_frame   0x00000000000035bc       0xd0 ../../mesh/lib_51_MBTLE_CORE.a(net_beacon.c.obj)
 .debug_frame   0x000000000000368c      0x1ec ../../mesh/lib_51_MBTLE_CORE.a(net_state.c.obj)
 .debug_frame   0x0000000000003878      0x13c ../../mesh/lib_51_MBTLE_CORE.a(nrf_mesh.c.obj)
 .debug_frame   0x00000000000039b4       0xa0 ../../mesh/lib_51_MBTLE_CORE.a(nrf_mesh_keygen.c.obj)
 .debug_frame   0x0000000000003a54       0x50 ../../mesh/lib_51_MBTLE_CORE.a(nrf_mesh_utils.c.obj)
 .debug_frame   0x0000000000003aa4       0x40 ../../mesh/lib_51_MBTLE_CORE.a(nrf_mesh_opt.c.obj)
 .debug_frame   0x0000000000003ae4       0x84 ../../mesh/lib_51_MBTLE_CORE.a(radio_config.c.obj)
 .debug_frame   0x0000000000003b68       0x88 ../../mesh/lib_51_MBTLE_CORE.a(rand.c.obj)
 .debug_frame   0x0000000000003bf0       0x48 ../../mesh/lib_51_MBTLE_CORE.a(ticker.c.obj)
 .debug_frame   0x0000000000003c38      0x3c8 ../../mesh/lib_51_MBTLE_CORE.a(transport.c.obj)
 .debug_frame   0x0000000000004000       0x58 ../../mesh/lib_51_MBTLE_CORE.a(internal_event.c.obj)
 .debug_frame   0x0000000000004058      0x3d8 ../../mesh/lib_51_MBTLE_CORE.a(flash_manager.c.obj)
 .debug_frame   0x0000000000004430      0x1f8 ../../mesh/lib_51_MBTLE_CORE.a(flash_manager_defrag.c.obj)
 .debug_frame   0x0000000000004628       0x2c ../../mesh/lib_51_MBTLE_CORE.a(flash_manager_internal.c.obj)
 .debug_frame   0x0000000000004654       0x4c ../../mesh/lib_51_MBTLE_CORE.a(aes.c.obj)
 .debug_frame   0x00000000000046a0       0x74 ../../mesh/lib_51_MBTLE_CORE.a(queue.c.obj)
 .debug_frame   0x0000000000004714      0x190 ../../mesh/lib_51_MBTLE_CORE.a(timeslot.c.obj)
 .debug_frame   0x00000000000048a4       0x74 ../../mesh/lib_51_MBTLE_CORE.a(aes_cmac.c.obj)
 .debug_frame   0x0000000000004918       0xd0 ../../mesh/lib_51_MBTLE_CORE.a(ccm_soft.c.obj)
 .debug_frame   0x00000000000049e8       0x68 ../../mesh/lib_51_MBTLE_CORE.a(msg_cache.c.obj)
 .debug_frame   0x0000000000004a50      0x118 ../../mesh/lib_51_MBTLE_CORE.a(network.c.obj)
 .debug_frame   0x0000000000004b68       0x30 ../../mesh/lib_51_MBTLE_CORE.a(packet.c.obj)
 .debug_frame   0x0000000000004b98      0x208 ../../mesh/lib_51_MBTLE_CORE.a(packet_buffer.c.obj)
 .debug_frame   0x0000000000004da0       0xac ../../mesh/lib_51_MBTLE_CORE.a(replay_cache.c.obj)
 .debug_frame   0x0000000000004e4c      0x17c ../../mesh/lib_51_MBTLE_CORE.a(mesh_flash.c.obj)
 .debug_frame   0x0000000000004fc8       0x44 ../../mesh/lib_51_MBTLE_CORE.a(nrf_flash.c.obj)
 .debug_frame   0x000000000000500c       0x94 ../../mesh/lib_51_MBTLE_CORE.a(msqueue.c.obj)
 .debug_frame   0x00000000000050a0      0x648 ../../lib/micro-ecc/lib_51_UECC_LIB.a(uECC.c.obj)
 .debug_frame   0x00000000000056e8      0x2dc ../../lib/rtt/lib_51_RTT_LIB.a(SEGGER_RTT.c.obj)
 .debug_frame   0x00000000000059c4       0xc0 ../../lib/rtt/lib_51_RTT_LIB.a(SEGGER_RTT_printf.c.obj)
 .debug_frame   0x0000000000005a84       0x20 /usr/bin/../lib/gcc/arm-none-eabi/6.3.1/thumb/v6-m/libgcc.a(_udivsi3.o)
 .debug_frame   0x0000000000005aa4       0x20 /usr/bin/../lib/gcc/arm-none-eabi/6.3.1/thumb/v6-m/libgcc.a(_divsi3.o)
 .debug_frame   0x0000000000005ac4       0x34 /usr/bin/../lib/gcc/arm-none-eabi/6.3.1/thumb/v6-m/libgcc.a(_muldi3.o)
 .debug_frame   0x0000000000005af8       0x28 /usr/bin/../lib/gcc/arm-none-eabi/6.3.1/../../../../arm-none-eabi/lib/thumb/v6-m/libg_nano.a(lib_a-exit.o)
 .debug_frame   0x0000000000005b20       0x2c /usr/bin/../lib/gcc/arm-none-eabi/6.3.1/../../../../arm-none-eabi/lib/thumb/v6-m/libg_nano.a(lib_a-init.o)
 .debug_frame   0x0000000000005b4c       0x40 /usr/bin/../lib/gcc/arm-none-eabi/6.3.1/../../../../arm-none-eabi/lib/thumb/v6-m/libg_nano.a(lib_a-malloc.o)
 .debug_frame   0x0000000000005b8c       0x2c /usr/bin/../lib/gcc/arm-none-eabi/6.3.1/../../../../arm-none-eabi/lib/thumb/v6-m/libg_nano.a(lib_a-memcmp.o)
 .debug_frame   0x0000000000005bb8       0x28 /usr/bin/../lib/gcc/arm-none-eabi/6.3.1/../../../../arm-none-eabi/lib/thumb/v6-m/libg_nano.a(lib_a-memcpy-stub.o)
 .debug_frame   0x0000000000005be0       0x20 /usr/bin/../lib/gcc/arm-none-eabi/6.3.1/../../../../arm-none-eabi/lib/thumb/v6-m/libg_nano.a(lib_a-memset.o)
 .debug_frame   0x0000000000005c00       0x2c /usr/bin/../lib/gcc/arm-none-eabi/6.3.1/../../../../arm-none-eabi/lib/thumb/v6-m/libg_nano.a(lib_a-nano-freer.o)
 .debug_frame   0x0000000000005c2c       0x2c /usr/bin/../lib/gcc/arm-none-eabi/6.3.1/../../../../arm-none-eabi/lib/thumb/v6-m/libg_nano.a(lib_a-nano-mallocr.o)
 .debug_frame   0x0000000000005c58       0x2c /usr/bin/../lib/gcc/arm-none-eabi/6.3.1/../../../../arm-none-eabi/lib/thumb/v6-m/libg_nano.a(lib_a-sbrkr.o)
 .debug_frame   0x0000000000005c84       0x20 /usr/bin/../lib/gcc/arm-none-eabi/6.3.1/../../../../arm-none-eabi/lib/thumb/v6-m/libg_nano.a(lib_a-strcpy.o)
 .debug_frame   0x0000000000005ca4       0x2c /usr/bin/../lib/gcc/arm-none-eabi/6.3.1/../../../../arm-none-eabi/lib/thumb/v6-m/libg_nano.a(lib_a-strrchr.o)
 .debug_frame   0x0000000000005cd0       0x30 /usr/bin/../lib/gcc/arm-none-eabi/6.3.1/../../../../arm-none-eabi/lib/thumb/v6-m/libg_nano.a(lib_a-mlock.o)
 .debug_frame   0x0000000000005d00       0x48 /usr/bin/../lib/gcc/arm-none-eabi/6.3.1/../../../../arm-none-eabi/lib/thumb/v6-m/libg_nano.a(lib_a-reent.o)
 .debug_frame   0x0000000000005d48       0x20 /usr/bin/../lib/gcc/arm-none-eabi/6.3.1/../../../../arm-none-eabi/lib/thumb/v6-m/libg_nano.a(lib_a-strchr.o)
 .debug_frame   0x0000000000005d68       0x20 /usr/bin/../lib/gcc/arm-none-eabi/6.3.1/../../../../arm-none-eabi/lib/thumb/v6-m/libnosys.a(sbrk.o)
 .debug_frame   0x0000000000005d88       0x20 /usr/bin/../lib/gcc/arm-none-eabi/6.3.1/../../../../arm-none-eabi/lib/thumb/v6-m/libnosys.a(_exit.o)
